---
triple:          'arm64-apple-darwin'
binary-path:     '/Users/lalitsiraswa/Documents/Daily-Practice/GreedyAlgorithms'
relocations:
  - { offset: 0x28FC1, size: 0x8, addend: 0x0, symName: __ZStL8__ioinit, symObjAddr: 0xFB9C2, symBinAddr: 0x100024000, symSize: 0x0 }
  - { offset: 0x29F4F, size: 0x8, addend: 0x0, symName: __ZNSt10_Head_baseILm0EOiLb0EE7_M_headERS1_, symObjAddr: 0x10254, symBinAddr: 0x1000134C4, symSize: 0x18 }
  - { offset: 0x29F78, size: 0x8, addend: 0x0, symName: __ZNSt10_Head_baseILm0ERKiLb0EE7_M_headERS2_, symObjAddr: 0x1023C, symBinAddr: 0x1000134AC, symSize: 0x18 }
  - { offset: 0x29FA1, size: 0x8, addend: 0x0, symName: __ZNSt11_Tuple_implILm0EJOiEE7_M_headERS1_, symObjAddr: 0x10220, symBinAddr: 0x100013490, symSize: 0x1C }
  - { offset: 0x29FCB, size: 0x8, addend: 0x0, symName: __ZNSt11_Tuple_implILm0EJRKiEE7_M_headERS2_, symObjAddr: 0x10204, symBinAddr: 0x100013474, symSize: 0x1C }
  - { offset: 0x2A022, size: 0x8, addend: 0x0, symName: __ZNSt11__copy_moveILb1ELb0ESt26random_access_iterator_tagE12__assign_oneI7MeetingS3_EEvPT_PT0_, symObjAddr: 0x101C8, symBinAddr: 0x100013438, symSize: 0x3C }
  - { offset: 0x2A06F, size: 0x8, addend: 0x0, symName: __ZNSt11__copy_moveILb1ELb0ESt26random_access_iterator_tagE12__assign_oneI3JobS3_EEvPT_PT0_, symObjAddr: 0x1018C, symBinAddr: 0x1000133FC, symSize: 0x3C }
  - { offset: 0x2A0BC, size: 0x8, addend: 0x0, symName: __ZSt12__get_helperILm0EOiJEERT0_RSt11_Tuple_implIXT_EJS1_DpT1_EE, symObjAddr: 0x10170, symBinAddr: 0x1000133E0, symSize: 0x1C }
  - { offset: 0x2A0FE, size: 0x8, addend: 0x0, symName: __ZSt12__get_helperILm0ERKiJEERT0_RSt11_Tuple_implIXT_EJS2_DpT1_EE, symObjAddr: 0x10154, symBinAddr: 0x1000133C4, symSize: 0x1C }
  - { offset: 0x2A140, size: 0x8, addend: 0x0, symName: __ZNSt11__copy_moveILb1ELb0ESt26random_access_iterator_tagE12__assign_oneIiiEEvPT_PT0_, symObjAddr: 0x10124, symBinAddr: 0x100013394, symSize: 0x30 }
  - { offset: 0x2A18D, size: 0x8, addend: 0x0, symName: __ZNSt20__copy_move_backwardILb1ELb0ESt26random_access_iterator_tagE13__copy_move_bIPSt6vectorIiSaIiEES6_EET0_T_S8_S7_, symObjAddr: 0x1009C, symBinAddr: 0x10001330C, symSize: 0x88 }
  - { offset: 0x2A234, size: 0x8, addend: 0x0, symName: __ZN9__gnu_cxx5__ops14_Iter_comp_valIPFbRSt6vectorIiSaIiEES5_EEclINS_17__normal_iteratorIPS4_S2_IS4_SaIS4_EEEES4_EEbT_RT0_, symObjAddr: 0x10060, symBinAddr: 0x1000132D0, symSize: 0x3C }
  - { offset: 0x2A28C, size: 0x8, addend: 0x0, symName: __ZNSt20__copy_move_backwardILb1ELb1ESt26random_access_iterator_tagE13__copy_move_bI7MeetingS3_EEPT0_PT_S7_S5_, symObjAddr: 0xFF84, symBinAddr: 0x1000131F4, symSize: 0xDC }
  - { offset: 0x2A2FF, size: 0x8, addend: 0x0, symName: __ZN9__gnu_cxx5__ops14_Iter_comp_valIPFbR7MeetingS2_EEclINS_17__normal_iteratorIPS2_St6vectorIS2_SaIS2_EEEES2_EEbT_RT0_, symObjAddr: 0xFF34, symBinAddr: 0x1000131A4, symSize: 0x50 }
  - { offset: 0x2A383, size: 0x8, addend: 0x0, symName: __ZNSt20__copy_move_backwardILb1ELb1ESt26random_access_iterator_tagE13__copy_move_bI3JobS3_EEPT0_PT_S7_S5_, symObjAddr: 0xFE58, symBinAddr: 0x1000130C8, symSize: 0xDC }
  - { offset: 0x2A3F6, size: 0x8, addend: 0x0, symName: __ZN9__gnu_cxx5__ops14_Iter_comp_valIPFb3JobS2_EEclINS_17__normal_iteratorIPS2_St6vectorIS2_SaIS2_EEEES2_EEbT_RT0_, symObjAddr: 0xFE08, symBinAddr: 0x100013078, symSize: 0x50 }
  - { offset: 0x2A47A, size: 0x8, addend: 0x0, symName: __ZSt9__fill_a1IPiiEN9__gnu_cxx11__enable_ifIXsrSt11__is_scalarIT0_E7__valueEvE6__typeET_S8_RKS4_, symObjAddr: 0xFDB0, symBinAddr: 0x100013020, symSize: 0x58 }
  - { offset: 0x2A4F0, size: 0x8, addend: 0x0, symName: __ZSt7forwardIOiEOT_RNSt16remove_referenceIS1_E4typeE, symObjAddr: 0xFD9C, symBinAddr: 0x10001300C, symSize: 0x14 }
  - { offset: 0x2A522, size: 0x8, addend: 0x0, symName: __ZSt3getILm0EJOiEERNSt13tuple_elementIXT_ESt5tupleIJDpT0_EEE4typeERS5_, symObjAddr: 0xFD80, symBinAddr: 0x100012FF0, symSize: 0x1C }
  - { offset: 0x2A569, size: 0x8, addend: 0x0, symName: __ZNK9__gnu_cxx16__aligned_bufferISt4pairIKiiEE7_M_addrEv, symObjAddr: 0xFD6C, symBinAddr: 0x100012FDC, symSize: 0x14 }
  - { offset: 0x2A58F, size: 0x8, addend: 0x0, symName: __ZSt3getILm0EJRKiEERNSt13tuple_elementIXT_ESt5tupleIJDpT0_EEE4typeERS6_, symObjAddr: 0xFD50, symBinAddr: 0x100012FC0, symSize: 0x1C }
  - { offset: 0x2A5CE, size: 0x8, addend: 0x0, symName: __ZNSt20__copy_move_backwardILb1ELb0ESt26random_access_iterator_tagE13__copy_move_bIPSt4pairIiiES5_EET0_T_S7_S6_, symObjAddr: 0xFCD4, symBinAddr: 0x100012F44, symSize: 0x7C }
  - { offset: 0x2A641, size: 0x8, addend: 0x0, symName: __ZN9__gnu_cxx5__ops14_Iter_comp_valIPFbRSt4pairIiiES4_EEclINS_17__normal_iteratorIPS3_St6vectorIS3_SaIS3_EEEES3_EEbT_RT0_, symObjAddr: 0xFC98, symBinAddr: 0x100012F08, symSize: 0x3C }
  - { offset: 0x2A6C5, size: 0x8, addend: 0x0, symName: __ZNSt20__copy_move_backwardILb1ELb1ESt26random_access_iterator_tagE13__copy_move_bIiiEEPT0_PT_S6_S4_, symObjAddr: 0xFBEC, symBinAddr: 0x100012E5C, symSize: 0xAC }
  - { offset: 0x2A743, size: 0x8, addend: 0x0, symName: __ZNK9__gnu_cxx5__ops14_Iter_less_valclINS_17__normal_iteratorIPiSt6vectorIiSaIiEEEEiEEbT_RT0_, symObjAddr: 0xFBB0, symBinAddr: 0x100012E20, symSize: 0x3C }
  - { offset: 0x2A7A2, size: 0x8, addend: 0x0, symName: __ZSt4moveIRSaIiEEONSt16remove_referenceIT_E4typeEOS3_, symObjAddr: 0xFB9C, symBinAddr: 0x100012E0C, symSize: 0x14 }
  - { offset: 0x2A7D8, size: 0x8, addend: 0x0, symName: __ZNSt12_Vector_baseIiSaIiEE17_Vector_impl_data12_M_copy_dataERKS2_, symObjAddr: 0xFB54, symBinAddr: 0x100012DC4, symSize: 0x48 }
  - { offset: 0x2A80E, size: 0x8, addend: 0x0, symName: __ZSt12__niter_baseIPSt6vectorIiSaIiEEET_S4_, symObjAddr: 0xFB40, symBinAddr: 0x100012DB0, symSize: 0x14 }
  - { offset: 0x2A841, size: 0x8, addend: 0x0, symName: __ZSt23__copy_move_backward_a2ILb1EPSt6vectorIiSaIiEES3_ET1_T0_S5_S4_, symObjAddr: 0xFB14, symBinAddr: 0x100012D84, symSize: 0x2C }
  - { offset: 0x2A8AD, size: 0x8, addend: 0x0, symName: __ZNSt6vectorIiSaIiEE4swapERS1_, symObjAddr: 0xFA60, symBinAddr: 0x100012CD0, symSize: 0xB4 }
  - { offset: 0x2A98B, size: 0x8, addend: 0x0, symName: __ZSt11__push_heapIN9__gnu_cxx17__normal_iteratorIPSt6vectorIiSaIiEES2_IS4_SaIS4_EEEElS4_NS0_5__ops14_Iter_comp_valIPFbRS4_SB_EEEEvT_T0_SG_T1_RT2_, symObjAddr: 0xF938, symBinAddr: 0x100012BA8, symSize: 0x128 }
  - { offset: 0x2AA55, size: 0x8, addend: 0x0, symName: __ZN9__gnu_cxx5__ops14_Iter_comp_valIPFbRSt6vectorIiSaIiEES5_EEC1EONS0_15_Iter_comp_iterIS7_EE, symObjAddr: 0xF908, symBinAddr: 0x100012B78, symSize: 0x30 }
  - { offset: 0x2AA80, size: 0x8, addend: 0x0, symName: __ZSt23__copy_move_backward_a2ILb1EP7MeetingS1_ET1_T0_S3_S2_, symObjAddr: 0xF8DC, symBinAddr: 0x100012B4C, symSize: 0x2C }
  - { offset: 0x2AAEF, size: 0x8, addend: 0x0, symName: __ZSt11__push_heapIN9__gnu_cxx17__normal_iteratorIP7MeetingSt6vectorIS2_SaIS2_EEEElS2_NS0_5__ops14_Iter_comp_valIPFbRS2_S2_EEEEvT_T0_SF_T1_RT2_, symObjAddr: 0xF784, symBinAddr: 0x1000129F4, symSize: 0x158 }
  - { offset: 0x2ABB9, size: 0x8, addend: 0x0, symName: __ZN9__gnu_cxx5__ops14_Iter_comp_valIPFbR7MeetingS2_EEC1EONS0_15_Iter_comp_iterIS5_EE, symObjAddr: 0xF754, symBinAddr: 0x1000129C4, symSize: 0x30 }
  - { offset: 0x2AC27, size: 0x8, addend: 0x0, symName: __ZSt23__copy_move_backward_a2ILb1EP3JobS1_ET1_T0_S3_S2_, symObjAddr: 0xF728, symBinAddr: 0x100012998, symSize: 0x2C }
  - { offset: 0x2AC96, size: 0x8, addend: 0x0, symName: __ZSt11__push_heapIN9__gnu_cxx17__normal_iteratorIP3JobSt6vectorIS2_SaIS2_EEEElS2_NS0_5__ops14_Iter_comp_valIPFbS2_S2_EEEEvT_T0_SE_T1_RT2_, symObjAddr: 0xF5D0, symBinAddr: 0x100012840, symSize: 0x158 }
  - { offset: 0x2AD60, size: 0x8, addend: 0x0, symName: __ZN9__gnu_cxx5__ops14_Iter_comp_valIPFb3JobS2_EEC1EONS0_15_Iter_comp_iterIS4_EE, symObjAddr: 0xF5A0, symBinAddr: 0x100012810, symSize: 0x30 }
  - { offset: 0x2ADD5, size: 0x8, addend: 0x0, symName: __ZSt7forwardIRKSt6vectorIiSaIiEEEOT_RNSt16remove_referenceIS5_E4typeE, symObjAddr: 0xF58C, symBinAddr: 0x1000127FC, symSize: 0x14 }
  - { offset: 0x2AE07, size: 0x8, addend: 0x0, symName: __ZSt8__fill_aIPiiEvT_S1_RKT0_, symObjAddr: 0xF55C, symBinAddr: 0x1000127CC, symSize: 0x30 }
  - { offset: 0x2AED2, size: 0x8, addend: 0x0, symName: __ZNSt4pairIKiiEC1IJOiEJLm0EEJEJEEERSt5tupleIJDpT_EERS4_IJDpT1_EESt12_Index_tupleIJXspT0_EEESD_IJXspT2_EEE, symObjAddr: 0xF514, symBinAddr: 0x100012784, symSize: 0x48 }
  - { offset: 0x2AF45, size: 0x8, addend: 0x0, symName: __ZNK9__gnu_cxx16__aligned_bufferISt4pairIKiiEE6_M_ptrEv, symObjAddr: 0xF4F8, symBinAddr: 0x100012768, symSize: 0x1C }
  - { offset: 0x2AF6F, size: 0x8, addend: 0x0, symName: __ZNSt15__new_allocatorIPNSt8__detail15_Hash_node_baseEE8allocateEmPKv, symObjAddr: 0xF47C, symBinAddr: 0x1000126EC, symSize: 0x7C }
  - { offset: 0x2B064, size: 0x8, addend: 0x0, symName: __ZNSt4pairIKiiEC1IJRS0_EJLm0EEJEJEEERSt5tupleIJDpT_EERS4_IJDpT1_EESt12_Index_tupleIJXspT0_EEESD_IJXspT2_EEE, symObjAddr: 0xF434, symBinAddr: 0x1000126A4, symSize: 0x48 }
  - { offset: 0x2B0D7, size: 0x8, addend: 0x0, symName: __ZNKSt8__detail21_Hashtable_ebo_helperILi0ESt8equal_toIiELb1EE7_M_cgetEv, symObjAddr: 0xF420, symBinAddr: 0x100012690, symSize: 0x14 }
  - { offset: 0x2B0FD, size: 0x8, addend: 0x0, symName: __ZSt11__addressofINSt8__detail10_Hash_nodeISt4pairIKiiELb0EEEEPT_RS6_, symObjAddr: 0xF40C, symBinAddr: 0x10001267C, symSize: 0x14 }
  - { offset: 0x2B12F, size: 0x8, addend: 0x0, symName: __ZSt12__niter_baseIPKiET_S2_, symObjAddr: 0xF3F8, symBinAddr: 0x100012668, symSize: 0x14 }
  - { offset: 0x2B162, size: 0x8, addend: 0x0, symName: __ZSt23__copy_move_backward_a2ILb1EPSt4pairIiiES2_ET1_T0_S4_S3_, symObjAddr: 0xF3CC, symBinAddr: 0x10001263C, symSize: 0x2C }
  - { offset: 0x2B1CE, size: 0x8, addend: 0x0, symName: __ZNSt4pairIiiE4swapERS0_, symObjAddr: 0xF388, symBinAddr: 0x1000125F8, symSize: 0x44 }
  - { offset: 0x2B20C, size: 0x8, addend: 0x0, symName: __ZSt11__push_heapIN9__gnu_cxx17__normal_iteratorIPSt4pairIiiESt6vectorIS3_SaIS3_EEEElS3_NS0_5__ops14_Iter_comp_valIPFbRS3_SB_EEEEvT_T0_SG_T1_RT2_, symObjAddr: 0xF25C, symBinAddr: 0x1000124CC, symSize: 0x12C }
  - { offset: 0x2B2D5, size: 0x8, addend: 0x0, symName: __ZN9__gnu_cxx5__ops14_Iter_comp_valIPFbRSt4pairIiiES4_EEC1EONS0_15_Iter_comp_iterIS6_EE, symObjAddr: 0xF22C, symBinAddr: 0x10001249C, symSize: 0x30 }
  - { offset: 0x2B343, size: 0x8, addend: 0x0, symName: __ZSt23__copy_move_backward_a2ILb1EPiS0_ET1_T0_S2_S1_, symObjAddr: 0xF200, symBinAddr: 0x100012470, symSize: 0x2C }
  - { offset: 0x2B3B2, size: 0x8, addend: 0x0, symName: __ZSt11__push_heapIN9__gnu_cxx17__normal_iteratorIPiSt6vectorIiSaIiEEEEliNS0_5__ops14_Iter_less_valEEvT_T0_SA_T1_RT2_, symObjAddr: 0xF0DC, symBinAddr: 0x10001234C, symSize: 0x124 }
  - { offset: 0x2B45E, size: 0x8, addend: 0x0, symName: __ZSt4moveIRN9__gnu_cxx5__ops15_Iter_less_iterEEONSt16remove_referenceIT_E4typeEOS5_, symObjAddr: 0xF0C8, symBinAddr: 0x100012338, symSize: 0x14 }
  - { offset: 0x2B4C1, size: 0x8, addend: 0x0, symName: __ZNSt12_Vector_baseIiSaIiEE17_Vector_impl_data12_M_swap_dataERS2_, symObjAddr: 0xF07C, symBinAddr: 0x1000122EC, symSize: 0x4C }
  - { offset: 0x2B533, size: 0x8, addend: 0x0, symName: __ZNSt6vectorIiSaIiEEC1ERKS0_, symObjAddr: 0xF054, symBinAddr: 0x1000122C4, symSize: 0x28 }
  - { offset: 0x2B562, size: 0x8, addend: 0x0, symName: __ZNKSt12_Vector_baseIiSaIiEE13get_allocatorEv, symObjAddr: 0xF004, symBinAddr: 0x100012274, symSize: 0x50 }
  - { offset: 0x2B5E1, size: 0x8, addend: 0x0, symName: __ZSt12__niter_wrapIN9__gnu_cxx17__normal_iteratorIPSt6vectorIiSaIiEES2_IS4_SaIS4_EEEES5_ET_S9_T0_, symObjAddr: 0xEFB0, symBinAddr: 0x100012220, symSize: 0x54 }
  - { offset: 0x2B62E, size: 0x8, addend: 0x0, symName: __ZSt23__copy_move_backward_a1ILb1EPSt6vectorIiSaIiEES3_ET1_T0_S5_S4_, symObjAddr: 0xEF84, symBinAddr: 0x1000121F4, symSize: 0x2C }
  - { offset: 0x2B696, size: 0x8, addend: 0x0, symName: __ZSt12__niter_baseIPSt6vectorIiSaIiEES0_IS2_SaIS2_EEET_N9__gnu_cxx17__normal_iteratorIS6_T0_EE, symObjAddr: 0xEF64, symBinAddr: 0x1000121D4, symSize: 0x20 }
  - { offset: 0x2B6D2, size: 0x8, addend: 0x0, symName: __ZSt4swapIiSaIiEEvRSt6vectorIT_T0_ES5_, symObjAddr: 0xEF3C, symBinAddr: 0x1000121AC, symSize: 0x28 }
  - { offset: 0x2B71F, size: 0x8, addend: 0x0, symName: __ZSt13__adjust_heapIN9__gnu_cxx17__normal_iteratorIPSt6vectorIiSaIiEES2_IS4_SaIS4_EEEElS4_NS0_5__ops15_Iter_comp_iterIPFbRS4_SB_EEEEvT_T0_SG_T1_T2_, symObjAddr: 0xED38, symBinAddr: 0x100011FA8, symSize: 0x204 }
  - { offset: 0x2B7E3, size: 0x8, addend: 0x0, symName: __ZSt12__niter_wrapIN9__gnu_cxx17__normal_iteratorIP7MeetingSt6vectorIS2_SaIS2_EEEES3_ET_S8_T0_, symObjAddr: 0xECE4, symBinAddr: 0x100011F54, symSize: 0x54 }
  - { offset: 0x2B830, size: 0x8, addend: 0x0, symName: __ZSt23__copy_move_backward_a1ILb1EP7MeetingS1_ET1_T0_S3_S2_, symObjAddr: 0xECB8, symBinAddr: 0x100011F28, symSize: 0x2C }
  - { offset: 0x2B898, size: 0x8, addend: 0x0, symName: __ZSt12__niter_baseIP7MeetingSt6vectorIS0_SaIS0_EEET_N9__gnu_cxx17__normal_iteratorIS5_T0_EE, symObjAddr: 0xEC98, symBinAddr: 0x100011F08, symSize: 0x20 }
  - { offset: 0x2B8D4, size: 0x8, addend: 0x0, symName: __ZSt4swapI7MeetingENSt9enable_ifIXsrSt6__and_IJSt6__not_ISt15__is_tuple_likeIT_EESt21is_move_constructibleIS5_ESt18is_move_assignableIS5_EEE5valueEvE4typeERS5_SF_, symObjAddr: 0xEC1C, symBinAddr: 0x100011E8C, symSize: 0x7C }
  - { offset: 0x2B926, size: 0x8, addend: 0x0, symName: __ZSt13__adjust_heapIN9__gnu_cxx17__normal_iteratorIP7MeetingSt6vectorIS2_SaIS2_EEEElS2_NS0_5__ops15_Iter_comp_iterIPFbRS2_S2_EEEEvT_T0_SF_T1_T2_, symObjAddr: 0xEA0C, symBinAddr: 0x100011C7C, symSize: 0x210 }
  - { offset: 0x2B9E8, size: 0x8, addend: 0x0, symName: __ZSt19__relocate_object_aI7MeetingS0_SaIS0_EEvPT_PT0_RT1_, symObjAddr: 0xE938, symBinAddr: 0x100011BA8, symSize: 0xD4 }
  - { offset: 0x2BB1A, size: 0x8, addend: 0x0, symName: __ZSt11__addressofI7MeetingEPT_RS1_, symObjAddr: 0xE924, symBinAddr: 0x100011B94, symSize: 0x14 }
  - { offset: 0x2BB62, size: 0x8, addend: 0x0, symName: __ZSt12__niter_wrapIN9__gnu_cxx17__normal_iteratorIP3JobSt6vectorIS2_SaIS2_EEEES3_ET_S8_T0_, symObjAddr: 0xE8D0, symBinAddr: 0x100011B40, symSize: 0x54 }
  - { offset: 0x2BBAF, size: 0x8, addend: 0x0, symName: __ZSt23__copy_move_backward_a1ILb1EP3JobS1_ET1_T0_S3_S2_, symObjAddr: 0xE8A4, symBinAddr: 0x100011B14, symSize: 0x2C }
  - { offset: 0x2BC17, size: 0x8, addend: 0x0, symName: __ZSt12__niter_baseIP3JobSt6vectorIS0_SaIS0_EEET_N9__gnu_cxx17__normal_iteratorIS5_T0_EE, symObjAddr: 0xE884, symBinAddr: 0x100011AF4, symSize: 0x20 }
  - { offset: 0x2BC53, size: 0x8, addend: 0x0, symName: __ZSt4swapI3JobENSt9enable_ifIXsrSt6__and_IJSt6__not_ISt15__is_tuple_likeIT_EESt21is_move_constructibleIS5_ESt18is_move_assignableIS5_EEE5valueEvE4typeERS5_SF_, symObjAddr: 0xE808, symBinAddr: 0x100011A78, symSize: 0x7C }
  - { offset: 0x2BCA5, size: 0x8, addend: 0x0, symName: __ZSt13__adjust_heapIN9__gnu_cxx17__normal_iteratorIP3JobSt6vectorIS2_SaIS2_EEEElS2_NS0_5__ops15_Iter_comp_iterIPFbS2_S2_EEEEvT_T0_SE_T1_T2_, symObjAddr: 0xE5F8, symBinAddr: 0x100011868, symSize: 0x210 }
  - { offset: 0x2BD67, size: 0x8, addend: 0x0, symName: __ZSt19__relocate_object_aI3JobS0_SaIS0_EEvPT_PT0_RT1_, symObjAddr: 0xE524, symBinAddr: 0x100011794, symSize: 0xD4 }
  - { offset: 0x2BE99, size: 0x8, addend: 0x0, symName: __ZSt11__addressofI3JobEPT_RS1_, symObjAddr: 0xE510, symBinAddr: 0x100011780, symSize: 0x14 }
  - { offset: 0x2BEE1, size: 0x8, addend: 0x0, symName: __ZNSt11__copy_moveILb0ELb0ESt26random_access_iterator_tagE12__assign_oneIiiEEvPT_PT0_, symObjAddr: 0xE4E8, symBinAddr: 0x100011758, symSize: 0x28 }
  - { offset: 0x2BF2E, size: 0x8, addend: 0x0, symName: __ZNSt11__copy_moveILb0ELb0ESt26random_access_iterator_tagE12__assign_oneIiKiEEvPT_PT0_, symObjAddr: 0xE4C0, symBinAddr: 0x100011730, symSize: 0x28 }
  - { offset: 0x2BF7B, size: 0x8, addend: 0x0, symName: __ZSt10_ConstructISt6vectorIiSaIiEEJRKS2_EEvPT_DpOT0_, symObjAddr: 0xE444, symBinAddr: 0x1000116B4, symSize: 0x7C }
  - { offset: 0x2BFC7, size: 0x8, addend: 0x0, symName: __ZSt10__fill_n_aIPimiET_S1_T0_RKT1_St26random_access_iterator_tag, symObjAddr: 0xE3E0, symBinAddr: 0x100011650, symSize: 0x64 }
  - { offset: 0x2C09C, size: 0x8, addend: 0x0, symName: __ZNSt4pairIKiiEC1IJOiEJEEESt21piecewise_construct_tSt5tupleIJDpT_EES5_IJDpT0_EE, symObjAddr: 0xE3A4, symBinAddr: 0x100011614, symSize: 0x3C }
  - { offset: 0x2C116, size: 0x8, addend: 0x0, symName: __ZNSt11_Tuple_implILm0EJOiEEC2EOS1_, symObjAddr: 0xE37C, symBinAddr: 0x1000115EC, symSize: 0x28 }
  - { offset: 0x2C148, size: 0x8, addend: 0x0, symName: __ZSt7forwardIRKSt4pairIKiiEEOT_RNSt16remove_referenceIS5_E4typeE, symObjAddr: 0xE368, symBinAddr: 0x1000115D8, symSize: 0x14 }
  - { offset: 0x2C190, size: 0x8, addend: 0x0, symName: __ZSt12__to_addressIPNSt8__detail15_Hash_node_baseEEPT_S4_, symObjAddr: 0xE354, symBinAddr: 0x1000115C4, symSize: 0x14 }
  - { offset: 0x2C235, size: 0x8, addend: 0x0, symName: __ZNSt4pairIKiiEC1IJRS0_EJEEESt21piecewise_construct_tSt5tupleIJDpT_EES5_IJDpT0_EE, symObjAddr: 0xE318, symBinAddr: 0x100011588, symSize: 0x3C }
  - { offset: 0x2C2AF, size: 0x8, addend: 0x0, symName: __ZNSt11_Tuple_implILm0EJRKiEEC2EOS2_, symObjAddr: 0xE2F0, symBinAddr: 0x100011560, symSize: 0x28 }
  - { offset: 0x2C2DE, size: 0x8, addend: 0x0, symName: __ZNKSt8equal_toIiEclERKiS2_, symObjAddr: 0xE2BC, symBinAddr: 0x10001152C, symSize: 0x34 }
  - { offset: 0x2C32A, size: 0x8, addend: 0x0, symName: __ZNKSt8__detail15_Hashtable_baseIiSt4pairIKiiENS_10_Select1stESt8equal_toIiESt4hashIiENS_18_Mod_range_hashingENS_20_Default_ranged_hashENS_17_Hashtable_traitsILb0ELb0ELb1EEEE5_M_eqEv, symObjAddr: 0xE2A0, symBinAddr: 0x100011510, symSize: 0x1C }
  - { offset: 0x2C350, size: 0x8, addend: 0x0, symName: __ZSt11__addressofIPNSt8__detail15_Hash_node_baseEEPT_RS3_, symObjAddr: 0xE28C, symBinAddr: 0x1000114FC, symSize: 0x14 }
  - { offset: 0x2C382, size: 0x8, addend: 0x0, symName: __ZSt9addressofINSt8__detail10_Hash_nodeISt4pairIKiiELb0EEEEPT_RS6_, symObjAddr: 0xE270, symBinAddr: 0x1000114E0, symSize: 0x1C }
  - { offset: 0x2C3B4, size: 0x8, addend: 0x0, symName: __ZSt13__copy_move_aILb0EPKiPiET1_T0_S4_S3_, symObjAddr: 0xE210, symBinAddr: 0x100011480, symSize: 0x60 }
  - { offset: 0x2C41C, size: 0x8, addend: 0x0, symName: __ZSt12__miter_baseIPKiET_S2_, symObjAddr: 0xE1FC, symBinAddr: 0x10001146C, symSize: 0x14 }
  - { offset: 0x2C44F, size: 0x8, addend: 0x0, symName: __ZSt12__niter_wrapIN9__gnu_cxx17__normal_iteratorIPSt4pairIiiESt6vectorIS3_SaIS3_EEEES4_ET_S9_T0_, symObjAddr: 0xE1B4, symBinAddr: 0x100011424, symSize: 0x48 }
  - { offset: 0x2C49C, size: 0x8, addend: 0x0, symName: __ZSt23__copy_move_backward_a1ILb1EPSt4pairIiiES2_ET1_T0_S4_S3_, symObjAddr: 0xE188, symBinAddr: 0x1000113F8, symSize: 0x2C }
  - { offset: 0x2C504, size: 0x8, addend: 0x0, symName: __ZSt12__niter_baseIPSt4pairIiiESt6vectorIS1_SaIS1_EEET_N9__gnu_cxx17__normal_iteratorIS6_T0_EE, symObjAddr: 0xE168, symBinAddr: 0x1000113D8, symSize: 0x20 }
  - { offset: 0x2C540, size: 0x8, addend: 0x0, symName: __ZSt4swapIiiENSt9enable_ifIXsrSt6__and_IJSt14__is_swappableIT_ES2_IT0_EEE5valueEvE4typeERSt4pairIS3_S5_ESC_, symObjAddr: 0xE140, symBinAddr: 0x1000113B0, symSize: 0x28 }
  - { offset: 0x2C58D, size: 0x8, addend: 0x0, symName: __ZSt13__adjust_heapIN9__gnu_cxx17__normal_iteratorIPSt4pairIiiESt6vectorIS3_SaIS3_EEEElS3_NS0_5__ops15_Iter_comp_iterIPFbRS3_SB_EEEEvT_T0_SG_T1_T2_, symObjAddr: 0xDF68, symBinAddr: 0x1000111D8, symSize: 0x1D8 }
  - { offset: 0x2C64F, size: 0x8, addend: 0x0, symName: __ZSt19__relocate_object_aISt4pairIiiES1_SaIS1_EEvPT_PT0_RT1_, symObjAddr: 0xDEA4, symBinAddr: 0x100011114, symSize: 0xC4 }
  - { offset: 0x2C781, size: 0x8, addend: 0x0, symName: __ZSt11__addressofISt4pairIiiEEPT_RS2_, symObjAddr: 0xDE90, symBinAddr: 0x100011100, symSize: 0x14 }
  - { offset: 0x2C7C9, size: 0x8, addend: 0x0, symName: __ZSt23__copy_move_backward_a1ILb1EPiS0_ET1_T0_S2_S1_, symObjAddr: 0xDE64, symBinAddr: 0x1000110D4, symSize: 0x2C }
  - { offset: 0x2C831, size: 0x8, addend: 0x0, symName: __ZSt4swapIiENSt9enable_ifIXsrSt6__and_IJSt6__not_ISt15__is_tuple_likeIT_EESt21is_move_constructibleIS4_ESt18is_move_assignableIS4_EEE5valueEvE4typeERS4_SE_, symObjAddr: 0xDE10, symBinAddr: 0x100011080, symSize: 0x54 }
  - { offset: 0x2C883, size: 0x8, addend: 0x0, symName: __ZSt13__adjust_heapIN9__gnu_cxx17__normal_iteratorIPiSt6vectorIiSaIiEEEEliNS0_5__ops15_Iter_less_iterEEvT_T0_SA_T1_T2_, symObjAddr: 0xDC3C, symBinAddr: 0x100010EAC, symSize: 0x1D4 }
  - { offset: 0x2C945, size: 0x8, addend: 0x0, symName: __ZSt16__do_uninit_copyIPKSt6vectorIiSaIiEEPS2_ET0_T_S7_S6_, symObjAddr: 0xDBA8, symBinAddr: 0x100010E18, symSize: 0x94 }
  - { offset: 0x2C9B0, size: 0x8, addend: 0x0, symName: __ZSt13__copy_move_aILb0EN9__gnu_cxx17__normal_iteratorIPKiSt6vectorIiSaIiEEEEPiET1_T0_SA_S9_, symObjAddr: 0xDB48, symBinAddr: 0x100010DB8, symSize: 0x60 }
  - { offset: 0x2CA1C, size: 0x8, addend: 0x0, symName: __ZN9__gnu_cxx5__ops14_Val_comp_iterIPFbRSt6vectorIiSaIiEES5_EEclIS4_NS_17__normal_iteratorIPS4_S2_IS4_SaIS4_EEEEEEbRT_T0_, symObjAddr: 0xDB08, symBinAddr: 0x100010D78, symSize: 0x40 }
  - { offset: 0x2CA9F, size: 0x8, addend: 0x0, symName: __ZN9__gnu_cxx5__ops14_Val_comp_iterIPFbRSt6vectorIiSaIiEES5_EEC1EONS0_15_Iter_comp_iterIS7_EE, symObjAddr: 0xDAD8, symBinAddr: 0x100010D48, symSize: 0x30 }
  - { offset: 0x2CAD8, size: 0x8, addend: 0x0, symName: __ZSt4moveIRN9__gnu_cxx5__ops15_Iter_comp_iterIPFbRSt6vectorIiSaIiEES6_EEEEONSt16remove_referenceIT_E4typeEOSC_, symObjAddr: 0xDAC4, symBinAddr: 0x100010D34, symSize: 0x14 }
  - { offset: 0x2CB0E, size: 0x8, addend: 0x0, symName: __ZNSt6vectorIiSaIiEE14_M_move_assignEOS1_St17integral_constantIbLb1EE, symObjAddr: 0xDA30, symBinAddr: 0x100010CA0, symSize: 0x94 }
  - { offset: 0x2CBAE, size: 0x8, addend: 0x0, symName: __ZSt22__copy_move_backward_aILb1EN9__gnu_cxx17__normal_iteratorIPSt6vectorIiSaIiEES2_IS4_SaIS4_EEEES8_ET1_T0_SA_S9_, symObjAddr: 0xD9D0, symBinAddr: 0x100010C40, symSize: 0x60 }
  - { offset: 0x2CC16, size: 0x8, addend: 0x0, symName: __ZSt12__miter_baseIN9__gnu_cxx17__normal_iteratorIPSt6vectorIiSaIiEES2_IS4_SaIS4_EEEEET_S9_, symObjAddr: 0xD9BC, symBinAddr: 0x100010C2C, symSize: 0x14 }
  - { offset: 0x2CC49, size: 0x8, addend: 0x0, symName: __ZSt9iter_swapIN9__gnu_cxx17__normal_iteratorIPSt6vectorIiSaIiEES2_IS4_SaIS4_EEEES8_EvT_T0_, symObjAddr: 0xD978, symBinAddr: 0x100010BE8, symSize: 0x44 }
  - { offset: 0x2CC98, size: 0x8, addend: 0x0, symName: __ZN9__gnu_cxx17__normal_iteratorIPSt6vectorIiSaIiEES1_IS3_SaIS3_EEEmmEv, symObjAddr: 0xD950, symBinAddr: 0x100010BC0, symSize: 0x28 }
  - { offset: 0x2CCBE, size: 0x8, addend: 0x0, symName: __ZSt10__pop_heapIN9__gnu_cxx17__normal_iteratorIPSt6vectorIiSaIiEES2_IS4_SaIS4_EEEENS0_5__ops15_Iter_comp_iterIPFbRS4_SB_EEEEvT_SF_SF_RT0_, symObjAddr: 0xD87C, symBinAddr: 0x100010AEC, symSize: 0xD4 }
  - { offset: 0x2CD5D, size: 0x8, addend: 0x0, symName: __ZN9__gnu_cxxltIPSt6vectorIiSaIiEES1_IS3_SaIS3_EEEEbRKNS_17__normal_iteratorIT_T0_EESC_, symObjAddr: 0xD838, symBinAddr: 0x100010AA8, symSize: 0x44 }
  - { offset: 0x2CDAA, size: 0x8, addend: 0x0, symName: __ZSt11__make_heapIN9__gnu_cxx17__normal_iteratorIPSt6vectorIiSaIiEES2_IS4_SaIS4_EEEENS0_5__ops15_Iter_comp_iterIPFbRS4_SB_EEEEvT_SF_RT0_, symObjAddr: 0xD704, symBinAddr: 0x100010974, symSize: 0x134 }
  - { offset: 0x2CE69, size: 0x8, addend: 0x0, symName: __ZN9__gnu_cxx5__ops14_Val_comp_iterIPFbR7MeetingS2_EEclIS2_NS_17__normal_iteratorIPS2_St6vectorIS2_SaIS2_EEEEEEbRT_T0_, symObjAddr: 0xD6BC, symBinAddr: 0x10001092C, symSize: 0x48 }
  - { offset: 0x2CEEC, size: 0x8, addend: 0x0, symName: __ZN9__gnu_cxx5__ops14_Val_comp_iterIPFbR7MeetingS2_EEC1EONS0_15_Iter_comp_iterIS5_EE, symObjAddr: 0xD68C, symBinAddr: 0x1000108FC, symSize: 0x30 }
  - { offset: 0x2CF25, size: 0x8, addend: 0x0, symName: __ZSt4moveIRN9__gnu_cxx5__ops15_Iter_comp_iterIPFbR7MeetingS3_EEEEONSt16remove_referenceIT_E4typeEOSA_, symObjAddr: 0xD678, symBinAddr: 0x1000108E8, symSize: 0x14 }
  - { offset: 0x2CF57, size: 0x8, addend: 0x0, symName: __ZSt22__copy_move_backward_aILb1EN9__gnu_cxx17__normal_iteratorIP7MeetingSt6vectorIS2_SaIS2_EEEES7_ET1_T0_S9_S8_, symObjAddr: 0xD618, symBinAddr: 0x100010888, symSize: 0x60 }
  - { offset: 0x2CFBF, size: 0x8, addend: 0x0, symName: __ZSt12__miter_baseIN9__gnu_cxx17__normal_iteratorIP7MeetingSt6vectorIS2_SaIS2_EEEEET_S8_, symObjAddr: 0xD604, symBinAddr: 0x100010874, symSize: 0x14 }
  - { offset: 0x2CFF2, size: 0x8, addend: 0x0, symName: __ZSt9iter_swapIN9__gnu_cxx17__normal_iteratorIP7MeetingSt6vectorIS2_SaIS2_EEEES7_EvT_T0_, symObjAddr: 0xD5C0, symBinAddr: 0x100010830, symSize: 0x44 }
  - { offset: 0x2D041, size: 0x8, addend: 0x0, symName: __ZN9__gnu_cxx17__normal_iteratorIP7MeetingSt6vectorIS1_SaIS1_EEEmmEv, symObjAddr: 0xD598, symBinAddr: 0x100010808, symSize: 0x28 }
  - { offset: 0x2D067, size: 0x8, addend: 0x0, symName: __ZSt10__pop_heapIN9__gnu_cxx17__normal_iteratorIP7MeetingSt6vectorIS2_SaIS2_EEEENS0_5__ops15_Iter_comp_iterIPFbRS2_S2_EEEEvT_SE_SE_RT0_, symObjAddr: 0xD4DC, symBinAddr: 0x10001074C, symSize: 0xBC }
  - { offset: 0x2D104, size: 0x8, addend: 0x0, symName: __ZN9__gnu_cxxltIP7MeetingSt6vectorIS1_SaIS1_EEEEbRKNS_17__normal_iteratorIT_T0_EESB_, symObjAddr: 0xD498, symBinAddr: 0x100010708, symSize: 0x44 }
  - { offset: 0x2D151, size: 0x8, addend: 0x0, symName: __ZSt11__make_heapIN9__gnu_cxx17__normal_iteratorIP7MeetingSt6vectorIS2_SaIS2_EEEENS0_5__ops15_Iter_comp_iterIPFbRS2_S2_EEEEvT_SE_RT0_, symObjAddr: 0xD3A4, symBinAddr: 0x100010614, symSize: 0xF4 }
  - { offset: 0x2D209, size: 0x8, addend: 0x0, symName: __ZSt14__relocate_a_1IP7MeetingS1_SaIS0_EET0_T_S4_S3_RT1_, symObjAddr: 0xD320, symBinAddr: 0x100010590, symSize: 0x84 }
  - { offset: 0x2D292, size: 0x8, addend: 0x0, symName: __ZSt12__niter_baseIP7MeetingET_S2_, symObjAddr: 0xD30C, symBinAddr: 0x10001057C, symSize: 0x14 }
  - { offset: 0x2D2C9, size: 0x8, addend: 0x0, symName: __ZNSt15__new_allocatorI7MeetingE8allocateEmPKv, symObjAddr: 0xD27C, symBinAddr: 0x1000104EC, symSize: 0x90 }
  - { offset: 0x2D355, size: 0x8, addend: 0x0, symName: __ZNKSt12_Vector_baseI7MeetingSaIS0_EE19_M_get_Tp_allocatorEv, symObjAddr: 0xD268, symBinAddr: 0x1000104D8, symSize: 0x14 }
  - { offset: 0x2D37B, size: 0x8, addend: 0x0, symName: __ZNSt6vectorI7MeetingSaIS0_EE11_S_max_sizeERKS1_, symObjAddr: 0xD20C, symBinAddr: 0x10001047C, symSize: 0x5C }
  - { offset: 0x2D436, size: 0x8, addend: 0x0, symName: __ZN9__gnu_cxx5__ops14_Val_comp_iterIPFb3JobS2_EEclIS2_NS_17__normal_iteratorIPS2_St6vectorIS2_SaIS2_EEEEEEbRT_T0_, symObjAddr: 0xD1BC, symBinAddr: 0x10001042C, symSize: 0x50 }
  - { offset: 0x2D4B9, size: 0x8, addend: 0x0, symName: __ZN9__gnu_cxx5__ops14_Val_comp_iterIPFb3JobS2_EEC1EONS0_15_Iter_comp_iterIS4_EE, symObjAddr: 0xD18C, symBinAddr: 0x1000103FC, symSize: 0x30 }
  - { offset: 0x2D4F2, size: 0x8, addend: 0x0, symName: __ZSt4moveIRN9__gnu_cxx5__ops15_Iter_comp_iterIPFb3JobS3_EEEEONSt16remove_referenceIT_E4typeEOS9_, symObjAddr: 0xD178, symBinAddr: 0x1000103E8, symSize: 0x14 }
  - { offset: 0x2D524, size: 0x8, addend: 0x0, symName: __ZSt22__copy_move_backward_aILb1EN9__gnu_cxx17__normal_iteratorIP3JobSt6vectorIS2_SaIS2_EEEES7_ET1_T0_S9_S8_, symObjAddr: 0xD118, symBinAddr: 0x100010388, symSize: 0x60 }
  - { offset: 0x2D58C, size: 0x8, addend: 0x0, symName: __ZSt12__miter_baseIN9__gnu_cxx17__normal_iteratorIP3JobSt6vectorIS2_SaIS2_EEEEET_S8_, symObjAddr: 0xD104, symBinAddr: 0x100010374, symSize: 0x14 }
  - { offset: 0x2D5BF, size: 0x8, addend: 0x0, symName: __ZSt9iter_swapIN9__gnu_cxx17__normal_iteratorIP3JobSt6vectorIS2_SaIS2_EEEES7_EvT_T0_, symObjAddr: 0xD0C0, symBinAddr: 0x100010330, symSize: 0x44 }
  - { offset: 0x2D60E, size: 0x8, addend: 0x0, symName: __ZN9__gnu_cxx17__normal_iteratorIP3JobSt6vectorIS1_SaIS1_EEEmmEv, symObjAddr: 0xD098, symBinAddr: 0x100010308, symSize: 0x28 }
  - { offset: 0x2D634, size: 0x8, addend: 0x0, symName: __ZSt10__pop_heapIN9__gnu_cxx17__normal_iteratorIP3JobSt6vectorIS2_SaIS2_EEEENS0_5__ops15_Iter_comp_iterIPFbS2_S2_EEEEvT_SD_SD_RT0_, symObjAddr: 0xCFDC, symBinAddr: 0x10001024C, symSize: 0xBC }
  - { offset: 0x2D6D1, size: 0x8, addend: 0x0, symName: __ZN9__gnu_cxxltIP3JobSt6vectorIS1_SaIS1_EEEEbRKNS_17__normal_iteratorIT_T0_EESB_, symObjAddr: 0xCF98, symBinAddr: 0x100010208, symSize: 0x44 }
  - { offset: 0x2D71E, size: 0x8, addend: 0x0, symName: __ZSt11__make_heapIN9__gnu_cxx17__normal_iteratorIP3JobSt6vectorIS2_SaIS2_EEEENS0_5__ops15_Iter_comp_iterIPFbS2_S2_EEEEvT_SD_RT0_, symObjAddr: 0xCEA4, symBinAddr: 0x100010114, symSize: 0xF4 }
  - { offset: 0x2D7D6, size: 0x8, addend: 0x0, symName: __ZSt14__relocate_a_1IP3JobS1_SaIS0_EET0_T_S4_S3_RT1_, symObjAddr: 0xCE20, symBinAddr: 0x100010090, symSize: 0x84 }
  - { offset: 0x2D85F, size: 0x8, addend: 0x0, symName: __ZSt12__niter_baseIP3JobET_S2_, symObjAddr: 0xCE0C, symBinAddr: 0x10001007C, symSize: 0x14 }
  - { offset: 0x2D896, size: 0x8, addend: 0x0, symName: __ZNSt15__new_allocatorI3JobE8allocateEmPKv, symObjAddr: 0xCD7C, symBinAddr: 0x10000FFEC, symSize: 0x90 }
  - { offset: 0x2D922, size: 0x8, addend: 0x0, symName: __ZNKSt12_Vector_baseI3JobSaIS0_EE19_M_get_Tp_allocatorEv, symObjAddr: 0xCD68, symBinAddr: 0x10000FFD8, symSize: 0x14 }
  - { offset: 0x2D948, size: 0x8, addend: 0x0, symName: __ZNSt6vectorI3JobSaIS0_EE11_S_max_sizeERKS1_, symObjAddr: 0xCD0C, symBinAddr: 0x10000FF7C, symSize: 0x5C }
  - { offset: 0x2D9FF, size: 0x8, addend: 0x0, symName: __ZSt10_ConstructIiJEEvPT_DpOT0_, symObjAddr: 0xCCE0, symBinAddr: 0x10000FF50, symSize: 0x2C }
  - { offset: 0x2DA3B, size: 0x8, addend: 0x0, symName: __ZSt11__addressofIiEPT_RS0_, symObjAddr: 0xCCCC, symBinAddr: 0x10000FF3C, symSize: 0x14 }
  - { offset: 0x2DA6D, size: 0x8, addend: 0x0, symName: __ZNSt11__copy_moveILb0ELb1ESt26random_access_iterator_tagE8__copy_mIiiEEPT0_PT_S6_S4_, symObjAddr: 0xCC3C, symBinAddr: 0x10000FEAC, symSize: 0x90 }
  - { offset: 0x2DADC, size: 0x8, addend: 0x0, symName: __ZNSt11__copy_moveILb0ELb1ESt26random_access_iterator_tagE8__copy_mIKiiEEPT0_PT_S7_S5_, symObjAddr: 0xCBAC, symBinAddr: 0x10000FE1C, symSize: 0x90 }
  - { offset: 0x2DB4B, size: 0x8, addend: 0x0, symName: __ZSt18__do_uninit_fill_nIPSt6vectorIiSaIiEEmS2_ET_S4_T0_RKT1_, symObjAddr: 0xCB1C, symBinAddr: 0x10000FD8C, symSize: 0x90 }
  - { offset: 0x2DBC3, size: 0x8, addend: 0x0, symName: __ZSt6fill_nIPimiET_S1_T0_RKT1_, symObjAddr: 0xCAD4, symBinAddr: 0x10000FD44, symSize: 0x48 }
  - { offset: 0x2DCD2, size: 0x8, addend: 0x0, symName: __ZNSt5tupleIJOiEEC1EOS1_, symObjAddr: 0xCAAC, symBinAddr: 0x10000FD1C, symSize: 0x28 }
  - { offset: 0x2DD31, size: 0x8, addend: 0x0, symName: __ZNSt10_Head_baseILm0EOiLb0EEC2IiEEOT_, symObjAddr: 0xCA7C, symBinAddr: 0x10000FCEC, symSize: 0x30 }
  - { offset: 0x2DD74, size: 0x8, addend: 0x0, symName: __ZNKSt8__detail10_Select1stclIRKSt4pairIKiiEEEONS0_10__1st_typeIT_E4typeEOS8_, symObjAddr: 0xCA5C, symBinAddr: 0x10000FCCC, symSize: 0x20 }
  - { offset: 0x2DDCD, size: 0x8, addend: 0x0, symName: __ZNSt8__detail16_Hashtable_allocISaINS_10_Hash_nodeISt4pairIKiiELb0EEEEE19_M_allocate_bucketsEm, symObjAddr: 0xC9AC, symBinAddr: 0x10000FC1C, symSize: 0xB0 }
  - { offset: 0x2DEF4, size: 0x8, addend: 0x0, symName: __ZNSt15__new_allocatorINSt8__detail10_Hash_nodeISt4pairIKiiELb0EEEE10deallocateEPS5_m, symObjAddr: 0xC97C, symBinAddr: 0x10000FBEC, symSize: 0x30 }
  - { offset: 0x2DFB3, size: 0x8, addend: 0x0, symName: __ZNSt5tupleIJRKiEEC1EOS2_, symObjAddr: 0xC954, symBinAddr: 0x10000FBC4, symSize: 0x28 }
  - { offset: 0x2DFE2, size: 0x8, addend: 0x0, symName: __ZNSt15__new_allocatorINSt8__detail10_Hash_nodeISt4pairIKiiELb0EEEE8allocateEmPKv, symObjAddr: 0xC8D8, symBinAddr: 0x10000FB48, symSize: 0x7C }
  - { offset: 0x2E072, size: 0x8, addend: 0x0, symName: __ZN9__gnu_cxx16__aligned_bufferISt4pairIKiiEE7_M_addrEv, symObjAddr: 0xC8C4, symBinAddr: 0x10000FB34, symSize: 0x14 }
  - { offset: 0x2E09C, size: 0x8, addend: 0x0, symName: __ZNKSt8__detail15_Hashtable_baseIiSt4pairIKiiENS_10_Select1stESt8equal_toIiESt4hashIiENS_18_Mod_range_hashingENS_20_Default_ranged_hashENS_17_Hashtable_traitsILb0ELb0ELb1EEEE13_M_key_equalsERS2_RKNS_16_Hash_node_valueIS3_Lb0EEE, symObjAddr: 0xC858, symBinAddr: 0x10000FAC8, symSize: 0x6C }
  - { offset: 0x2E12C, size: 0x8, addend: 0x0, symName: __ZNSt8__detail15_Hashtable_baseIiSt4pairIKiiENS_10_Select1stESt8equal_toIiESt4hashIiENS_18_Mod_range_hashingENS_20_Default_ranged_hashENS_17_Hashtable_traitsILb0ELb0ELb1EEEE9_S_equalsEmRKNS_21_Hash_node_code_cacheILb0EEE, symObjAddr: 0xC840, symBinAddr: 0x10000FAB0, symSize: 0x18 }
  - { offset: 0x2E15B, size: 0x8, addend: 0x0, symName: __ZNSt15__new_allocatorIPNSt8__detail15_Hash_node_baseEE10deallocateEPS2_m, symObjAddr: 0xC810, symBinAddr: 0x10000FA80, symSize: 0x30 }
  - { offset: 0x2E1C9, size: 0x8, addend: 0x0, symName: __ZNSt15__new_allocatorIPNSt8__detail15_Hash_node_baseEED2Ev, symObjAddr: 0xC7FC, symBinAddr: 0x10000FA6C, symSize: 0x14 }
  - { offset: 0x2E201, size: 0x8, addend: 0x0, symName: __ZSt9addressofIPNSt8__detail15_Hash_node_baseEEPT_RS3_, symObjAddr: 0xC7E0, symBinAddr: 0x10000FA50, symSize: 0x1C }
  - { offset: 0x2E233, size: 0x8, addend: 0x0, symName: __ZNSt19__ptr_traits_ptr_toIPNSt8__detail10_Hash_nodeISt4pairIKiiELb0EEES5_Lb0EE10pointer_toERS5_, symObjAddr: 0xC7C4, symBinAddr: 0x10000FA34, symSize: 0x1C }
  - { offset: 0x2E28C, size: 0x8, addend: 0x0, symName: __ZNSt8__detail21_Hashtable_ebo_helperILi0ESaINS_10_Hash_nodeISt4pairIKiiELb0EEEELb1EE6_M_getEv, symObjAddr: 0xC7B0, symBinAddr: 0x10000FA20, symSize: 0x14 }
  - { offset: 0x2E2B2, size: 0x8, addend: 0x0, symName: __ZSt4copyIPKiPiET0_T_S4_S3_, symObjAddr: 0xC768, symBinAddr: 0x10000F9D8, symSize: 0x48 }
  - { offset: 0x2E314, size: 0x8, addend: 0x0, symName: __ZN9__gnu_cxx5__ops14_Val_comp_iterIPFbRSt4pairIiiES4_EEclIS3_NS_17__normal_iteratorIPS3_St6vectorIS3_SaIS3_EEEEEEbRT_T0_, symObjAddr: 0xC728, symBinAddr: 0x10000F998, symSize: 0x40 }
  - { offset: 0x2E397, size: 0x8, addend: 0x0, symName: __ZN9__gnu_cxx5__ops14_Val_comp_iterIPFbRSt4pairIiiES4_EEC1EONS0_15_Iter_comp_iterIS6_EE, symObjAddr: 0xC6F8, symBinAddr: 0x10000F968, symSize: 0x30 }
  - { offset: 0x2E3D0, size: 0x8, addend: 0x0, symName: __ZSt4moveIRN9__gnu_cxx5__ops15_Iter_comp_iterIPFbRSt4pairIiiES5_EEEEONSt16remove_referenceIT_E4typeEOSB_, symObjAddr: 0xC6E4, symBinAddr: 0x10000F954, symSize: 0x14 }
  - { offset: 0x2E402, size: 0x8, addend: 0x0, symName: __ZSt22__copy_move_backward_aILb1EN9__gnu_cxx17__normal_iteratorIPSt4pairIiiESt6vectorIS3_SaIS3_EEEES8_ET1_T0_SA_S9_, symObjAddr: 0xC684, symBinAddr: 0x10000F8F4, symSize: 0x60 }
  - { offset: 0x2E46A, size: 0x8, addend: 0x0, symName: __ZSt12__miter_baseIN9__gnu_cxx17__normal_iteratorIPSt4pairIiiESt6vectorIS3_SaIS3_EEEEET_S9_, symObjAddr: 0xC670, symBinAddr: 0x10000F8E0, symSize: 0x14 }
  - { offset: 0x2E49D, size: 0x8, addend: 0x0, symName: __ZSt9iter_swapIN9__gnu_cxx17__normal_iteratorIPSt4pairIiiESt6vectorIS3_SaIS3_EEEES8_EvT_T0_, symObjAddr: 0xC62C, symBinAddr: 0x10000F89C, symSize: 0x44 }
  - { offset: 0x2E4EC, size: 0x8, addend: 0x0, symName: __ZN9__gnu_cxx17__normal_iteratorIPSt4pairIiiESt6vectorIS2_SaIS2_EEEmmEv, symObjAddr: 0xC604, symBinAddr: 0x10000F874, symSize: 0x28 }
  - { offset: 0x2E512, size: 0x8, addend: 0x0, symName: __ZSt10__pop_heapIN9__gnu_cxx17__normal_iteratorIPSt4pairIiiESt6vectorIS3_SaIS3_EEEENS0_5__ops15_Iter_comp_iterIPFbRS3_SB_EEEEvT_SF_SF_RT0_, symObjAddr: 0xC56C, symBinAddr: 0x10000F7DC, symSize: 0x98 }
  - { offset: 0x2E5AF, size: 0x8, addend: 0x0, symName: __ZN9__gnu_cxxltIPSt4pairIiiESt6vectorIS2_SaIS2_EEEEbRKNS_17__normal_iteratorIT_T0_EESC_, symObjAddr: 0xC528, symBinAddr: 0x10000F798, symSize: 0x44 }
  - { offset: 0x2E5FC, size: 0x8, addend: 0x0, symName: __ZSt11__make_heapIN9__gnu_cxx17__normal_iteratorIPSt4pairIiiESt6vectorIS3_SaIS3_EEEENS0_5__ops15_Iter_comp_iterIPFbRS3_SB_EEEEvT_SF_RT0_, symObjAddr: 0xC44C, symBinAddr: 0x10000F6BC, symSize: 0xDC }
  - { offset: 0x2E6B3, size: 0x8, addend: 0x0, symName: __ZSt14__relocate_a_1IPSt4pairIiiES2_SaIS1_EET0_T_S5_S4_RT1_, symObjAddr: 0xC3C8, symBinAddr: 0x10000F638, symSize: 0x84 }
  - { offset: 0x2E73C, size: 0x8, addend: 0x0, symName: __ZSt12__niter_baseIPSt4pairIiiEET_S3_, symObjAddr: 0xC3B4, symBinAddr: 0x10000F624, symSize: 0x14 }
  - { offset: 0x2E773, size: 0x8, addend: 0x0, symName: __ZNSt15__new_allocatorISt4pairIiiEE8allocateEmPKv, symObjAddr: 0xC338, symBinAddr: 0x10000F5A8, symSize: 0x7C }
  - { offset: 0x2E7FF, size: 0x8, addend: 0x0, symName: __ZNKSt12_Vector_baseISt4pairIiiESaIS1_EE19_M_get_Tp_allocatorEv, symObjAddr: 0xC324, symBinAddr: 0x10000F594, symSize: 0x14 }
  - { offset: 0x2E825, size: 0x8, addend: 0x0, symName: __ZNSt6vectorISt4pairIiiESaIS1_EE11_S_max_sizeERKS2_, symObjAddr: 0xC2D0, symBinAddr: 0x10000F540, symSize: 0x54 }
  - { offset: 0x2E8EB, size: 0x8, addend: 0x0, symName: __ZNK9__gnu_cxx5__ops14_Val_less_iterclIiNS_17__normal_iteratorIPiSt6vectorIiSaIiEEEEEEbRT_T0_, symObjAddr: 0xC28C, symBinAddr: 0x10000F4FC, symSize: 0x44 }
  - { offset: 0x2E943, size: 0x8, addend: 0x0, symName: __ZSt22__copy_move_backward_aILb1EN9__gnu_cxx17__normal_iteratorIPiSt6vectorIiSaIiEEEES6_ET1_T0_S8_S7_, symObjAddr: 0xC22C, symBinAddr: 0x10000F49C, symSize: 0x60 }
  - { offset: 0x2E9AB, size: 0x8, addend: 0x0, symName: __ZSt12__miter_baseIN9__gnu_cxx17__normal_iteratorIPiSt6vectorIiSaIiEEEEET_S7_, symObjAddr: 0xC218, symBinAddr: 0x10000F488, symSize: 0x14 }
  - { offset: 0x2E9DE, size: 0x8, addend: 0x0, symName: __ZSt9iter_swapIN9__gnu_cxx17__normal_iteratorIPiSt6vectorIiSaIiEEEES6_EvT_T0_, symObjAddr: 0xC1D4, symBinAddr: 0x10000F444, symSize: 0x44 }
  - { offset: 0x2EA2D, size: 0x8, addend: 0x0, symName: __ZN9__gnu_cxx17__normal_iteratorIPiSt6vectorIiSaIiEEEmmEv, symObjAddr: 0xC1AC, symBinAddr: 0x10000F41C, symSize: 0x28 }
  - { offset: 0x2EA53, size: 0x8, addend: 0x0, symName: __ZSt10__pop_heapIN9__gnu_cxx17__normal_iteratorIPiSt6vectorIiSaIiEEEENS0_5__ops15_Iter_less_iterEEvT_S9_S9_RT0_, symObjAddr: 0xC11C, symBinAddr: 0x10000F38C, symSize: 0x90 }
  - { offset: 0x2EAF0, size: 0x8, addend: 0x0, symName: __ZN9__gnu_cxxltIPiSt6vectorIiSaIiEEEEbRKNS_17__normal_iteratorIT_T0_EESA_, symObjAddr: 0xC0D8, symBinAddr: 0x10000F348, symSize: 0x44 }
  - { offset: 0x2EB3D, size: 0x8, addend: 0x0, symName: __ZSt11__make_heapIN9__gnu_cxx17__normal_iteratorIPiSt6vectorIiSaIiEEEENS0_5__ops15_Iter_less_iterEEvT_S9_RT0_, symObjAddr: 0xBFF8, symBinAddr: 0x10000F268, symSize: 0xE0 }
  - { offset: 0x2EBF4, size: 0x8, addend: 0x0, symName: __ZNSt20__uninitialized_copyILb0EE13__uninit_copyIPKSt6vectorIiSaIiEEPS4_EET0_T_S9_S8_, symObjAddr: 0xBFCC, symBinAddr: 0x10000F23C, symSize: 0x2C }
  - { offset: 0x2EC53, size: 0x8, addend: 0x0, symName: __ZNSt15__new_allocatorISt6vectorIiSaIiEEE8allocateEmPKv, symObjAddr: 0xBF3C, symBinAddr: 0x10000F1AC, symSize: 0x90 }
  - { offset: 0x2ECDB, size: 0x8, addend: 0x0, symName: __ZSt4copyIN9__gnu_cxx17__normal_iteratorIPKiSt6vectorIiSaIiEEEEPiET0_T_SA_S9_, symObjAddr: 0xBEF4, symBinAddr: 0x10000F164, symSize: 0x48 }
  - { offset: 0x2ED39, size: 0x8, addend: 0x0, symName: __ZSt25__unguarded_linear_insertIN9__gnu_cxx17__normal_iteratorIPSt6vectorIiSaIiEES2_IS4_SaIS4_EEEENS0_5__ops14_Val_comp_iterIPFbRS4_SB_EEEEvT_T0_, symObjAddr: 0xBE20, symBinAddr: 0x10000F090, symSize: 0xD4 }
  - { offset: 0x2EDA8, size: 0x8, addend: 0x0, symName: __ZN9__gnu_cxx5__ops15__val_comp_iterIPFbRSt6vectorIiSaIiEES5_EEENS0_14_Val_comp_iterIT_EENS0_15_Iter_comp_iterIS9_EE, symObjAddr: 0xBDF4, symBinAddr: 0x10000F064, symSize: 0x2C }
  - { offset: 0x2EDDE, size: 0x8, addend: 0x0, symName: __ZNSt6vectorIiSaIiEEaSEOS1_, symObjAddr: 0xBDB0, symBinAddr: 0x10000F020, symSize: 0x44 }
  - { offset: 0x2EE26, size: 0x8, addend: 0x0, symName: __ZSt13move_backwardIN9__gnu_cxx17__normal_iteratorIPSt6vectorIiSaIiEES2_IS4_SaIS4_EEEES8_ET0_T_SA_S9_, symObjAddr: 0xBD68, symBinAddr: 0x10000EFD8, symSize: 0x48 }
  - { offset: 0x2EE8B, size: 0x8, addend: 0x0, symName: __ZSt4moveIRSt6vectorIiSaIiEEEONSt16remove_referenceIT_E4typeEOS5_, symObjAddr: 0xBD54, symBinAddr: 0x10000EFC4, symSize: 0x14 }
  - { offset: 0x2EEC1, size: 0x8, addend: 0x0, symName: __ZNK9__gnu_cxx17__normal_iteratorIPSt6vectorIiSaIiEES1_IS3_SaIS3_EEEdeEv, symObjAddr: 0xBD3C, symBinAddr: 0x10000EFAC, symSize: 0x18 }
  - { offset: 0x2EEEB, size: 0x8, addend: 0x0, symName: __ZN9__gnu_cxx5__ops15_Iter_comp_iterIPFbRSt6vectorIiSaIiEES5_EEclINS_17__normal_iteratorIPS4_S2_IS4_SaIS4_EEEESE_EEbT_T0_, symObjAddr: 0xBCF0, symBinAddr: 0x10000EF60, symSize: 0x4C }
  - { offset: 0x2EF47, size: 0x8, addend: 0x0, symName: __ZN9__gnu_cxx17__normal_iteratorIPSt6vectorIiSaIiEES1_IS3_SaIS3_EEEppEv, symObjAddr: 0xBCC8, symBinAddr: 0x10000EF38, symSize: 0x28 }
  - { offset: 0x2EF6D, size: 0x8, addend: 0x0, symName: __ZN9__gnu_cxxeqIPSt6vectorIiSaIiEES1_IS3_SaIS3_EEEEbRKNS_17__normal_iteratorIT_T0_EESC_, symObjAddr: 0xBC84, symBinAddr: 0x10000EEF4, symSize: 0x44 }
  - { offset: 0x2EFBA, size: 0x8, addend: 0x0, symName: __ZSt21__unguarded_partitionIN9__gnu_cxx17__normal_iteratorIPSt6vectorIiSaIiEES2_IS4_SaIS4_EEEENS0_5__ops15_Iter_comp_iterIPFbRS4_SB_EEEET_SF_SF_SF_T0_, symObjAddr: 0xBBCC, symBinAddr: 0x10000EE3C, symSize: 0xB8 }
  - { offset: 0x2F029, size: 0x8, addend: 0x0, symName: __ZSt22__move_median_to_firstIN9__gnu_cxx17__normal_iteratorIPSt6vectorIiSaIiEES2_IS4_SaIS4_EEEENS0_5__ops15_Iter_comp_iterIPFbRS4_SB_EEEEvT_SF_SF_SF_T0_, symObjAddr: 0xBABC, symBinAddr: 0x10000ED2C, symSize: 0x110 }
  - { offset: 0x2F0A8, size: 0x8, addend: 0x0, symName: __ZNK9__gnu_cxx17__normal_iteratorIPSt6vectorIiSaIiEES1_IS3_SaIS3_EEEmiEl, symObjAddr: 0xBA6C, symBinAddr: 0x10000ECDC, symSize: 0x50 }
  - { offset: 0x2F0DF, size: 0x8, addend: 0x0, symName: __ZSt11__sort_heapIN9__gnu_cxx17__normal_iteratorIPSt6vectorIiSaIiEES2_IS4_SaIS4_EEEENS0_5__ops15_Iter_comp_iterIPFbRS4_SB_EEEEvT_SF_RT0_, symObjAddr: 0xBA04, symBinAddr: 0x10000EC74, symSize: 0x68 }
  - { offset: 0x2F13D, size: 0x8, addend: 0x0, symName: __ZSt13__heap_selectIN9__gnu_cxx17__normal_iteratorIPSt6vectorIiSaIiEES2_IS4_SaIS4_EEEENS0_5__ops15_Iter_comp_iterIPFbRS4_SB_EEEEvT_SF_SF_T0_, symObjAddr: 0xB968, symBinAddr: 0x10000EBD8, symSize: 0x9C }
  - { offset: 0x2F1D0, size: 0x8, addend: 0x0, symName: __ZSt25__unguarded_linear_insertIN9__gnu_cxx17__normal_iteratorIP7MeetingSt6vectorIS2_SaIS2_EEEENS0_5__ops14_Val_comp_iterIPFbRS2_S2_EEEEvT_T0_, symObjAddr: 0xB88C, symBinAddr: 0x10000EAFC, symSize: 0xDC }
  - { offset: 0x2F23F, size: 0x8, addend: 0x0, symName: __ZN9__gnu_cxx5__ops15__val_comp_iterIPFbR7MeetingS2_EEENS0_14_Val_comp_iterIT_EENS0_15_Iter_comp_iterIS7_EE, symObjAddr: 0xB860, symBinAddr: 0x10000EAD0, symSize: 0x2C }
  - { offset: 0x2F271, size: 0x8, addend: 0x0, symName: __ZSt13move_backwardIN9__gnu_cxx17__normal_iteratorIP7MeetingSt6vectorIS2_SaIS2_EEEES7_ET0_T_S9_S8_, symObjAddr: 0xB818, symBinAddr: 0x10000EA88, symSize: 0x48 }
  - { offset: 0x2F2D3, size: 0x8, addend: 0x0, symName: __ZN9__gnu_cxx5__ops15_Iter_comp_iterIPFbR7MeetingS2_EEclINS_17__normal_iteratorIPS2_St6vectorIS2_SaIS2_EEEESD_EEbT_T0_, symObjAddr: 0xB7C4, symBinAddr: 0x10000EA34, symSize: 0x54 }
  - { offset: 0x2F32F, size: 0x8, addend: 0x0, symName: __ZN9__gnu_cxx17__normal_iteratorIP7MeetingSt6vectorIS1_SaIS1_EEEppEv, symObjAddr: 0xB79C, symBinAddr: 0x10000EA0C, symSize: 0x28 }
  - { offset: 0x2F355, size: 0x8, addend: 0x0, symName: __ZN9__gnu_cxxeqIP7MeetingSt6vectorIS1_SaIS1_EEEEbRKNS_17__normal_iteratorIT_T0_EESB_, symObjAddr: 0xB758, symBinAddr: 0x10000E9C8, symSize: 0x44 }
  - { offset: 0x2F3A2, size: 0x8, addend: 0x0, symName: __ZSt21__unguarded_partitionIN9__gnu_cxx17__normal_iteratorIP7MeetingSt6vectorIS2_SaIS2_EEEENS0_5__ops15_Iter_comp_iterIPFbRS2_S2_EEEET_SE_SE_SE_T0_, symObjAddr: 0xB6A0, symBinAddr: 0x10000E910, symSize: 0xB8 }
  - { offset: 0x2F411, size: 0x8, addend: 0x0, symName: __ZSt22__move_median_to_firstIN9__gnu_cxx17__normal_iteratorIP7MeetingSt6vectorIS2_SaIS2_EEEENS0_5__ops15_Iter_comp_iterIPFbRS2_S2_EEEEvT_SE_SE_SE_T0_, symObjAddr: 0xB590, symBinAddr: 0x10000E800, symSize: 0x110 }
  - { offset: 0x2F48C, size: 0x8, addend: 0x0, symName: __ZSt11__sort_heapIN9__gnu_cxx17__normal_iteratorIP7MeetingSt6vectorIS2_SaIS2_EEEENS0_5__ops15_Iter_comp_iterIPFbRS2_S2_EEEEvT_SE_RT0_, symObjAddr: 0xB528, symBinAddr: 0x10000E798, symSize: 0x68 }
  - { offset: 0x2F4EA, size: 0x8, addend: 0x0, symName: __ZSt13__heap_selectIN9__gnu_cxx17__normal_iteratorIP7MeetingSt6vectorIS2_SaIS2_EEEENS0_5__ops15_Iter_comp_iterIPFbRS2_S2_EEEEvT_SE_SE_T0_, symObjAddr: 0xB48C, symBinAddr: 0x10000E6FC, symSize: 0x9C }
  - { offset: 0x2F57D, size: 0x8, addend: 0x0, symName: __ZSt12__relocate_aIP7MeetingS1_SaIS0_EET0_T_S4_S3_RT1_, symObjAddr: 0xB430, symBinAddr: 0x10000E6A0, symSize: 0x5C }
  - { offset: 0x2F61D, size: 0x8, addend: 0x0, symName: __ZNKSt6vectorI7MeetingSaIS0_EE4sizeEv, symObjAddr: 0xB3FC, symBinAddr: 0x10000E66C, symSize: 0x34 }
  - { offset: 0x2F647, size: 0x8, addend: 0x0, symName: __ZNKSt6vectorI7MeetingSaIS0_EE8max_sizeEv, symObjAddr: 0xB3DC, symBinAddr: 0x10000E64C, symSize: 0x20 }
  - { offset: 0x2F66D, size: 0x8, addend: 0x0, symName: __ZSt25__unguarded_linear_insertIN9__gnu_cxx17__normal_iteratorIP3JobSt6vectorIS2_SaIS2_EEEENS0_5__ops14_Val_comp_iterIPFbS2_S2_EEEEvT_T0_, symObjAddr: 0xB300, symBinAddr: 0x10000E570, symSize: 0xDC }
  - { offset: 0x2F6DC, size: 0x8, addend: 0x0, symName: __ZN9__gnu_cxx5__ops15__val_comp_iterIPFb3JobS2_EEENS0_14_Val_comp_iterIT_EENS0_15_Iter_comp_iterIS6_EE, symObjAddr: 0xB2D4, symBinAddr: 0x10000E544, symSize: 0x2C }
  - { offset: 0x2F70E, size: 0x8, addend: 0x0, symName: __ZSt13move_backwardIN9__gnu_cxx17__normal_iteratorIP3JobSt6vectorIS2_SaIS2_EEEES7_ET0_T_S9_S8_, symObjAddr: 0xB28C, symBinAddr: 0x10000E4FC, symSize: 0x48 }
  - { offset: 0x2F770, size: 0x8, addend: 0x0, symName: __ZN9__gnu_cxx5__ops15_Iter_comp_iterIPFb3JobS2_EEclINS_17__normal_iteratorIPS2_St6vectorIS2_SaIS2_EEEESC_EEbT_T0_, symObjAddr: 0xB238, symBinAddr: 0x10000E4A8, symSize: 0x54 }
  - { offset: 0x2F7CC, size: 0x8, addend: 0x0, symName: __ZN9__gnu_cxx17__normal_iteratorIP3JobSt6vectorIS1_SaIS1_EEEppEv, symObjAddr: 0xB210, symBinAddr: 0x10000E480, symSize: 0x28 }
  - { offset: 0x2F7F2, size: 0x8, addend: 0x0, symName: __ZN9__gnu_cxxeqIP3JobSt6vectorIS1_SaIS1_EEEEbRKNS_17__normal_iteratorIT_T0_EESB_, symObjAddr: 0xB1CC, symBinAddr: 0x10000E43C, symSize: 0x44 }
  - { offset: 0x2F83F, size: 0x8, addend: 0x0, symName: __ZSt21__unguarded_partitionIN9__gnu_cxx17__normal_iteratorIP3JobSt6vectorIS2_SaIS2_EEEENS0_5__ops15_Iter_comp_iterIPFbS2_S2_EEEET_SD_SD_SD_T0_, symObjAddr: 0xB114, symBinAddr: 0x10000E384, symSize: 0xB8 }
  - { offset: 0x2F8AE, size: 0x8, addend: 0x0, symName: __ZSt22__move_median_to_firstIN9__gnu_cxx17__normal_iteratorIP3JobSt6vectorIS2_SaIS2_EEEENS0_5__ops15_Iter_comp_iterIPFbS2_S2_EEEEvT_SD_SD_SD_T0_, symObjAddr: 0xB004, symBinAddr: 0x10000E274, symSize: 0x110 }
  - { offset: 0x2F929, size: 0x8, addend: 0x0, symName: __ZSt11__sort_heapIN9__gnu_cxx17__normal_iteratorIP3JobSt6vectorIS2_SaIS2_EEEENS0_5__ops15_Iter_comp_iterIPFbS2_S2_EEEEvT_SD_RT0_, symObjAddr: 0xAF9C, symBinAddr: 0x10000E20C, symSize: 0x68 }
  - { offset: 0x2F987, size: 0x8, addend: 0x0, symName: __ZSt13__heap_selectIN9__gnu_cxx17__normal_iteratorIP3JobSt6vectorIS2_SaIS2_EEEENS0_5__ops15_Iter_comp_iterIPFbS2_S2_EEEEvT_SD_SD_T0_, symObjAddr: 0xAF00, symBinAddr: 0x10000E170, symSize: 0x9C }
  - { offset: 0x2FA1A, size: 0x8, addend: 0x0, symName: __ZSt12__relocate_aIP3JobS1_SaIS0_EET0_T_S4_S3_RT1_, symObjAddr: 0xAEA4, symBinAddr: 0x10000E114, symSize: 0x5C }
  - { offset: 0x2FABA, size: 0x8, addend: 0x0, symName: __ZNKSt6vectorI3JobSaIS0_EE8max_sizeEv, symObjAddr: 0xAE84, symBinAddr: 0x10000E0F4, symSize: 0x20 }
  - { offset: 0x2FAE0, size: 0x8, addend: 0x0, symName: __ZNSt27__uninitialized_default_n_1ILb1EE18__uninit_default_nIPimEET_S3_T0_, symObjAddr: 0xAE20, symBinAddr: 0x10000E090, symSize: 0x64 }
  - { offset: 0x2FB57, size: 0x8, addend: 0x0, symName: __ZSt14__copy_move_a2ILb0EPiS0_ET1_T0_S2_S1_, symObjAddr: 0xADF4, symBinAddr: 0x10000E064, symSize: 0x2C }
  - { offset: 0x2FBBF, size: 0x8, addend: 0x0, symName: __ZSt14__copy_move_a2ILb0EPKiPiET1_T0_S4_S3_, symObjAddr: 0xADC8, symBinAddr: 0x10000E038, symSize: 0x2C }
  - { offset: 0x2FC2B, size: 0x8, addend: 0x0, symName: __ZNK9__gnu_cxx17__normal_iteratorIPKiSt6vectorIiSaIiEEE4baseEv, symObjAddr: 0xADB4, symBinAddr: 0x10000E024, symSize: 0x14 }
  - { offset: 0x2FC51, size: 0x8, addend: 0x0, symName: __ZSt8_DestroyISt6vectorIiSaIiEEEvPT_, symObjAddr: 0xAD94, symBinAddr: 0x10000E004, symSize: 0x20 }
  - { offset: 0x2FC83, size: 0x8, addend: 0x0, symName: __ZSt11__addressofISt6vectorIiSaIiEEEPT_RS3_, symObjAddr: 0xAD80, symBinAddr: 0x10000DFF0, symSize: 0x14 }
  - { offset: 0x2FCB5, size: 0x8, addend: 0x0, symName: __ZNSt22__uninitialized_fill_nILb0EE15__uninit_fill_nIPSt6vectorIiSaIiEEmS4_EET_S6_T0_RKT1_, symObjAddr: 0xAD54, symBinAddr: 0x10000DFC4, symSize: 0x2C }
  - { offset: 0x2FD20, size: 0x8, addend: 0x0, symName: __ZNSt15__new_allocatorISt6vectorIiSaIiEEE10deallocateEPS2_m, symObjAddr: 0xAD18, symBinAddr: 0x10000DF88, symSize: 0x3C }
  - { offset: 0x2FD7C, size: 0x8, addend: 0x0, symName: __ZNSt22__uninitialized_fill_nILb1EE15__uninit_fill_nIPimiEET_S3_T0_RKT1_, symObjAddr: 0xACEC, symBinAddr: 0x10000DF5C, symSize: 0x2C }
  - { offset: 0x2FE86, size: 0x8, addend: 0x0, symName: __ZNSt11_Tuple_implILm0EJOiEEC2IiEEOT_, symObjAddr: 0xACB0, symBinAddr: 0x10000DF20, symSize: 0x3C }
  - { offset: 0x2FEE6, size: 0x8, addend: 0x0, symName: __ZNSt8__detail19_Node_iterator_baseISt4pairIKiiELb0EEC2EPNS_10_Hash_nodeIS3_Lb0EEE, symObjAddr: 0xAC8C, symBinAddr: 0x10000DEFC, symSize: 0x24 }
  - { offset: 0x2FF15, size: 0x8, addend: 0x0, symName: __ZNKSt8__detail15_Hash_code_baseIiSt4pairIKiiENS_10_Select1stESt4hashIiENS_18_Mod_range_hashingENS_20_Default_ranged_hashELb0EE15_M_bucket_indexERKNS_16_Hash_node_valueIS3_Lb0EEEm, symObjAddr: 0xAC28, symBinAddr: 0x10000DE98, symSize: 0x64 }
  - { offset: 0x2FFA9, size: 0x8, addend: 0x0, symName: __ZNSt10_HashtableIiSt4pairIKiiESaIS2_ENSt8__detail10_Select1stESt8equal_toIiESt4hashIiENS4_18_Mod_range_hashingENS4_20_Default_ranged_hashENS4_20_Prime_rehash_policyENS4_17_Hashtable_traitsILb0ELb0ELb1EEEE19_M_allocate_bucketsEm, symObjAddr: 0xABD0, symBinAddr: 0x10000DE40, symSize: 0x58 }
  - { offset: 0x2FFE0, size: 0x8, addend: 0x0, symName: __ZSt11__addressofINSt8__detail20_Prime_rehash_policyEEPT_RS2_, symObjAddr: 0xABBC, symBinAddr: 0x10000DE2C, symSize: 0x14 }
  - { offset: 0x3009C, size: 0x8, addend: 0x0, symName: __ZSt12__to_addressINSt8__detail10_Hash_nodeISt4pairIKiiELb0EEEEPT_S7_, symObjAddr: 0xABA8, symBinAddr: 0x10000DE18, symSize: 0x14 }
  - { offset: 0x3011D, size: 0x8, addend: 0x0, symName: __ZNSt10_Head_baseILm0ERKiLb0EEC2ES1_, symObjAddr: 0xAB84, symBinAddr: 0x10000DDF4, symSize: 0x24 }
  - { offset: 0x3014C, size: 0x8, addend: 0x0, symName: __ZN9__gnu_cxx16__aligned_bufferISt4pairIKiiEE6_M_ptrEv, symObjAddr: 0xAB68, symBinAddr: 0x10000DDD8, symSize: 0x1C }
  - { offset: 0x30176, size: 0x8, addend: 0x0, symName: __ZNKSt10_HashtableIiSt4pairIKiiESaIS2_ENSt8__detail10_Select1stESt8equal_toIiESt4hashIiENS4_18_Mod_range_hashingENS4_20_Default_ranged_hashENS4_20_Prime_rehash_policyENS4_17_Hashtable_traitsILb0ELb0ELb1EEEE15_M_bucket_indexERKNS4_16_Hash_node_valueIS2_Lb0EEE, symObjAddr: 0xAB38, symBinAddr: 0x10000DDA8, symSize: 0x30 }
  - { offset: 0x301B1, size: 0x8, addend: 0x0, symName: __ZNKSt8__detail15_Hashtable_baseIiSt4pairIKiiENS_10_Select1stESt8equal_toIiESt4hashIiENS_18_Mod_range_hashingENS_20_Default_ranged_hashENS_17_Hashtable_traitsILb0ELb0ELb1EEEE9_M_equalsERS2_mRKNS_16_Hash_node_valueIS3_Lb0EEE, symObjAddr: 0xAAD8, symBinAddr: 0x10000DD48, symSize: 0x60 }
  - { offset: 0x3020E, size: 0x8, addend: 0x0, symName: __ZNKSt8__detail21_Hashtable_ebo_helperILi1ESt4hashIiELb1EE7_M_cgetEv, symObjAddr: 0xAAC4, symBinAddr: 0x10000DD34, symSize: 0x14 }
  - { offset: 0x302AA, size: 0x8, addend: 0x0, symName: __ZNSt19__ptr_traits_ptr_toIPPNSt8__detail15_Hash_node_baseES2_Lb0EE10pointer_toERS2_, symObjAddr: 0xAAA8, symBinAddr: 0x10000DD18, symSize: 0x1C }
  - { offset: 0x302D7, size: 0x8, addend: 0x0, symName: __ZNSt8__detail16_Hashtable_allocISaINS_10_Hash_nodeISt4pairIKiiELb0EEEEE22_M_deallocate_node_ptrEPS5_, symObjAddr: 0xAA50, symBinAddr: 0x10000DCC0, symSize: 0x58 }
  - { offset: 0x30386, size: 0x8, addend: 0x0, symName: __ZNSt8__detail16_Hashtable_allocISaINS_10_Hash_nodeISt4pairIKiiELb0EEEEE17_M_node_allocatorEv, symObjAddr: 0xAA34, symBinAddr: 0x10000DCA4, symSize: 0x1C }
  - { offset: 0x303AC, size: 0x8, addend: 0x0, symName: __ZSt14__relocate_a_1IiiENSt9enable_ifIXsrSt24__is_bitwise_relocatableIT_vE5valueEPS2_E4typeES4_S4_S4_RSaIT0_E, symObjAddr: 0xA9D0, symBinAddr: 0x10000DC40, symSize: 0x64 }
  - { offset: 0x3042C, size: 0x8, addend: 0x0, symName: __ZNSt20__uninitialized_copyILb1EE13__uninit_copyIPKiPiEET0_T_S6_S5_, symObjAddr: 0xA9A4, symBinAddr: 0x10000DC14, symSize: 0x2C }
  - { offset: 0x3048B, size: 0x8, addend: 0x0, symName: __ZNSt15__new_allocatorIiE8allocateEmPKv, symObjAddr: 0xA928, symBinAddr: 0x10000DB98, symSize: 0x7C }
  - { offset: 0x30513, size: 0x8, addend: 0x0, symName: __ZSt25__unguarded_linear_insertIN9__gnu_cxx17__normal_iteratorIPSt4pairIiiESt6vectorIS3_SaIS3_EEEENS0_5__ops14_Val_comp_iterIPFbRS3_SB_EEEEvT_T0_, symObjAddr: 0xA874, symBinAddr: 0x10000DAE4, symSize: 0xB4 }
  - { offset: 0x30582, size: 0x8, addend: 0x0, symName: __ZN9__gnu_cxx5__ops15__val_comp_iterIPFbRSt4pairIiiES4_EEENS0_14_Val_comp_iterIT_EENS0_15_Iter_comp_iterIS8_EE, symObjAddr: 0xA848, symBinAddr: 0x10000DAB8, symSize: 0x2C }
  - { offset: 0x305B8, size: 0x8, addend: 0x0, symName: __ZNSt4pairIiiEaSEOS0_, symObjAddr: 0xA800, symBinAddr: 0x10000DA70, symSize: 0x48 }
  - { offset: 0x305EF, size: 0x8, addend: 0x0, symName: __ZSt13move_backwardIN9__gnu_cxx17__normal_iteratorIPSt4pairIiiESt6vectorIS3_SaIS3_EEEES8_ET0_T_SA_S9_, symObjAddr: 0xA7B8, symBinAddr: 0x10000DA28, symSize: 0x48 }
  - { offset: 0x30651, size: 0x8, addend: 0x0, symName: __ZN9__gnu_cxx5__ops15_Iter_comp_iterIPFbRSt4pairIiiES4_EEclINS_17__normal_iteratorIPS3_St6vectorIS3_SaIS3_EEEESE_EEbT_T0_, symObjAddr: 0xA76C, symBinAddr: 0x10000D9DC, symSize: 0x4C }
  - { offset: 0x306AD, size: 0x8, addend: 0x0, symName: __ZN9__gnu_cxx17__normal_iteratorIPSt4pairIiiESt6vectorIS2_SaIS2_EEEppEv, symObjAddr: 0xA744, symBinAddr: 0x10000D9B4, symSize: 0x28 }
  - { offset: 0x306D3, size: 0x8, addend: 0x0, symName: __ZN9__gnu_cxxeqIPSt4pairIiiESt6vectorIS2_SaIS2_EEEEbRKNS_17__normal_iteratorIT_T0_EESC_, symObjAddr: 0xA700, symBinAddr: 0x10000D970, symSize: 0x44 }
  - { offset: 0x30720, size: 0x8, addend: 0x0, symName: __ZSt21__unguarded_partitionIN9__gnu_cxx17__normal_iteratorIPSt4pairIiiESt6vectorIS3_SaIS3_EEEENS0_5__ops15_Iter_comp_iterIPFbRS3_SB_EEEET_SF_SF_SF_T0_, symObjAddr: 0xA648, symBinAddr: 0x10000D8B8, symSize: 0xB8 }
  - { offset: 0x3078F, size: 0x8, addend: 0x0, symName: __ZSt22__move_median_to_firstIN9__gnu_cxx17__normal_iteratorIPSt4pairIiiESt6vectorIS3_SaIS3_EEEENS0_5__ops15_Iter_comp_iterIPFbRS3_SB_EEEEvT_SF_SF_SF_T0_, symObjAddr: 0xA538, symBinAddr: 0x10000D7A8, symSize: 0x110 }
  - { offset: 0x3080A, size: 0x8, addend: 0x0, symName: __ZSt11__sort_heapIN9__gnu_cxx17__normal_iteratorIPSt4pairIiiESt6vectorIS3_SaIS3_EEEENS0_5__ops15_Iter_comp_iterIPFbRS3_SB_EEEEvT_SF_RT0_, symObjAddr: 0xA4D0, symBinAddr: 0x10000D740, symSize: 0x68 }
  - { offset: 0x30868, size: 0x8, addend: 0x0, symName: __ZSt13__heap_selectIN9__gnu_cxx17__normal_iteratorIPSt4pairIiiESt6vectorIS3_SaIS3_EEEENS0_5__ops15_Iter_comp_iterIPFbRS3_SB_EEEEvT_SF_SF_T0_, symObjAddr: 0xA434, symBinAddr: 0x10000D6A4, symSize: 0x9C }
  - { offset: 0x308FB, size: 0x8, addend: 0x0, symName: __ZSt12__relocate_aIPSt4pairIiiES2_SaIS1_EET0_T_S5_S4_RT1_, symObjAddr: 0xA3D8, symBinAddr: 0x10000D648, symSize: 0x5C }
  - { offset: 0x3099B, size: 0x8, addend: 0x0, symName: __ZNKSt6vectorISt4pairIiiESaIS1_EE4sizeEv, symObjAddr: 0xA3B0, symBinAddr: 0x10000D620, symSize: 0x28 }
  - { offset: 0x309C5, size: 0x8, addend: 0x0, symName: __ZNKSt6vectorISt4pairIiiESaIS1_EE8max_sizeEv, symObjAddr: 0xA390, symBinAddr: 0x10000D600, symSize: 0x20 }
  - { offset: 0x309EB, size: 0x8, addend: 0x0, symName: __ZSt25__unguarded_linear_insertIN9__gnu_cxx17__normal_iteratorIPiSt6vectorIiSaIiEEEENS0_5__ops14_Val_less_iterEEvT_T0_, symObjAddr: 0xA2E4, symBinAddr: 0x10000D554, symSize: 0xAC }
  - { offset: 0x30A5A, size: 0x8, addend: 0x0, symName: __ZSt13move_backwardIN9__gnu_cxx17__normal_iteratorIPiSt6vectorIiSaIiEEEES6_ET0_T_S8_S7_, symObjAddr: 0xA29C, symBinAddr: 0x10000D50C, symSize: 0x48 }
  - { offset: 0x30AC7, size: 0x8, addend: 0x0, symName: __ZNK9__gnu_cxx5__ops15_Iter_less_iterclINS_17__normal_iteratorIPiSt6vectorIiSaIiEEEES8_EEbT_T0_, symObjAddr: 0xA254, symBinAddr: 0x10000D4C4, symSize: 0x48 }
  - { offset: 0x30B1F, size: 0x8, addend: 0x0, symName: __ZN9__gnu_cxxeqIPiSt6vectorIiSaIiEEEEbRKNS_17__normal_iteratorIT_T0_EESA_, symObjAddr: 0xA210, symBinAddr: 0x10000D480, symSize: 0x44 }
  - { offset: 0x30B6C, size: 0x8, addend: 0x0, symName: __ZSt21__unguarded_partitionIN9__gnu_cxx17__normal_iteratorIPiSt6vectorIiSaIiEEEENS0_5__ops15_Iter_less_iterEET_S9_S9_S9_T0_, symObjAddr: 0xA158, symBinAddr: 0x10000D3C8, symSize: 0xB8 }
  - { offset: 0x30BDB, size: 0x8, addend: 0x0, symName: __ZSt22__move_median_to_firstIN9__gnu_cxx17__normal_iteratorIPiSt6vectorIiSaIiEEEENS0_5__ops15_Iter_less_iterEEvT_S9_S9_S9_T0_, symObjAddr: 0xA048, symBinAddr: 0x10000D2B8, symSize: 0x110 }
  - { offset: 0x30C5A, size: 0x8, addend: 0x0, symName: __ZNK9__gnu_cxx17__normal_iteratorIPiSt6vectorIiSaIiEEEmiEl, symObjAddr: 0xA004, symBinAddr: 0x10000D274, symSize: 0x44 }
  - { offset: 0x30C91, size: 0x8, addend: 0x0, symName: __ZSt11__sort_heapIN9__gnu_cxx17__normal_iteratorIPiSt6vectorIiSaIiEEEENS0_5__ops15_Iter_less_iterEEvT_S9_RT0_, symObjAddr: 0x9F9C, symBinAddr: 0x10000D20C, symSize: 0x68 }
  - { offset: 0x30CEF, size: 0x8, addend: 0x0, symName: __ZSt13__heap_selectIN9__gnu_cxx17__normal_iteratorIPiSt6vectorIiSaIiEEEENS0_5__ops15_Iter_less_iterEEvT_S9_S9_T0_, symObjAddr: 0x9F00, symBinAddr: 0x10000D170, symSize: 0x9C }
  - { offset: 0x30D82, size: 0x8, addend: 0x0, symName: __ZSt18uninitialized_copyIPKSt6vectorIiSaIiEEPS2_ET0_T_S7_S6_, symObjAddr: 0x9ECC, symBinAddr: 0x10000D13C, symSize: 0x34 }
  - { offset: 0x30E21, size: 0x8, addend: 0x0, symName: __ZNSt20__uninitialized_copyILb1EE13__uninit_copyIN9__gnu_cxx17__normal_iteratorIPKiSt6vectorIiSaIiEEEEPiEET0_T_SC_SB_, symObjAddr: 0x9EA0, symBinAddr: 0x10000D110, symSize: 0x2C }
  - { offset: 0x30E7C, size: 0x8, addend: 0x0, symName: __ZSt26__unguarded_insertion_sortIN9__gnu_cxx17__normal_iteratorIPSt6vectorIiSaIiEES2_IS4_SaIS4_EEEENS0_5__ops15_Iter_comp_iterIPFbRS4_SB_EEEEvT_SF_T0_, symObjAddr: 0x9E3C, symBinAddr: 0x10000D0AC, symSize: 0x64 }
  - { offset: 0x30EFE, size: 0x8, addend: 0x0, symName: __ZSt16__insertion_sortIN9__gnu_cxx17__normal_iteratorIPSt6vectorIiSaIiEES2_IS4_SaIS4_EEEENS0_5__ops15_Iter_comp_iterIPFbRS4_SB_EEEEvT_SF_T0_, symObjAddr: 0x9D24, symBinAddr: 0x10000CF94, symSize: 0x118 }
  - { offset: 0x30F90, size: 0x8, addend: 0x0, symName: __ZNK9__gnu_cxx17__normal_iteratorIPSt6vectorIiSaIiEES1_IS3_SaIS3_EEEplEl, symObjAddr: 0x9CD8, symBinAddr: 0x10000CF48, symSize: 0x4C }
  - { offset: 0x30FC7, size: 0x8, addend: 0x0, symName: __ZSt27__unguarded_partition_pivotIN9__gnu_cxx17__normal_iteratorIPSt6vectorIiSaIiEES2_IS4_SaIS4_EEEENS0_5__ops15_Iter_comp_iterIPFbRS4_SB_EEEET_SF_SF_T0_, symObjAddr: 0x9C3C, symBinAddr: 0x10000CEAC, symSize: 0x9C }
  - { offset: 0x31036, size: 0x8, addend: 0x0, symName: __ZSt14__partial_sortIN9__gnu_cxx17__normal_iteratorIPSt6vectorIiSaIiEES2_IS4_SaIS4_EEEENS0_5__ops15_Iter_comp_iterIPFbRS4_SB_EEEEvT_SF_SF_T0_, symObjAddr: 0x9BF0, symBinAddr: 0x10000CE60, symSize: 0x4C }
  - { offset: 0x310A9, size: 0x8, addend: 0x0, symName: __ZNK9__gnu_cxx17__normal_iteratorIPSt6vectorIiSaIiEES1_IS3_SaIS3_EEE4baseEv, symObjAddr: 0x9BDC, symBinAddr: 0x10000CE4C, symSize: 0x14 }
  - { offset: 0x310CF, size: 0x8, addend: 0x0, symName: __ZSt26__unguarded_insertion_sortIN9__gnu_cxx17__normal_iteratorIP7MeetingSt6vectorIS2_SaIS2_EEEENS0_5__ops15_Iter_comp_iterIPFbRS2_S2_EEEEvT_SE_T0_, symObjAddr: 0x9B78, symBinAddr: 0x10000CDE8, symSize: 0x64 }
  - { offset: 0x31151, size: 0x8, addend: 0x0, symName: __ZSt16__insertion_sortIN9__gnu_cxx17__normal_iteratorIP7MeetingSt6vectorIS2_SaIS2_EEEENS0_5__ops15_Iter_comp_iterIPFbRS2_S2_EEEEvT_SE_T0_, symObjAddr: 0x9A64, symBinAddr: 0x10000CCD4, symSize: 0x114 }
  - { offset: 0x311FB, size: 0x8, addend: 0x0, symName: __ZNK9__gnu_cxx17__normal_iteratorIP7MeetingSt6vectorIS1_SaIS1_EEEplEl, symObjAddr: 0x9A18, symBinAddr: 0x10000CC88, symSize: 0x4C }
  - { offset: 0x31232, size: 0x8, addend: 0x0, symName: __ZSt27__unguarded_partition_pivotIN9__gnu_cxx17__normal_iteratorIP7MeetingSt6vectorIS2_SaIS2_EEEENS0_5__ops15_Iter_comp_iterIPFbRS2_S2_EEEET_SE_SE_T0_, symObjAddr: 0x997C, symBinAddr: 0x10000CBEC, symSize: 0x9C }
  - { offset: 0x312A1, size: 0x8, addend: 0x0, symName: __ZSt14__partial_sortIN9__gnu_cxx17__normal_iteratorIP7MeetingSt6vectorIS2_SaIS2_EEEENS0_5__ops15_Iter_comp_iterIPFbRS2_S2_EEEEvT_SE_SE_T0_, symObjAddr: 0x9930, symBinAddr: 0x10000CBA0, symSize: 0x4C }
  - { offset: 0x31314, size: 0x8, addend: 0x0, symName: __ZNK9__gnu_cxx17__normal_iteratorIP7MeetingSt6vectorIS1_SaIS1_EEE4baseEv, symObjAddr: 0x991C, symBinAddr: 0x10000CB8C, symSize: 0x14 }
  - { offset: 0x3133E, size: 0x8, addend: 0x0, symName: __ZNK9__gnu_cxx17__normal_iteratorIP7MeetingSt6vectorIS1_SaIS1_EEEdeEv, symObjAddr: 0x9904, symBinAddr: 0x10000CB74, symSize: 0x18 }
  - { offset: 0x31368, size: 0x8, addend: 0x0, symName: __ZNK9__gnu_cxx17__normal_iteratorIP7MeetingSt6vectorIS1_SaIS1_EEEmiEl, symObjAddr: 0x98B4, symBinAddr: 0x10000CB24, symSize: 0x50 }
  - { offset: 0x3139F, size: 0x8, addend: 0x0, symName: __ZNSt6vectorI7MeetingSaIS0_EE11_S_relocateEPS0_S3_S3_RS1_, symObjAddr: 0x9880, symBinAddr: 0x10000CAF0, symSize: 0x34 }
  - { offset: 0x313FC, size: 0x8, addend: 0x0, symName: __ZSt12__to_addressI7MeetingEPT_S2_, symObjAddr: 0x986C, symBinAddr: 0x10000CADC, symSize: 0x14 }
  - { offset: 0x31432, size: 0x8, addend: 0x0, symName: __ZNSt12_Vector_baseI7MeetingSaIS0_EE11_M_allocateEm, symObjAddr: 0x981C, symBinAddr: 0x10000CA8C, symSize: 0x50 }
  - { offset: 0x3149A, size: 0x8, addend: 0x0, symName: __ZNKSt6vectorI7MeetingSaIS0_EE12_M_check_lenEmPKc, symObjAddr: 0x974C, symBinAddr: 0x10000C9BC, symSize: 0xD0 }
  - { offset: 0x31535, size: 0x8, addend: 0x0, symName: __ZNSt12_Destroy_auxILb1EE9__destroyIP7MeetingEEvT_S4_, symObjAddr: 0x9734, symBinAddr: 0x10000C9A4, symSize: 0x18 }
  - { offset: 0x3156D, size: 0x8, addend: 0x0, symName: __ZNSt15__new_allocatorI7MeetingE10deallocateEPS0_m, symObjAddr: 0x96F8, symBinAddr: 0x10000C968, symSize: 0x3C }
  - { offset: 0x315B3, size: 0x8, addend: 0x0, symName: __ZSt26__unguarded_insertion_sortIN9__gnu_cxx17__normal_iteratorIP3JobSt6vectorIS2_SaIS2_EEEENS0_5__ops15_Iter_comp_iterIPFbS2_S2_EEEEvT_SD_T0_, symObjAddr: 0x9694, symBinAddr: 0x10000C904, symSize: 0x64 }
  - { offset: 0x31635, size: 0x8, addend: 0x0, symName: __ZSt16__insertion_sortIN9__gnu_cxx17__normal_iteratorIP3JobSt6vectorIS2_SaIS2_EEEENS0_5__ops15_Iter_comp_iterIPFbS2_S2_EEEEvT_SD_T0_, symObjAddr: 0x9580, symBinAddr: 0x10000C7F0, symSize: 0x114 }
  - { offset: 0x316DF, size: 0x8, addend: 0x0, symName: __ZNK9__gnu_cxx17__normal_iteratorIP3JobSt6vectorIS1_SaIS1_EEEplEl, symObjAddr: 0x9534, symBinAddr: 0x10000C7A4, symSize: 0x4C }
  - { offset: 0x31716, size: 0x8, addend: 0x0, symName: __ZSt27__unguarded_partition_pivotIN9__gnu_cxx17__normal_iteratorIP3JobSt6vectorIS2_SaIS2_EEEENS0_5__ops15_Iter_comp_iterIPFbS2_S2_EEEET_SD_SD_T0_, symObjAddr: 0x9498, symBinAddr: 0x10000C708, symSize: 0x9C }
  - { offset: 0x31785, size: 0x8, addend: 0x0, symName: __ZSt14__partial_sortIN9__gnu_cxx17__normal_iteratorIP3JobSt6vectorIS2_SaIS2_EEEENS0_5__ops15_Iter_comp_iterIPFbS2_S2_EEEEvT_SD_SD_T0_, symObjAddr: 0x944C, symBinAddr: 0x10000C6BC, symSize: 0x4C }
  - { offset: 0x317F8, size: 0x8, addend: 0x0, symName: __ZNK9__gnu_cxx17__normal_iteratorIP3JobSt6vectorIS1_SaIS1_EEE4baseEv, symObjAddr: 0x9438, symBinAddr: 0x10000C6A8, symSize: 0x14 }
  - { offset: 0x31822, size: 0x8, addend: 0x0, symName: __ZNK9__gnu_cxx17__normal_iteratorIP3JobSt6vectorIS1_SaIS1_EEEdeEv, symObjAddr: 0x9420, symBinAddr: 0x10000C690, symSize: 0x18 }
  - { offset: 0x3184C, size: 0x8, addend: 0x0, symName: __ZNK9__gnu_cxx17__normal_iteratorIP3JobSt6vectorIS1_SaIS1_EEEmiEl, symObjAddr: 0x93D0, symBinAddr: 0x10000C640, symSize: 0x50 }
  - { offset: 0x31883, size: 0x8, addend: 0x0, symName: __ZNSt6vectorI3JobSaIS0_EE11_S_relocateEPS0_S3_S3_RS1_, symObjAddr: 0x939C, symBinAddr: 0x10000C60C, symSize: 0x34 }
  - { offset: 0x318E0, size: 0x8, addend: 0x0, symName: __ZSt12__to_addressI3JobEPT_S2_, symObjAddr: 0x9388, symBinAddr: 0x10000C5F8, symSize: 0x14 }
  - { offset: 0x31916, size: 0x8, addend: 0x0, symName: __ZNSt12_Vector_baseI3JobSaIS0_EE11_M_allocateEm, symObjAddr: 0x9338, symBinAddr: 0x10000C5A8, symSize: 0x50 }
  - { offset: 0x3197E, size: 0x8, addend: 0x0, symName: __ZNKSt6vectorI3JobSaIS0_EE12_M_check_lenEmPKc, symObjAddr: 0x9268, symBinAddr: 0x10000C4D8, symSize: 0xD0 }
  - { offset: 0x31A19, size: 0x8, addend: 0x0, symName: __ZNSt12_Destroy_auxILb1EE9__destroyIP3JobEEvT_S4_, symObjAddr: 0x9250, symBinAddr: 0x10000C4C0, symSize: 0x18 }
  - { offset: 0x31A51, size: 0x8, addend: 0x0, symName: __ZNSt15__new_allocatorI3JobE10deallocateEPS0_m, symObjAddr: 0x9214, symBinAddr: 0x10000C484, symSize: 0x3C }
  - { offset: 0x31A97, size: 0x8, addend: 0x0, symName: __ZSt25__uninitialized_default_nIPimET_S1_T0_, symObjAddr: 0x91E8, symBinAddr: 0x10000C458, symSize: 0x2C }
  - { offset: 0x31AF5, size: 0x8, addend: 0x0, symName: __ZNSt20__uninitialized_copyILb1EE13__uninit_copyIPiS2_EET0_T_S4_S3_, symObjAddr: 0x91BC, symBinAddr: 0x10000C42C, symSize: 0x2C }
  - { offset: 0x31B50, size: 0x8, addend: 0x0, symName: __ZSt12__niter_wrapIPiET_RKS1_S1_, symObjAddr: 0x91A4, symBinAddr: 0x10000C414, symSize: 0x18 }
  - { offset: 0x31B8C, size: 0x8, addend: 0x0, symName: __ZSt14__copy_move_a1ILb0EPiS0_ET1_T0_S2_S1_, symObjAddr: 0x9178, symBinAddr: 0x10000C3E8, symSize: 0x2C }
  - { offset: 0x31BF4, size: 0x8, addend: 0x0, symName: __ZSt12__niter_baseIPiET_S1_, symObjAddr: 0x9164, symBinAddr: 0x10000C3D4, symSize: 0x14 }
  - { offset: 0x31C27, size: 0x8, addend: 0x0, symName: __ZNSt12_Destroy_auxILb1EE9__destroyIN9__gnu_cxx17__normal_iteratorIPiSt6vectorIiSaIiEEEEEEvT_S9_, symObjAddr: 0x914C, symBinAddr: 0x10000C3BC, symSize: 0x18 }
  - { offset: 0x31C5B, size: 0x8, addend: 0x0, symName: __ZSt12__niter_wrapIN9__gnu_cxx17__normal_iteratorIPiSt6vectorIiSaIiEEEES2_ET_S7_T0_, symObjAddr: 0x9104, symBinAddr: 0x10000C374, symSize: 0x48 }
  - { offset: 0x31CA8, size: 0x8, addend: 0x0, symName: __ZSt14__copy_move_a1ILb0EPKiPiET1_T0_S4_S3_, symObjAddr: 0x90D8, symBinAddr: 0x10000C348, symSize: 0x2C }
  - { offset: 0x31D10, size: 0x8, addend: 0x0, symName: __ZSt12__niter_baseIPiSt6vectorIiSaIiEEET_N9__gnu_cxx17__normal_iteratorIS4_T0_EE, symObjAddr: 0x90B8, symBinAddr: 0x10000C328, symSize: 0x20 }
  - { offset: 0x31D4C, size: 0x8, addend: 0x0, symName: __ZSt12__niter_baseIPKiSt6vectorIiSaIiEEET_N9__gnu_cxx17__normal_iteratorIS5_T0_EE, symObjAddr: 0x9098, symBinAddr: 0x10000C308, symSize: 0x20 }
  - { offset: 0x31D88, size: 0x8, addend: 0x0, symName: __ZNSt12_Destroy_auxILb0EE9__destroyIPSt6vectorIiSaIiEEEEvT_S6_, symObjAddr: 0x904C, symBinAddr: 0x10000C2BC, symSize: 0x4C }
  - { offset: 0x31DCA, size: 0x8, addend: 0x0, symName: __ZSt20uninitialized_fill_nIPSt6vectorIiSaIiEEmS2_ET_S4_T0_RKT1_, symObjAddr: 0x901C, symBinAddr: 0x10000C28C, symSize: 0x30 }
  - { offset: 0x31E92, size: 0x8, addend: 0x0, symName: __ZNSt12_Vector_baseISt6vectorIiSaIiEESaIS2_EE17_Vector_impl_dataC2Ev, symObjAddr: 0x8FF0, symBinAddr: 0x10000C260, symSize: 0x2C }
  - { offset: 0x31EE5, size: 0x8, addend: 0x0, symName: __ZSt20uninitialized_fill_nIPimiET_S1_T0_RKT1_, symObjAddr: 0x8FBC, symBinAddr: 0x10000C22C, symSize: 0x34 }
  - { offset: 0x31F77, size: 0x8, addend: 0x0, symName: __ZNSt8__detail16_Hashtable_allocISaINS_10_Hash_nodeISt4pairIKiiELb0EEEEE16_M_allocate_nodeIJRKSt21piecewise_construct_tSt5tupleIJOiEESC_IJEEEEEPS5_DpOT_, symObjAddr: 0x8DD0, symBinAddr: 0x10000C040, symSize: 0x1EC }
  - { offset: 0x3212C, size: 0x8, addend: 0x0, symName: __ZSt7forwardISt5tupleIJOiEEEOT_RNSt16remove_referenceIS3_E4typeE, symObjAddr: 0x8DBC, symBinAddr: 0x10000C02C, symSize: 0x14 }
  - { offset: 0x3219D, size: 0x8, addend: 0x0, symName: __ZNSt5tupleIJOiEEC1IJiELb1ELb1EEEDpOT_, symObjAddr: 0x8D80, symBinAddr: 0x10000BFF0, symSize: 0x3C }
  - { offset: 0x32210, size: 0x8, addend: 0x0, symName: __ZNSt8__detail14_Node_iteratorISt4pairIKiiELb0ELb0EEC1EPNS_10_Hash_nodeIS3_Lb0EEE, symObjAddr: 0x8D58, symBinAddr: 0x10000BFC8, symSize: 0x28 }
  - { offset: 0x3223F, size: 0x8, addend: 0x0, symName: __ZNSt10_HashtableIiSt4pairIKiiESaIS2_ENSt8__detail10_Select1stESt8equal_toIiESt4hashIiENS4_18_Mod_range_hashingENS4_20_Default_ranged_hashENS4_20_Prime_rehash_policyENS4_17_Hashtable_traitsILb0ELb0ELb1EEEE22_M_insert_bucket_beginEmPNS4_10_Hash_nodeIS2_Lb0EEE, symObjAddr: 0x8C4C, symBinAddr: 0x10000BEBC, symSize: 0x10C }
  - { offset: 0x3228B, size: 0x8, addend: 0x0, symName: __ZNKSt8__detail15_Hash_code_baseIiSt4pairIKiiENS_10_Select1stESt4hashIiENS_18_Mod_range_hashingENS_20_Default_ranged_hashELb0EE13_M_store_codeERNS_21_Hash_node_code_cacheILb0EEEm, symObjAddr: 0x8C30, symBinAddr: 0x10000BEA0, symSize: 0x1C }
  - { offset: 0x322C7, size: 0x8, addend: 0x0, symName: __ZNSt10_HashtableIiSt4pairIKiiESaIS2_ENSt8__detail10_Select1stESt8equal_toIiESt4hashIiENS4_18_Mod_range_hashingENS4_20_Default_ranged_hashENS4_20_Prime_rehash_policyENS4_17_Hashtable_traitsILb0ELb0ELb1EEEE9_M_rehashEmSt17integral_constantIbLb1EE, symObjAddr: 0x8AC4, symBinAddr: 0x10000BD34, symSize: 0x16C }
  - { offset: 0x32398, size: 0x8, addend: 0x0, symName: __ZNSt8__detail17_RehashStateGuardINS_20_Prime_rehash_policyEED1Ev, symObjAddr: 0x8A80, symBinAddr: 0x10000BCF0, symSize: 0x44 }
  - { offset: 0x323E6, size: 0x8, addend: 0x0, symName: __ZNSt8__detail17_RehashStateGuardINS_20_Prime_rehash_policyEEC1ERS1_, symObjAddr: 0x8A3C, symBinAddr: 0x10000BCAC, symSize: 0x44 }
  - { offset: 0x32415, size: 0x8, addend: 0x0, symName: __ZNSt8__detail16_Hashtable_allocISaINS_10_Hash_nodeISt4pairIKiiELb0EEEEE16_M_allocate_nodeIJRKSt21piecewise_construct_tSt5tupleIJRS3_EESC_IJEEEEEPS5_DpOT_, symObjAddr: 0x8850, symBinAddr: 0x10000BAC0, symSize: 0x1EC }
  - { offset: 0x325E5, size: 0x8, addend: 0x0, symName: __ZNSt8__detail10_Hash_nodeISt4pairIKiiELb0EEC1Ev, symObjAddr: 0x8830, symBinAddr: 0x10000BAA0, symSize: 0x20 }
  - { offset: 0x3260E, size: 0x8, addend: 0x0, symName: __ZSt7forwardISt5tupleIJEEEOT_RNSt16remove_referenceIS2_E4typeE, symObjAddr: 0x881C, symBinAddr: 0x10000BA8C, symSize: 0x14 }
  - { offset: 0x32647, size: 0x8, addend: 0x0, symName: __ZSt7forwardISt5tupleIJRKiEEEOT_RNSt16remove_referenceIS4_E4typeE, symObjAddr: 0x8808, symBinAddr: 0x10000BA78, symSize: 0x14 }
  - { offset: 0x32680, size: 0x8, addend: 0x0, symName: __ZSt7forwardIRKSt21piecewise_construct_tEOT_RNSt16remove_referenceIS3_E4typeE, symObjAddr: 0x87F4, symBinAddr: 0x10000BA64, symSize: 0x14 }
  - { offset: 0x326DE, size: 0x8, addend: 0x0, symName: __ZNSt11_Tuple_implILm0EJRKiEEC2ES1_, symObjAddr: 0x87CC, symBinAddr: 0x10000BA3C, symSize: 0x28 }
  - { offset: 0x32723, size: 0x8, addend: 0x0, symName: __ZNKSt10_HashtableIiSt4pairIKiiESaIS2_ENSt8__detail10_Select1stESt8equal_toIiESt4hashIiENS4_18_Mod_range_hashingENS4_20_Default_ranged_hashENS4_20_Prime_rehash_policyENS4_17_Hashtable_traitsILb0ELb0ELb1EEEE19_M_find_before_nodeEmRS1_m, symObjAddr: 0x86D0, symBinAddr: 0x10000B940, symSize: 0xFC }
  - { offset: 0x327B5, size: 0x8, addend: 0x0, symName: __ZNKSt8__detail15_Hash_code_baseIiSt4pairIKiiENS_10_Select1stESt4hashIiENS_18_Mod_range_hashingENS_20_Default_ranged_hashELb0EE15_M_bucket_indexEmm, symObjAddr: 0x86A4, symBinAddr: 0x10000B914, symSize: 0x2C }
  - { offset: 0x32801, size: 0x8, addend: 0x0, symName: __ZNKSt8__detail15_Hash_code_baseIiSt4pairIKiiENS_10_Select1stESt4hashIiENS_18_Mod_range_hashingENS_20_Default_ranged_hashELb0EE7_M_hashEv, symObjAddr: 0x8688, symBinAddr: 0x10000B8F8, symSize: 0x1C }
  - { offset: 0x3282B, size: 0x8, addend: 0x0, symName: __ZNSt8__detail16_Hashtable_allocISaINS_10_Hash_nodeISt4pairIKiiELb0EEEEE21_M_deallocate_bucketsEPPNS_15_Hash_node_baseEm, symObjAddr: 0x8610, symBinAddr: 0x10000B880, symSize: 0x78 }
  - { offset: 0x3293B, size: 0x8, addend: 0x0, symName: __ZNKSt10_HashtableIiSt4pairIKiiESaIS2_ENSt8__detail10_Select1stESt8equal_toIiESt4hashIiENS4_18_Mod_range_hashingENS4_20_Default_ranged_hashENS4_20_Prime_rehash_policyENS4_17_Hashtable_traitsILb0ELb0ELb1EEEE21_M_uses_single_bucketEPPNS4_15_Hash_node_baseE, symObjAddr: 0x85D4, symBinAddr: 0x10000B844, symSize: 0x3C }
  - { offset: 0x32976, size: 0x8, addend: 0x0, symName: __ZNSt8__detail16_Hashtable_allocISaINS_10_Hash_nodeISt4pairIKiiELb0EEEEE18_M_deallocate_nodeEPS5_, symObjAddr: 0x8560, symBinAddr: 0x10000B7D0, symSize: 0x74 }
  - { offset: 0x32A2F, size: 0x8, addend: 0x0, symName: __ZNKSt8__detail10_Hash_nodeISt4pairIKiiELb0EE7_M_nextEv, symObjAddr: 0x8548, symBinAddr: 0x10000B7B8, symSize: 0x18 }
  - { offset: 0x32A55, size: 0x8, addend: 0x0, symName: __ZSt12__relocate_aIPiS0_SaIiEET0_T_S3_S2_RT1_, symObjAddr: 0x84EC, symBinAddr: 0x10000B75C, symSize: 0x5C }
  - { offset: 0x32AD1, size: 0x8, addend: 0x0, symName: __ZNKSt6vectorIiSaIiEE8max_sizeEv, symObjAddr: 0x84CC, symBinAddr: 0x10000B73C, symSize: 0x20 }
  - { offset: 0x32AFB, size: 0x8, addend: 0x0, symName: __ZNSt15__new_allocatorIiE10deallocateEPim, symObjAddr: 0x849C, symBinAddr: 0x10000B70C, symSize: 0x30 }
  - { offset: 0x32B41, size: 0x8, addend: 0x0, symName: __ZNSt12_Destroy_auxILb1EE9__destroyIPiEEvT_S3_, symObjAddr: 0x8484, symBinAddr: 0x10000B6F4, symSize: 0x18 }
  - { offset: 0x32B75, size: 0x8, addend: 0x0, symName: __ZSt18uninitialized_copyIPKiPiET0_T_S4_S3_, symObjAddr: 0x8448, symBinAddr: 0x10000B6B8, symSize: 0x3C }
  - { offset: 0x32C14, size: 0x8, addend: 0x0, symName: __ZSt26__unguarded_insertion_sortIN9__gnu_cxx17__normal_iteratorIPSt4pairIiiESt6vectorIS3_SaIS3_EEEENS0_5__ops15_Iter_comp_iterIPFbRS3_SB_EEEEvT_SF_T0_, symObjAddr: 0x83E4, symBinAddr: 0x10000B654, symSize: 0x64 }
  - { offset: 0x32C96, size: 0x8, addend: 0x0, symName: __ZSt16__insertion_sortIN9__gnu_cxx17__normal_iteratorIPSt4pairIiiESt6vectorIS3_SaIS3_EEEENS0_5__ops15_Iter_comp_iterIPFbRS3_SB_EEEEvT_SF_T0_, symObjAddr: 0x82EC, symBinAddr: 0x10000B55C, symSize: 0xF8 }
  - { offset: 0x32D40, size: 0x8, addend: 0x0, symName: __ZNK9__gnu_cxx17__normal_iteratorIPSt4pairIiiESt6vectorIS2_SaIS2_EEEplEl, symObjAddr: 0x82AC, symBinAddr: 0x10000B51C, symSize: 0x40 }
  - { offset: 0x32D77, size: 0x8, addend: 0x0, symName: __ZSt27__unguarded_partition_pivotIN9__gnu_cxx17__normal_iteratorIPSt4pairIiiESt6vectorIS3_SaIS3_EEEENS0_5__ops15_Iter_comp_iterIPFbRS3_SB_EEEET_SF_SF_T0_, symObjAddr: 0x8210, symBinAddr: 0x10000B480, symSize: 0x9C }
  - { offset: 0x32DE6, size: 0x8, addend: 0x0, symName: __ZSt14__partial_sortIN9__gnu_cxx17__normal_iteratorIPSt4pairIiiESt6vectorIS3_SaIS3_EEEENS0_5__ops15_Iter_comp_iterIPFbRS3_SB_EEEEvT_SF_SF_T0_, symObjAddr: 0x81C4, symBinAddr: 0x10000B434, symSize: 0x4C }
  - { offset: 0x32E59, size: 0x8, addend: 0x0, symName: __ZNK9__gnu_cxx17__normal_iteratorIPSt4pairIiiESt6vectorIS2_SaIS2_EEE4baseEv, symObjAddr: 0x81B0, symBinAddr: 0x10000B420, symSize: 0x14 }
  - { offset: 0x32E83, size: 0x8, addend: 0x0, symName: __ZNK9__gnu_cxx17__normal_iteratorIPSt4pairIiiESt6vectorIS2_SaIS2_EEEdeEv, symObjAddr: 0x8198, symBinAddr: 0x10000B408, symSize: 0x18 }
  - { offset: 0x32EAD, size: 0x8, addend: 0x0, symName: __ZNK9__gnu_cxx17__normal_iteratorIPSt4pairIiiESt6vectorIS2_SaIS2_EEEmiEl, symObjAddr: 0x8154, symBinAddr: 0x10000B3C4, symSize: 0x44 }
  - { offset: 0x32EE4, size: 0x8, addend: 0x0, symName: __ZNSt6vectorISt4pairIiiESaIS1_EE11_S_relocateEPS1_S4_S4_RS2_, symObjAddr: 0x8120, symBinAddr: 0x10000B390, symSize: 0x34 }
  - { offset: 0x32F41, size: 0x8, addend: 0x0, symName: __ZSt12__to_addressISt4pairIiiEEPT_S3_, symObjAddr: 0x810C, symBinAddr: 0x10000B37C, symSize: 0x14 }
  - { offset: 0x32F77, size: 0x8, addend: 0x0, symName: __ZNSt12_Vector_baseISt4pairIiiESaIS1_EE11_M_allocateEm, symObjAddr: 0x80BC, symBinAddr: 0x10000B32C, symSize: 0x50 }
  - { offset: 0x32FDF, size: 0x8, addend: 0x0, symName: __ZNKSt6vectorISt4pairIiiESaIS1_EE12_M_check_lenEmPKc, symObjAddr: 0x7FEC, symBinAddr: 0x10000B25C, symSize: 0xD0 }
  - { offset: 0x3307A, size: 0x8, addend: 0x0, symName: __ZNSt12_Destroy_auxILb1EE9__destroyIPSt4pairIiiEEEvT_S5_, symObjAddr: 0x7FD4, symBinAddr: 0x10000B244, symSize: 0x18 }
  - { offset: 0x330B2, size: 0x8, addend: 0x0, symName: __ZNSt15__new_allocatorISt4pairIiiEE10deallocateEPS1_m, symObjAddr: 0x7FA4, symBinAddr: 0x10000B214, symSize: 0x30 }
  - { offset: 0x330F8, size: 0x8, addend: 0x0, symName: __ZSt26__unguarded_insertion_sortIN9__gnu_cxx17__normal_iteratorIPiSt6vectorIiSaIiEEEENS0_5__ops15_Iter_less_iterEEvT_S9_T0_, symObjAddr: 0x7F38, symBinAddr: 0x10000B1A8, symSize: 0x6C }
  - { offset: 0x3317A, size: 0x8, addend: 0x0, symName: __ZSt16__insertion_sortIN9__gnu_cxx17__normal_iteratorIPiSt6vectorIiSaIiEEEENS0_5__ops15_Iter_less_iterEEvT_S9_T0_, symObjAddr: 0x7E3C, symBinAddr: 0x10000B0AC, symSize: 0xFC }
  - { offset: 0x33224, size: 0x8, addend: 0x0, symName: __ZNK9__gnu_cxx17__normal_iteratorIPiSt6vectorIiSaIiEEEplEl, symObjAddr: 0x7DFC, symBinAddr: 0x10000B06C, symSize: 0x40 }
  - { offset: 0x3325B, size: 0x8, addend: 0x0, symName: __ZSt27__unguarded_partition_pivotIN9__gnu_cxx17__normal_iteratorIPiSt6vectorIiSaIiEEEENS0_5__ops15_Iter_less_iterEET_S9_S9_T0_, symObjAddr: 0x7D58, symBinAddr: 0x10000AFC8, symSize: 0xA4 }
  - { offset: 0x332CA, size: 0x8, addend: 0x0, symName: __ZSt14__partial_sortIN9__gnu_cxx17__normal_iteratorIPiSt6vectorIiSaIiEEEENS0_5__ops15_Iter_less_iterEEvT_S9_S9_T0_, symObjAddr: 0x7D0C, symBinAddr: 0x10000AF7C, symSize: 0x4C }
  - { offset: 0x33339, size: 0x8, addend: 0x0, symName: __ZSt13__countl_zeroImEiT_, symObjAddr: 0x7CB8, symBinAddr: 0x10000AF28, symSize: 0x54 }
  - { offset: 0x333CE, size: 0x8, addend: 0x0, symName: __ZSt22__uninitialized_copy_aIPKSt6vectorIiSaIiEEPS2_S2_ET0_T_S7_S6_RSaIT1_E, symObjAddr: 0x7C88, symBinAddr: 0x10000AEF8, symSize: 0x30 }
  - { offset: 0x33442, size: 0x8, addend: 0x0, symName: __ZNSt12_Vector_baseISt6vectorIiSaIiEESaIS2_EE11_M_allocateEm, symObjAddr: 0x7C38, symBinAddr: 0x10000AEA8, symSize: 0x50 }
  - { offset: 0x334F7, size: 0x8, addend: 0x0, symName: __ZNKSt16initializer_listISt6vectorIiSaIiEEE4sizeEv, symObjAddr: 0x7C20, symBinAddr: 0x10000AE90, symSize: 0x18 }
  - { offset: 0x3351D, size: 0x8, addend: 0x0, symName: __ZSt18uninitialized_copyIN9__gnu_cxx17__normal_iteratorIPKiSt6vectorIiSaIiEEEEPiET0_T_SA_S9_, symObjAddr: 0x7BE4, symBinAddr: 0x10000AE54, symSize: 0x3C }
  - { offset: 0x335AE, size: 0x8, addend: 0x0, symName: __ZSt22__final_insertion_sortIN9__gnu_cxx17__normal_iteratorIPSt6vectorIiSaIiEES2_IS4_SaIS4_EEEENS0_5__ops15_Iter_comp_iterIPFbRS4_SB_EEEEvT_SF_T0_, symObjAddr: 0x7B58, symBinAddr: 0x10000ADC8, symSize: 0x8C }
  - { offset: 0x3360C, size: 0x8, addend: 0x0, symName: __ZSt16__introsort_loopIN9__gnu_cxx17__normal_iteratorIPSt6vectorIiSaIiEES2_IS4_SaIS4_EEEElNS0_5__ops15_Iter_comp_iterIPFbRS4_SB_EEEEvT_SF_T0_T1_, symObjAddr: 0x7AB0, symBinAddr: 0x10000AD20, symSize: 0xA8 }
  - { offset: 0x336A8, size: 0x8, addend: 0x0, symName: __ZN9__gnu_cxxmiIPSt6vectorIiSaIiEES1_IS3_SaIS3_EEEENS_17__normal_iteratorIT_T0_E15difference_typeERKSA_SD_, symObjAddr: 0x7A64, symBinAddr: 0x10000ACD4, symSize: 0x4C }
  - { offset: 0x336F5, size: 0x8, addend: 0x0, symName: __ZN9__gnu_cxxneIPSt6vectorIiSaIiEES1_IS3_SaIS3_EEEEbRKNS_17__normal_iteratorIT_T0_EESC_, symObjAddr: 0x7A20, symBinAddr: 0x10000AC90, symSize: 0x44 }
  - { offset: 0x3376D, size: 0x8, addend: 0x0, symName: __ZN9__gnu_cxx5__ops15_Iter_comp_iterIPFbRSt6vectorIiSaIiEES5_EEC1ES7_, symObjAddr: 0x79F0, symBinAddr: 0x10000AC60, symSize: 0x30 }
  - { offset: 0x337A6, size: 0x8, addend: 0x0, symName: __ZSt4moveIRPFbRSt6vectorIiSaIiEES3_EEONSt16remove_referenceIT_E4typeEOS8_, symObjAddr: 0x79DC, symBinAddr: 0x10000AC4C, symSize: 0x14 }
  - { offset: 0x337D8, size: 0x8, addend: 0x0, symName: __ZSt22__final_insertion_sortIN9__gnu_cxx17__normal_iteratorIP7MeetingSt6vectorIS2_SaIS2_EEEENS0_5__ops15_Iter_comp_iterIPFbRS2_S2_EEEEvT_SE_T0_, symObjAddr: 0x7950, symBinAddr: 0x10000ABC0, symSize: 0x8C }
  - { offset: 0x33836, size: 0x8, addend: 0x0, symName: __ZSt16__introsort_loopIN9__gnu_cxx17__normal_iteratorIP7MeetingSt6vectorIS2_SaIS2_EEEElNS0_5__ops15_Iter_comp_iterIPFbRS2_S2_EEEEvT_SE_T0_T1_, symObjAddr: 0x78A8, symBinAddr: 0x10000AB18, symSize: 0xA8 }
  - { offset: 0x338D2, size: 0x8, addend: 0x0, symName: __ZN9__gnu_cxxmiIP7MeetingSt6vectorIS1_SaIS1_EEEENS_17__normal_iteratorIT_T0_E15difference_typeERKS9_SC_, symObjAddr: 0x785C, symBinAddr: 0x10000AACC, symSize: 0x4C }
  - { offset: 0x3391F, size: 0x8, addend: 0x0, symName: __ZN9__gnu_cxxneIP7MeetingSt6vectorIS1_SaIS1_EEEEbRKNS_17__normal_iteratorIT_T0_EESB_, symObjAddr: 0x7818, symBinAddr: 0x10000AA88, symSize: 0x44 }
  - { offset: 0x33997, size: 0x8, addend: 0x0, symName: __ZN9__gnu_cxx5__ops15_Iter_comp_iterIPFbR7MeetingS2_EEC1ES5_, symObjAddr: 0x77E8, symBinAddr: 0x10000AA58, symSize: 0x30 }
  - { offset: 0x339D0, size: 0x8, addend: 0x0, symName: __ZSt4moveIRPFbR7MeetingS0_EEONSt16remove_referenceIT_E4typeEOS6_, symObjAddr: 0x77D4, symBinAddr: 0x10000AA44, symSize: 0x14 }
  - { offset: 0x33A06, size: 0x8, addend: 0x0, symName: __ZNSt6vectorI7MeetingSaIS0_EE4backEv, symObjAddr: 0x779C, symBinAddr: 0x10000AA0C, symSize: 0x38 }
  - { offset: 0x33A30, size: 0x8, addend: 0x0, symName: __ZNSt6vectorI7MeetingSaIS0_EE17_M_realloc_appendIJS0_EEEvDpOT_, symObjAddr: 0x75A4, symBinAddr: 0x10000A814, symSize: 0x1F8 }
  - { offset: 0x33BB5, size: 0x8, addend: 0x0, symName: __ZZNSt6vectorI7MeetingSaIS0_EE17_M_realloc_appendIJS0_EEEvDpOT_EN6_GuardC1EPS0_mRS1_, symObjAddr: 0x7500, symBinAddr: 0x10000A770, symSize: 0x44 }
  - { offset: 0x33BFA, size: 0x8, addend: 0x0, symName: __ZZNSt6vectorI7MeetingSaIS0_EE17_M_realloc_appendIJS0_EEEvDpOT_EN6_GuardD1Ev, symObjAddr: 0x7544, symBinAddr: 0x10000A7B4, symSize: 0x60 }
  - { offset: 0x33D34, size: 0x8, addend: 0x0, symName: __ZSt7forwardI7MeetingEOT_RNSt16remove_referenceIS1_E4typeE, symObjAddr: 0x74EC, symBinAddr: 0x10000A75C, symSize: 0x14 }
  - { offset: 0x33D66, size: 0x8, addend: 0x0, symName: __ZSt8_DestroyIP7MeetingEvT_S2_, symObjAddr: 0x74C4, symBinAddr: 0x10000A734, symSize: 0x28 }
  - { offset: 0x33DF0, size: 0x8, addend: 0x0, symName: __ZSt22__final_insertion_sortIN9__gnu_cxx17__normal_iteratorIP3JobSt6vectorIS2_SaIS2_EEEENS0_5__ops15_Iter_comp_iterIPFbS2_S2_EEEEvT_SD_T0_, symObjAddr: 0x7438, symBinAddr: 0x10000A6A8, symSize: 0x8C }
  - { offset: 0x33E4E, size: 0x8, addend: 0x0, symName: __ZSt16__introsort_loopIN9__gnu_cxx17__normal_iteratorIP3JobSt6vectorIS2_SaIS2_EEEElNS0_5__ops15_Iter_comp_iterIPFbS2_S2_EEEEvT_SD_T0_T1_, symObjAddr: 0x7390, symBinAddr: 0x10000A600, symSize: 0xA8 }
  - { offset: 0x33EEA, size: 0x8, addend: 0x0, symName: __ZN9__gnu_cxxmiIP3JobSt6vectorIS1_SaIS1_EEEENS_17__normal_iteratorIT_T0_E15difference_typeERKS9_SC_, symObjAddr: 0x7344, symBinAddr: 0x10000A5B4, symSize: 0x4C }
  - { offset: 0x33F37, size: 0x8, addend: 0x0, symName: __ZN9__gnu_cxxneIP3JobSt6vectorIS1_SaIS1_EEEEbRKNS_17__normal_iteratorIT_T0_EESB_, symObjAddr: 0x7300, symBinAddr: 0x10000A570, symSize: 0x44 }
  - { offset: 0x33FAF, size: 0x8, addend: 0x0, symName: __ZN9__gnu_cxx5__ops15_Iter_comp_iterIPFb3JobS2_EEC1ES4_, symObjAddr: 0x72D0, symBinAddr: 0x10000A540, symSize: 0x30 }
  - { offset: 0x33FE8, size: 0x8, addend: 0x0, symName: __ZSt4moveIRPFb3JobS0_EEONSt16remove_referenceIT_E4typeEOS5_, symObjAddr: 0x72BC, symBinAddr: 0x10000A52C, symSize: 0x14 }
  - { offset: 0x3401E, size: 0x8, addend: 0x0, symName: __ZNSt6vectorI3JobSaIS0_EE4backEv, symObjAddr: 0x7284, symBinAddr: 0x10000A4F4, symSize: 0x38 }
  - { offset: 0x34048, size: 0x8, addend: 0x0, symName: __ZNSt6vectorI3JobSaIS0_EE17_M_realloc_appendIJS0_EEEvDpOT_, symObjAddr: 0x708C, symBinAddr: 0x10000A2FC, symSize: 0x1F8 }
  - { offset: 0x341CD, size: 0x8, addend: 0x0, symName: __ZZNSt6vectorI3JobSaIS0_EE17_M_realloc_appendIJS0_EEEvDpOT_EN6_GuardC1EPS0_mRS1_, symObjAddr: 0x6FE8, symBinAddr: 0x10000A258, symSize: 0x44 }
  - { offset: 0x34212, size: 0x8, addend: 0x0, symName: __ZZNSt6vectorI3JobSaIS0_EE17_M_realloc_appendIJS0_EEEvDpOT_EN6_GuardD1Ev, symObjAddr: 0x702C, symBinAddr: 0x10000A29C, symSize: 0x60 }
  - { offset: 0x3434C, size: 0x8, addend: 0x0, symName: __ZSt7forwardI3JobEOT_RNSt16remove_referenceIS1_E4typeE, symObjAddr: 0x6FD4, symBinAddr: 0x10000A244, symSize: 0x14 }
  - { offset: 0x3437E, size: 0x8, addend: 0x0, symName: __ZSt8_DestroyIP3JobEvT_S2_, symObjAddr: 0x6FAC, symBinAddr: 0x10000A21C, symSize: 0x28 }
  - { offset: 0x3440C, size: 0x8, addend: 0x0, symName: __ZNK9__gnu_cxx17__normal_iteratorIPiSt6vectorIiSaIiEEE4baseEv, symObjAddr: 0x6F98, symBinAddr: 0x10000A208, symSize: 0x14 }
  - { offset: 0x34432, size: 0x8, addend: 0x0, symName: __ZSt27__uninitialized_default_n_aIPimiET_S1_T0_RSaIT1_E, symObjAddr: 0x6F70, symBinAddr: 0x10000A1E0, symSize: 0x28 }
  - { offset: 0x34491, size: 0x8, addend: 0x0, symName: __ZSt18uninitialized_copyIPiS0_ET0_T_S2_S1_, symObjAddr: 0x6F34, symBinAddr: 0x10000A1A4, symSize: 0x3C }
  - { offset: 0x3450C, size: 0x8, addend: 0x0, symName: __ZSt13__copy_move_aILb0EPiS0_ET1_T0_S2_S1_, symObjAddr: 0x6ED4, symBinAddr: 0x10000A144, symSize: 0x60 }
  - { offset: 0x34574, size: 0x8, addend: 0x0, symName: __ZSt12__miter_baseIPiET_S1_, symObjAddr: 0x6EC0, symBinAddr: 0x10000A130, symSize: 0x14 }
  - { offset: 0x345A7, size: 0x8, addend: 0x0, symName: __ZSt8_DestroyIN9__gnu_cxx17__normal_iteratorIPiSt6vectorIiSaIiEEEEEvT_S7_, symObjAddr: 0x6E98, symBinAddr: 0x10000A108, symSize: 0x28 }
  - { offset: 0x345E9, size: 0x8, addend: 0x0, symName: __ZSt13__copy_move_aILb0EN9__gnu_cxx17__normal_iteratorIPKiSt6vectorIiSaIiEEEENS1_IPiS6_EEET1_T0_SB_SA_, symObjAddr: 0x6E38, symBinAddr: 0x10000A0A8, symSize: 0x60 }
  - { offset: 0x34651, size: 0x8, addend: 0x0, symName: __ZSt12__miter_baseIN9__gnu_cxx17__normal_iteratorIPKiSt6vectorIiSaIiEEEEET_S8_, symObjAddr: 0x6E24, symBinAddr: 0x10000A094, symSize: 0x14 }
  - { offset: 0x346B0, size: 0x8, addend: 0x0, symName: __ZN9__gnu_cxx17__normal_iteratorIPKiSt6vectorIiSaIiEEEC1ERKS2_, symObjAddr: 0x6DFC, symBinAddr: 0x10000A06C, symSize: 0x28 }
  - { offset: 0x346DF, size: 0x8, addend: 0x0, symName: __ZNSt6vectorIiSaIiEE15_M_erase_at_endEPi, symObjAddr: 0x6D74, symBinAddr: 0x100009FE4, symSize: 0x88 }
  - { offset: 0x34770, size: 0x8, addend: 0x0, symName: __ZSt8_DestroyIPSt6vectorIiSaIiEEEvT_S4_, symObjAddr: 0x6D4C, symBinAddr: 0x100009FBC, symSize: 0x28 }
  - { offset: 0x347B2, size: 0x8, addend: 0x0, symName: __ZSt24__uninitialized_fill_n_aIPSt6vectorIiSaIiEEmS2_S2_ET_S4_T0_RKT1_RSaIT2_E, symObjAddr: 0x6D1C, symBinAddr: 0x100009F8C, symSize: 0x30 }
  - { offset: 0x3482F, size: 0x8, addend: 0x0, symName: __ZNSt12_Vector_baseISt6vectorIiSaIiEESaIS2_EE13_M_deallocateEPS2_m, symObjAddr: 0x6CC4, symBinAddr: 0x100009F34, symSize: 0x58 }
  - { offset: 0x348B1, size: 0x8, addend: 0x0, symName: __ZNSt12_Vector_baseISt6vectorIiSaIiEESaIS2_EE17_M_create_storageEm, symObjAddr: 0x6C58, symBinAddr: 0x100009EC8, symSize: 0x6C }
  - { offset: 0x34913, size: 0x8, addend: 0x0, symName: __ZNSt12_Vector_baseISt6vectorIiSaIiEESaIS2_EE12_Vector_implC1ERKS3_, symObjAddr: 0x6C0C, symBinAddr: 0x100009E7C, symSize: 0x4C }
  - { offset: 0x349B9, size: 0x8, addend: 0x0, symName: __ZNSt6vectorIS_IiSaIiEESaIS1_EE11_S_max_sizeERKS2_, symObjAddr: 0x6BB0, symBinAddr: 0x100009E20, symSize: 0x5C }
  - { offset: 0x34A70, size: 0x8, addend: 0x0, symName: __ZSt24__uninitialized_fill_n_aIPimiiET_S1_T0_RKT1_RSaIT2_E, symObjAddr: 0x6B80, symBinAddr: 0x100009DF0, symSize: 0x30 }
  - { offset: 0x34AED, size: 0x8, addend: 0x0, symName: __ZNSt12_Vector_baseIiSaIiEE17_M_create_storageEm, symObjAddr: 0x6B20, symBinAddr: 0x100009D90, symSize: 0x60 }
  - { offset: 0x34B24, size: 0x8, addend: 0x0, symName: __ZNSt6vectorIiSaIiEE11_S_max_sizeERKS0_, symObjAddr: 0x6ACC, symBinAddr: 0x100009D3C, symSize: 0x54 }
  - { offset: 0x34C32, size: 0x8, addend: 0x0, symName: __ZNSt10_HashtableIiSt4pairIKiiESaIS2_ENSt8__detail10_Select1stESt8equal_toIiESt4hashIiENS4_18_Mod_range_hashingENS4_20_Default_ranged_hashENS4_20_Prime_rehash_policyENS4_17_Hashtable_traitsILb0ELb0ELb1EEEE12_Scoped_nodeC1IJRKSt21piecewise_construct_tSt5tupleIJOiEESL_IJEEEEEPNS4_16_Hashtable_allocISaINS4_10_Hash_nodeIS2_Lb0EEEEEEDpOT_, symObjAddr: 0x6A44, symBinAddr: 0x100009CB4, symSize: 0x88 }
  - { offset: 0x34C94, size: 0x8, addend: 0x0, symName: __ZSt16forward_as_tupleIJiEESt5tupleIJDpOT_EES3_, symObjAddr: 0x6A0C, symBinAddr: 0x100009C7C, symSize: 0x38 }
  - { offset: 0x34CCC, size: 0x8, addend: 0x0, symName: __ZNKSt8__detail14_Node_iteratorISt4pairIKiiELb0ELb0EEptEv, symObjAddr: 0x69DC, symBinAddr: 0x100009C4C, symSize: 0x30 }
  - { offset: 0x34D1A, size: 0x8, addend: 0x0, symName: __ZNSt10_HashtableIiSt4pairIKiiESaIS2_ENSt8__detail10_Select1stESt8equal_toIiESt4hashIiENS4_18_Mod_range_hashingENS4_20_Default_ranged_hashENS4_20_Prime_rehash_policyENS4_17_Hashtable_traitsILb0ELb0ELb1EEEE21_M_insert_unique_nodeEmmPNS4_10_Hash_nodeIS2_Lb0EEEm, symObjAddr: 0x68CC, symBinAddr: 0x100009B3C, symSize: 0x110 }
  - { offset: 0x34DD1, size: 0x8, addend: 0x0, symName: __ZNSt10_HashtableIiSt4pairIKiiESaIS2_ENSt8__detail10_Select1stESt8equal_toIiESt4hashIiENS4_18_Mod_range_hashingENS4_20_Default_ranged_hashENS4_20_Prime_rehash_policyENS4_17_Hashtable_traitsILb0ELb0ELb1EEEE12_Scoped_nodeD1Ev, symObjAddr: 0x6888, symBinAddr: 0x100009AF8, symSize: 0x44 }
  - { offset: 0x34E4A, size: 0x8, addend: 0x0, symName: __ZNSt10_HashtableIiSt4pairIKiiESaIS2_ENSt8__detail10_Select1stESt8equal_toIiESt4hashIiENS4_18_Mod_range_hashingENS4_20_Default_ranged_hashENS4_20_Prime_rehash_policyENS4_17_Hashtable_traitsILb0ELb0ELb1EEEE12_Scoped_nodeC1IJRKSt21piecewise_construct_tSt5tupleIJRS1_EESL_IJEEEEEPNS4_16_Hashtable_allocISaINS4_10_Hash_nodeIS2_Lb0EEEEEEDpOT_, symObjAddr: 0x6800, symBinAddr: 0x100009A70, symSize: 0x88 }
  - { offset: 0x34EE2, size: 0x8, addend: 0x0, symName: __ZNSt5tupleIJRKiEEC1ILb1ELb1EEES1_, symObjAddr: 0x67D8, symBinAddr: 0x100009A48, symSize: 0x28 }
  - { offset: 0x34F31, size: 0x8, addend: 0x0, symName: __ZNKSt10_HashtableIiSt4pairIKiiESaIS2_ENSt8__detail10_Select1stESt8equal_toIiESt4hashIiENS4_18_Mod_range_hashingENS4_20_Default_ranged_hashENS4_20_Prime_rehash_policyENS4_17_Hashtable_traitsILb0ELb0ELb1EEEE12_M_find_nodeEmRS1_m, symObjAddr: 0x6784, symBinAddr: 0x1000099F4, symSize: 0x54 }
  - { offset: 0x34F9F, size: 0x8, addend: 0x0, symName: __ZNKSt10_HashtableIiSt4pairIKiiESaIS2_ENSt8__detail10_Select1stESt8equal_toIiESt4hashIiENS4_18_Mod_range_hashingENS4_20_Default_ranged_hashENS4_20_Prime_rehash_policyENS4_17_Hashtable_traitsILb0ELb0ELb1EEEE15_M_bucket_indexEm, symObjAddr: 0x6754, symBinAddr: 0x1000099C4, symSize: 0x30 }
  - { offset: 0x34FDA, size: 0x8, addend: 0x0, symName: __ZNKSt8__detail15_Hash_code_baseIiSt4pairIKiiENS_10_Select1stESt4hashIiENS_18_Mod_range_hashingENS_20_Default_ranged_hashELb0EE12_M_hash_codeERS2_, symObjAddr: 0x671C, symBinAddr: 0x10000998C, symSize: 0x38 }
  - { offset: 0x35015, size: 0x8, addend: 0x0, symName: __ZNSt10_HashtableIiSt4pairIKiiESaIS2_ENSt8__detail10_Select1stESt8equal_toIiESt4hashIiENS4_18_Mod_range_hashingENS4_20_Default_ranged_hashENS4_20_Prime_rehash_policyENS4_17_Hashtable_traitsILb0ELb0ELb1EEEE21_M_deallocate_bucketsEPPNS4_15_Hash_node_baseEm, symObjAddr: 0x66D0, symBinAddr: 0x100009940, symSize: 0x4C }
  - { offset: 0x35061, size: 0x8, addend: 0x0, symName: __ZNSt8__detail16_Hashtable_allocISaINS_10_Hash_nodeISt4pairIKiiELb0EEEEE19_M_deallocate_nodesEPS5_, symObjAddr: 0x6680, symBinAddr: 0x1000098F0, symSize: 0x50 }
  - { offset: 0x350C0, size: 0x8, addend: 0x0, symName: __ZNKSt10_HashtableIiSt4pairIKiiESaIS2_ENSt8__detail10_Select1stESt8equal_toIiESt4hashIiENS4_18_Mod_range_hashingENS4_20_Default_ranged_hashENS4_20_Prime_rehash_policyENS4_17_Hashtable_traitsILb0ELb0ELb1EEEE8_M_beginEv, symObjAddr: 0x6668, symBinAddr: 0x1000098D8, symSize: 0x18 }
  - { offset: 0x35117, size: 0x8, addend: 0x0, symName: __ZNSt6vectorIiSaIiEE11_S_relocateEPiS2_S2_RS0_, symObjAddr: 0x6634, symBinAddr: 0x1000098A4, symSize: 0x34 }
  - { offset: 0x35174, size: 0x8, addend: 0x0, symName: __ZSt12__to_addressIiEPT_S1_, symObjAddr: 0x6620, symBinAddr: 0x100009890, symSize: 0x14 }
  - { offset: 0x351AA, size: 0x8, addend: 0x0, symName: __ZNKSt6vectorIiSaIiEE12_M_check_lenEmPKc, symObjAddr: 0x6550, symBinAddr: 0x1000097C0, symSize: 0xD0 }
  - { offset: 0x3524C, size: 0x8, addend: 0x0, symName: __ZSt7forwardIRKiEOT_RNSt16remove_referenceIS2_E4typeE, symObjAddr: 0x653C, symBinAddr: 0x1000097AC, symSize: 0x14 }
  - { offset: 0x352B0, size: 0x8, addend: 0x0, symName: __ZSt8_DestroyIPiEvT_S1_, symObjAddr: 0x6514, symBinAddr: 0x100009784, symSize: 0x28 }
  - { offset: 0x352F2, size: 0x8, addend: 0x0, symName: __ZSt22__uninitialized_copy_aIPKiPiiET0_T_S4_S3_RSaIT1_E, symObjAddr: 0x64E4, symBinAddr: 0x100009754, symSize: 0x30 }
  - { offset: 0x35366, size: 0x8, addend: 0x0, symName: __ZNSt12_Vector_baseIiSaIiEE11_M_allocateEm, symObjAddr: 0x6494, symBinAddr: 0x100009704, symSize: 0x50 }
  - { offset: 0x35414, size: 0x8, addend: 0x0, symName: __ZNKSt16initializer_listIiE4sizeEv, symObjAddr: 0x647C, symBinAddr: 0x1000096EC, symSize: 0x18 }
  - { offset: 0x35465, size: 0x8, addend: 0x0, symName: __ZNSt12_Vector_baseIiSaIiEE12_Vector_implC1ERKS0_, symObjAddr: 0x6430, symBinAddr: 0x1000096A0, symSize: 0x4C }
  - { offset: 0x354E8, size: 0x8, addend: 0x0, symName: __ZSt22__final_insertion_sortIN9__gnu_cxx17__normal_iteratorIPSt4pairIiiESt6vectorIS3_SaIS3_EEEENS0_5__ops15_Iter_comp_iterIPFbRS3_SB_EEEEvT_SF_T0_, symObjAddr: 0x63A4, symBinAddr: 0x100009614, symSize: 0x8C }
  - { offset: 0x35546, size: 0x8, addend: 0x0, symName: __ZSt16__introsort_loopIN9__gnu_cxx17__normal_iteratorIPSt4pairIiiESt6vectorIS3_SaIS3_EEEElNS0_5__ops15_Iter_comp_iterIPFbRS3_SB_EEEEvT_SF_T0_T1_, symObjAddr: 0x62FC, symBinAddr: 0x10000956C, symSize: 0xA8 }
  - { offset: 0x355E2, size: 0x8, addend: 0x0, symName: __ZN9__gnu_cxxmiIPSt4pairIiiESt6vectorIS2_SaIS2_EEEENS_17__normal_iteratorIT_T0_E15difference_typeERKSA_SD_, symObjAddr: 0x62BC, symBinAddr: 0x10000952C, symSize: 0x40 }
  - { offset: 0x3562F, size: 0x8, addend: 0x0, symName: __ZN9__gnu_cxxneIPSt4pairIiiESt6vectorIS2_SaIS2_EEEEbRKNS_17__normal_iteratorIT_T0_EESC_, symObjAddr: 0x6278, symBinAddr: 0x1000094E8, symSize: 0x44 }
  - { offset: 0x356A7, size: 0x8, addend: 0x0, symName: __ZN9__gnu_cxx5__ops15_Iter_comp_iterIPFbRSt4pairIiiES4_EEC1ES6_, symObjAddr: 0x6248, symBinAddr: 0x1000094B8, symSize: 0x30 }
  - { offset: 0x356E0, size: 0x8, addend: 0x0, symName: __ZSt4moveIRPFbRSt4pairIiiES2_EEONSt16remove_referenceIT_E4typeEOS7_, symObjAddr: 0x6234, symBinAddr: 0x1000094A4, symSize: 0x14 }
  - { offset: 0x35716, size: 0x8, addend: 0x0, symName: __ZNSt6vectorISt4pairIiiESaIS1_EE4backEv, symObjAddr: 0x61FC, symBinAddr: 0x10000946C, symSize: 0x38 }
  - { offset: 0x35740, size: 0x8, addend: 0x0, symName: __ZNSt6vectorISt4pairIiiESaIS1_EE17_M_realloc_appendIJS1_EEEvDpOT_, symObjAddr: 0x6040, symBinAddr: 0x1000092B0, symSize: 0x1BC }
  - { offset: 0x358C5, size: 0x8, addend: 0x0, symName: __ZZNSt6vectorISt4pairIiiESaIS1_EE17_M_realloc_appendIJS1_EEEvDpOT_EN6_GuardC1EPS1_mRS2_, symObjAddr: 0x5F9C, symBinAddr: 0x10000920C, symSize: 0x44 }
  - { offset: 0x3590A, size: 0x8, addend: 0x0, symName: __ZZNSt6vectorISt4pairIiiESaIS1_EE17_M_realloc_appendIJS1_EEEvDpOT_EN6_GuardD1Ev, symObjAddr: 0x5FE0, symBinAddr: 0x100009250, symSize: 0x60 }
  - { offset: 0x35A44, size: 0x8, addend: 0x0, symName: __ZSt7forwardISt4pairIiiEEOT_RNSt16remove_referenceIS2_E4typeE, symObjAddr: 0x5F88, symBinAddr: 0x1000091F8, symSize: 0x14 }
  - { offset: 0x35A76, size: 0x8, addend: 0x0, symName: __ZSt8_DestroyIPSt4pairIiiEEvT_S3_, symObjAddr: 0x5F60, symBinAddr: 0x1000091D0, symSize: 0x28 }
  - { offset: 0x35B00, size: 0x8, addend: 0x0, symName: __ZSt22__final_insertion_sortIN9__gnu_cxx17__normal_iteratorIPiSt6vectorIiSaIiEEEENS0_5__ops15_Iter_less_iterEEvT_S9_T0_, symObjAddr: 0x5EC4, symBinAddr: 0x100009134, symSize: 0x9C }
  - { offset: 0x35B5E, size: 0x8, addend: 0x0, symName: __ZSt16__introsort_loopIN9__gnu_cxx17__normal_iteratorIPiSt6vectorIiSaIiEEEElNS0_5__ops15_Iter_less_iterEEvT_S9_T0_T1_, symObjAddr: 0x5E0C, symBinAddr: 0x10000907C, symSize: 0xB8 }
  - { offset: 0x35BFA, size: 0x8, addend: 0x0, symName: __ZSt4__lgIlET_S0_, symObjAddr: 0x5DE8, symBinAddr: 0x100009058, symSize: 0x24 }
  - { offset: 0x35C2D, size: 0x8, addend: 0x0, symName: __ZN9__gnu_cxxmiIPiSt6vectorIiSaIiEEEENS_17__normal_iteratorIT_T0_E15difference_typeERKS8_SB_, symObjAddr: 0x5DA8, symBinAddr: 0x100009018, symSize: 0x40 }
  - { offset: 0x35C7A, size: 0x8, addend: 0x0, symName: __ZSt11__bit_widthImEiT_, symObjAddr: 0x5D78, symBinAddr: 0x100008FE8, symSize: 0x30 }
  - { offset: 0x35CC2, size: 0x8, addend: 0x0, symName: __ZNSt6vectorIS_IiSaIiEESaIS1_EE19_M_range_initializeIPKS1_EEvT_S7_St20forward_iterator_tag, symObjAddr: 0x5C7C, symBinAddr: 0x100008EEC, symSize: 0xFC }
  - { offset: 0x35DE0, size: 0x8, addend: 0x0, symName: __ZNKSt16initializer_listISt6vectorIiSaIiEEE3endEv, symObjAddr: 0x5C34, symBinAddr: 0x100008EA4, symSize: 0x48 }
  - { offset: 0x35E0A, size: 0x8, addend: 0x0, symName: __ZNKSt16initializer_listISt6vectorIiSaIiEEE5beginEv, symObjAddr: 0x5C1C, symBinAddr: 0x100008E8C, symSize: 0x18 }
  - { offset: 0x35E5C, size: 0x8, addend: 0x0, symName: __ZNSt12_Vector_baseISt6vectorIiSaIiEESaIS2_EEC2ERKS3_, symObjAddr: 0x5BF4, symBinAddr: 0x100008E64, symSize: 0x28 }
  - { offset: 0x35E87, size: 0x8, addend: 0x0, symName: __ZSt22__uninitialized_copy_aIN9__gnu_cxx17__normal_iteratorIPKiSt6vectorIiSaIiEEEEPiiET0_T_SA_S9_RSaIT1_E, symObjAddr: 0x5BC4, symBinAddr: 0x100008E34, symSize: 0x30 }
  - { offset: 0x35F0C, size: 0x8, addend: 0x0, symName: __ZSt6__sortIN9__gnu_cxx17__normal_iteratorIPSt6vectorIiSaIiEES2_IS4_SaIS4_EEEENS0_5__ops15_Iter_comp_iterIPFbRS4_SB_EEEEvT_SF_T0_, symObjAddr: 0x5B54, symBinAddr: 0x100008DC4, symSize: 0x70 }
  - { offset: 0x35F6A, size: 0x8, addend: 0x0, symName: __ZN9__gnu_cxx5__ops16__iter_comp_iterIPFbRSt6vectorIiSaIiEES5_EEENS0_15_Iter_comp_iterIT_EES9_, symObjAddr: 0x5B28, symBinAddr: 0x100008D98, symSize: 0x2C }
  - { offset: 0x35FC8, size: 0x8, addend: 0x0, symName: __ZN9__gnu_cxx17__normal_iteratorIPSt6vectorIiSaIiEES1_IS3_SaIS3_EEEC1ERKS4_, symObjAddr: 0x5B00, symBinAddr: 0x100008D70, symSize: 0x28 }
  - { offset: 0x35FF3, size: 0x8, addend: 0x0, symName: __ZSt6__sortIN9__gnu_cxx17__normal_iteratorIP7MeetingSt6vectorIS2_SaIS2_EEEENS0_5__ops15_Iter_comp_iterIPFbRS2_S2_EEEEvT_SE_T0_, symObjAddr: 0x5A90, symBinAddr: 0x100008D00, symSize: 0x70 }
  - { offset: 0x36051, size: 0x8, addend: 0x0, symName: __ZN9__gnu_cxx5__ops16__iter_comp_iterIPFbR7MeetingS2_EEENS0_15_Iter_comp_iterIT_EES7_, symObjAddr: 0x5A64, symBinAddr: 0x100008CD4, symSize: 0x2C }
  - { offset: 0x360AF, size: 0x8, addend: 0x0, symName: __ZN9__gnu_cxx17__normal_iteratorIP7MeetingSt6vectorIS1_SaIS1_EEEC1ERKS2_, symObjAddr: 0x5A3C, symBinAddr: 0x100008CAC, symSize: 0x28 }
  - { offset: 0x360DE, size: 0x8, addend: 0x0, symName: __ZNSt6vectorI7MeetingSaIS0_EE12emplace_backIJS0_EEERS0_DpOT_, symObjAddr: 0x5954, symBinAddr: 0x100008BC4, symSize: 0xE8 }
  - { offset: 0x36190, size: 0x8, addend: 0x0, symName: __ZSt4moveIR7MeetingEONSt16remove_referenceIT_E4typeEOS3_, symObjAddr: 0x5940, symBinAddr: 0x100008BB0, symSize: 0x14 }
  - { offset: 0x36201, size: 0x8, addend: 0x0, symName: __ZNSt12_Vector_baseI7MeetingSaIS0_EE19_M_get_Tp_allocatorEv, symObjAddr: 0x592C, symBinAddr: 0x100008B9C, symSize: 0x14 }
  - { offset: 0x3622B, size: 0x8, addend: 0x0, symName: __ZNSt12_Vector_baseI7MeetingSaIS0_EE13_M_deallocateEPS0_m, symObjAddr: 0x58D4, symBinAddr: 0x100008B44, symSize: 0x58 }
  - { offset: 0x362D1, size: 0x8, addend: 0x0, symName: __ZNSt15__new_allocatorI7MeetingED2Ev, symObjAddr: 0x58C0, symBinAddr: 0x100008B30, symSize: 0x14 }
  - { offset: 0x36311, size: 0x8, addend: 0x0, symName: __ZNSt12_Vector_baseI7MeetingSaIS0_EE17_Vector_impl_dataC2Ev, symObjAddr: 0x5894, symBinAddr: 0x100008B04, symSize: 0x2C }
  - { offset: 0x36349, size: 0x8, addend: 0x0, symName: __ZSt6__sortIN9__gnu_cxx17__normal_iteratorIP3JobSt6vectorIS2_SaIS2_EEEENS0_5__ops15_Iter_comp_iterIPFbS2_S2_EEEEvT_SD_T0_, symObjAddr: 0x5824, symBinAddr: 0x100008A94, symSize: 0x70 }
  - { offset: 0x363A7, size: 0x8, addend: 0x0, symName: __ZN9__gnu_cxx5__ops16__iter_comp_iterIPFb3JobS2_EEENS0_15_Iter_comp_iterIT_EES6_, symObjAddr: 0x57F8, symBinAddr: 0x100008A68, symSize: 0x2C }
  - { offset: 0x36405, size: 0x8, addend: 0x0, symName: __ZN9__gnu_cxx17__normal_iteratorIP3JobSt6vectorIS1_SaIS1_EEEC1ERKS2_, symObjAddr: 0x57D0, symBinAddr: 0x100008A40, symSize: 0x28 }
  - { offset: 0x36434, size: 0x8, addend: 0x0, symName: __ZNSt6vectorI3JobSaIS0_EE12emplace_backIJS0_EEERS0_DpOT_, symObjAddr: 0x56E8, symBinAddr: 0x100008958, symSize: 0xE8 }
  - { offset: 0x364E6, size: 0x8, addend: 0x0, symName: __ZSt4moveIR3JobEONSt16remove_referenceIT_E4typeEOS3_, symObjAddr: 0x56D4, symBinAddr: 0x100008944, symSize: 0x14 }
  - { offset: 0x36557, size: 0x8, addend: 0x0, symName: __ZNSt12_Vector_baseI3JobSaIS0_EE19_M_get_Tp_allocatorEv, symObjAddr: 0x56C0, symBinAddr: 0x100008930, symSize: 0x14 }
  - { offset: 0x36581, size: 0x8, addend: 0x0, symName: __ZNSt12_Vector_baseI3JobSaIS0_EE13_M_deallocateEPS0_m, symObjAddr: 0x5668, symBinAddr: 0x1000088D8, symSize: 0x58 }
  - { offset: 0x36627, size: 0x8, addend: 0x0, symName: __ZNSt15__new_allocatorI3JobED2Ev, symObjAddr: 0x5654, symBinAddr: 0x1000088C4, symSize: 0x14 }
  - { offset: 0x36667, size: 0x8, addend: 0x0, symName: __ZNSt12_Vector_baseI3JobSaIS0_EE17_Vector_impl_dataC2Ev, symObjAddr: 0x5628, symBinAddr: 0x100008898, symSize: 0x2C }
  - { offset: 0x366A3, size: 0x8, addend: 0x0, symName: __ZNK9__gnu_cxx17__normal_iteratorIPiSt6vectorIiSaIiEEEdeEv, symObjAddr: 0x5610, symBinAddr: 0x100008880, symSize: 0x18 }
  - { offset: 0x366CD, size: 0x8, addend: 0x0, symName: __ZN9__gnu_cxx17__normal_iteratorIPiSt6vectorIiSaIiEEEppEv, symObjAddr: 0x55E8, symBinAddr: 0x100008858, symSize: 0x28 }
  - { offset: 0x366F3, size: 0x8, addend: 0x0, symName: __ZN9__gnu_cxxneIPiSt6vectorIiSaIiEEEEbRKNS_17__normal_iteratorIT_T0_EESA_, symObjAddr: 0x55A4, symBinAddr: 0x100008814, symSize: 0x44 }
  - { offset: 0x36744, size: 0x8, addend: 0x0, symName: __ZNSt6vectorIiSaIiEE21_M_default_initializeEm, symObjAddr: 0x5554, symBinAddr: 0x1000087C4, symSize: 0x50 }
  - { offset: 0x3677B, size: 0x8, addend: 0x0, symName: __ZSt22__uninitialized_copy_aIPiS0_iET0_T_S2_S1_RSaIT1_E, symObjAddr: 0x5524, symBinAddr: 0x100008794, symSize: 0x30 }
  - { offset: 0x367EB, size: 0x8, addend: 0x0, symName: __ZSt4copyIPiS0_ET0_T_S2_S1_, symObjAddr: 0x54DC, symBinAddr: 0x10000874C, symSize: 0x48 }
  - { offset: 0x36884, size: 0x8, addend: 0x0, symName: __ZSt4copyIN9__gnu_cxx17__normal_iteratorIPKiSt6vectorIiSaIiEEEENS1_IPiS6_EEET0_T_SB_SA_, symObjAddr: 0x5494, symBinAddr: 0x100008704, symSize: 0x48 }
  - { offset: 0x368E6, size: 0x8, addend: 0x0, symName: __ZNSt6vectorIiSaIiEE20_M_allocate_and_copyIN9__gnu_cxx17__normal_iteratorIPKiS1_EEEEPimT_S9_, symObjAddr: 0x5410, symBinAddr: 0x100008680, symSize: 0x84 }
  - { offset: 0x3695D, size: 0x8, addend: 0x0, symName: __ZNKSt6vectorIiSaIiEE3endEv, symObjAddr: 0x53E8, symBinAddr: 0x100008658, symSize: 0x28 }
  - { offset: 0x36987, size: 0x8, addend: 0x0, symName: __ZNKSt6vectorIiSaIiEE5beginEv, symObjAddr: 0x53C4, symBinAddr: 0x100008634, symSize: 0x24 }
  - { offset: 0x369B1, size: 0x8, addend: 0x0, symName: __ZNKSt6vectorIiSaIiEE8capacityEv, symObjAddr: 0x539C, symBinAddr: 0x10000860C, symSize: 0x28 }
  - { offset: 0x36A08, size: 0x8, addend: 0x0, symName: __ZNSt6vectorIiSaIiEE5clearEv, symObjAddr: 0x5370, symBinAddr: 0x1000085E0, symSize: 0x2C }
  - { offset: 0x36A44, size: 0x8, addend: 0x0, symName: __ZNKSt12_Vector_baseIiSaIiEE19_M_get_Tp_allocatorEv, symObjAddr: 0x535C, symBinAddr: 0x1000085CC, symSize: 0x14 }
  - { offset: 0x36AA9, size: 0x8, addend: 0x0, symName: __ZNSt12_Vector_baseISt6vectorIiSaIiEESaIS2_EE19_M_get_Tp_allocatorEv, symObjAddr: 0x5348, symBinAddr: 0x1000085B8, symSize: 0x14 }
  - { offset: 0x36AD3, size: 0x8, addend: 0x0, symName: __ZNSt6vectorIS_IiSaIiEESaIS1_EE18_M_fill_initializeEmRKS1_, symObjAddr: 0x52F0, symBinAddr: 0x100008560, symSize: 0x58 }
  - { offset: 0x36B43, size: 0x8, addend: 0x0, symName: __ZNSt12_Vector_baseISt6vectorIiSaIiEESaIS2_EED2Ev, symObjAddr: 0x5294, symBinAddr: 0x100008504, symSize: 0x5C }
  - { offset: 0x36B9F, size: 0x8, addend: 0x0, symName: __ZNSt12_Vector_baseISt6vectorIiSaIiEESaIS2_EEC2EmRKS3_, symObjAddr: 0x5240, symBinAddr: 0x1000084B0, symSize: 0x54 }
  - { offset: 0x36BFE, size: 0x8, addend: 0x0, symName: __ZNSt12_Vector_baseISt6vectorIiSaIiEESaIS2_EE12_Vector_implD1Ev, symObjAddr: 0x5214, symBinAddr: 0x100008484, symSize: 0x2C }
  - { offset: 0x36C43, size: 0x8, addend: 0x0, symName: __ZNSt6vectorIS_IiSaIiEESaIS1_EE17_S_check_init_lenEmRKS2_, symObjAddr: 0x5190, symBinAddr: 0x100008400, symSize: 0x84 }
  - { offset: 0x36D1D, size: 0x8, addend: 0x0, symName: __ZNSt15__new_allocatorISt6vectorIiSaIiEEED2Ev, symObjAddr: 0x517C, symBinAddr: 0x1000083EC, symSize: 0x14 }
  - { offset: 0x36D59, size: 0x8, addend: 0x0, symName: __ZNSt6vectorIiSaIiEE18_M_fill_initializeEmRKi, symObjAddr: 0x5124, symBinAddr: 0x100008394, symSize: 0x58 }
  - { offset: 0x36DDB, size: 0x8, addend: 0x0, symName: __ZNSt12_Vector_baseIiSaIiEEC2EmRKS0_, symObjAddr: 0x50D0, symBinAddr: 0x100008340, symSize: 0x54 }
  - { offset: 0x36E0F, size: 0x8, addend: 0x0, symName: __ZNSt6vectorIiSaIiEE17_S_check_init_lenEmRKS0_, symObjAddr: 0x504C, symBinAddr: 0x1000082BC, symSize: 0x84 }
  - { offset: 0x36EC5, size: 0x8, addend: 0x0, symName: __ZNSt8__detail9_Map_baseIiSt4pairIKiiESaIS3_ENS_10_Select1stESt8equal_toIiESt4hashIiENS_18_Mod_range_hashingENS_20_Default_ranged_hashENS_20_Prime_rehash_policyENS_17_Hashtable_traitsILb0ELb0ELb1EEELb1EEixEOi, symObjAddr: 0x4F1C, symBinAddr: 0x10000818C, symSize: 0x130 }
  - { offset: 0x36FCE, size: 0x8, addend: 0x0, symName: __ZSt4moveIRiEONSt16remove_referenceIT_E4typeEOS2_, symObjAddr: 0x4F08, symBinAddr: 0x100008178, symSize: 0x14 }
  - { offset: 0x37004, size: 0x8, addend: 0x0, symName: __ZNSt8__detail9_Map_baseIiSt4pairIKiiESaIS3_ENS_10_Select1stESt8equal_toIiESt4hashIiENS_18_Mod_range_hashingENS_20_Default_ranged_hashENS_20_Prime_rehash_policyENS_17_Hashtable_traitsILb0ELb0ELb1EEELb1EEixERS2_, symObjAddr: 0x4DE8, symBinAddr: 0x100008058, symSize: 0x120 }
  - { offset: 0x37104, size: 0x8, addend: 0x0, symName: __ZNSt10_HashtableIiSt4pairIKiiESaIS2_ENSt8__detail10_Select1stESt8equal_toIiESt4hashIiENS4_18_Mod_range_hashingENS4_20_Default_ranged_hashENS4_20_Prime_rehash_policyENS4_17_Hashtable_traitsILb0ELb0ELb1EEEE21_M_deallocate_bucketsEv, symObjAddr: 0x4DB4, symBinAddr: 0x100008024, symSize: 0x34 }
  - { offset: 0x3712E, size: 0x8, addend: 0x0, symName: __ZNSt10_HashtableIiSt4pairIKiiESaIS2_ENSt8__detail10_Select1stESt8equal_toIiESt4hashIiENS4_18_Mod_range_hashingENS4_20_Default_ranged_hashENS4_20_Prime_rehash_policyENS4_17_Hashtable_traitsILb0ELb0ELb1EEEE5clearEv, symObjAddr: 0x4D54, symBinAddr: 0x100007FC4, symSize: 0x60 }
  - { offset: 0x3717C, size: 0x8, addend: 0x0, symName: __ZNSt15__new_allocatorINSt8__detail10_Hash_nodeISt4pairIKiiELb0EEEED2Ev, symObjAddr: 0x4D40, symBinAddr: 0x100007FB0, symSize: 0x14 }
  - { offset: 0x371DF, size: 0x8, addend: 0x0, symName: __ZNSt12_Vector_baseIiSaIiEE17_Vector_impl_dataC2EOS2_, symObjAddr: 0x4CD0, symBinAddr: 0x100007F40, symSize: 0x70 }
  - { offset: 0x3723B, size: 0x8, addend: 0x0, symName: __ZSt4moveIRNSt12_Vector_baseIiSaIiEE12_Vector_implEEONSt16remove_referenceIT_E4typeEOS6_, symObjAddr: 0x4CBC, symBinAddr: 0x100007F2C, symSize: 0x14 }
  - { offset: 0x37271, size: 0x8, addend: 0x0, symName: __ZNSt6vectorIiSaIiEE17_M_realloc_appendIJRKiEEEvDpOT_, symObjAddr: 0x4B00, symBinAddr: 0x100007D70, symSize: 0x1BC }
  - { offset: 0x373F6, size: 0x8, addend: 0x0, symName: __ZZNSt6vectorIiSaIiEE17_M_realloc_appendIJRKiEEEvDpOT_EN6_GuardC1EPimRS0_, symObjAddr: 0x4A5C, symBinAddr: 0x100007CCC, symSize: 0x44 }
  - { offset: 0x3743B, size: 0x8, addend: 0x0, symName: __ZZNSt6vectorIiSaIiEE17_M_realloc_appendIJRKiEEEvDpOT_EN6_GuardD1Ev, symObjAddr: 0x4AA0, symBinAddr: 0x100007D10, symSize: 0x60 }
  - { offset: 0x37572, size: 0x8, addend: 0x0, symName: __ZNSt12_Vector_baseIiSaIiEE13_M_deallocateEPim, symObjAddr: 0x4A04, symBinAddr: 0x100007C74, symSize: 0x58 }
  - { offset: 0x3760E, size: 0x8, addend: 0x0, symName: __ZNSt12_Vector_baseIiSaIiEE17_Vector_impl_dataC1Ev, symObjAddr: 0x49D8, symBinAddr: 0x100007C48, symSize: 0x2C }
  - { offset: 0x37638, size: 0x8, addend: 0x0, symName: __ZNSt12_Vector_baseIiSaIiEE17_Vector_impl_dataC2Ev, symObjAddr: 0x49AC, symBinAddr: 0x100007C1C, symSize: 0x2C }
  - { offset: 0x37699, size: 0x8, addend: 0x0, symName: __ZNSt12_Vector_baseIiSaIiEE19_M_get_Tp_allocatorEv, symObjAddr: 0x4998, symBinAddr: 0x100007C08, symSize: 0x14 }
  - { offset: 0x376C3, size: 0x8, addend: 0x0, symName: __ZNSt6vectorIiSaIiEE19_M_range_initializeIPKiEEvT_S5_St20forward_iterator_tag, symObjAddr: 0x48B4, symBinAddr: 0x100007B24, symSize: 0xE4 }
  - { offset: 0x377E1, size: 0x8, addend: 0x0, symName: __ZNKSt16initializer_listIiE3endEv, symObjAddr: 0x487C, symBinAddr: 0x100007AEC, symSize: 0x38 }
  - { offset: 0x3780B, size: 0x8, addend: 0x0, symName: __ZNKSt16initializer_listIiE5beginEv, symObjAddr: 0x4864, symBinAddr: 0x100007AD4, symSize: 0x18 }
  - { offset: 0x3785D, size: 0x8, addend: 0x0, symName: __ZNSt12_Vector_baseIiSaIiEEC2ERKS0_, symObjAddr: 0x483C, symBinAddr: 0x100007AAC, symSize: 0x28 }
  - { offset: 0x378B0, size: 0x8, addend: 0x0, symName: __ZNSt15__new_allocatorIiED2Ev, symObjAddr: 0x4828, symBinAddr: 0x100007A98, symSize: 0x14 }
  - { offset: 0x378E8, size: 0x8, addend: 0x0, symName: __ZSt6__sortIN9__gnu_cxx17__normal_iteratorIPSt4pairIiiESt6vectorIS3_SaIS3_EEEENS0_5__ops15_Iter_comp_iterIPFbRS3_SB_EEEEvT_SF_T0_, symObjAddr: 0x47B8, symBinAddr: 0x100007A28, symSize: 0x70 }
  - { offset: 0x37946, size: 0x8, addend: 0x0, symName: __ZN9__gnu_cxx5__ops16__iter_comp_iterIPFbRSt4pairIiiES4_EEENS0_15_Iter_comp_iterIT_EES8_, symObjAddr: 0x478C, symBinAddr: 0x1000079FC, symSize: 0x2C }
  - { offset: 0x379A4, size: 0x8, addend: 0x0, symName: __ZN9__gnu_cxx17__normal_iteratorIPSt4pairIiiESt6vectorIS2_SaIS2_EEEC1ERKS3_, symObjAddr: 0x4764, symBinAddr: 0x1000079D4, symSize: 0x28 }
  - { offset: 0x379D3, size: 0x8, addend: 0x0, symName: __ZNSt6vectorISt4pairIiiESaIS1_EE12emplace_backIJS1_EEERS1_DpOT_, symObjAddr: 0x468C, symBinAddr: 0x1000078FC, symSize: 0xD8 }
  - { offset: 0x37A85, size: 0x8, addend: 0x0, symName: __ZSt4moveIRSt4pairIiiEEONSt16remove_referenceIT_E4typeEOS4_, symObjAddr: 0x4678, symBinAddr: 0x1000078E8, symSize: 0x14 }
  - { offset: 0x37ABE, size: 0x8, addend: 0x0, symName: __ZSt7forwardIRiEOT_RNSt16remove_referenceIS1_E4typeE, symObjAddr: 0x4664, symBinAddr: 0x1000078D4, symSize: 0x14 }
  - { offset: 0x37AF4, size: 0x8, addend: 0x0, symName: __ZNKSt6vectorIiSaIiEE14_M_range_checkEm, symObjAddr: 0x45F8, symBinAddr: 0x100007868, symSize: 0x6C }
  - { offset: 0x37B6A, size: 0x8, addend: 0x0, symName: __ZNSt12_Vector_baseISt4pairIiiESaIS1_EE19_M_get_Tp_allocatorEv, symObjAddr: 0x45E4, symBinAddr: 0x100007854, symSize: 0x14 }
  - { offset: 0x37B94, size: 0x8, addend: 0x0, symName: __ZNSt12_Vector_baseISt4pairIiiESaIS1_EE13_M_deallocateEPS1_m, symObjAddr: 0x458C, symBinAddr: 0x1000077FC, symSize: 0x58 }
  - { offset: 0x37C3A, size: 0x8, addend: 0x0, symName: __ZNSt15__new_allocatorISt4pairIiiEED2Ev, symObjAddr: 0x4578, symBinAddr: 0x1000077E8, symSize: 0x14 }
  - { offset: 0x37C7A, size: 0x8, addend: 0x0, symName: __ZNSt12_Vector_baseISt4pairIiiESaIS1_EE17_Vector_impl_dataC2Ev, symObjAddr: 0x454C, symBinAddr: 0x1000077BC, symSize: 0x2C }
  - { offset: 0x37CB2, size: 0x8, addend: 0x0, symName: __ZSt6__sortIN9__gnu_cxx17__normal_iteratorIPiSt6vectorIiSaIiEEEENS0_5__ops15_Iter_less_iterEEvT_S9_T0_, symObjAddr: 0x44D4, symBinAddr: 0x100007744, symSize: 0x78 }
  - { offset: 0x37D3C, size: 0x8, addend: 0x0, symName: __ZN9__gnu_cxx17__normal_iteratorIPiSt6vectorIiSaIiEEEC1ERKS1_, symObjAddr: 0x44AC, symBinAddr: 0x10000771C, symSize: 0x28 }
  - { offset: 0x37D8F, size: 0x8, addend: 0x0, symName: __ZNSt15__new_allocatorIcED2Ev, symObjAddr: 0x4498, symBinAddr: 0x100007708, symSize: 0x14 }
  - { offset: 0x37E01, size: 0x8, addend: 0x0, symName: __ZNSt6vectorIS_IiSaIiEESaIS1_EEC1ESt16initializer_listIS1_ERKS2_, symObjAddr: 0x4428, symBinAddr: 0x100007698, symSize: 0x70 }
  - { offset: 0x37E7D, size: 0x8, addend: 0x0, symName: __ZNSt7__cxx1112basic_stringIcSt11char_traitsIcESaIcEEC1IS3_EEmcRKS3_, symObjAddr: 0x43B4, symBinAddr: 0x100007624, symSize: 0x74 }
  - { offset: 0x37EE6, size: 0x8, addend: 0x0, symName: __ZNSt6vectorIiSaIiEEC1ERKS1_, symObjAddr: 0x42A0, symBinAddr: 0x100007510, symSize: 0x114 }
  - { offset: 0x37FF5, size: 0x8, addend: 0x0, symName: __ZSt4sortIN9__gnu_cxx17__normal_iteratorIPSt6vectorIiSaIiEES2_IS4_SaIS4_EEEEPFbRS4_S9_EEvT_SC_T0_, symObjAddr: 0x4268, symBinAddr: 0x1000074D8, symSize: 0x38 }
  - { offset: 0x38057, size: 0x8, addend: 0x0, symName: __ZNSt6vectorIS_IiSaIiEESaIS1_EE3endEv, symObjAddr: 0x4240, symBinAddr: 0x1000074B0, symSize: 0x28 }
  - { offset: 0x38081, size: 0x8, addend: 0x0, symName: __ZNSt6vectorIS_IiSaIiEESaIS1_EE5beginEv, symObjAddr: 0x421C, symBinAddr: 0x10000748C, symSize: 0x24 }
  - { offset: 0x380AB, size: 0x8, addend: 0x0, symName: __ZNKSt6vectorIS_IiSaIiEESaIS1_EE4sizeEv, symObjAddr: 0x41E8, symBinAddr: 0x100007458, symSize: 0x34 }
  - { offset: 0x380D5, size: 0x8, addend: 0x0, symName: __ZNSt6vectorI7MeetingSaIS0_EEixEm, symObjAddr: 0x41B4, symBinAddr: 0x100007424, symSize: 0x34 }
  - { offset: 0x3810C, size: 0x8, addend: 0x0, symName: __ZSt4sortIN9__gnu_cxx17__normal_iteratorIP7MeetingSt6vectorIS2_SaIS2_EEEEPFbRS2_S2_EEvT_SB_T0_, symObjAddr: 0x417C, symBinAddr: 0x1000073EC, symSize: 0x38 }
  - { offset: 0x3816E, size: 0x8, addend: 0x0, symName: __ZNSt6vectorI7MeetingSaIS0_EE3endEv, symObjAddr: 0x4154, symBinAddr: 0x1000073C4, symSize: 0x28 }
  - { offset: 0x38198, size: 0x8, addend: 0x0, symName: __ZNSt6vectorI7MeetingSaIS0_EE5beginEv, symObjAddr: 0x4130, symBinAddr: 0x1000073A0, symSize: 0x24 }
  - { offset: 0x381C2, size: 0x8, addend: 0x0, symName: __ZNSt6vectorI7MeetingSaIS0_EE9push_backEOS0_, symObjAddr: 0x4100, symBinAddr: 0x100007370, symSize: 0x30 }
  - { offset: 0x38221, size: 0x8, addend: 0x0, symName: __ZNSt6vectorI7MeetingSaIS0_EED1Ev, symObjAddr: 0x40A4, symBinAddr: 0x100007314, symSize: 0x5C }
  - { offset: 0x382A1, size: 0x8, addend: 0x0, symName: __ZNSt12_Vector_baseI7MeetingSaIS0_EED2Ev, symObjAddr: 0x4048, symBinAddr: 0x1000072B8, symSize: 0x5C }
  - { offset: 0x38301, size: 0x8, addend: 0x0, symName: __ZNSt12_Vector_baseI7MeetingSaIS0_EE12_Vector_implC1Ev, symObjAddr: 0x4010, symBinAddr: 0x100007280, symSize: 0x38 }
  - { offset: 0x3836D, size: 0x8, addend: 0x0, symName: __ZNKSt6vectorI3JobSaIS0_EE4sizeEv, symObjAddr: 0x3FDC, symBinAddr: 0x10000724C, symSize: 0x34 }
  - { offset: 0x38397, size: 0x8, addend: 0x0, symName: __ZNSt6vectorI3JobSaIS0_EEixEm, symObjAddr: 0x3FA8, symBinAddr: 0x100007218, symSize: 0x34 }
  - { offset: 0x383CE, size: 0x8, addend: 0x0, symName: __ZSt4sortIN9__gnu_cxx17__normal_iteratorIP3JobSt6vectorIS2_SaIS2_EEEEPFbS2_S2_EEvT_SA_T0_, symObjAddr: 0x3F70, symBinAddr: 0x1000071E0, symSize: 0x38 }
  - { offset: 0x38430, size: 0x8, addend: 0x0, symName: __ZNSt6vectorI3JobSaIS0_EE3endEv, symObjAddr: 0x3F48, symBinAddr: 0x1000071B8, symSize: 0x28 }
  - { offset: 0x3845A, size: 0x8, addend: 0x0, symName: __ZNSt6vectorI3JobSaIS0_EE5beginEv, symObjAddr: 0x3F24, symBinAddr: 0x100007194, symSize: 0x24 }
  - { offset: 0x38484, size: 0x8, addend: 0x0, symName: __ZNSt6vectorI3JobSaIS0_EE9push_backEOS0_, symObjAddr: 0x3EF4, symBinAddr: 0x100007164, symSize: 0x30 }
  - { offset: 0x384E3, size: 0x8, addend: 0x0, symName: __ZNSt6vectorI3JobSaIS0_EED1Ev, symObjAddr: 0x3E98, symBinAddr: 0x100007108, symSize: 0x5C }
  - { offset: 0x38563, size: 0x8, addend: 0x0, symName: __ZNSt12_Vector_baseI3JobSaIS0_EED2Ev, symObjAddr: 0x3E3C, symBinAddr: 0x1000070AC, symSize: 0x5C }
  - { offset: 0x385C3, size: 0x8, addend: 0x0, symName: __ZNSt12_Vector_baseI3JobSaIS0_EE12_Vector_implC1Ev, symObjAddr: 0x3E04, symBinAddr: 0x100007074, symSize: 0x38 }
  - { offset: 0x3862B, size: 0x8, addend: 0x0, symName: __ZSt3maxIiERKT_S2_S2_, symObjAddr: 0x3DCC, symBinAddr: 0x10000703C, symSize: 0x38 }
  - { offset: 0x3866F, size: 0x8, addend: 0x0, symName: __ZSt10accumulateIN9__gnu_cxx17__normal_iteratorIPiSt6vectorIiSaIiEEEEiET0_T_S8_S7_, symObjAddr: 0x3D70, symBinAddr: 0x100006FE0, symSize: 0x5C }
  - { offset: 0x38704, size: 0x8, addend: 0x0, symName: __ZNSt6vectorIiSaIiEEC1EmRKS0_, symObjAddr: 0x3D08, symBinAddr: 0x100006F78, symSize: 0x68 }
  - { offset: 0x3873C, size: 0x8, addend: 0x0, symName: __ZNSt6vectorIiSaIiEEaSERKS1_, symObjAddr: 0x39C0, symBinAddr: 0x100006C30, symSize: 0x348 }
  - { offset: 0x388C0, size: 0x8, addend: 0x0, symName: __ZSt11__addressofIKSt6vectorIiSaIiEEEPT_RS4_, symObjAddr: 0x39AC, symBinAddr: 0x100006C1C, symSize: 0x14 }
  - { offset: 0x3891A, size: 0x8, addend: 0x0, symName: __ZNSt6vectorIS_IiSaIiEESaIS1_EED1Ev, symObjAddr: 0x3950, symBinAddr: 0x100006BC0, symSize: 0x5C }
  - { offset: 0x389BA, size: 0x8, addend: 0x0, symName: __ZNSt6vectorIS_IiSaIiEESaIS1_EEC1EmRKS1_RKS2_, symObjAddr: 0x38E0, symBinAddr: 0x100006B50, symSize: 0x70 }
  - { offset: 0x38A75, size: 0x8, addend: 0x0, symName: __ZNSt6vectorIiSaIiEEC1EmRKiRKS0_, symObjAddr: 0x3870, symBinAddr: 0x100006AE0, symSize: 0x70 }
  - { offset: 0x38AB6, size: 0x8, addend: 0x0, symName: __ZNSt6vectorIS_IiSaIiEESaIS1_EEixEm, symObjAddr: 0x383C, symBinAddr: 0x100006AAC, symSize: 0x34 }
  - { offset: 0x38AF1, size: 0x8, addend: 0x0, symName: __ZNSt13unordered_mapIiiSt4hashIiESt8equal_toIiESaISt4pairIKiiEEEixEOi, symObjAddr: 0x3804, symBinAddr: 0x100006A74, symSize: 0x38 }
  - { offset: 0x38B2C, size: 0x8, addend: 0x0, symName: __ZNSt13unordered_mapIiiSt4hashIiESt8equal_toIiESaISt4pairIKiiEEEixERS5_, symObjAddr: 0x37E0, symBinAddr: 0x100006A50, symSize: 0x24 }
  - { offset: 0x38B8B, size: 0x8, addend: 0x0, symName: __ZNSt10_HashtableIiSt4pairIKiiESaIS2_ENSt8__detail10_Select1stESt8equal_toIiESt4hashIiENS4_18_Mod_range_hashingENS4_20_Default_ranged_hashENS4_20_Prime_rehash_policyENS4_17_Hashtable_traitsILb0ELb0ELb1EEEED1Ev, symObjAddr: 0x37B0, symBinAddr: 0x100006A20, symSize: 0x30 }
  - { offset: 0x38BEB, size: 0x8, addend: 0x0, symName: __ZNSt8__detail21_Hashtable_ebo_helperILi0ESaINS_10_Hash_nodeISt4pairIKiiELb0EEEELb1EEC2Ev, symObjAddr: 0x3784, symBinAddr: 0x1000069F4, symSize: 0x2C }
  - { offset: 0x38C72, size: 0x8, addend: 0x0, symName: __ZNSt8__detail21_Hashtable_ebo_helperILi0ESt8equal_toIiELb1EEC2Ev, symObjAddr: 0x3770, symBinAddr: 0x1000069E0, symSize: 0x14 }
  - { offset: 0x38CB2, size: 0x8, addend: 0x0, symName: __ZNSt8__detail21_Hashtable_ebo_helperILi1ESt4hashIiELb1EEC2Ev, symObjAddr: 0x375C, symBinAddr: 0x1000069CC, symSize: 0x14 }
  - { offset: 0x38CFF, size: 0x8, addend: 0x0, symName: __ZNSt12_Vector_baseIiSaIiEE12_Vector_implC1EOS2_, symObjAddr: 0x36F0, symBinAddr: 0x100006960, symSize: 0x6C }
  - { offset: 0x38D86, size: 0x8, addend: 0x0, symName: __ZNSt6vectorIiSaIiEE9push_backERKi, symObjAddr: 0x3628, symBinAddr: 0x100006898, symSize: 0xC8 }
  - { offset: 0x38E51, size: 0x8, addend: 0x0, symName: __ZNSt12_Vector_baseIiSaIiEED2Ev, symObjAddr: 0x35D8, symBinAddr: 0x100006848, symSize: 0x50 }
  - { offset: 0x38E91, size: 0x8, addend: 0x0, symName: __ZNSt12_Vector_baseIiSaIiEE12_Vector_implC1Ev, symObjAddr: 0x35A0, symBinAddr: 0x100006810, symSize: 0x38 }
  - { offset: 0x38F21, size: 0x8, addend: 0x0, symName: __ZNSt6vectorIiSaIiEED1Ev, symObjAddr: 0x3544, symBinAddr: 0x1000067B4, symSize: 0x5C }
  - { offset: 0x38FB3, size: 0x8, addend: 0x0, symName: __ZNSt6vectorIiSaIiEEC1ESt16initializer_listIiERKS0_, symObjAddr: 0x34D4, symBinAddr: 0x100006744, symSize: 0x70 }
  - { offset: 0x39021, size: 0x8, addend: 0x0, symName: __ZNSt6vectorISt4pairIiiESaIS1_EEixEm, symObjAddr: 0x34AC, symBinAddr: 0x10000671C, symSize: 0x28 }
  - { offset: 0x39058, size: 0x8, addend: 0x0, symName: __ZSt4sortIN9__gnu_cxx17__normal_iteratorIPSt4pairIiiESt6vectorIS3_SaIS3_EEEEPFbRS3_S9_EEvT_SC_T0_, symObjAddr: 0x3474, symBinAddr: 0x1000066E4, symSize: 0x38 }
  - { offset: 0x390BA, size: 0x8, addend: 0x0, symName: __ZNSt6vectorISt4pairIiiESaIS1_EE3endEv, symObjAddr: 0x344C, symBinAddr: 0x1000066BC, symSize: 0x28 }
  - { offset: 0x390E4, size: 0x8, addend: 0x0, symName: __ZNSt6vectorISt4pairIiiESaIS1_EE5beginEv, symObjAddr: 0x3428, symBinAddr: 0x100006698, symSize: 0x24 }
  - { offset: 0x3910E, size: 0x8, addend: 0x0, symName: __ZNSt6vectorISt4pairIiiESaIS1_EE9push_backEOS1_, symObjAddr: 0x33F8, symBinAddr: 0x100006668, symSize: 0x30 }
  - { offset: 0x39191, size: 0x8, addend: 0x0, symName: __ZNSt4pairIiiEC1IRiS2_Lb1EEEOT_OT0_, symObjAddr: 0x33B0, symBinAddr: 0x100006620, symSize: 0x48 }
  - { offset: 0x391DB, size: 0x8, addend: 0x0, symName: __ZNSt6vectorIiSaIiEE2atEm, symObjAddr: 0x3380, symBinAddr: 0x1000065F0, symSize: 0x30 }
  - { offset: 0x3923A, size: 0x8, addend: 0x0, symName: __ZNSt6vectorISt4pairIiiESaIS1_EED1Ev, symObjAddr: 0x3324, symBinAddr: 0x100006594, symSize: 0x5C }
  - { offset: 0x392BA, size: 0x8, addend: 0x0, symName: __ZNSt12_Vector_baseISt4pairIiiESaIS1_EED2Ev, symObjAddr: 0x32D4, symBinAddr: 0x100006544, symSize: 0x50 }
  - { offset: 0x3931A, size: 0x8, addend: 0x0, symName: __ZNSt12_Vector_baseISt4pairIiiESaIS1_EE12_Vector_implC1Ev, symObjAddr: 0x329C, symBinAddr: 0x10000650C, symSize: 0x38 }
  - { offset: 0x39382, size: 0x8, addend: 0x0, symName: __ZSt4sortIN9__gnu_cxx17__normal_iteratorIPiSt6vectorIiSaIiEEEEEvT_S7_, symObjAddr: 0x3264, symBinAddr: 0x1000064D4, symSize: 0x38 }
  - { offset: 0x393CA, size: 0x8, addend: 0x0, symName: __ZNSt6vectorIiSaIiEE3endEv, symObjAddr: 0x323C, symBinAddr: 0x1000064AC, symSize: 0x28 }
  - { offset: 0x393F4, size: 0x8, addend: 0x0, symName: __ZNSt6vectorIiSaIiEE5beginEv, symObjAddr: 0x3218, symBinAddr: 0x100006488, symSize: 0x24 }
  - { offset: 0x3941E, size: 0x8, addend: 0x0, symName: __ZNSt6vectorIiSaIiEEixEm, symObjAddr: 0x31F0, symBinAddr: 0x100006460, symSize: 0x28 }
  - { offset: 0x39459, size: 0x8, addend: 0x0, symName: __ZNKSt6vectorIiSaIiEE4sizeEv, symObjAddr: 0x31C8, symBinAddr: 0x100006438, symSize: 0x28 }
  - { offset: 0x39486, size: 0x8, addend: 0x0, symName: __ZSt7forwardIiEOT_RNSt16remove_referenceIS0_E4typeE, symObjAddr: 0x31B4, symBinAddr: 0x100006424, symSize: 0x14 }
  - { offset: 0x394B8, size: 0x8, addend: 0x0, symName: __ZSt3maxImERKT_S2_S2_, symObjAddr: 0x317C, symBinAddr: 0x1000063EC, symSize: 0x38 }
  - { offset: 0x3955D, size: 0x8, addend: 0x0, symName: __ZNSt7__cxx1112basic_stringIcSt11char_traitsIcESaIcEE12_Alloc_hiderD1Ev, symObjAddr: 0x3150, symBinAddr: 0x1000063C0, symSize: 0x2C }
  - { offset: 0x395AA, size: 0x8, addend: 0x0, symName: _main, symObjAddr: 0x2DFC, symBinAddr: 0x10000606C, symSize: 0x354 }
  - { offset: 0x397F9, size: 0x8, addend: 0x0, symName: __Z21eraseOverlapIntervalsRSt6vectorIS_IiSaIiEESaIS1_EE, symObjAddr: 0x2CD0, symBinAddr: 0x100005F40, symSize: 0x12C }
  - { offset: 0x39886, size: 0x8, addend: 0x0, symName: __Z18intervalComparatorRSt6vectorIiSaIiEES2_, symObjAddr: 0x2C84, symBinAddr: 0x100005EF4, symSize: 0x4C }
  - { offset: 0x398CD, size: 0x8, addend: 0x0, symName: __Z11maxMeetingsRSt6vectorIiSaIiEES2_, symObjAddr: 0x2AB8, symBinAddr: 0x100005D28, symSize: 0x1CC }
  - { offset: 0x399B5, size: 0x8, addend: 0x0, symName: __ZNSt6vectorI7MeetingSaIS0_EEC1Ev, symObjAddr: 0x2A98, symBinAddr: 0x100005D08, symSize: 0x20 }
  - { offset: 0x399F5, size: 0x8, addend: 0x0, symName: __ZNSt12_Vector_baseI7MeetingSaIS0_EEC2Ev, symObjAddr: 0x2A78, symBinAddr: 0x100005CE8, symSize: 0x20 }
  - { offset: 0x39A42, size: 0x8, addend: 0x0, symName: __ZNSt12_Vector_baseI7MeetingSaIS0_EE12_Vector_implD1Ev, symObjAddr: 0x2A4C, symBinAddr: 0x100005CBC, symSize: 0x2C }
  - { offset: 0x39A93, size: 0x8, addend: 0x0, symName: __Z17meetingComparatorR7MeetingS_, symObjAddr: 0x29CC, symBinAddr: 0x100005C3C, symSize: 0x80 }
  - { offset: 0x39B16, size: 0x8, addend: 0x0, symName: __ZN7MeetingC1Eiii, symObjAddr: 0x2988, symBinAddr: 0x100005BF8, symSize: 0x44 }
  - { offset: 0x39B5F, size: 0x8, addend: 0x0, symName: __Z13JobSequencingRSt6vectorIiSaIiEES2_S2_, symObjAddr: 0x267C, symBinAddr: 0x1000058EC, symSize: 0x30C }
  - { offset: 0x39DD1, size: 0x8, addend: 0x0, symName: __ZNSt6vectorI3JobSaIS0_EEC1Ev, symObjAddr: 0x265C, symBinAddr: 0x1000058CC, symSize: 0x20 }
  - { offset: 0x39E11, size: 0x8, addend: 0x0, symName: __ZNSt12_Vector_baseI3JobSaIS0_EEC2Ev, symObjAddr: 0x263C, symBinAddr: 0x1000058AC, symSize: 0x20 }
  - { offset: 0x39E5E, size: 0x8, addend: 0x0, symName: __ZNSt12_Vector_baseI3JobSaIS0_EE12_Vector_implD1Ev, symObjAddr: 0x2610, symBinAddr: 0x100005880, symSize: 0x2C }
  - { offset: 0x39EAF, size: 0x8, addend: 0x0, symName: __Z13jobComparator3JobS_, symObjAddr: 0x25CC, symBinAddr: 0x10000583C, symSize: 0x44 }
  - { offset: 0x39F32, size: 0x8, addend: 0x0, symName: __ZN3JobC1Eiii, symObjAddr: 0x2588, symBinAddr: 0x1000057F8, symSize: 0x44 }
  - { offset: 0x39F7B, size: 0x8, addend: 0x0, symName: __Z10jumpGreedyRSt6vectorIiSaIiEE, symObjAddr: 0x24C8, symBinAddr: 0x100005738, symSize: 0xC0 }
  - { offset: 0x3A008, size: 0x8, addend: 0x0, symName: __Z14jumpTabulationRSt6vectorIiSaIiEE, symObjAddr: 0x2324, symBinAddr: 0x100005594, symSize: 0x1A4 }
  - { offset: 0x3A178, size: 0x8, addend: 0x0, symName: __Z4jumpRSt6vectorIiSaIiEE, symObjAddr: 0x226C, symBinAddr: 0x1000054DC, symSize: 0xB8 }
  - { offset: 0x3A257, size: 0x8, addend: 0x0, symName: __Z4jumpRSt6vectorIiSaIiEEiS2_, symObjAddr: 0x20CC, symBinAddr: 0x10000533C, symSize: 0x1A0 }
  - { offset: 0x3A308, size: 0x8, addend: 0x0, symName: __Z10canJumpTufRSt6vectorIiSaIiEE, symObjAddr: 0x2024, symBinAddr: 0x100005294, symSize: 0xA8 }
  - { offset: 0x3A373, size: 0x8, addend: 0x0, symName: __Z17canJumpTabulationRSt6vectorIiSaIiEE, symObjAddr: 0x1E84, symBinAddr: 0x1000050F4, symSize: 0x1A0 }
  - { offset: 0x3A4BE, size: 0x8, addend: 0x0, symName: __Z7canJumpRSt6vectorIiSaIiEE, symObjAddr: 0x1DCC, symBinAddr: 0x10000503C, symSize: 0xB8 }
  - { offset: 0x3A59D, size: 0x8, addend: 0x0, symName: __Z7canJumpRSt6vectorIiSaIiEEiS2_, symObjAddr: 0x1C68, symBinAddr: 0x100004ED8, symSize: 0x164 }
  - { offset: 0x3A619, size: 0x8, addend: 0x0, symName: __Z13solveOtherWayRSt6vectorIiSaIiEE, symObjAddr: 0x1B9C, symBinAddr: 0x100004E0C, symSize: 0xCC }
  - { offset: 0x3A6B7, size: 0x8, addend: 0x0, symName: __Z5solveRSt6vectorIiSaIiEE, symObjAddr: 0x1A48, symBinAddr: 0x100004CB8, symSize: 0x154 }
  - { offset: 0x3A7CB, size: 0x8, addend: 0x0, symName: __Z33checkValidStringSpaceOptimizationNSt7__cxx1112basic_stringIcSt11char_traitsIcESaIcEEE, symObjAddr: 0x1710, symBinAddr: 0x100004980, symSize: 0x338 }
  - { offset: 0x3A9CF, size: 0x8, addend: 0x0, symName: __Z26checkValidStringTabulationNSt7__cxx1112basic_stringIcSt11char_traitsIcESaIcEEE, symObjAddr: 0x1324, symBinAddr: 0x100004594, symSize: 0x3EC }
  - { offset: 0x3ABC6, size: 0x8, addend: 0x0, symName: __Z16checkValidStringNSt7__cxx1112basic_stringIcSt11char_traitsIcESaIcEEE, symObjAddr: 0x1208, symBinAddr: 0x100004478, symSize: 0x11C }
  - { offset: 0x3AD2C, size: 0x8, addend: 0x0, symName: __Z16checkValidStringNSt7__cxx1112basic_stringIcSt11char_traitsIcESaIcEEEiiRSt6vectorIS5_IiSaIiEESaIS7_EE, symObjAddr: 0xDF4, symBinAddr: 0x100004064, symSize: 0x414 }
  - { offset: 0x3AD95, size: 0x8, addend: 0x0, symName: __Z17lemonadeChangeTufRSt6vectorIiSaIiEE, symObjAddr: 0xCA4, symBinAddr: 0x100003F14, symSize: 0x150 }
  - { offset: 0x3AE0C, size: 0x8, addend: 0x0, symName: __Z14lemonadeChangeRSt6vectorIiSaIiEE, symObjAddr: 0xADC, symBinAddr: 0x100003D4C, symSize: 0x1C8 }
  - { offset: 0x3AEB8, size: 0x8, addend: 0x0, symName: __ZNSt13unordered_mapIiiSt4hashIiESt8equal_toIiESaISt4pairIKiiEEED1Ev, symObjAddr: 0xABC, symBinAddr: 0x100003D2C, symSize: 0x20 }
  - { offset: 0x3AEF8, size: 0x8, addend: 0x0, symName: __ZNSt13unordered_mapIiiSt4hashIiESt8equal_toIiESaISt4pairIKiiEEEC1Ev, symObjAddr: 0xA9C, symBinAddr: 0x100003D0C, symSize: 0x20 }
  - { offset: 0x3AF38, size: 0x8, addend: 0x0, symName: __ZNSt10_HashtableIiSt4pairIKiiESaIS2_ENSt8__detail10_Select1stESt8equal_toIiESt4hashIiENS4_18_Mod_range_hashingENS4_20_Default_ranged_hashENS4_20_Prime_rehash_policyENS4_17_Hashtable_traitsILb0ELb0ELb1EEEEC1Ev, symObjAddr: 0xA2C, symBinAddr: 0x100003C9C, symSize: 0x70 }
  - { offset: 0x3AF86, size: 0x8, addend: 0x0, symName: __ZNSt8__detail16_Hashtable_allocISaINS_10_Hash_nodeISt4pairIKiiELb0EEEEED2Ev, symObjAddr: 0xA0C, symBinAddr: 0x100003C7C, symSize: 0x20 }
  - { offset: 0x3AFC6, size: 0x8, addend: 0x0, symName: __ZNSt8__detail16_Hashtable_allocISaINS_10_Hash_nodeISt4pairIKiiELb0EEEEEC2Ev, symObjAddr: 0x9EC, symBinAddr: 0x100003C5C, symSize: 0x20 }
  - { offset: 0x3B014, size: 0x8, addend: 0x0, symName: __ZNSt8__detail21_Hashtable_ebo_helperILi0ESaINS_10_Hash_nodeISt4pairIKiiELb0EEEELb1EED2Ev, symObjAddr: 0x9C0, symBinAddr: 0x100003C30, symSize: 0x2C }
  - { offset: 0x3B078, size: 0x8, addend: 0x0, symName: __ZNSt8__detail15_Hashtable_baseIiSt4pairIKiiENS_10_Select1stESt8equal_toIiESt4hashIiENS_18_Mod_range_hashingENS_20_Default_ranged_hashENS_17_Hashtable_traitsILb0ELb0ELb1EEEEC2Ev, symObjAddr: 0x998, symBinAddr: 0x100003C08, symSize: 0x28 }
  - { offset: 0x3B0B8, size: 0x8, addend: 0x0, symName: __ZNSt8__detail15_Hash_code_baseIiSt4pairIKiiENS_10_Select1stESt4hashIiENS_18_Mod_range_hashingENS_20_Default_ranged_hashELb0EEC2Ev, symObjAddr: 0x978, symBinAddr: 0x100003BE8, symSize: 0x20 }
  - { offset: 0x3B0E5, size: 0x8, addend: 0x0, symName: __Z12minPartitioni, symObjAddr: 0x82C, symBinAddr: 0x100003A9C, symSize: 0x14C }
  - { offset: 0x3B1E4, size: 0x8, addend: 0x0, symName: __ZNSt6vectorIiSaIiEEC1EOS1_, symObjAddr: 0x804, symBinAddr: 0x100003A74, symSize: 0x28 }
  - { offset: 0x3B232, size: 0x8, addend: 0x0, symName: __ZNSt12_Vector_baseIiSaIiEEC2EOS1_, symObjAddr: 0x7DC, symBinAddr: 0x100003A4C, symSize: 0x28 }
  - { offset: 0x3B27B, size: 0x8, addend: 0x0, symName: __ZNSt6vectorIiSaIiEEC1Ev, symObjAddr: 0x7BC, symBinAddr: 0x100003A2C, symSize: 0x20 }
  - { offset: 0x3B2BB, size: 0x8, addend: 0x0, symName: __ZNSt12_Vector_baseIiSaIiEEC2Ev, symObjAddr: 0x79C, symBinAddr: 0x100003A0C, symSize: 0x20 }
  - { offset: 0x3B308, size: 0x8, addend: 0x0, symName: __ZNSt12_Vector_baseIiSaIiEE12_Vector_implD1Ev, symObjAddr: 0x770, symBinAddr: 0x1000039E0, symSize: 0x2C }
  - { offset: 0x3B358, size: 0x8, addend: 0x0, symName: __Z18fractionalKnapsackRSt6vectorIiSaIiEES2_i, symObjAddr: 0x560, symBinAddr: 0x1000037D0, symSize: 0x210 }
  - { offset: 0x3B45B, size: 0x8, addend: 0x0, symName: __ZNSt6vectorISt4pairIiiESaIS1_EEC1Ev, symObjAddr: 0x540, symBinAddr: 0x1000037B0, symSize: 0x20 }
  - { offset: 0x3B49B, size: 0x8, addend: 0x0, symName: __ZNSt12_Vector_baseISt4pairIiiESaIS1_EEC2Ev, symObjAddr: 0x520, symBinAddr: 0x100003790, symSize: 0x20 }
  - { offset: 0x3B4E8, size: 0x8, addend: 0x0, symName: __ZNSt12_Vector_baseISt4pairIiiESaIS1_EE12_Vector_implD1Ev, symObjAddr: 0x4F4, symBinAddr: 0x100003764, symSize: 0x2C }
  - { offset: 0x3B538, size: 0x8, addend: 0x0, symName: __Z16customComparatorRSt4pairIiiES1_, symObjAddr: 0x48C, symBinAddr: 0x1000036FC, symSize: 0x68 }
  - { offset: 0x3B59C, size: 0x8, addend: 0x0, symName: __Z22findContentChildrenTufRSt6vectorIiSaIiEES2_, symObjAddr: 0x38C, symBinAddr: 0x1000035FC, symSize: 0x100 }
  - { offset: 0x3B620, size: 0x8, addend: 0x0, symName: __Z19findContentChildrenRSt6vectorIiSaIiEES2_, symObjAddr: 0x19C, symBinAddr: 0x10000340C, symSize: 0x1F0 }
  - { offset: 0x3B6F5, size: 0x8, addend: 0x0, symName: __ZSt3minImERKT_S2_S2_, symObjAddr: 0x164, symBinAddr: 0x1000033D4, symSize: 0x38 }
  - { offset: 0x3B73B, size: 0x8, addend: 0x0, symName: __ZNSt8__detail20_Prime_rehash_policy8_M_resetEm, symObjAddr: 0x140, symBinAddr: 0x1000033B0, symSize: 0x24 }
  - { offset: 0x3B776, size: 0x8, addend: 0x0, symName: __ZNKSt8__detail20_Prime_rehash_policy8_M_stateEv, symObjAddr: 0x128, symBinAddr: 0x100003398, symSize: 0x18 }
  - { offset: 0x3B7C8, size: 0x8, addend: 0x0, symName: __ZNSt8__detail20_Prime_rehash_policyC1Ef, symObjAddr: 0xFC, symBinAddr: 0x10000336C, symSize: 0x2C }
  - { offset: 0x3B7F7, size: 0x8, addend: 0x0, symName: __ZNKSt8__detail18_Mod_range_hashingclEmm, symObjAddr: 0xCC, symBinAddr: 0x10000333C, symSize: 0x30 }
  - { offset: 0x3B85D, size: 0x8, addend: 0x0, symName: __ZNSt8__detail15_Hash_node_baseC1Ev, symObjAddr: 0xB0, symBinAddr: 0x100003320, symSize: 0x1C }
  - { offset: 0x3B887, size: 0x8, addend: 0x0, symName: __ZNSt8__detail15_Hash_node_baseC2Ev, symObjAddr: 0x94, symBinAddr: 0x100003304, symSize: 0x1C }
  - { offset: 0x3B8AD, size: 0x8, addend: 0x0, symName: __ZNKSt4hashIiEclEi, symObjAddr: 0x7C, symBinAddr: 0x1000032EC, symSize: 0x18 }
  - { offset: 0x3B8EA, size: 0x8, addend: 0x0, symName: __ZdlPvS_, symObjAddr: 0x64, symBinAddr: 0x1000032D4, symSize: 0x18 }
  - { offset: 0x3B920, size: 0x8, addend: 0x0, symName: __ZnwmPv, symObjAddr: 0x4C, symBinAddr: 0x1000032BC, symSize: 0x18 }
  - { offset: 0x3B952, size: 0x8, addend: 0x0, symName: __ZSt17__size_to_integerm, symObjAddr: 0x38, symBinAddr: 0x1000032A8, symSize: 0x14 }
  - { offset: 0x3B97C, size: 0x8, addend: 0x0, symName: __ZN9__gnu_cxx5__ops15__val_comp_iterENS0_15_Iter_less_iterE, symObjAddr: 0x20, symBinAddr: 0x100003290, symSize: 0x18 }
  - { offset: 0x3B9C1, size: 0x8, addend: 0x0, symName: __ZN9__gnu_cxx5__ops14_Iter_less_valC1ENS0_15_Iter_less_iterE, symObjAddr: 0x8, symBinAddr: 0x100003278, symSize: 0x18 }
  - { offset: 0x3B9EC, size: 0x8, addend: 0x0, symName: __ZN9__gnu_cxx5__ops16__iter_less_iterEv, symObjAddr: 0x0, symBinAddr: 0x100003270, symSize: 0x8 }
...
