---
triple:          'arm64-apple-darwin'
binary-path:     '/Users/lalitsiraswa/Documents/Daily-Practice/RecursionQuestions'
relocations:
  - { offset: 0x33905, size: 0x8, addend: 0x0, symName: __ZStL8__ioinit, symObjAddr: 0x1641D9, symBinAddr: 0x100030000, symSize: 0x0 }
  - { offset: 0x354FF, size: 0x8, addend: 0x0, symName: __ZNK9__gnu_cxx17__normal_iteratorIPKcSt6vectorIcSaIcEEE4baseEv, symObjAddr: 0x183B0, symBinAddr: 0x10001993C, symSize: 0x14 }
  - { offset: 0x35525, size: 0x8, addend: 0x0, symName: __ZSt12__niter_baseIPKcSt6vectorIcSaIcEEET_N9__gnu_cxx17__normal_iteratorIS5_T0_EE, symObjAddr: 0x18390, symBinAddr: 0x10001991C, symSize: 0x20 }
  - { offset: 0x35561, size: 0x8, addend: 0x0, symName: __ZSt13__copy_move_aILb0EN9__gnu_cxx17__normal_iteratorIPKcSt6vectorIcSaIcEEEEPcET1_T0_SA_S9_, symObjAddr: 0x18330, symBinAddr: 0x1000198BC, symSize: 0x60 }
  - { offset: 0x355C9, size: 0x8, addend: 0x0, symName: __ZSt12__miter_baseIN9__gnu_cxx17__normal_iteratorIPKcSt6vectorIcSaIcEEEEET_S8_, symObjAddr: 0x1831C, symBinAddr: 0x1000198A8, symSize: 0x14 }
  - { offset: 0x355FC, size: 0x8, addend: 0x0, symName: __ZSt4copyIN9__gnu_cxx17__normal_iteratorIPKcSt6vectorIcSaIcEEEEPcET0_T_SA_S9_, symObjAddr: 0x182D4, symBinAddr: 0x100019860, symSize: 0x48 }
  - { offset: 0x3565A, size: 0x8, addend: 0x0, symName: __ZNSt10_Head_baseILm0EOcLb0EE7_M_headERS1_, symObjAddr: 0x182BC, symBinAddr: 0x100019848, symSize: 0x18 }
  - { offset: 0x35683, size: 0x8, addend: 0x0, symName: __ZNSt10_Head_baseILm0ERKcLb0EE7_M_headERS2_, symObjAddr: 0x182A4, symBinAddr: 0x100019830, symSize: 0x18 }
  - { offset: 0x356AC, size: 0x8, addend: 0x0, symName: __ZNSt20__uninitialized_copyILb1EE13__uninit_copyIN9__gnu_cxx17__normal_iteratorIPKcSt6vectorIcSaIcEEEEPcEET0_T_SC_SB_, symObjAddr: 0x18278, symBinAddr: 0x100019804, symSize: 0x2C }
  - { offset: 0x35707, size: 0x8, addend: 0x0, symName: __ZNSt11_Tuple_implILm0EJOcEE7_M_headERS1_, symObjAddr: 0x1825C, symBinAddr: 0x1000197E8, symSize: 0x1C }
  - { offset: 0x35731, size: 0x8, addend: 0x0, symName: __ZNSt11_Tuple_implILm0EJRKcEE7_M_headERS2_, symObjAddr: 0x18240, symBinAddr: 0x1000197CC, symSize: 0x1C }
  - { offset: 0x3576A, size: 0x8, addend: 0x0, symName: __ZNK9__gnu_cxx5__ops15_Iter_less_iterclIPKiS4_EEbT_T0_, symObjAddr: 0x1820C, symBinAddr: 0x100019798, symSize: 0x34 }
  - { offset: 0x357C2, size: 0x8, addend: 0x0, symName: __ZNSt8__lc_raiISt26random_access_iterator_tagS0_E6__cnd2IPKiEEbT_S5_, symObjAddr: 0x181F4, symBinAddr: 0x100019780, symSize: 0x18 }
  - { offset: 0x357F6, size: 0x8, addend: 0x0, symName: __ZNSt8__lc_raiISt26random_access_iterator_tagS0_E10__newlast1IPKiS4_EET_S5_S5_T0_S6_, symObjAddr: 0x18188, symBinAddr: 0x100019714, symSize: 0x6C }
  - { offset: 0x35887, size: 0x8, addend: 0x0, symName: __ZNSt11__copy_moveILb0ELb0ESt26random_access_iterator_tagE12__assign_oneIPiS3_EEvPT_PT0_, symObjAddr: 0x18160, symBinAddr: 0x1000196EC, symSize: 0x28 }
  - { offset: 0x358D4, size: 0x8, addend: 0x0, symName: __ZSt18uninitialized_copyIN9__gnu_cxx17__normal_iteratorIPKcSt6vectorIcSaIcEEEEPcET0_T_SA_S9_, symObjAddr: 0x18124, symBinAddr: 0x1000196B0, symSize: 0x3C }
  - { offset: 0x3597B, size: 0x8, addend: 0x0, symName: __ZN9__gnu_cxx17__normal_iteratorIPKcSt6vectorIcSaIcEEEC1ERKS2_, symObjAddr: 0x180FC, symBinAddr: 0x100019688, symSize: 0x28 }
  - { offset: 0x359AA, size: 0x8, addend: 0x0, symName: __ZNSt12_Vector_baseIcSaIcEE17_M_create_storageEm, symObjAddr: 0x180A0, symBinAddr: 0x10001962C, symSize: 0x5C }
  - { offset: 0x359E5, size: 0x8, addend: 0x0, symName: __ZNSt15_Deque_iteratorIiRiPiEpLEl, symObjAddr: 0x17F74, symBinAddr: 0x100019500, symSize: 0x12C }
  - { offset: 0x35A4E, size: 0x8, addend: 0x0, symName: __ZSt12__get_helperILm0EOcJEERT0_RSt11_Tuple_implIXT_EJS1_DpT1_EE, symObjAddr: 0x17F58, symBinAddr: 0x1000194E4, symSize: 0x1C }
  - { offset: 0x35A90, size: 0x8, addend: 0x0, symName: __ZSt12__get_helperILm0ERKcJEERT0_RSt11_Tuple_implIXT_EJS2_DpT1_EE, symObjAddr: 0x17F3C, symBinAddr: 0x1000194C8, symSize: 0x1C }
  - { offset: 0x35AD2, size: 0x8, addend: 0x0, symName: __ZSt30__lexicographical_compare_implIPKiS1_N9__gnu_cxx5__ops15_Iter_less_iterEEbT_S5_T0_S6_T1_, symObjAddr: 0x17E2C, symBinAddr: 0x1000193B8, symSize: 0x110 }
  - { offset: 0x35B5B, size: 0x8, addend: 0x0, symName: __ZNSt11__copy_moveILb1ELb0ESt26random_access_iterator_tagE12__assign_oneIiiEEvPT_PT0_, symObjAddr: 0x17DFC, symBinAddr: 0x100019388, symSize: 0x30 }
  - { offset: 0x35BA8, size: 0x8, addend: 0x0, symName: __ZNSt20__copy_move_backwardILb0ELb1ESt26random_access_iterator_tagE13__copy_move_bIPiS3_EEPT0_PT_S7_S5_, symObjAddr: 0x17D50, symBinAddr: 0x1000192DC, symSize: 0xAC }
  - { offset: 0x35C17, size: 0x8, addend: 0x0, symName: __ZNSt11__copy_moveILb0ELb1ESt26random_access_iterator_tagE8__copy_mIPiS3_EEPT0_PT_S7_S5_, symObjAddr: 0x17CC0, symBinAddr: 0x10001924C, symSize: 0x90 }
  - { offset: 0x35C86, size: 0x8, addend: 0x0, symName: __ZSt22__uninitialized_copy_aIN9__gnu_cxx17__normal_iteratorIPKcSt6vectorIcSaIcEEEEPccET0_T_SA_S9_RSaIT1_E, symObjAddr: 0x17C90, symBinAddr: 0x10001921C, symSize: 0x30 }
  - { offset: 0x35CFA, size: 0x8, addend: 0x0, symName: __ZNKSt6vectorIcSaIcEE3endEv, symObjAddr: 0x17C68, symBinAddr: 0x1000191F4, symSize: 0x28 }
  - { offset: 0x35D24, size: 0x8, addend: 0x0, symName: __ZNKSt6vectorIcSaIcEE5beginEv, symObjAddr: 0x17C44, symBinAddr: 0x1000191D0, symSize: 0x24 }
  - { offset: 0x35D84, size: 0x8, addend: 0x0, symName: __ZNSt12_Vector_baseIcSaIcEEC2EmRKS0_, symObjAddr: 0x17BF0, symBinAddr: 0x10001917C, symSize: 0x54 }
  - { offset: 0x35DBC, size: 0x8, addend: 0x0, symName: __ZNKSt12_Vector_baseIcSaIcEE19_M_get_Tp_allocatorEv, symObjAddr: 0x17BDC, symBinAddr: 0x100019168, symSize: 0x14 }
  - { offset: 0x35DEA, size: 0x8, addend: 0x0, symName: __ZNK9__gnu_cxx16__aligned_bufferISt4pairIKcNSt7__cxx1112basic_stringIcSt11char_traitsIcESaIcEEEEE7_M_addrEv, symObjAddr: 0x17BC8, symBinAddr: 0x100019154, symSize: 0x14 }
  - { offset: 0x35E10, size: 0x8, addend: 0x0, symName: __ZNSt15_Deque_iteratorIiRKiPS0_E14_S_buffer_sizeEv, symObjAddr: 0x17BB0, symBinAddr: 0x10001913C, symSize: 0x18 }
  - { offset: 0x35E28, size: 0x8, addend: 0x0, symName: __ZSt14__copy_move_a1ILb0EPiiEN9__gnu_cxx11__enable_ifIXsrSt23__is_random_access_iterIT0_NSt15iterator_traitsIS4_E17iterator_categoryEE7__valueESt15_Deque_iteratorIT1_RSA_PSA_EE6__typeES4_S4_SD_, symObjAddr: 0x17AD0, symBinAddr: 0x10001905C, symSize: 0xE0 }
  - { offset: 0x35EDF, size: 0x8, addend: 0x0, symName: __ZSt7forwardIOcEOT_RNSt16remove_referenceIS1_E4typeE, symObjAddr: 0x17ABC, symBinAddr: 0x100019048, symSize: 0x14 }
  - { offset: 0x35F11, size: 0x8, addend: 0x0, symName: __ZSt3getILm0EJOcEERNSt13tuple_elementIXT_ESt5tupleIJDpT0_EEE4typeERS5_, symObjAddr: 0x17AA0, symBinAddr: 0x10001902C, symSize: 0x1C }
  - { offset: 0x35F58, size: 0x8, addend: 0x0, symName: __ZNK9__gnu_cxx16__aligned_bufferISt4pairIKcSt6vectorIcSaIcEEEE7_M_addrEv, symObjAddr: 0x17A8C, symBinAddr: 0x100019018, symSize: 0x14 }
  - { offset: 0x35F9C, size: 0x8, addend: 0x0, symName: __ZNSt12_Vector_baseIcSaIcEE12_Vector_implC1Ev, symObjAddr: 0x17A54, symBinAddr: 0x100018FE0, symSize: 0x38 }
  - { offset: 0x3600B, size: 0x8, addend: 0x0, symName: __ZSt7forwardIRKcEOT_RNSt16remove_referenceIS2_E4typeE, symObjAddr: 0x17A40, symBinAddr: 0x100018FCC, symSize: 0x14 }
  - { offset: 0x3603D, size: 0x8, addend: 0x0, symName: __ZSt3getILm0EJRKcEERNSt13tuple_elementIXT_ESt5tupleIJDpT0_EEE4typeERS6_, symObjAddr: 0x17A24, symBinAddr: 0x100018FB0, symSize: 0x1C }
  - { offset: 0x3607C, size: 0x8, addend: 0x0, symName: __ZNSt25__lexicographical_compareILb0EE4__lcIPKiS3_EEbT_S4_T0_S5_, symObjAddr: 0x179E0, symBinAddr: 0x100018F6C, symSize: 0x44 }
  - { offset: 0x360EB, size: 0x8, addend: 0x0, symName: __ZNSt20__copy_move_backwardILb1ELb1ESt26random_access_iterator_tagE13__copy_move_bIiiEEPT0_PT_S6_S4_, symObjAddr: 0x17934, symBinAddr: 0x100018EC0, symSize: 0xAC }
  - { offset: 0x36169, size: 0x8, addend: 0x0, symName: __ZNK9__gnu_cxx5__ops14_Iter_less_valclINS_17__normal_iteratorIPiSt6vectorIiSaIiEEEEiEEbT_RT0_, symObjAddr: 0x178F8, symBinAddr: 0x100018E84, symSize: 0x3C }
  - { offset: 0x361C1, size: 0x8, addend: 0x0, symName: __ZSt9__fill_a1IPiiEN9__gnu_cxx11__enable_ifIXsrSt11__is_scalarIT0_E7__valueEvE6__typeET_S8_RKS4_, symObjAddr: 0x178A0, symBinAddr: 0x100018E2C, symSize: 0x58 }
  - { offset: 0x36230, size: 0x8, addend: 0x0, symName: __ZSt23__copy_move_backward_a2ILb0EPPiS1_ET1_T0_S3_S2_, symObjAddr: 0x17874, symBinAddr: 0x100018E00, symSize: 0x2C }
  - { offset: 0x36298, size: 0x8, addend: 0x0, symName: __ZSt14__copy_move_a2ILb0EPPiS1_ET1_T0_S3_S2_, symObjAddr: 0x17848, symBinAddr: 0x100018DD4, symSize: 0x2C }
  - { offset: 0x3632C, size: 0x8, addend: 0x0, symName: __ZNSt6vectorIcSaIcEEC1ERKS1_, symObjAddr: 0x17734, symBinAddr: 0x100018CC0, symSize: 0x114 }
  - { offset: 0x36442, size: 0x8, addend: 0x0, symName: __ZSt7forwardIRKSt6vectorIcSaIcEEEOT_RNSt16remove_referenceIS5_E4typeE, symObjAddr: 0x17720, symBinAddr: 0x100018CAC, symSize: 0x14 }
  - { offset: 0x364E1, size: 0x8, addend: 0x0, symName: __ZNSt4pairIKcNSt7__cxx1112basic_stringIcSt11char_traitsIcESaIcEEEEC1IJRS0_EJLm0EEJEJEEERSt5tupleIJDpT_EERSA_IJDpT1_EESt12_Index_tupleIJXspT0_EEESJ_IJXspT2_EEE, symObjAddr: 0x176D4, symBinAddr: 0x100018C60, symSize: 0x4C }
  - { offset: 0x36554, size: 0x8, addend: 0x0, symName: __ZNK9__gnu_cxx16__aligned_bufferISt4pairIKcNSt7__cxx1112basic_stringIcSt11char_traitsIcESaIcEEEEE6_M_ptrEv, symObjAddr: 0x176B8, symBinAddr: 0x100018C44, symSize: 0x1C }
  - { offset: 0x365E7, size: 0x8, addend: 0x0, symName: __ZNSt4pairIKcNSt7__cxx1112basic_stringIcSt11char_traitsIcESaIcEEEEC1IJOcEJLm0EEJEJEEERSt5tupleIJDpT_EERSA_IJDpT1_EESt12_Index_tupleIJXspT0_EEESJ_IJXspT2_EEE, symObjAddr: 0x1766C, symBinAddr: 0x100018BF8, symSize: 0x4C }
  - { offset: 0x36656, size: 0x8, addend: 0x0, symName: __ZSt11__addressofINSt8__detail10_Hash_nodeISt4pairIKcNSt7__cxx1112basic_stringIcSt11char_traitsIcESaIcEEEELb0EEEEPT_RSC_, symObjAddr: 0x17658, symBinAddr: 0x100018BE4, symSize: 0x14 }
  - { offset: 0x36688, size: 0x8, addend: 0x0, symName: __ZSt15__copy_move_ditILb0EiRKiPS0_St15_Deque_iteratorIiRiPiEET3_S3_IT0_T1_T2_ESB_S7_, symObjAddr: 0x174C0, symBinAddr: 0x100018A4C, symSize: 0x198 }
  - { offset: 0x367A1, size: 0x8, addend: 0x0, symName: __ZSt7forwardISt6vectorINSt7__cxx1112basic_stringIcSt11char_traitsIcESaIcEEESaIS6_EEEOT_RNSt16remove_referenceIS9_E4typeE, symObjAddr: 0x174AC, symBinAddr: 0x100018A38, symSize: 0x14 }
  - { offset: 0x367D3, size: 0x8, addend: 0x0, symName: __ZNSt11__copy_moveILb0ELb0ESt26random_access_iterator_tagE12__assign_oneIcKcEEvPT_PT0_, symObjAddr: 0x17484, symBinAddr: 0x100018A10, symSize: 0x28 }
  - { offset: 0x3688D, size: 0x8, addend: 0x0, symName: __ZNSt4pairIKcSt6vectorIcSaIcEEEC1IJOcEJLm0EEJEJEEERSt5tupleIJDpT_EERS7_IJDpT1_EESt12_Index_tupleIJXspT0_EEESG_IJXspT2_EEE, symObjAddr: 0x17428, symBinAddr: 0x1000189B4, symSize: 0x5C }
  - { offset: 0x36900, size: 0x8, addend: 0x0, symName: __ZNK9__gnu_cxx16__aligned_bufferISt4pairIKcSt6vectorIcSaIcEEEE6_M_ptrEv, symObjAddr: 0x1740C, symBinAddr: 0x100018998, symSize: 0x1C }
  - { offset: 0x3692A, size: 0x8, addend: 0x0, symName: __ZNSt15__new_allocatorIPNSt8__detail15_Hash_node_baseEE8allocateEmPKv, symObjAddr: 0x17390, symBinAddr: 0x10001891C, symSize: 0x7C }
  - { offset: 0x369B2, size: 0x8, addend: 0x0, symName: __ZSt11__addressofINSt8__detail10_Hash_nodeISt4pairIKcSt6vectorIcSaIcEEELb0EEEEPT_RS9_, symObjAddr: 0x1737C, symBinAddr: 0x100018908, symSize: 0x14 }
  - { offset: 0x36A51, size: 0x8, addend: 0x0, symName: __ZNSt4pairIKcSt6vectorIcSaIcEEEC1IJRS0_EJLm0EEJEJEEERSt5tupleIJDpT_EERS7_IJDpT1_EESt12_Index_tupleIJXspT0_EEESG_IJXspT2_EEE, symObjAddr: 0x17320, symBinAddr: 0x1000188AC, symSize: 0x5C }
  - { offset: 0x36ADE, size: 0x8, addend: 0x0, symName: __ZNSt6vectorIcSaIcEEC1Ev, symObjAddr: 0x17300, symBinAddr: 0x10001888C, symSize: 0x20 }
  - { offset: 0x36B1E, size: 0x8, addend: 0x0, symName: __ZNSt12_Vector_baseIcSaIcEEC2Ev, symObjAddr: 0x172E0, symBinAddr: 0x10001886C, symSize: 0x20 }
  - { offset: 0x36B44, size: 0x8, addend: 0x0, symName: __ZNKSt8__detail21_Hashtable_ebo_helperILi0ESt8equal_toIcELb1EE7_M_cgetEv, symObjAddr: 0x172CC, symBinAddr: 0x100018858, symSize: 0x14 }
  - { offset: 0x36BB0, size: 0x8, addend: 0x0, symName: __ZNSt15__new_allocatorISt13_Rb_tree_nodeISt6vectorIiSaIiEEEE8allocateEmPKv, symObjAddr: 0x17234, symBinAddr: 0x1000187C0, symSize: 0x98 }
  - { offset: 0x36C38, size: 0x8, addend: 0x0, symName: __ZSt30__lexicographical_compare_aux1IPKiS1_EbT_S2_T0_S3_, symObjAddr: 0x171FC, symBinAddr: 0x100018788, symSize: 0x38 }
  - { offset: 0x36CB8, size: 0x8, addend: 0x0, symName: __ZSt23__copy_move_backward_a2ILb1EPiS0_ET1_T0_S2_S1_, symObjAddr: 0x171D0, symBinAddr: 0x10001875C, symSize: 0x2C }
  - { offset: 0x36D27, size: 0x8, addend: 0x0, symName: __ZSt11__push_heapIN9__gnu_cxx17__normal_iteratorIPiSt6vectorIiSaIiEEEEliNS0_5__ops14_Iter_less_valEEvT_T0_SA_T1_RT2_, symObjAddr: 0x170AC, symBinAddr: 0x100018638, symSize: 0x124 }
  - { offset: 0x36DD3, size: 0x8, addend: 0x0, symName: __ZSt4moveIRN9__gnu_cxx5__ops15_Iter_less_iterEEONSt16remove_referenceIT_E4typeEOS5_, symObjAddr: 0x17098, symBinAddr: 0x100018624, symSize: 0x14 }
  - { offset: 0x36E05, size: 0x8, addend: 0x0, symName: __ZSt8__fill_aIPiiEvT_S1_RKT0_, symObjAddr: 0x17068, symBinAddr: 0x1000185F4, symSize: 0x30 }
  - { offset: 0x36EA9, size: 0x8, addend: 0x0, symName: __ZNSt15__new_allocatorISt13_Rb_tree_nodeINSt7__cxx1112basic_stringIcSt11char_traitsIcESaIcEEEEE8allocateEmPKv, symObjAddr: 0x16FEC, symBinAddr: 0x100018578, symSize: 0x7C }
  - { offset: 0x36FA6, size: 0x8, addend: 0x0, symName: __ZSt7forwardISt6vectorIiSaIiEEEOT_RNSt16remove_referenceIS3_E4typeE, symObjAddr: 0x16FD8, symBinAddr: 0x100018564, symSize: 0x14 }
  - { offset: 0x3704D, size: 0x8, addend: 0x0, symName: __ZSt7forwardINSt7__cxx1112basic_stringIcSt11char_traitsIcESaIcEEEEOT_RNSt16remove_referenceIS6_E4typeE, symObjAddr: 0x16FC4, symBinAddr: 0x100018550, symSize: 0x14 }
  - { offset: 0x3707F, size: 0x8, addend: 0x0, symName: __ZSt23__copy_move_backward_a1ILb0EPPiS1_ET1_T0_S3_S2_, symObjAddr: 0x16F98, symBinAddr: 0x100018524, symSize: 0x2C }
  - { offset: 0x370E7, size: 0x8, addend: 0x0, symName: __ZSt12__niter_wrapIPPiET_RKS2_S2_, symObjAddr: 0x16F80, symBinAddr: 0x10001850C, symSize: 0x18 }
  - { offset: 0x37123, size: 0x8, addend: 0x0, symName: __ZSt14__copy_move_a1ILb0EPPiS1_ET1_T0_S3_S2_, symObjAddr: 0x16F54, symBinAddr: 0x1000184E0, symSize: 0x2C }
  - { offset: 0x3718B, size: 0x8, addend: 0x0, symName: __ZSt12__niter_baseIPPiET_S2_, symObjAddr: 0x16F40, symBinAddr: 0x1000184CC, symSize: 0x14 }
  - { offset: 0x371BE, size: 0x8, addend: 0x0, symName: __ZSt10_ConstructISt6vectorIcSaIcEEJRKS2_EEvPT_DpOT0_, symObjAddr: 0x16EC4, symBinAddr: 0x100018450, symSize: 0x7C }
  - { offset: 0x37259, size: 0x8, addend: 0x0, symName: __ZNSt4pairIKcNSt7__cxx1112basic_stringIcSt11char_traitsIcESaIcEEEEC1IJRS0_EJEEESt21piecewise_construct_tSt5tupleIJDpT_EESB_IJDpT0_EE, symObjAddr: 0x16E88, symBinAddr: 0x100018414, symSize: 0x3C }
  - { offset: 0x372AE, size: 0x8, addend: 0x0, symName: __ZSt7forwardIRKSt4pairIKcNSt7__cxx1112basic_stringIcSt11char_traitsIcESaIcEEEEEOT_RNSt16remove_referenceISB_E4typeE, symObjAddr: 0x16E74, symBinAddr: 0x100018400, symSize: 0x14 }
  - { offset: 0x37345, size: 0x8, addend: 0x0, symName: __ZNSt4pairIKcNSt7__cxx1112basic_stringIcSt11char_traitsIcESaIcEEEEC1IJOcEJEEESt21piecewise_construct_tSt5tupleIJDpT_EESB_IJDpT0_EE, symObjAddr: 0x16E38, symBinAddr: 0x1000183C4, symSize: 0x3C }
  - { offset: 0x37397, size: 0x8, addend: 0x0, symName: __ZNKSt8__detail15_Hashtable_baseIcSt4pairIKcNSt7__cxx1112basic_stringIcSt11char_traitsIcESaIcEEEENS_10_Select1stESt8equal_toIcESt4hashIcENS_18_Mod_range_hashingENS_20_Default_ranged_hashENS_17_Hashtable_traitsILb0ELb0ELb1EEEE5_M_eqEv, symObjAddr: 0x16E1C, symBinAddr: 0x1000183A8, symSize: 0x1C }
  - { offset: 0x373BD, size: 0x8, addend: 0x0, symName: __ZSt9addressofINSt8__detail10_Hash_nodeISt4pairIKcNSt7__cxx1112basic_stringIcSt11char_traitsIcESaIcEEEELb0EEEEPT_RSC_, symObjAddr: 0x16E00, symBinAddr: 0x10001838C, symSize: 0x1C }
  - { offset: 0x373F3, size: 0x8, addend: 0x0, symName: __ZNK9__gnu_cxx17__normal_iteratorIPKNSt7__cxx1112basic_stringIcSt11char_traitsIcESaIcEEESt6vectorIS6_SaIS6_EEE4baseEv, symObjAddr: 0x16DEC, symBinAddr: 0x100018378, symSize: 0x14 }
  - { offset: 0x37419, size: 0x8, addend: 0x0, symName: __ZNSt11__copy_moveILb0ELb0ESt26random_access_iterator_tagE12__assign_oneIiiEEvPT_PT0_, symObjAddr: 0x16DC4, symBinAddr: 0x100018350, symSize: 0x28 }
  - { offset: 0x37466, size: 0x8, addend: 0x0, symName: __ZNSt11__copy_moveILb0ELb0ESt26random_access_iterator_tagE12__assign_oneIiKiEEvPT_PT0_, symObjAddr: 0x16D9C, symBinAddr: 0x100018328, symSize: 0x28 }
  - { offset: 0x374B3, size: 0x8, addend: 0x0, symName: __ZSt13__copy_move_aILb0EN9__gnu_cxx17__normal_iteratorIPKiSt6vectorIiSaIiEEEEPiET1_T0_SA_S9_, symObjAddr: 0x16D3C, symBinAddr: 0x1000182C8, symSize: 0x60 }
  - { offset: 0x3751B, size: 0x8, addend: 0x0, symName: __ZSt12__niter_wrapISt15_Deque_iteratorIiRiPiEET_RKS4_S4_, symObjAddr: 0x16D08, symBinAddr: 0x100018294, symSize: 0x34 }
  - { offset: 0x37558, size: 0x8, addend: 0x0, symName: __ZSt14__copy_move_a1ILb0EiRKiPS0_iESt15_Deque_iteratorIT3_RS4_PS4_ES3_IT0_T1_T2_ESB_S7_, symObjAddr: 0x16CA4, symBinAddr: 0x100018230, symSize: 0x64 }
  - { offset: 0x375D8, size: 0x8, addend: 0x0, symName: __ZSt12__niter_baseISt15_Deque_iteratorIiRiPiEET_S4_, symObjAddr: 0x16C74, symBinAddr: 0x100018200, symSize: 0x30 }
  - { offset: 0x3760C, size: 0x8, addend: 0x0, symName: __ZSt12__niter_baseISt15_Deque_iteratorIiRKiPS1_EET_S5_, symObjAddr: 0x16C44, symBinAddr: 0x1000181D0, symSize: 0x30 }
  - { offset: 0x376B8, size: 0x8, addend: 0x0, symName: __ZSt4moveIRSt6vectorINSt7__cxx1112basic_stringIcSt11char_traitsIcESaIcEEESaIS6_EEEONSt16remove_referenceIT_E4typeEOSB_, symObjAddr: 0x16C30, symBinAddr: 0x1000181BC, symSize: 0x14 }
  - { offset: 0x37700, size: 0x8, addend: 0x0, symName: __ZNSt11__copy_moveILb0ELb1ESt26random_access_iterator_tagE8__copy_mIKccEEPT0_PT_S7_S5_, symObjAddr: 0x16BAC, symBinAddr: 0x100018138, symSize: 0x84 }
  - { offset: 0x377BE, size: 0x8, addend: 0x0, symName: __ZNSt4pairIKcSt6vectorIcSaIcEEEC1IJOcEJEEESt21piecewise_construct_tSt5tupleIJDpT_EES8_IJDpT0_EE, symObjAddr: 0x16B70, symBinAddr: 0x1000180FC, symSize: 0x3C }
  - { offset: 0x37838, size: 0x8, addend: 0x0, symName: __ZNSt11_Tuple_implILm0EJOcEEC2EOS1_, symObjAddr: 0x16B48, symBinAddr: 0x1000180D4, symSize: 0x28 }
  - { offset: 0x37863, size: 0x8, addend: 0x0, symName: __ZSt11__addressofIPNSt8__detail15_Hash_node_baseEEPT_RS3_, symObjAddr: 0x16B34, symBinAddr: 0x1000180C0, symSize: 0x14 }
  - { offset: 0x3789C, size: 0x8, addend: 0x0, symName: __ZSt7forwardIRKSt4pairIKcSt6vectorIcSaIcEEEEOT_RNSt16remove_referenceIS8_E4typeE, symObjAddr: 0x16B20, symBinAddr: 0x1000180AC, symSize: 0x14 }
  - { offset: 0x378E4, size: 0x8, addend: 0x0, symName: __ZSt12__to_addressIPNSt8__detail15_Hash_node_baseEEPT_S4_, symObjAddr: 0x16B0C, symBinAddr: 0x100018098, symSize: 0x14 }
  - { offset: 0x3793A, size: 0x8, addend: 0x0, symName: __ZSt9addressofINSt8__detail10_Hash_nodeISt4pairIKcSt6vectorIcSaIcEEELb0EEEEPT_RS9_, symObjAddr: 0x16AF0, symBinAddr: 0x10001807C, symSize: 0x1C }
  - { offset: 0x379BB, size: 0x8, addend: 0x0, symName: __ZNSt4pairIKcSt6vectorIcSaIcEEEC1IJRS0_EJEEESt21piecewise_construct_tSt5tupleIJDpT_EES8_IJDpT0_EE, symObjAddr: 0x16AB4, symBinAddr: 0x100018040, symSize: 0x3C }
  - { offset: 0x37A35, size: 0x8, addend: 0x0, symName: __ZNSt11_Tuple_implILm0EJRKcEEC2EOS2_, symObjAddr: 0x16A8C, symBinAddr: 0x100018018, symSize: 0x28 }
  - { offset: 0x37A64, size: 0x8, addend: 0x0, symName: __ZNKSt8equal_toIcEclERKcS2_, symObjAddr: 0x16A58, symBinAddr: 0x100017FE4, symSize: 0x34 }
  - { offset: 0x37AB0, size: 0x8, addend: 0x0, symName: __ZNKSt8__detail15_Hashtable_baseIcSt4pairIKcSt6vectorIcSaIcEEENS_10_Select1stESt8equal_toIcESt4hashIcENS_18_Mod_range_hashingENS_20_Default_ranged_hashENS_17_Hashtable_traitsILb0ELb0ELb1EEEE5_M_eqEv, symObjAddr: 0x16A3C, symBinAddr: 0x100017FC8, symSize: 0x1C }
  - { offset: 0x37ADA, size: 0x8, addend: 0x0, symName: __ZNKSt23_Rb_tree_const_iteratorISt6vectorIiSaIiEEEdeEv, symObjAddr: 0x16A1C, symBinAddr: 0x100017FA8, symSize: 0x20 }
  - { offset: 0x37B08, size: 0x8, addend: 0x0, symName: __ZN9__gnu_cxx16__aligned_membufISt6vectorIiSaIiEEE7_M_addrEv, symObjAddr: 0x16A08, symBinAddr: 0x100017F94, symSize: 0x14 }
  - { offset: 0x37B96, size: 0x8, addend: 0x0, symName: __ZSt29__lexicographical_compare_auxIN9__gnu_cxx17__normal_iteratorIPKiSt6vectorIiSaIiEEEES7_EbT_S8_T0_S9_, symObjAddr: 0x16998, symBinAddr: 0x100017F24, symSize: 0x70 }
  - { offset: 0x37C0D, size: 0x8, addend: 0x0, symName: __ZNK9__gnu_cxx16__aligned_membufISt6vectorIiSaIiEEE7_M_addrEv, symObjAddr: 0x16984, symBinAddr: 0x100017F10, symSize: 0x14 }
  - { offset: 0x37C33, size: 0x8, addend: 0x0, symName: __ZSt23__copy_move_backward_a1ILb1EPiS0_ET1_T0_S2_S1_, symObjAddr: 0x16958, symBinAddr: 0x100017EE4, symSize: 0x2C }
  - { offset: 0x37C9B, size: 0x8, addend: 0x0, symName: __ZSt13__adjust_heapIN9__gnu_cxx17__normal_iteratorIPiSt6vectorIiSaIiEEEEliNS0_5__ops15_Iter_less_iterEEvT_T0_SA_T1_T2_, symObjAddr: 0x16784, symBinAddr: 0x100017D10, symSize: 0x1D4 }
  - { offset: 0x37D5D, size: 0x8, addend: 0x0, symName: __ZSt13__copy_move_aILb0EN9__gnu_cxx17__normal_iteratorIPiSt6vectorIiSaIiEEEES2_ET1_T0_S8_S7_, symObjAddr: 0x16724, symBinAddr: 0x100017CB0, symSize: 0x60 }
  - { offset: 0x37DC5, size: 0x8, addend: 0x0, symName: __ZSt10_ConstructISt6vectorIiSaIiEEJRKS2_EEvPT_DpOT0_, symObjAddr: 0x166A8, symBinAddr: 0x100017C34, symSize: 0x7C }
  - { offset: 0x37E11, size: 0x8, addend: 0x0, symName: __ZSt10__fill_n_aIPimiET_S1_T0_RKT1_St26random_access_iterator_tag, symObjAddr: 0x16644, symBinAddr: 0x100017BD0, symSize: 0x64 }
  - { offset: 0x37E9F, size: 0x8, addend: 0x0, symName: __ZN9__gnu_cxx16__aligned_membufINSt7__cxx1112basic_stringIcSt11char_traitsIcESaIcEEEE7_M_addrEv, symObjAddr: 0x16630, symBinAddr: 0x100017BBC, symSize: 0x14 }
  - { offset: 0x37F35, size: 0x8, addend: 0x0, symName: __ZNK9__gnu_cxx16__aligned_membufINSt7__cxx1112basic_stringIcSt11char_traitsIcESaIcEEEE7_M_addrEv, symObjAddr: 0x1661C, symBinAddr: 0x100017BA8, symSize: 0x14 }
  - { offset: 0x37FD3, size: 0x8, addend: 0x0, symName: __ZSt4moveIRSt6vectorIiSaIiEEEONSt16remove_referenceIT_E4typeEOS5_, symObjAddr: 0x16608, symBinAddr: 0x100017B94, symSize: 0x14 }
  - { offset: 0x38076, size: 0x8, addend: 0x0, symName: __ZSt22__copy_move_backward_aILb0EPPiS1_ET1_T0_S3_S2_, symObjAddr: 0x165A8, symBinAddr: 0x100017B34, symSize: 0x60 }
  - { offset: 0x380DE, size: 0x8, addend: 0x0, symName: __ZSt13__copy_move_aILb0EPPiS1_ET1_T0_S3_S2_, symObjAddr: 0x16548, symBinAddr: 0x100017AD4, symSize: 0x60 }
  - { offset: 0x38146, size: 0x8, addend: 0x0, symName: __ZSt12__miter_baseIPPiET_S2_, symObjAddr: 0x16534, symBinAddr: 0x100017AC0, symSize: 0x14 }
  - { offset: 0x38179, size: 0x8, addend: 0x0, symName: __ZSt16__do_uninit_copyIPKSt6vectorIcSaIcEEPS2_ET0_T_S7_S6_, symObjAddr: 0x164A0, symBinAddr: 0x100017A2C, symSize: 0x94 }
  - { offset: 0x3826D, size: 0x8, addend: 0x0, symName: __ZNKSt8__detail10_Select1stclIRKSt4pairIKcNSt7__cxx1112basic_stringIcSt11char_traitsIcESaIcEEEEEEONS0_10__1st_typeIT_E4typeEOSE_, symObjAddr: 0x16480, symBinAddr: 0x100017A0C, symSize: 0x20 }
  - { offset: 0x382C6, size: 0x8, addend: 0x0, symName: __ZNSt8__detail16_Hashtable_allocISaINS_10_Hash_nodeISt4pairIKcNSt7__cxx1112basic_stringIcSt11char_traitsIcESaIcEEEELb0EEEEE19_M_allocate_bucketsEm, symObjAddr: 0x163D0, symBinAddr: 0x10001795C, symSize: 0xB0 }
  - { offset: 0x383ED, size: 0x8, addend: 0x0, symName: __ZNSt15__new_allocatorINSt8__detail10_Hash_nodeISt4pairIKcNSt7__cxx1112basic_stringIcSt11char_traitsIcESaIcEEEELb0EEEE10deallocateEPSB_m, symObjAddr: 0x16394, symBinAddr: 0x100017920, symSize: 0x3C }
  - { offset: 0x3848D, size: 0x8, addend: 0x0, symName: __ZNSt15__new_allocatorINSt8__detail10_Hash_nodeISt4pairIKcNSt7__cxx1112basic_stringIcSt11char_traitsIcESaIcEEEELb0EEEE8allocateEmPKv, symObjAddr: 0x16304, symBinAddr: 0x100017890, symSize: 0x90 }
  - { offset: 0x3851D, size: 0x8, addend: 0x0, symName: __ZN9__gnu_cxx16__aligned_bufferISt4pairIKcNSt7__cxx1112basic_stringIcSt11char_traitsIcESaIcEEEEE7_M_addrEv, symObjAddr: 0x162F0, symBinAddr: 0x10001787C, symSize: 0x14 }
  - { offset: 0x38547, size: 0x8, addend: 0x0, symName: __ZNKSt8__detail15_Hashtable_baseIcSt4pairIKcNSt7__cxx1112basic_stringIcSt11char_traitsIcESaIcEEEENS_10_Select1stESt8equal_toIcESt4hashIcENS_18_Mod_range_hashingENS_20_Default_ranged_hashENS_17_Hashtable_traitsILb0ELb0ELb1EEEE13_M_key_equalsERS2_RKNS_16_Hash_node_valueIS9_Lb0EEE, symObjAddr: 0x16284, symBinAddr: 0x100017810, symSize: 0x6C }
  - { offset: 0x385D7, size: 0x8, addend: 0x0, symName: __ZNSt8__detail15_Hashtable_baseIcSt4pairIKcNSt7__cxx1112basic_stringIcSt11char_traitsIcESaIcEEEENS_10_Select1stESt8equal_toIcESt4hashIcENS_18_Mod_range_hashingENS_20_Default_ranged_hashENS_17_Hashtable_traitsILb0ELb0ELb1EEEE9_S_equalsEmRKNS_21_Hash_node_code_cacheILb0EEE, symObjAddr: 0x1626C, symBinAddr: 0x1000177F8, symSize: 0x18 }
  - { offset: 0x38602, size: 0x8, addend: 0x0, symName: __ZNSt19__ptr_traits_ptr_toIPNSt8__detail10_Hash_nodeISt4pairIKcNSt7__cxx1112basic_stringIcSt11char_traitsIcESaIcEEEELb0EEESB_Lb0EE10pointer_toERSB_, symObjAddr: 0x16250, symBinAddr: 0x1000177DC, symSize: 0x1C }
  - { offset: 0x38683, size: 0x8, addend: 0x0, symName: __ZNSt4pairIKcNSt7__cxx1112basic_stringIcSt11char_traitsIcESaIcEEEED1Ev, symObjAddr: 0x1622C, symBinAddr: 0x1000177B8, symSize: 0x24 }
  - { offset: 0x386A9, size: 0x8, addend: 0x0, symName: __ZNSt8__detail21_Hashtable_ebo_helperILi0ESaINS_10_Hash_nodeISt4pairIKcNSt7__cxx1112basic_stringIcSt11char_traitsIcESaIcEEEELb0EEEELb1EE6_M_getEv, symObjAddr: 0x16218, symBinAddr: 0x1000177A4, symSize: 0x14 }
  - { offset: 0x386CF, size: 0x8, addend: 0x0, symName: __ZSt10_ConstructINSt7__cxx1112basic_stringIcSt11char_traitsIcESaIcEEEJRKS5_EEvPT_DpOT0_, symObjAddr: 0x1619C, symBinAddr: 0x100017728, symSize: 0x7C }
  - { offset: 0x3871F, size: 0x8, addend: 0x0, symName: __ZNK9__gnu_cxx17__normal_iteratorIPKNSt7__cxx1112basic_stringIcSt11char_traitsIcESaIcEEESt6vectorIS6_SaIS6_EEEdeEv, symObjAddr: 0x16184, symBinAddr: 0x100017710, symSize: 0x18 }
  - { offset: 0x38749, size: 0x8, addend: 0x0, symName: __ZN9__gnu_cxx17__normal_iteratorIPKNSt7__cxx1112basic_stringIcSt11char_traitsIcESaIcEEESt6vectorIS6_SaIS6_EEEppEv, symObjAddr: 0x1615C, symBinAddr: 0x1000176E8, symSize: 0x28 }
  - { offset: 0x38776, size: 0x8, addend: 0x0, symName: __ZN9__gnu_cxxneIPKNSt7__cxx1112basic_stringIcSt11char_traitsIcESaIcEEESt6vectorIS6_SaIS6_EEEEbRKNS_17__normal_iteratorIT_T0_EESH_, symObjAddr: 0x16118, symBinAddr: 0x1000176A4, symSize: 0x44 }
  - { offset: 0x387C3, size: 0x8, addend: 0x0, symName: __ZSt10_ConstructIiJEEvPT_DpOT0_, symObjAddr: 0x160EC, symBinAddr: 0x100017678, symSize: 0x2C }
  - { offset: 0x387FF, size: 0x8, addend: 0x0, symName: __ZSt11__addressofIiEPT_RS0_, symObjAddr: 0x160D8, symBinAddr: 0x100017664, symSize: 0x14 }
  - { offset: 0x38831, size: 0x8, addend: 0x0, symName: __ZNSt11__copy_moveILb0ELb1ESt26random_access_iterator_tagE8__copy_mIiiEEPT0_PT_S6_S4_, symObjAddr: 0x16048, symBinAddr: 0x1000175D4, symSize: 0x90 }
  - { offset: 0x388A0, size: 0x8, addend: 0x0, symName: __ZNSt11__copy_moveILb0ELb1ESt26random_access_iterator_tagE8__copy_mIKiiEEPT0_PT_S7_S5_, symObjAddr: 0x15FB8, symBinAddr: 0x100017544, symSize: 0x90 }
  - { offset: 0x3890F, size: 0x8, addend: 0x0, symName: __ZSt4copyIN9__gnu_cxx17__normal_iteratorIPKiSt6vectorIiSaIiEEEEPiET0_T_SA_S9_, symObjAddr: 0x15F70, symBinAddr: 0x1000174FC, symSize: 0x48 }
  - { offset: 0x3896D, size: 0x8, addend: 0x0, symName: __ZSt13__copy_move_aILb0ESt15_Deque_iteratorIiRKiPS1_ES0_IiRiPiEET1_T0_S9_S8_, symObjAddr: 0x15EC4, symBinAddr: 0x100017450, symSize: 0xAC }
  - { offset: 0x389DB, size: 0x8, addend: 0x0, symName: __ZSt12__miter_baseISt15_Deque_iteratorIiRKiPS1_EET_S5_, symObjAddr: 0x15E94, symBinAddr: 0x100017420, symSize: 0x30 }
  - { offset: 0x38A0F, size: 0x8, addend: 0x0, symName: __ZSt10_ConstructINSt7__cxx1112basic_stringIcSt11char_traitsIcESaIcEEEJEEvPT_DpOT0_, symObjAddr: 0x15E68, symBinAddr: 0x1000173F4, symSize: 0x2C }
  - { offset: 0x38A4B, size: 0x8, addend: 0x0, symName: __ZSt19__relocate_object_aISt6vectorINSt7__cxx1112basic_stringIcSt11char_traitsIcESaIcEEESaIS6_EES8_SaIS8_EEvPT_PT0_RT1_, symObjAddr: 0x15D98, symBinAddr: 0x100017324, symSize: 0xD0 }
  - { offset: 0x38B93, size: 0x8, addend: 0x0, symName: __ZSt14__copy_move_a2ILb0EPKcPcET1_T0_S4_S3_, symObjAddr: 0x15D6C, symBinAddr: 0x1000172F8, symSize: 0x2C }
  - { offset: 0x38C74, size: 0x8, addend: 0x0, symName: __ZNSt5tupleIJOcEEC1EOS1_, symObjAddr: 0x15D44, symBinAddr: 0x1000172D0, symSize: 0x28 }
  - { offset: 0x38CD3, size: 0x8, addend: 0x0, symName: __ZNSt10_Head_baseILm0EOcLb0EEC2IcEEOT_, symObjAddr: 0x15D14, symBinAddr: 0x1000172A0, symSize: 0x30 }
  - { offset: 0x38D0B, size: 0x8, addend: 0x0, symName: __ZNSt15__new_allocatorIPNSt8__detail15_Hash_node_baseEE10deallocateEPS2_m, symObjAddr: 0x15CE4, symBinAddr: 0x100017270, symSize: 0x30 }
  - { offset: 0x38D79, size: 0x8, addend: 0x0, symName: __ZNSt15__new_allocatorIPNSt8__detail15_Hash_node_baseEED2Ev, symObjAddr: 0x15CD0, symBinAddr: 0x10001725C, symSize: 0x14 }
  - { offset: 0x38DB1, size: 0x8, addend: 0x0, symName: __ZSt9addressofIPNSt8__detail15_Hash_node_baseEEPT_RS3_, symObjAddr: 0x15CB4, symBinAddr: 0x100017240, symSize: 0x1C }
  - { offset: 0x38DE7, size: 0x8, addend: 0x0, symName: __ZNKSt8__detail10_Select1stclIRKSt4pairIKcSt6vectorIcSaIcEEEEEONS0_10__1st_typeIT_E4typeEOSB_, symObjAddr: 0x15C94, symBinAddr: 0x100017220, symSize: 0x20 }
  - { offset: 0x38E40, size: 0x8, addend: 0x0, symName: __ZNSt8__detail16_Hashtable_allocISaINS_10_Hash_nodeISt4pairIKcSt6vectorIcSaIcEEELb0EEEEE19_M_allocate_bucketsEm, symObjAddr: 0x15BE4, symBinAddr: 0x100017170, symSize: 0xB0 }
  - { offset: 0x38F63, size: 0x8, addend: 0x0, symName: __ZNSt19__ptr_traits_ptr_toIPNSt8__detail10_Hash_nodeISt4pairIKcSt6vectorIcSaIcEEELb0EEES8_Lb0EE10pointer_toERS8_, symObjAddr: 0x15BC8, symBinAddr: 0x100017154, symSize: 0x1C }
  - { offset: 0x38FE4, size: 0x8, addend: 0x0, symName: __ZNSt4pairIKcSt6vectorIcSaIcEEED1Ev, symObjAddr: 0x15BA4, symBinAddr: 0x100017130, symSize: 0x24 }
  - { offset: 0x3900A, size: 0x8, addend: 0x0, symName: __ZNSt15__new_allocatorINSt8__detail10_Hash_nodeISt4pairIKcSt6vectorIcSaIcEEELb0EEEE10deallocateEPS8_m, symObjAddr: 0x15B68, symBinAddr: 0x1000170F4, symSize: 0x3C }
  - { offset: 0x390C9, size: 0x8, addend: 0x0, symName: __ZNSt5tupleIJRKcEEC1EOS2_, symObjAddr: 0x15B40, symBinAddr: 0x1000170CC, symSize: 0x28 }
  - { offset: 0x390F8, size: 0x8, addend: 0x0, symName: __ZNSt15__new_allocatorINSt8__detail10_Hash_nodeISt4pairIKcSt6vectorIcSaIcEEELb0EEEE8allocateEmPKv, symObjAddr: 0x15AB0, symBinAddr: 0x10001703C, symSize: 0x90 }
  - { offset: 0x39184, size: 0x8, addend: 0x0, symName: __ZNSt8__detail21_Hashtable_ebo_helperILi0ESaINS_10_Hash_nodeISt4pairIKcSt6vectorIcSaIcEEELb0EEEELb1EE6_M_getEv, symObjAddr: 0x15A9C, symBinAddr: 0x100017028, symSize: 0x14 }
  - { offset: 0x391B2, size: 0x8, addend: 0x0, symName: __ZN9__gnu_cxx16__aligned_bufferISt4pairIKcSt6vectorIcSaIcEEEE7_M_addrEv, symObjAddr: 0x15A88, symBinAddr: 0x100017014, symSize: 0x14 }
  - { offset: 0x391DC, size: 0x8, addend: 0x0, symName: __ZNKSt8__detail15_Hashtable_baseIcSt4pairIKcSt6vectorIcSaIcEEENS_10_Select1stESt8equal_toIcESt4hashIcENS_18_Mod_range_hashingENS_20_Default_ranged_hashENS_17_Hashtable_traitsILb0ELb0ELb1EEEE13_M_key_equalsERS2_RKNS_16_Hash_node_valueIS6_Lb0EEE, symObjAddr: 0x15A1C, symBinAddr: 0x100016FA8, symSize: 0x6C }
  - { offset: 0x3926C, size: 0x8, addend: 0x0, symName: __ZNSt8__detail15_Hashtable_baseIcSt4pairIKcSt6vectorIcSaIcEEENS_10_Select1stESt8equal_toIcESt4hashIcENS_18_Mod_range_hashingENS_20_Default_ranged_hashENS_17_Hashtable_traitsILb0ELb0ELb1EEEE9_S_equalsEmRKNS_21_Hash_node_code_cacheILb0EEE, symObjAddr: 0x15A04, symBinAddr: 0x100016F90, symSize: 0x18 }
  - { offset: 0x39297, size: 0x8, addend: 0x0, symName: __ZSt16__do_uninit_copyISt23_Rb_tree_const_iteratorISt6vectorIiSaIiEEEPS3_ET0_T_S7_S6_, symObjAddr: 0x1595C, symBinAddr: 0x100016EE8, symSize: 0xA8 }
  - { offset: 0x39306, size: 0x8, addend: 0x0, symName: __ZNSt15__new_allocatorISt13_Rb_tree_nodeISt6vectorIiSaIiEEEE10deallocateEPS4_m, symObjAddr: 0x15920, symBinAddr: 0x100016EAC, symSize: 0x3C }
  - { offset: 0x3937C, size: 0x8, addend: 0x0, symName: __ZN9__gnu_cxx16__aligned_membufISt6vectorIiSaIiEEE6_M_ptrEv, symObjAddr: 0x15904, symBinAddr: 0x100016E90, symSize: 0x1C }
  - { offset: 0x393A6, size: 0x8, addend: 0x0, symName: __ZNSt8_Rb_treeISt6vectorIiSaIiEES2_St9_IdentityIS2_ESt4lessIS2_ESaIS2_EE17_M_construct_nodeIJRKS2_EEEvPSt13_Rb_tree_nodeIS2_EDpOT_, symObjAddr: 0x15800, symBinAddr: 0x100016D8C, symSize: 0x104 }
  - { offset: 0x39461, size: 0x8, addend: 0x0, symName: __ZNSt8_Rb_treeISt6vectorIiSaIiEES2_St9_IdentityIS2_ESt4lessIS2_ESaIS2_EE11_M_get_nodeEv, symObjAddr: 0x157C4, symBinAddr: 0x100016D50, symSize: 0x3C }
  - { offset: 0x394B4, size: 0x8, addend: 0x0, symName: __ZSt23lexicographical_compareIN9__gnu_cxx17__normal_iteratorIPKiSt6vectorIiSaIiEEEES7_EbT_S8_T0_S9_, symObjAddr: 0x15790, symBinAddr: 0x100016D1C, symSize: 0x34 }
  - { offset: 0x39527, size: 0x8, addend: 0x0, symName: __ZNK9__gnu_cxx16__aligned_membufISt6vectorIiSaIiEEE6_M_ptrEv, symObjAddr: 0x15774, symBinAddr: 0x100016D00, symSize: 0x1C }
  - { offset: 0x3955C, size: 0x8, addend: 0x0, symName: __ZNK9__gnu_cxx5__ops14_Val_less_iterclIiNS_17__normal_iteratorIPiSt6vectorIiSaIiEEEEEEbRT_T0_, symObjAddr: 0x15730, symBinAddr: 0x100016CBC, symSize: 0x44 }
  - { offset: 0x395B4, size: 0x8, addend: 0x0, symName: __ZSt22__copy_move_backward_aILb1EN9__gnu_cxx17__normal_iteratorIPiSt6vectorIiSaIiEEEES6_ET1_T0_S8_S7_, symObjAddr: 0x156D0, symBinAddr: 0x100016C5C, symSize: 0x60 }
  - { offset: 0x3961C, size: 0x8, addend: 0x0, symName: __ZSt12__miter_baseIN9__gnu_cxx17__normal_iteratorIPiSt6vectorIiSaIiEEEEET_S7_, symObjAddr: 0x156BC, symBinAddr: 0x100016C48, symSize: 0x14 }
  - { offset: 0x3964F, size: 0x8, addend: 0x0, symName: __ZSt9iter_swapIN9__gnu_cxx17__normal_iteratorIPiSt6vectorIiSaIiEEEES6_EvT_T0_, symObjAddr: 0x15678, symBinAddr: 0x100016C04, symSize: 0x44 }
  - { offset: 0x3969E, size: 0x8, addend: 0x0, symName: __ZN9__gnu_cxx17__normal_iteratorIPiSt6vectorIiSaIiEEEmmEv, symObjAddr: 0x15650, symBinAddr: 0x100016BDC, symSize: 0x28 }
  - { offset: 0x396C4, size: 0x8, addend: 0x0, symName: __ZSt10__pop_heapIN9__gnu_cxx17__normal_iteratorIPiSt6vectorIiSaIiEEEENS0_5__ops15_Iter_less_iterEEvT_S9_S9_RT0_, symObjAddr: 0x155C0, symBinAddr: 0x100016B4C, symSize: 0x90 }
  - { offset: 0x39761, size: 0x8, addend: 0x0, symName: __ZN9__gnu_cxxltIPiSt6vectorIiSaIiEEEEbRKNS_17__normal_iteratorIT_T0_EESA_, symObjAddr: 0x1557C, symBinAddr: 0x100016B08, symSize: 0x44 }
  - { offset: 0x397AE, size: 0x8, addend: 0x0, symName: __ZSt11__make_heapIN9__gnu_cxx17__normal_iteratorIPiSt6vectorIiSaIiEEEENS0_5__ops15_Iter_less_iterEEvT_S9_RT0_, symObjAddr: 0x1549C, symBinAddr: 0x100016A28, symSize: 0xE0 }
  - { offset: 0x39865, size: 0x8, addend: 0x0, symName: __ZSt4copyIN9__gnu_cxx17__normal_iteratorIPiSt6vectorIiSaIiEEEES2_ET0_T_S8_S7_, symObjAddr: 0x15454, symBinAddr: 0x1000169E0, symSize: 0x48 }
  - { offset: 0x398C3, size: 0x8, addend: 0x0, symName: __ZSt18__do_uninit_fill_nIPSt6vectorIiSaIiEEmS2_ET_S4_T0_RKT1_, symObjAddr: 0x153C4, symBinAddr: 0x100016950, symSize: 0x90 }
  - { offset: 0x3993B, size: 0x8, addend: 0x0, symName: __ZSt6fill_nIPimiET_S1_T0_RKT1_, symObjAddr: 0x1537C, symBinAddr: 0x100016908, symSize: 0x48 }
  - { offset: 0x399C7, size: 0x8, addend: 0x0, symName: __ZNSt15__new_allocatorISt13_Rb_tree_nodeINSt7__cxx1112basic_stringIcSt11char_traitsIcESaIcEEEEE10deallocateEPS7_m, symObjAddr: 0x1534C, symBinAddr: 0x1000168D8, symSize: 0x30 }
  - { offset: 0x39A3D, size: 0x8, addend: 0x0, symName: __ZN9__gnu_cxx16__aligned_membufINSt7__cxx1112basic_stringIcSt11char_traitsIcESaIcEEEE6_M_ptrEv, symObjAddr: 0x15330, symBinAddr: 0x1000168BC, symSize: 0x1C }
  - { offset: 0x39A67, size: 0x8, addend: 0x0, symName: __ZNSt8_Rb_treeINSt7__cxx1112basic_stringIcSt11char_traitsIcESaIcEEES5_St9_IdentityIS5_ESt4lessIS5_ESaIS5_EE17_M_construct_nodeIJRKS5_EEEvPSt13_Rb_tree_nodeIS5_EDpOT_, symObjAddr: 0x1522C, symBinAddr: 0x1000167B8, symSize: 0x104 }
  - { offset: 0x39B22, size: 0x8, addend: 0x0, symName: __ZNSt8_Rb_treeINSt7__cxx1112basic_stringIcSt11char_traitsIcESaIcEEES5_St9_IdentityIS5_ESt4lessIS5_ESaIS5_EE11_M_get_nodeEv, symObjAddr: 0x151F0, symBinAddr: 0x10001677C, symSize: 0x3C }
  - { offset: 0x39B79, size: 0x8, addend: 0x0, symName: __ZNK9__gnu_cxx16__aligned_membufINSt7__cxx1112basic_stringIcSt11char_traitsIcESaIcEEEE6_M_ptrEv, symObjAddr: 0x151D4, symBinAddr: 0x100016760, symSize: 0x1C }
  - { offset: 0x39B9F, size: 0x8, addend: 0x0, symName: __ZSt19__relocate_object_aISt6vectorIiSaIiEES2_SaIS2_EEvPT_PT0_RT1_, symObjAddr: 0x15104, symBinAddr: 0x100016690, symSize: 0xD0 }
  - { offset: 0x39CD1, size: 0x8, addend: 0x0, symName: __ZSt19__relocate_object_aINSt7__cxx1112basic_stringIcSt11char_traitsIcESaIcEEES5_SaIS5_EEvPT_PT0_RT1_, symObjAddr: 0x15034, symBinAddr: 0x1000165C0, symSize: 0xD0 }
  - { offset: 0x39E03, size: 0x8, addend: 0x0, symName: __ZSt13copy_backwardIPPiS1_ET0_T_S3_S2_, symObjAddr: 0x14FEC, symBinAddr: 0x100016578, symSize: 0x48 }
  - { offset: 0x39E61, size: 0x8, addend: 0x0, symName: __ZSt4copyIPPiS1_ET0_T_S3_S2_, symObjAddr: 0x14FA4, symBinAddr: 0x100016530, symSize: 0x48 }
  - { offset: 0x39ED9, size: 0x8, addend: 0x0, symName: __ZNSt15__new_allocatorIPiE8allocateEmPKv, symObjAddr: 0x14F28, symBinAddr: 0x1000164B4, symSize: 0x7C }
  - { offset: 0x39F61, size: 0x8, addend: 0x0, symName: __ZSt8_DestroyISt6vectorIcSaIcEEEvPT_, symObjAddr: 0x14F08, symBinAddr: 0x100016494, symSize: 0x20 }
  - { offset: 0x39F93, size: 0x8, addend: 0x0, symName: __ZSt11__addressofISt6vectorIcSaIcEEEPT_RS3_, symObjAddr: 0x14EF4, symBinAddr: 0x100016480, symSize: 0x14 }
  - { offset: 0x39FC5, size: 0x8, addend: 0x0, symName: __ZNSt20__uninitialized_copyILb0EE13__uninit_copyIPKSt6vectorIcSaIcEEPS4_EET0_T_S9_S8_, symObjAddr: 0x14EC8, symBinAddr: 0x100016454, symSize: 0x2C }
  - { offset: 0x3A024, size: 0x8, addend: 0x0, symName: __ZNSt15__new_allocatorISt6vectorIcSaIcEEE8allocateEmPKv, symObjAddr: 0x14E38, symBinAddr: 0x1000163C4, symSize: 0x90 }
  - { offset: 0x3A0C6, size: 0x8, addend: 0x0, symName: __ZNSt15__new_allocatorISt6vectorIcSaIcEEE10deallocateEPS2_m, symObjAddr: 0x14DFC, symBinAddr: 0x100016388, symSize: 0x3C }
  - { offset: 0x3A1AB, size: 0x8, addend: 0x0, symName: __ZNSt8__detail19_Node_iterator_baseISt4pairIKcNSt7__cxx1112basic_stringIcSt11char_traitsIcESaIcEEEELb0EEC2EPNS_10_Hash_nodeIS9_Lb0EEE, symObjAddr: 0x14DD8, symBinAddr: 0x100016364, symSize: 0x24 }
  - { offset: 0x3A1DA, size: 0x8, addend: 0x0, symName: __ZNKSt8__detail15_Hash_code_baseIcSt4pairIKcNSt7__cxx1112basic_stringIcSt11char_traitsIcESaIcEEEENS_10_Select1stESt4hashIcENS_18_Mod_range_hashingENS_20_Default_ranged_hashELb0EE15_M_bucket_indexERKNS_16_Hash_node_valueIS9_Lb0EEEm, symObjAddr: 0x14D74, symBinAddr: 0x100016300, symSize: 0x64 }
  - { offset: 0x3A26E, size: 0x8, addend: 0x0, symName: __ZNSt10_HashtableIcSt4pairIKcNSt7__cxx1112basic_stringIcSt11char_traitsIcESaIcEEEESaIS8_ENSt8__detail10_Select1stESt8equal_toIcESt4hashIcENSA_18_Mod_range_hashingENSA_20_Default_ranged_hashENSA_20_Prime_rehash_policyENSA_17_Hashtable_traitsILb0ELb0ELb1EEEE19_M_allocate_bucketsEm, symObjAddr: 0x14D1C, symBinAddr: 0x1000162A8, symSize: 0x58 }
  - { offset: 0x3A32F, size: 0x8, addend: 0x0, symName: __ZSt12__to_addressINSt8__detail10_Hash_nodeISt4pairIKcNSt7__cxx1112basic_stringIcSt11char_traitsIcESaIcEEEELb0EEEEPT_SD_, symObjAddr: 0x14D08, symBinAddr: 0x100016294, symSize: 0x14 }
  - { offset: 0x3A389, size: 0x8, addend: 0x0, symName: __ZN9__gnu_cxx16__aligned_bufferISt4pairIKcNSt7__cxx1112basic_stringIcSt11char_traitsIcESaIcEEEEE6_M_ptrEv, symObjAddr: 0x14CEC, symBinAddr: 0x100016278, symSize: 0x1C }
  - { offset: 0x3A3B3, size: 0x8, addend: 0x0, symName: __ZNKSt10_HashtableIcSt4pairIKcNSt7__cxx1112basic_stringIcSt11char_traitsIcESaIcEEEESaIS8_ENSt8__detail10_Select1stESt8equal_toIcESt4hashIcENSA_18_Mod_range_hashingENSA_20_Default_ranged_hashENSA_20_Prime_rehash_policyENSA_17_Hashtable_traitsILb0ELb0ELb1EEEE15_M_bucket_indexERKNSA_16_Hash_node_valueIS8_Lb0EEE, symObjAddr: 0x14CBC, symBinAddr: 0x100016248, symSize: 0x30 }
  - { offset: 0x3A3EE, size: 0x8, addend: 0x0, symName: __ZNKSt8__detail15_Hashtable_baseIcSt4pairIKcNSt7__cxx1112basic_stringIcSt11char_traitsIcESaIcEEEENS_10_Select1stESt8equal_toIcESt4hashIcENS_18_Mod_range_hashingENS_20_Default_ranged_hashENS_17_Hashtable_traitsILb0ELb0ELb1EEEE9_M_equalsERS2_mRKNS_16_Hash_node_valueIS9_Lb0EEE, symObjAddr: 0x14C5C, symBinAddr: 0x1000161E8, symSize: 0x60 }
  - { offset: 0x3A46F, size: 0x8, addend: 0x0, symName: __ZNSt8__detail16_Hashtable_allocISaINS_10_Hash_nodeISt4pairIKcNSt7__cxx1112basic_stringIcSt11char_traitsIcESaIcEEEELb0EEEEE22_M_deallocate_node_ptrEPSB_, symObjAddr: 0x14C04, symBinAddr: 0x100016190, symSize: 0x58 }
  - { offset: 0x3A51E, size: 0x8, addend: 0x0, symName: __ZNSt8__detail16_Hashtable_allocISaINS_10_Hash_nodeISt4pairIKcNSt7__cxx1112basic_stringIcSt11char_traitsIcESaIcEEEELb0EEEEE17_M_node_allocatorEv, symObjAddr: 0x14BE8, symBinAddr: 0x100016174, symSize: 0x1C }
  - { offset: 0x3A544, size: 0x8, addend: 0x0, symName: __ZSt16__do_uninit_copyIN9__gnu_cxx17__normal_iteratorIPKNSt7__cxx1112basic_stringIcSt11char_traitsIcESaIcEEESt6vectorIS7_SaIS7_EEEEPS7_ET0_T_SG_SF_, symObjAddr: 0x14B40, symBinAddr: 0x1000160CC, symSize: 0xA8 }
  - { offset: 0x3A5AF, size: 0x8, addend: 0x0, symName: __ZNSt27__uninitialized_default_n_1ILb1EE18__uninit_default_nIPimEET_S3_T0_, symObjAddr: 0x14ADC, symBinAddr: 0x100016068, symSize: 0x64 }
  - { offset: 0x3A626, size: 0x8, addend: 0x0, symName: __ZSt14__copy_move_a2ILb0EPiS0_ET1_T0_S2_S1_, symObjAddr: 0x14AB0, symBinAddr: 0x10001603C, symSize: 0x2C }
  - { offset: 0x3A68E, size: 0x8, addend: 0x0, symName: __ZSt14__copy_move_a2ILb0EPKiPiET1_T0_S4_S3_, symObjAddr: 0x14A84, symBinAddr: 0x100016010, symSize: 0x2C }
  - { offset: 0x3A6FA, size: 0x8, addend: 0x0, symName: __ZNK9__gnu_cxx17__normal_iteratorIPKiSt6vectorIiSaIiEEE4baseEv, symObjAddr: 0x14A70, symBinAddr: 0x100015FFC, symSize: 0x14 }
  - { offset: 0x3A720, size: 0x8, addend: 0x0, symName: __ZNSt20__uninitialized_copyILb1EE13__uninit_copyIN9__gnu_cxx17__normal_iteratorIPKiSt6vectorIiSaIiEEEEPiEET0_T_SC_SB_, symObjAddr: 0x14A44, symBinAddr: 0x100015FD0, symSize: 0x2C }
  - { offset: 0x3A77B, size: 0x8, addend: 0x0, symName: __ZSt4copyISt15_Deque_iteratorIiRKiPS1_ES0_IiRiPiEET0_T_S9_S8_, symObjAddr: 0x149C0, symBinAddr: 0x100015F4C, symSize: 0x84 }
  - { offset: 0x3A7F5, size: 0x8, addend: 0x0, symName: __ZNSt27__uninitialized_default_n_1ILb0EE18__uninit_default_nIPNSt7__cxx1112basic_stringIcSt11char_traitsIcESaIcEEEmEET_S9_T0_, symObjAddr: 0x14968, symBinAddr: 0x100015EF4, symSize: 0x58 }
  - { offset: 0x3A869, size: 0x8, addend: 0x0, symName: __ZSt8_DestroyISt6vectorINSt7__cxx1112basic_stringIcSt11char_traitsIcESaIcEEESaIS6_EEEvPT_, symObjAddr: 0x14948, symBinAddr: 0x100015ED4, symSize: 0x20 }
  - { offset: 0x3A89B, size: 0x8, addend: 0x0, symName: __ZSt11__addressofISt6vectorINSt7__cxx1112basic_stringIcSt11char_traitsIcESaIcEEESaIS6_EEEPT_RS9_, symObjAddr: 0x14934, symBinAddr: 0x100015EC0, symSize: 0x14 }
  - { offset: 0x3A8CD, size: 0x8, addend: 0x0, symName: __ZSt14__relocate_a_1IPSt6vectorINSt7__cxx1112basic_stringIcSt11char_traitsIcESaIcEEESaIS6_EES9_SaIS8_EET0_T_SC_SB_RT1_, symObjAddr: 0x148B0, symBinAddr: 0x100015E3C, symSize: 0x84 }
  - { offset: 0x3A956, size: 0x8, addend: 0x0, symName: __ZSt12__niter_baseIPSt6vectorINSt7__cxx1112basic_stringIcSt11char_traitsIcESaIcEEESaIS6_EEET_SA_, symObjAddr: 0x1489C, symBinAddr: 0x100015E28, symSize: 0x14 }
  - { offset: 0x3A98D, size: 0x8, addend: 0x0, symName: __ZNSt15__new_allocatorISt6vectorINSt7__cxx1112basic_stringIcSt11char_traitsIcESaIcEEESaIS6_EEE8allocateEmPKv, symObjAddr: 0x1480C, symBinAddr: 0x100015D98, symSize: 0x90 }
  - { offset: 0x3AA19, size: 0x8, addend: 0x0, symName: __ZNKSt12_Vector_baseISt6vectorINSt7__cxx1112basic_stringIcSt11char_traitsIcESaIcEEESaIS6_EESaIS8_EE19_M_get_Tp_allocatorEv, symObjAddr: 0x147F8, symBinAddr: 0x100015D84, symSize: 0x14 }
  - { offset: 0x3AA3F, size: 0x8, addend: 0x0, symName: __ZNSt6vectorIS_INSt7__cxx1112basic_stringIcSt11char_traitsIcESaIcEEESaIS5_EESaIS7_EE11_S_max_sizeERKS8_, symObjAddr: 0x1479C, symBinAddr: 0x100015D28, symSize: 0x5C }
  - { offset: 0x3AAF6, size: 0x8, addend: 0x0, symName: __ZNSt20__uninitialized_copyILb1EE13__uninit_copyIPKcPcEET0_T_S6_S5_, symObjAddr: 0x14770, symBinAddr: 0x100015CFC, symSize: 0x2C }
  - { offset: 0x3AB51, size: 0x8, addend: 0x0, symName: __ZSt12__niter_wrapIPcET_RKS1_S1_, symObjAddr: 0x14758, symBinAddr: 0x100015CE4, symSize: 0x18 }
  - { offset: 0x3AB8D, size: 0x8, addend: 0x0, symName: __ZSt14__copy_move_a1ILb0EPKcPcET1_T0_S4_S3_, symObjAddr: 0x1472C, symBinAddr: 0x100015CB8, symSize: 0x2C }
  - { offset: 0x3ABF5, size: 0x8, addend: 0x0, symName: __ZSt12__niter_baseIPcET_S1_, symObjAddr: 0x14718, symBinAddr: 0x100015CA4, symSize: 0x14 }
  - { offset: 0x3AC28, size: 0x8, addend: 0x0, symName: __ZSt12__niter_baseIPKcET_S2_, symObjAddr: 0x14704, symBinAddr: 0x100015C90, symSize: 0x14 }
  - { offset: 0x3ACE8, size: 0x8, addend: 0x0, symName: __ZNSt11_Tuple_implILm0EJOcEEC2IcEEOT_, symObjAddr: 0x146C8, symBinAddr: 0x100015C54, symSize: 0x3C }
  - { offset: 0x3AD92, size: 0x8, addend: 0x0, symName: __ZNSt19__ptr_traits_ptr_toIPPNSt8__detail15_Hash_node_baseES2_Lb0EE10pointer_toERS2_, symObjAddr: 0x146AC, symBinAddr: 0x100015C38, symSize: 0x1C }
  - { offset: 0x3ADE7, size: 0x8, addend: 0x0, symName: __ZNSt8__detail19_Node_iterator_baseISt4pairIKcSt6vectorIcSaIcEEELb0EEC2EPNS_10_Hash_nodeIS6_Lb0EEE, symObjAddr: 0x14688, symBinAddr: 0x100015C14, symSize: 0x24 }
  - { offset: 0x3AE16, size: 0x8, addend: 0x0, symName: __ZNKSt8__detail15_Hash_code_baseIcSt4pairIKcSt6vectorIcSaIcEEENS_10_Select1stESt4hashIcENS_18_Mod_range_hashingENS_20_Default_ranged_hashELb0EE15_M_bucket_indexERKNS_16_Hash_node_valueIS6_Lb0EEEm, symObjAddr: 0x14624, symBinAddr: 0x100015BB0, symSize: 0x64 }
  - { offset: 0x3AEAA, size: 0x8, addend: 0x0, symName: __ZNSt10_HashtableIcSt4pairIKcSt6vectorIcSaIcEEESaIS5_ENSt8__detail10_Select1stESt8equal_toIcESt4hashIcENS7_18_Mod_range_hashingENS7_20_Default_ranged_hashENS7_20_Prime_rehash_policyENS7_17_Hashtable_traitsILb0ELb0ELb1EEEE19_M_allocate_bucketsEm, symObjAddr: 0x145CC, symBinAddr: 0x100015B58, symSize: 0x58 }
  - { offset: 0x3AEE1, size: 0x8, addend: 0x0, symName: __ZSt11__addressofINSt8__detail20_Prime_rehash_policyEEPT_RS2_, symObjAddr: 0x145B8, symBinAddr: 0x100015B44, symSize: 0x14 }
  - { offset: 0x3AF17, size: 0x8, addend: 0x0, symName: __ZNSt8__detail16_Hashtable_allocISaINS_10_Hash_nodeISt4pairIKcSt6vectorIcSaIcEEELb0EEEEE22_M_deallocate_node_ptrEPS8_, symObjAddr: 0x14560, symBinAddr: 0x100015AEC, symSize: 0x58 }
  - { offset: 0x3B04C, size: 0x8, addend: 0x0, symName: __ZSt12__to_addressINSt8__detail10_Hash_nodeISt4pairIKcSt6vectorIcSaIcEEELb0EEEEPT_SA_, symObjAddr: 0x1454C, symBinAddr: 0x100015AD8, symSize: 0x14 }
  - { offset: 0x3B0A6, size: 0x8, addend: 0x0, symName: __ZNSt8__detail16_Hashtable_allocISaINS_10_Hash_nodeISt4pairIKcSt6vectorIcSaIcEEELb0EEEEE17_M_node_allocatorEv, symObjAddr: 0x14530, symBinAddr: 0x100015ABC, symSize: 0x1C }
  - { offset: 0x3B0F7, size: 0x8, addend: 0x0, symName: __ZNSt10_Head_baseILm0ERKcLb0EEC2ES1_, symObjAddr: 0x1450C, symBinAddr: 0x100015A98, symSize: 0x24 }
  - { offset: 0x3B126, size: 0x8, addend: 0x0, symName: __ZN9__gnu_cxx16__aligned_bufferISt4pairIKcSt6vectorIcSaIcEEEE6_M_ptrEv, symObjAddr: 0x144F0, symBinAddr: 0x100015A7C, symSize: 0x1C }
  - { offset: 0x3B150, size: 0x8, addend: 0x0, symName: __ZNKSt10_HashtableIcSt4pairIKcSt6vectorIcSaIcEEESaIS5_ENSt8__detail10_Select1stESt8equal_toIcESt4hashIcENS7_18_Mod_range_hashingENS7_20_Default_ranged_hashENS7_20_Prime_rehash_policyENS7_17_Hashtable_traitsILb0ELb0ELb1EEEE15_M_bucket_indexERKNS7_16_Hash_node_valueIS5_Lb0EEE, symObjAddr: 0x144C0, symBinAddr: 0x100015A4C, symSize: 0x30 }
  - { offset: 0x3B18B, size: 0x8, addend: 0x0, symName: __ZNKSt8__detail15_Hashtable_baseIcSt4pairIKcSt6vectorIcSaIcEEENS_10_Select1stESt8equal_toIcESt4hashIcENS_18_Mod_range_hashingENS_20_Default_ranged_hashENS_17_Hashtable_traitsILb0ELb0ELb1EEEE9_M_equalsERS2_mRKNS_16_Hash_node_valueIS6_Lb0EEE, symObjAddr: 0x14460, symBinAddr: 0x1000159EC, symSize: 0x60 }
  - { offset: 0x3B1E8, size: 0x8, addend: 0x0, symName: __ZNKSt8__detail21_Hashtable_ebo_helperILi1ESt4hashIcELb1EE7_M_cgetEv, symObjAddr: 0x1444C, symBinAddr: 0x1000159D8, symSize: 0x14 }
  - { offset: 0x3B20E, size: 0x8, addend: 0x0, symName: __ZNSt20__uninitialized_copyILb0EE13__uninit_copyISt23_Rb_tree_const_iteratorISt6vectorIiSaIiEEEPS5_EET0_T_S9_S8_, symObjAddr: 0x14420, symBinAddr: 0x1000159AC, symSize: 0x2C }
  - { offset: 0x3B26D, size: 0x8, addend: 0x0, symName: __ZNSt23_Rb_tree_const_iteratorISt6vectorIiSaIiEEEppEv, symObjAddr: 0x143F0, symBinAddr: 0x10001597C, symSize: 0x30 }
  - { offset: 0x3B29A, size: 0x8, addend: 0x0, symName: __ZStneRKSt23_Rb_tree_const_iteratorISt6vectorIiSaIiEEES5_, symObjAddr: 0x143C0, symBinAddr: 0x10001594C, symSize: 0x30 }
  - { offset: 0x3B338, size: 0x8, addend: 0x0, symName: __ZNSt13_Rb_tree_nodeISt6vectorIiSaIiEEE9_M_valptrEv, symObjAddr: 0x143A0, symBinAddr: 0x10001592C, symSize: 0x20 }
  - { offset: 0x3B362, size: 0x8, addend: 0x0, symName: __ZNSt8_Rb_treeISt6vectorIiSaIiEES2_St9_IdentityIS2_ESt4lessIS2_ESaIS2_EE21_M_get_Node_allocatorEv, symObjAddr: 0x1438C, symBinAddr: 0x100015918, symSize: 0x14 }
  - { offset: 0x3B38C, size: 0x8, addend: 0x0, symName: __ZNSt8_Rb_treeISt6vectorIiSaIiEES2_St9_IdentityIS2_ESt4lessIS2_ESaIS2_EE14_M_create_nodeIJRKS2_EEEPSt13_Rb_tree_nodeIS2_EDpOT_, symObjAddr: 0x1434C, symBinAddr: 0x1000158D8, symSize: 0x40 }
  - { offset: 0x3B3EC, size: 0x8, addend: 0x0, symName: __ZSt7forwardIRPSt13_Rb_tree_nodeISt6vectorIiSaIiEEEEOT_RNSt16remove_referenceIS7_E4typeE, symObjAddr: 0x14338, symBinAddr: 0x1000158C4, symSize: 0x14 }
  - { offset: 0x3B41E, size: 0x8, addend: 0x0, symName: __ZStltIiSaIiEEbRKSt6vectorIT_T0_ES6_, symObjAddr: 0x142D0, symBinAddr: 0x10001585C, symSize: 0x68 }
  - { offset: 0x3B46F, size: 0x8, addend: 0x0, symName: __ZNKSt13_Rb_tree_nodeISt6vectorIiSaIiEEE9_M_valptrEv, symObjAddr: 0x142B0, symBinAddr: 0x10001583C, symSize: 0x20 }
  - { offset: 0x3B495, size: 0x8, addend: 0x0, symName: __ZSt25__unguarded_linear_insertIN9__gnu_cxx17__normal_iteratorIPiSt6vectorIiSaIiEEEENS0_5__ops14_Val_less_iterEEvT_T0_, symObjAddr: 0x14204, symBinAddr: 0x100015790, symSize: 0xAC }
  - { offset: 0x3B504, size: 0x8, addend: 0x0, symName: __ZSt13move_backwardIN9__gnu_cxx17__normal_iteratorIPiSt6vectorIiSaIiEEEES6_ET0_T_S8_S7_, symObjAddr: 0x141BC, symBinAddr: 0x100015748, symSize: 0x48 }
  - { offset: 0x3B566, size: 0x8, addend: 0x0, symName: __ZNK9__gnu_cxx5__ops15_Iter_less_iterclINS_17__normal_iteratorIPiSt6vectorIiSaIiEEEES8_EEbT_T0_, symObjAddr: 0x14174, symBinAddr: 0x100015700, symSize: 0x48 }
  - { offset: 0x3B5BE, size: 0x8, addend: 0x0, symName: __ZN9__gnu_cxxeqIPiSt6vectorIiSaIiEEEEbRKNS_17__normal_iteratorIT_T0_EESA_, symObjAddr: 0x14130, symBinAddr: 0x1000156BC, symSize: 0x44 }
  - { offset: 0x3B60B, size: 0x8, addend: 0x0, symName: __ZSt21__unguarded_partitionIN9__gnu_cxx17__normal_iteratorIPiSt6vectorIiSaIiEEEENS0_5__ops15_Iter_less_iterEET_S9_S9_S9_T0_, symObjAddr: 0x14078, symBinAddr: 0x100015604, symSize: 0xB8 }
  - { offset: 0x3B67A, size: 0x8, addend: 0x0, symName: __ZSt22__move_median_to_firstIN9__gnu_cxx17__normal_iteratorIPiSt6vectorIiSaIiEEEENS0_5__ops15_Iter_less_iterEEvT_S9_S9_S9_T0_, symObjAddr: 0x13F68, symBinAddr: 0x1000154F4, symSize: 0x110 }
  - { offset: 0x3B6F9, size: 0x8, addend: 0x0, symName: __ZNK9__gnu_cxx17__normal_iteratorIPiSt6vectorIiSaIiEEEmiEl, symObjAddr: 0x13F24, symBinAddr: 0x1000154B0, symSize: 0x44 }
  - { offset: 0x3B730, size: 0x8, addend: 0x0, symName: __ZSt11__sort_heapIN9__gnu_cxx17__normal_iteratorIPiSt6vectorIiSaIiEEEENS0_5__ops15_Iter_less_iterEEvT_S9_RT0_, symObjAddr: 0x13EBC, symBinAddr: 0x100015448, symSize: 0x68 }
  - { offset: 0x3B78E, size: 0x8, addend: 0x0, symName: __ZSt13__heap_selectIN9__gnu_cxx17__normal_iteratorIPiSt6vectorIiSaIiEEEENS0_5__ops15_Iter_less_iterEEvT_S9_S9_T0_, symObjAddr: 0x13E20, symBinAddr: 0x1000153AC, symSize: 0x9C }
  - { offset: 0x3B821, size: 0x8, addend: 0x0, symName: __ZNSt20__uninitialized_copyILb1EE13__uninit_copyIN9__gnu_cxx17__normal_iteratorIPiSt6vectorIiSaIiEEEES4_EET0_T_SA_S9_, symObjAddr: 0x13DF4, symBinAddr: 0x100015380, symSize: 0x2C }
  - { offset: 0x3B87C, size: 0x8, addend: 0x0, symName: __ZNSt22__uninitialized_fill_nILb0EE15__uninit_fill_nIPSt6vectorIiSaIiEEmS4_EET_S6_T0_RKT1_, symObjAddr: 0x13DC8, symBinAddr: 0x100015354, symSize: 0x2C }
  - { offset: 0x3B8F9, size: 0x8, addend: 0x0, symName: __ZNSt22__uninitialized_fill_nILb1EE15__uninit_fill_nIPimiEET_S3_T0_RKT1_, symObjAddr: 0x13D9C, symBinAddr: 0x100015328, symSize: 0x2C }
  - { offset: 0x3B9D9, size: 0x8, addend: 0x0, symName: __ZNSt13_Rb_tree_nodeINSt7__cxx1112basic_stringIcSt11char_traitsIcESaIcEEEE9_M_valptrEv, symObjAddr: 0x13D7C, symBinAddr: 0x100015308, symSize: 0x20 }
  - { offset: 0x3BA03, size: 0x8, addend: 0x0, symName: __ZNSt8_Rb_treeINSt7__cxx1112basic_stringIcSt11char_traitsIcESaIcEEES5_St9_IdentityIS5_ESt4lessIS5_ESaIS5_EE21_M_get_Node_allocatorEv, symObjAddr: 0x13D68, symBinAddr: 0x1000152F4, symSize: 0x14 }
  - { offset: 0x3BA2D, size: 0x8, addend: 0x0, symName: __ZNSt8_Rb_treeINSt7__cxx1112basic_stringIcSt11char_traitsIcESaIcEEES5_St9_IdentityIS5_ESt4lessIS5_ESaIS5_EE14_M_create_nodeIJRKS5_EEEPSt13_Rb_tree_nodeIS5_EDpOT_, symObjAddr: 0x13D28, symBinAddr: 0x1000152B4, symSize: 0x40 }
  - { offset: 0x3BA86, size: 0x8, addend: 0x0, symName: __ZSt7forwardIRPSt18_Rb_tree_node_baseEOT_RNSt16remove_referenceIS3_E4typeE, symObjAddr: 0x13D14, symBinAddr: 0x1000152A0, symSize: 0x14 }
  - { offset: 0x3BAC6, size: 0x8, addend: 0x0, symName: __ZSt7forwardIRPSt13_Rb_tree_nodeINSt7__cxx1112basic_stringIcSt11char_traitsIcESaIcEEEEEOT_RNSt16remove_referenceISA_E4typeE, symObjAddr: 0x13D00, symBinAddr: 0x10001528C, symSize: 0x14 }
  - { offset: 0x3BAF8, size: 0x8, addend: 0x0, symName: __ZStltIcSt11char_traitsIcESaIcEEbRKNSt7__cxx1112basic_stringIT_T0_T1_EESA_, symObjAddr: 0x13CD4, symBinAddr: 0x100015260, symSize: 0x2C }
  - { offset: 0x3BB52, size: 0x8, addend: 0x0, symName: __ZNKSt13_Rb_tree_nodeINSt7__cxx1112basic_stringIcSt11char_traitsIcESaIcEEEE9_M_valptrEv, symObjAddr: 0x13CB4, symBinAddr: 0x100015240, symSize: 0x20 }
  - { offset: 0x3BB78, size: 0x8, addend: 0x0, symName: __ZSt8_DestroyISt6vectorIiSaIiEEEvPT_, symObjAddr: 0x13C94, symBinAddr: 0x100015220, symSize: 0x20 }
  - { offset: 0x3BBAA, size: 0x8, addend: 0x0, symName: __ZSt11__addressofISt6vectorIiSaIiEEEPT_RS3_, symObjAddr: 0x13C80, symBinAddr: 0x10001520C, symSize: 0x14 }
  - { offset: 0x3BBDC, size: 0x8, addend: 0x0, symName: __ZSt14__relocate_a_1IPSt6vectorIiSaIiEES3_SaIS2_EET0_T_S6_S5_RT1_, symObjAddr: 0x13BFC, symBinAddr: 0x100015188, symSize: 0x84 }
  - { offset: 0x3BC65, size: 0x8, addend: 0x0, symName: __ZSt12__niter_baseIPSt6vectorIiSaIiEEET_S4_, symObjAddr: 0x13BE8, symBinAddr: 0x100015174, symSize: 0x14 }
  - { offset: 0x3BC9C, size: 0x8, addend: 0x0, symName: __ZNSt15__new_allocatorISt6vectorIiSaIiEEE8allocateEmPKv, symObjAddr: 0x13B58, symBinAddr: 0x1000150E4, symSize: 0x90 }
  - { offset: 0x3BD28, size: 0x8, addend: 0x0, symName: __ZNKSt12_Vector_baseISt6vectorIiSaIiEESaIS2_EE19_M_get_Tp_allocatorEv, symObjAddr: 0x13B44, symBinAddr: 0x1000150D0, symSize: 0x14 }
  - { offset: 0x3BD4E, size: 0x8, addend: 0x0, symName: __ZSt8_DestroyINSt7__cxx1112basic_stringIcSt11char_traitsIcESaIcEEEEvPT_, symObjAddr: 0x13B24, symBinAddr: 0x1000150B0, symSize: 0x20 }
  - { offset: 0x3BD80, size: 0x8, addend: 0x0, symName: __ZSt14__relocate_a_1IPNSt7__cxx1112basic_stringIcSt11char_traitsIcESaIcEEES6_SaIS5_EET0_T_S9_S8_RT1_, symObjAddr: 0x13AA0, symBinAddr: 0x10001502C, symSize: 0x84 }
  - { offset: 0x3BE09, size: 0x8, addend: 0x0, symName: __ZSt12__niter_baseIPNSt7__cxx1112basic_stringIcSt11char_traitsIcESaIcEEEET_S7_, symObjAddr: 0x13A8C, symBinAddr: 0x100015018, symSize: 0x14 }
  - { offset: 0x3BE40, size: 0x8, addend: 0x0, symName: __ZNSt15__new_allocatorINSt7__cxx1112basic_stringIcSt11char_traitsIcESaIcEEEE8allocateEmPKv, symObjAddr: 0x13A10, symBinAddr: 0x100014F9C, symSize: 0x7C }
  - { offset: 0x3BECC, size: 0x8, addend: 0x0, symName: __ZNSt5dequeIiSaIiEE17_M_reallocate_mapEmb, symObjAddr: 0x137CC, symBinAddr: 0x100014D58, symSize: 0x244 }
  - { offset: 0x3BF7D, size: 0x8, addend: 0x0, symName: __ZNSt5dequeIiSaIiEE11_S_max_sizeERKS0_, symObjAddr: 0x13778, symBinAddr: 0x100014D04, symSize: 0x54 }
  - { offset: 0x3C038, size: 0x8, addend: 0x0, symName: __ZNSt15__new_allocatorIPiE10deallocateEPS0_m, symObjAddr: 0x13748, symBinAddr: 0x100014CD4, symSize: 0x30 }
  - { offset: 0x3C0A6, size: 0x8, addend: 0x0, symName: __ZNSt15__new_allocatorIPiED2Ev, symObjAddr: 0x13734, symBinAddr: 0x100014CC0, symSize: 0x14 }
  - { offset: 0x3C12E, size: 0x8, addend: 0x0, symName: __ZNSt15_Deque_iteratorIiRiPiEC1Ev, symObjAddr: 0x13700, symBinAddr: 0x100014C8C, symSize: 0x34 }
  - { offset: 0x3C150, size: 0x8, addend: 0x0, symName: __ZSt14__relocate_a_1IiiENSt9enable_ifIXsrSt24__is_bitwise_relocatableIT_vE5valueEPS2_E4typeES4_S4_S4_RSaIT0_E, symObjAddr: 0x1369C, symBinAddr: 0x100014C28, symSize: 0x64 }
  - { offset: 0x3C1D4, size: 0x8, addend: 0x0, symName: __ZNSt15__new_allocatorIiE8allocateEmPKv, symObjAddr: 0x13620, symBinAddr: 0x100014BAC, symSize: 0x7C }
  - { offset: 0x3C260, size: 0x8, addend: 0x0, symName: __ZNSt15__new_allocatorIcE8allocateEmPKv, symObjAddr: 0x135BC, symBinAddr: 0x100014B48, symSize: 0x64 }
  - { offset: 0x3C2E8, size: 0x8, addend: 0x0, symName: __ZNSt12_Destroy_auxILb0EE9__destroyIPSt6vectorIcSaIcEEEEvT_S6_, symObjAddr: 0x13570, symBinAddr: 0x100014AFC, symSize: 0x4C }
  - { offset: 0x3C32A, size: 0x8, addend: 0x0, symName: __ZSt18uninitialized_copyIPKSt6vectorIcSaIcEEPS2_ET0_T_S7_S6_, symObjAddr: 0x1353C, symBinAddr: 0x100014AC8, symSize: 0x34 }
  - { offset: 0x3C3C9, size: 0x8, addend: 0x0, symName: __ZNSt6vectorIS_IcSaIcEESaIS1_EE11_S_max_sizeERKS2_, symObjAddr: 0x134E0, symBinAddr: 0x100014A6C, symSize: 0x5C }
  - { offset: 0x3C4D0, size: 0x8, addend: 0x0, symName: __ZNSt12_Vector_baseISt6vectorIcSaIcEESaIS2_EE17_Vector_impl_dataC2Ev, symObjAddr: 0x134B4, symBinAddr: 0x100014A40, symSize: 0x2C }
  - { offset: 0x3C515, size: 0x8, addend: 0x0, symName: __ZNSt12_Destroy_auxILb1EE9__destroyIPcEEvT_S3_, symObjAddr: 0x1349C, symBinAddr: 0x100014A28, symSize: 0x18 }
  - { offset: 0x3C567, size: 0x8, addend: 0x0, symName: __ZNSt12_Vector_baseIcSaIcEE17_Vector_impl_dataC2Ev, symObjAddr: 0x13470, symBinAddr: 0x1000149FC, symSize: 0x2C }
  - { offset: 0x3C58D, size: 0x8, addend: 0x0, symName: __ZNSt8__detail16_Hashtable_allocISaINS_10_Hash_nodeISt4pairIKcNSt7__cxx1112basic_stringIcSt11char_traitsIcESaIcEEEELb0EEEEE16_M_allocate_nodeIJRKSt21piecewise_construct_tSt5tupleIJRS3_EESI_IJEEEEEPSB_DpOT_, symObjAddr: 0x13284, symBinAddr: 0x100014810, symSize: 0x1EC }
  - { offset: 0x3C767, size: 0x8, addend: 0x0, symName: __ZNSt8__detail14_Node_iteratorISt4pairIKcNSt7__cxx1112basic_stringIcSt11char_traitsIcESaIcEEEELb0ELb0EEC1EPNS_10_Hash_nodeIS9_Lb0EEE, symObjAddr: 0x1325C, symBinAddr: 0x1000147E8, symSize: 0x28 }
  - { offset: 0x3C796, size: 0x8, addend: 0x0, symName: __ZNSt10_HashtableIcSt4pairIKcNSt7__cxx1112basic_stringIcSt11char_traitsIcESaIcEEEESaIS8_ENSt8__detail10_Select1stESt8equal_toIcESt4hashIcENSA_18_Mod_range_hashingENSA_20_Default_ranged_hashENSA_20_Prime_rehash_policyENSA_17_Hashtable_traitsILb0ELb0ELb1EEEE22_M_insert_bucket_beginEmPNSA_10_Hash_nodeIS8_Lb0EEE, symObjAddr: 0x13150, symBinAddr: 0x1000146DC, symSize: 0x10C }
  - { offset: 0x3C7E2, size: 0x8, addend: 0x0, symName: __ZNKSt8__detail15_Hash_code_baseIcSt4pairIKcNSt7__cxx1112basic_stringIcSt11char_traitsIcESaIcEEEENS_10_Select1stESt4hashIcENS_18_Mod_range_hashingENS_20_Default_ranged_hashELb0EE13_M_store_codeERNS_21_Hash_node_code_cacheILb0EEEm, symObjAddr: 0x13134, symBinAddr: 0x1000146C0, symSize: 0x1C }
  - { offset: 0x3C81E, size: 0x8, addend: 0x0, symName: __ZNSt10_HashtableIcSt4pairIKcNSt7__cxx1112basic_stringIcSt11char_traitsIcESaIcEEEESaIS8_ENSt8__detail10_Select1stESt8equal_toIcESt4hashIcENSA_18_Mod_range_hashingENSA_20_Default_ranged_hashENSA_20_Prime_rehash_policyENSA_17_Hashtable_traitsILb0ELb0ELb1EEEE9_M_rehashEmSt17integral_constantIbLb1EE, symObjAddr: 0x12FC8, symBinAddr: 0x100014554, symSize: 0x16C }
  - { offset: 0x3C8CB, size: 0x8, addend: 0x0, symName: __ZNSt8__detail16_Hashtable_allocISaINS_10_Hash_nodeISt4pairIKcNSt7__cxx1112basic_stringIcSt11char_traitsIcESaIcEEEELb0EEEEE16_M_allocate_nodeIJRKSt21piecewise_construct_tSt5tupleIJOcEESI_IJEEEEEPSB_DpOT_, symObjAddr: 0x12DDC, symBinAddr: 0x100014368, symSize: 0x1EC }
  - { offset: 0x3CA9B, size: 0x8, addend: 0x0, symName: __ZNSt8__detail10_Hash_nodeISt4pairIKcNSt7__cxx1112basic_stringIcSt11char_traitsIcESaIcEEEELb0EEC1Ev, symObjAddr: 0x12DBC, symBinAddr: 0x100014348, symSize: 0x20 }
  - { offset: 0x3CAD7, size: 0x8, addend: 0x0, symName: __ZNKSt10_HashtableIcSt4pairIKcNSt7__cxx1112basic_stringIcSt11char_traitsIcESaIcEEEESaIS8_ENSt8__detail10_Select1stESt8equal_toIcESt4hashIcENSA_18_Mod_range_hashingENSA_20_Default_ranged_hashENSA_20_Prime_rehash_policyENSA_17_Hashtable_traitsILb0ELb0ELb1EEEE19_M_find_before_nodeEmRS1_m, symObjAddr: 0x12CC0, symBinAddr: 0x10001424C, symSize: 0xFC }
  - { offset: 0x3CB69, size: 0x8, addend: 0x0, symName: __ZNKSt8__detail15_Hash_code_baseIcSt4pairIKcNSt7__cxx1112basic_stringIcSt11char_traitsIcESaIcEEEENS_10_Select1stESt4hashIcENS_18_Mod_range_hashingENS_20_Default_ranged_hashELb0EE15_M_bucket_indexEmm, symObjAddr: 0x12C94, symBinAddr: 0x100014220, symSize: 0x2C }
  - { offset: 0x3CBB5, size: 0x8, addend: 0x0, symName: __ZNKSt8__detail15_Hash_code_baseIcSt4pairIKcNSt7__cxx1112basic_stringIcSt11char_traitsIcESaIcEEEENS_10_Select1stESt4hashIcENS_18_Mod_range_hashingENS_20_Default_ranged_hashELb0EE7_M_hashEv, symObjAddr: 0x12C78, symBinAddr: 0x100014204, symSize: 0x1C }
  - { offset: 0x3CBDF, size: 0x8, addend: 0x0, symName: __ZNSt8__detail16_Hashtable_allocISaINS_10_Hash_nodeISt4pairIKcNSt7__cxx1112basic_stringIcSt11char_traitsIcESaIcEEEELb0EEEEE21_M_deallocate_bucketsEPPNS_15_Hash_node_baseEm, symObjAddr: 0x12C00, symBinAddr: 0x10001418C, symSize: 0x78 }
  - { offset: 0x3CCEF, size: 0x8, addend: 0x0, symName: __ZNKSt10_HashtableIcSt4pairIKcNSt7__cxx1112basic_stringIcSt11char_traitsIcESaIcEEEESaIS8_ENSt8__detail10_Select1stESt8equal_toIcESt4hashIcENSA_18_Mod_range_hashingENSA_20_Default_ranged_hashENSA_20_Prime_rehash_policyENSA_17_Hashtable_traitsILb0ELb0ELb1EEEE21_M_uses_single_bucketEPPNSA_15_Hash_node_baseE, symObjAddr: 0x12BC4, symBinAddr: 0x100014150, symSize: 0x3C }
  - { offset: 0x3CD2A, size: 0x8, addend: 0x0, symName: __ZNSt8__detail16_Hashtable_allocISaINS_10_Hash_nodeISt4pairIKcNSt7__cxx1112basic_stringIcSt11char_traitsIcESaIcEEEELb0EEEEE18_M_deallocate_nodeEPSB_, symObjAddr: 0x12B48, symBinAddr: 0x1000140D4, symSize: 0x7C }
  - { offset: 0x3CDE3, size: 0x8, addend: 0x0, symName: __ZNKSt8__detail10_Hash_nodeISt4pairIKcNSt7__cxx1112basic_stringIcSt11char_traitsIcESaIcEEEELb0EE7_M_nextEv, symObjAddr: 0x12B30, symBinAddr: 0x1000140BC, symSize: 0x18 }
  - { offset: 0x3CE09, size: 0x8, addend: 0x0, symName: __ZNSt20__uninitialized_copyILb0EE13__uninit_copyIN9__gnu_cxx17__normal_iteratorIPKNSt7__cxx1112basic_stringIcSt11char_traitsIcESaIcEEESt6vectorIS9_SaIS9_EEEEPS9_EET0_T_SI_SH_, symObjAddr: 0x12B04, symBinAddr: 0x100014090, symSize: 0x2C }
  - { offset: 0x3CE64, size: 0x8, addend: 0x0, symName: __ZSt25__uninitialized_default_nIPimET_S1_T0_, symObjAddr: 0x12AD8, symBinAddr: 0x100014064, symSize: 0x2C }
  - { offset: 0x3CEC2, size: 0x8, addend: 0x0, symName: __ZNSt20__uninitialized_copyILb1EE13__uninit_copyIPiS2_EET0_T_S4_S3_, symObjAddr: 0x12AAC, symBinAddr: 0x100014038, symSize: 0x2C }
  - { offset: 0x3CF1D, size: 0x8, addend: 0x0, symName: __ZSt12__niter_wrapIPiET_RKS1_S1_, symObjAddr: 0x12A94, symBinAddr: 0x100014020, symSize: 0x18 }
  - { offset: 0x3CF59, size: 0x8, addend: 0x0, symName: __ZSt14__copy_move_a1ILb0EPiS0_ET1_T0_S2_S1_, symObjAddr: 0x12A68, symBinAddr: 0x100013FF4, symSize: 0x2C }
  - { offset: 0x3CFC1, size: 0x8, addend: 0x0, symName: __ZSt12__niter_baseIPiET_S1_, symObjAddr: 0x12A54, symBinAddr: 0x100013FE0, symSize: 0x14 }
  - { offset: 0x3CFF4, size: 0x8, addend: 0x0, symName: __ZNSt12_Destroy_auxILb1EE9__destroyIN9__gnu_cxx17__normal_iteratorIPiSt6vectorIiSaIiEEEEEEvT_S9_, symObjAddr: 0x12A3C, symBinAddr: 0x100013FC8, symSize: 0x18 }
  - { offset: 0x3D028, size: 0x8, addend: 0x0, symName: __ZSt12__niter_wrapIN9__gnu_cxx17__normal_iteratorIPiSt6vectorIiSaIiEEEES2_ET_S7_T0_, symObjAddr: 0x129F4, symBinAddr: 0x100013F80, symSize: 0x48 }
  - { offset: 0x3D075, size: 0x8, addend: 0x0, symName: __ZSt14__copy_move_a1ILb0EPKiPiET1_T0_S4_S3_, symObjAddr: 0x129C8, symBinAddr: 0x100013F54, symSize: 0x2C }
  - { offset: 0x3D0DD, size: 0x8, addend: 0x0, symName: __ZSt12__niter_baseIPiSt6vectorIiSaIiEEET_N9__gnu_cxx17__normal_iteratorIS4_T0_EE, symObjAddr: 0x129A8, symBinAddr: 0x100013F34, symSize: 0x20 }
  - { offset: 0x3D119, size: 0x8, addend: 0x0, symName: __ZSt12__niter_baseIPKiSt6vectorIiSaIiEEET_N9__gnu_cxx17__normal_iteratorIS5_T0_EE, symObjAddr: 0x12988, symBinAddr: 0x100013F14, symSize: 0x20 }
  - { offset: 0x3D155, size: 0x8, addend: 0x0, symName: __ZSt18uninitialized_copyIN9__gnu_cxx17__normal_iteratorIPKiSt6vectorIiSaIiEEEEPiET0_T_SA_S9_, symObjAddr: 0x1294C, symBinAddr: 0x100013ED8, symSize: 0x3C }
  - { offset: 0x3D1D0, size: 0x8, addend: 0x0, symName: __ZNSt20__uninitialized_copyILb1EE13__uninit_copyISt15_Deque_iteratorIiRKiPS3_ES2_IiRiPiEEET0_T_SB_SA_, symObjAddr: 0x128E8, symBinAddr: 0x100013E74, symSize: 0x64 }
  - { offset: 0x3D247, size: 0x8, addend: 0x0, symName: __ZSt25__uninitialized_default_nIPNSt7__cxx1112basic_stringIcSt11char_traitsIcESaIcEEEmET_S7_T0_, symObjAddr: 0x128BC, symBinAddr: 0x100013E48, symSize: 0x2C }
  - { offset: 0x3D2BB, size: 0x8, addend: 0x0, symName: __ZNSt12_Destroy_auxILb0EE9__destroyIPSt6vectorINSt7__cxx1112basic_stringIcSt11char_traitsIcESaIcEEESaIS8_EEEEvT_SC_, symObjAddr: 0x12870, symBinAddr: 0x100013DFC, symSize: 0x4C }
  - { offset: 0x3D2FD, size: 0x8, addend: 0x0, symName: __ZSt12__relocate_aIPSt6vectorINSt7__cxx1112basic_stringIcSt11char_traitsIcESaIcEEESaIS6_EES9_SaIS8_EET0_T_SC_SB_RT1_, symObjAddr: 0x12814, symBinAddr: 0x100013DA0, symSize: 0x5C }
  - { offset: 0x3D379, size: 0x8, addend: 0x0, symName: __ZNSt15__new_allocatorISt6vectorINSt7__cxx1112basic_stringIcSt11char_traitsIcESaIcEEESaIS6_EEE10deallocateEPS8_m, symObjAddr: 0x127D8, symBinAddr: 0x100013D64, symSize: 0x3C }
  - { offset: 0x3D3E7, size: 0x8, addend: 0x0, symName: __ZNK9__gnu_cxx17__normal_iteratorIPSt6vectorINSt7__cxx1112basic_stringIcSt11char_traitsIcESaIcEEESaIS7_EES1_IS9_SaIS9_EEE4baseEv, symObjAddr: 0x127C4, symBinAddr: 0x100013D50, symSize: 0x14 }
  - { offset: 0x3D439, size: 0x8, addend: 0x0, symName: __ZN9__gnu_cxx17__normal_iteratorIPSt6vectorINSt7__cxx1112basic_stringIcSt11char_traitsIcESaIcEEESaIS7_EES1_IS9_SaIS9_EEEC1ERKSA_, symObjAddr: 0x1279C, symBinAddr: 0x100013D28, symSize: 0x28 }
  - { offset: 0x3D468, size: 0x8, addend: 0x0, symName: __ZNKSt6vectorIS_INSt7__cxx1112basic_stringIcSt11char_traitsIcESaIcEEESaIS5_EESaIS7_EE4sizeEv, symObjAddr: 0x12768, symBinAddr: 0x100013CF4, symSize: 0x34 }
  - { offset: 0x3D492, size: 0x8, addend: 0x0, symName: __ZNKSt6vectorIS_INSt7__cxx1112basic_stringIcSt11char_traitsIcESaIcEEESaIS5_EESaIS7_EE8max_sizeEv, symObjAddr: 0x12748, symBinAddr: 0x100013CD4, symSize: 0x20 }
  - { offset: 0x3D4B8, size: 0x8, addend: 0x0, symName: __ZSt18uninitialized_copyIPKcPcET0_T_S4_S3_, symObjAddr: 0x1270C, symBinAddr: 0x100013C98, symSize: 0x3C }
  - { offset: 0x3D533, size: 0x8, addend: 0x0, symName: __ZSt9__advanceIPKclEvRT_T0_St26random_access_iterator_tag, symObjAddr: 0x126D8, symBinAddr: 0x100013C64, symSize: 0x34 }
  - { offset: 0x3D587, size: 0x8, addend: 0x0, symName: __ZSt13__copy_move_aILb0EPKcPcET1_T0_S4_S3_, symObjAddr: 0x12678, symBinAddr: 0x100013C04, symSize: 0x60 }
  - { offset: 0x3D5EF, size: 0x8, addend: 0x0, symName: __ZSt12__miter_baseIPKcET_S2_, symObjAddr: 0x12664, symBinAddr: 0x100013BF0, symSize: 0x14 }
  - { offset: 0x3D622, size: 0x8, addend: 0x0, symName: __ZNSt6vectorIcSaIcEE11_S_max_sizeERKS0_, symObjAddr: 0x12610, symBinAddr: 0x100013B9C, symSize: 0x54 }
  - { offset: 0x3D6DD, size: 0x8, addend: 0x0, symName: __ZNSt8__detail16_Hashtable_allocISaINS_10_Hash_nodeISt4pairIKcSt6vectorIcSaIcEEELb0EEEEE16_M_allocate_nodeIJRKSt21piecewise_construct_tSt5tupleIJOcEESF_IJEEEEEPS8_DpOT_, symObjAddr: 0x12424, symBinAddr: 0x1000139B0, symSize: 0x1EC }
  - { offset: 0x3D892, size: 0x8, addend: 0x0, symName: __ZSt7forwardISt5tupleIJOcEEEOT_RNSt16remove_referenceIS3_E4typeE, symObjAddr: 0x12410, symBinAddr: 0x10001399C, symSize: 0x14 }
  - { offset: 0x3D903, size: 0x8, addend: 0x0, symName: __ZNSt5tupleIJOcEEC1IJcELb1ELb1EEEDpOT_, symObjAddr: 0x123D4, symBinAddr: 0x100013960, symSize: 0x3C }
  - { offset: 0x3D94E, size: 0x8, addend: 0x0, symName: __ZNSt8__detail16_Hashtable_allocISaINS_10_Hash_nodeISt4pairIKcSt6vectorIcSaIcEEELb0EEEEE21_M_deallocate_bucketsEPPNS_15_Hash_node_baseEm, symObjAddr: 0x1235C, symBinAddr: 0x1000138E8, symSize: 0x78 }
  - { offset: 0x3DA5E, size: 0x8, addend: 0x0, symName: __ZNKSt10_HashtableIcSt4pairIKcSt6vectorIcSaIcEEESaIS5_ENSt8__detail10_Select1stESt8equal_toIcESt4hashIcENS7_18_Mod_range_hashingENS7_20_Default_ranged_hashENS7_20_Prime_rehash_policyENS7_17_Hashtable_traitsILb0ELb0ELb1EEEE21_M_uses_single_bucketEPPNS7_15_Hash_node_baseE, symObjAddr: 0x12320, symBinAddr: 0x1000138AC, symSize: 0x3C }
  - { offset: 0x3DA99, size: 0x8, addend: 0x0, symName: __ZNKSt8__detail10_Hash_nodeISt4pairIKcSt6vectorIcSaIcEEELb0EE7_M_nextEv, symObjAddr: 0x12308, symBinAddr: 0x100013894, symSize: 0x18 }
  - { offset: 0x3DAEB, size: 0x8, addend: 0x0, symName: __ZNSt8__detail14_Node_iteratorISt4pairIKcSt6vectorIcSaIcEEELb0ELb0EEC1EPNS_10_Hash_nodeIS6_Lb0EEE, symObjAddr: 0x122E0, symBinAddr: 0x10001386C, symSize: 0x28 }
  - { offset: 0x3DB1A, size: 0x8, addend: 0x0, symName: __ZNSt10_HashtableIcSt4pairIKcSt6vectorIcSaIcEEESaIS5_ENSt8__detail10_Select1stESt8equal_toIcESt4hashIcENS7_18_Mod_range_hashingENS7_20_Default_ranged_hashENS7_20_Prime_rehash_policyENS7_17_Hashtable_traitsILb0ELb0ELb1EEEE22_M_insert_bucket_beginEmPNS7_10_Hash_nodeIS5_Lb0EEE, symObjAddr: 0x121D4, symBinAddr: 0x100013760, symSize: 0x10C }
  - { offset: 0x3DB66, size: 0x8, addend: 0x0, symName: __ZNKSt8__detail15_Hash_code_baseIcSt4pairIKcSt6vectorIcSaIcEEENS_10_Select1stESt4hashIcENS_18_Mod_range_hashingENS_20_Default_ranged_hashELb0EE13_M_store_codeERNS_21_Hash_node_code_cacheILb0EEEm, symObjAddr: 0x121B8, symBinAddr: 0x100013744, symSize: 0x1C }
  - { offset: 0x3DBA2, size: 0x8, addend: 0x0, symName: __ZNSt10_HashtableIcSt4pairIKcSt6vectorIcSaIcEEESaIS5_ENSt8__detail10_Select1stESt8equal_toIcESt4hashIcENS7_18_Mod_range_hashingENS7_20_Default_ranged_hashENS7_20_Prime_rehash_policyENS7_17_Hashtable_traitsILb0ELb0ELb1EEEE9_M_rehashEmSt17integral_constantIbLb1EE, symObjAddr: 0x1204C, symBinAddr: 0x1000135D8, symSize: 0x16C }
  - { offset: 0x3DC73, size: 0x8, addend: 0x0, symName: __ZNSt8__detail17_RehashStateGuardINS_20_Prime_rehash_policyEED1Ev, symObjAddr: 0x12008, symBinAddr: 0x100013594, symSize: 0x44 }
  - { offset: 0x3DCC1, size: 0x8, addend: 0x0, symName: __ZNSt8__detail17_RehashStateGuardINS_20_Prime_rehash_policyEEC1ERS1_, symObjAddr: 0x11FC4, symBinAddr: 0x100013550, symSize: 0x44 }
  - { offset: 0x3DCF0, size: 0x8, addend: 0x0, symName: __ZNSt8__detail16_Hashtable_allocISaINS_10_Hash_nodeISt4pairIKcSt6vectorIcSaIcEEELb0EEEEE18_M_deallocate_nodeEPS8_, symObjAddr: 0x11F48, symBinAddr: 0x1000134D4, symSize: 0x7C }
  - { offset: 0x3DDA9, size: 0x8, addend: 0x0, symName: __ZNSt8__detail16_Hashtable_allocISaINS_10_Hash_nodeISt4pairIKcSt6vectorIcSaIcEEELb0EEEEE16_M_allocate_nodeIJRKSt21piecewise_construct_tSt5tupleIJRS3_EESF_IJEEEEEPS8_DpOT_, symObjAddr: 0x11D5C, symBinAddr: 0x1000132E8, symSize: 0x1EC }
  - { offset: 0x3DF79, size: 0x8, addend: 0x0, symName: __ZNSt8__detail10_Hash_nodeISt4pairIKcSt6vectorIcSaIcEEELb0EEC1Ev, symObjAddr: 0x11D3C, symBinAddr: 0x1000132C8, symSize: 0x20 }
  - { offset: 0x3DFA2, size: 0x8, addend: 0x0, symName: __ZSt7forwardISt5tupleIJEEEOT_RNSt16remove_referenceIS2_E4typeE, symObjAddr: 0x11D28, symBinAddr: 0x1000132B4, symSize: 0x14 }
  - { offset: 0x3DFDB, size: 0x8, addend: 0x0, symName: __ZSt7forwardISt5tupleIJRKcEEEOT_RNSt16remove_referenceIS4_E4typeE, symObjAddr: 0x11D14, symBinAddr: 0x1000132A0, symSize: 0x14 }
  - { offset: 0x3E014, size: 0x8, addend: 0x0, symName: __ZSt7forwardIRKSt21piecewise_construct_tEOT_RNSt16remove_referenceIS3_E4typeE, symObjAddr: 0x11D00, symBinAddr: 0x10001328C, symSize: 0x14 }
  - { offset: 0x3E072, size: 0x8, addend: 0x0, symName: __ZNSt11_Tuple_implILm0EJRKcEEC2ES1_, symObjAddr: 0x11CD8, symBinAddr: 0x100013264, symSize: 0x28 }
  - { offset: 0x3E0B7, size: 0x8, addend: 0x0, symName: __ZNKSt10_HashtableIcSt4pairIKcSt6vectorIcSaIcEEESaIS5_ENSt8__detail10_Select1stESt8equal_toIcESt4hashIcENS7_18_Mod_range_hashingENS7_20_Default_ranged_hashENS7_20_Prime_rehash_policyENS7_17_Hashtable_traitsILb0ELb0ELb1EEEE19_M_find_before_nodeEmRS1_m, symObjAddr: 0x11BDC, symBinAddr: 0x100013168, symSize: 0xFC }
  - { offset: 0x3E149, size: 0x8, addend: 0x0, symName: __ZNKSt8__detail15_Hash_code_baseIcSt4pairIKcSt6vectorIcSaIcEEENS_10_Select1stESt4hashIcENS_18_Mod_range_hashingENS_20_Default_ranged_hashELb0EE15_M_bucket_indexEmm, symObjAddr: 0x11BB0, symBinAddr: 0x10001313C, symSize: 0x2C }
  - { offset: 0x3E195, size: 0x8, addend: 0x0, symName: __ZNKSt8__detail15_Hash_code_baseIcSt4pairIKcSt6vectorIcSaIcEEENS_10_Select1stESt4hashIcENS_18_Mod_range_hashingENS_20_Default_ranged_hashELb0EE7_M_hashEv, symObjAddr: 0x11B94, symBinAddr: 0x100013120, symSize: 0x1C }
  - { offset: 0x3E1BB, size: 0x8, addend: 0x0, symName: __ZSt18uninitialized_copyISt23_Rb_tree_const_iteratorISt6vectorIiSaIiEEEPS3_ET0_T_S7_S6_, symObjAddr: 0x11B60, symBinAddr: 0x1000130EC, symSize: 0x34 }
  - { offset: 0x3E236, size: 0x8, addend: 0x0, symName: __ZSt10__distanceISt23_Rb_tree_const_iteratorISt6vectorIiSaIiEEEENSt15iterator_traitsIT_E15difference_typeES6_S6_St18input_iterator_tag, symObjAddr: 0x11B0C, symBinAddr: 0x100013098, symSize: 0x54 }
  - { offset: 0x3E295, size: 0x8, addend: 0x0, symName: __ZNSt8_Rb_treeISt6vectorIiSaIiEES2_St9_IdentityIS2_ESt4lessIS2_ESaIS2_EE11_M_put_nodeEPSt13_Rb_tree_nodeIS2_E, symObjAddr: 0x11AC0, symBinAddr: 0x10001304C, symSize: 0x4C }
  - { offset: 0x3E306, size: 0x8, addend: 0x0, symName: __ZNSt8_Rb_treeISt6vectorIiSaIiEES2_St9_IdentityIS2_ESt4lessIS2_ESaIS2_EE15_M_destroy_nodeEPSt13_Rb_tree_nodeIS2_E, symObjAddr: 0x11A60, symBinAddr: 0x100012FEC, symSize: 0x60 }
  - { offset: 0x3E39E, size: 0x8, addend: 0x0, symName: __ZSt7forwardISt17_Rb_tree_iteratorISt6vectorIiSaIiEEEEOT_RNSt16remove_referenceIS5_E4typeE, symObjAddr: 0x11A4C, symBinAddr: 0x100012FD8, symSize: 0x14 }
  - { offset: 0x3E3DF, size: 0x8, addend: 0x0, symName: __ZNKSt8_Rb_treeISt6vectorIiSaIiEES2_St9_IdentityIS2_ESt4lessIS2_ESaIS2_EE11_Alloc_nodeclIRKS2_EEPSt13_Rb_tree_nodeIS2_EOT_, symObjAddr: 0x11A10, symBinAddr: 0x100012F9C, symSize: 0x3C }
  - { offset: 0x3E41F, size: 0x8, addend: 0x0, symName: __ZNSt8_Rb_treeISt6vectorIiSaIiEES2_St9_IdentityIS2_ESt4lessIS2_ESaIS2_EE6_S_keyEPKSt18_Rb_tree_node_base, symObjAddr: 0x119F4, symBinAddr: 0x100012F80, symSize: 0x1C }
  - { offset: 0x3E44D, size: 0x8, addend: 0x0, symName: __ZNSt17_Rb_tree_iteratorISt6vectorIiSaIiEEEmmEv, symObjAddr: 0x119C4, symBinAddr: 0x100012F50, symSize: 0x30 }
  - { offset: 0x3E4BF, size: 0x8, addend: 0x0, symName: __ZNSt4pairIPSt18_Rb_tree_node_baseS1_EC1IRPSt13_Rb_tree_nodeISt6vectorIiSaIiEEERS1_Lb1EEEOT_OT0_, symObjAddr: 0x1197C, symBinAddr: 0x100012F08, symSize: 0x48 }
  - { offset: 0x3E50C, size: 0x8, addend: 0x0, symName: __ZSteqRKSt17_Rb_tree_iteratorISt6vectorIiSaIiEEES5_, symObjAddr: 0x1194C, symBinAddr: 0x100012ED8, symSize: 0x30 }
  - { offset: 0x3E54B, size: 0x8, addend: 0x0, symName: __ZNSt8_Rb_treeISt6vectorIiSaIiEES2_St9_IdentityIS2_ESt4lessIS2_ESaIS2_EE5beginEv, symObjAddr: 0x11924, symBinAddr: 0x100012EB0, symSize: 0x28 }
  - { offset: 0x3E575, size: 0x8, addend: 0x0, symName: __ZNKSt4lessISt6vectorIiSaIiEEEclERKS2_S5_, symObjAddr: 0x118FC, symBinAddr: 0x100012E88, symSize: 0x28 }
  - { offset: 0x3E5BD, size: 0x8, addend: 0x0, symName: __ZNSt8_Rb_treeISt6vectorIiSaIiEES2_St9_IdentityIS2_ESt4lessIS2_ESaIS2_EE6_S_keyEPKSt13_Rb_tree_nodeIS2_E, symObjAddr: 0x118D4, symBinAddr: 0x100012E60, symSize: 0x28 }
  - { offset: 0x3E5EB, size: 0x8, addend: 0x0, symName: __ZNSt8_Rb_treeISt6vectorIiSaIiEES2_St9_IdentityIS2_ESt4lessIS2_ESaIS2_EE6_M_endEv, symObjAddr: 0x118BC, symBinAddr: 0x100012E48, symSize: 0x18 }
  - { offset: 0x3E611, size: 0x8, addend: 0x0, symName: __ZSt26__unguarded_insertion_sortIN9__gnu_cxx17__normal_iteratorIPiSt6vectorIiSaIiEEEENS0_5__ops15_Iter_less_iterEEvT_S9_T0_, symObjAddr: 0x11850, symBinAddr: 0x100012DDC, symSize: 0x6C }
  - { offset: 0x3E693, size: 0x8, addend: 0x0, symName: __ZSt16__insertion_sortIN9__gnu_cxx17__normal_iteratorIPiSt6vectorIiSaIiEEEENS0_5__ops15_Iter_less_iterEEvT_S9_T0_, symObjAddr: 0x11754, symBinAddr: 0x100012CE0, symSize: 0xFC }
  - { offset: 0x3E73D, size: 0x8, addend: 0x0, symName: __ZNK9__gnu_cxx17__normal_iteratorIPiSt6vectorIiSaIiEEEplEl, symObjAddr: 0x11714, symBinAddr: 0x100012CA0, symSize: 0x40 }
  - { offset: 0x3E774, size: 0x8, addend: 0x0, symName: __ZSt27__unguarded_partition_pivotIN9__gnu_cxx17__normal_iteratorIPiSt6vectorIiSaIiEEEENS0_5__ops15_Iter_less_iterEET_S9_S9_T0_, symObjAddr: 0x11670, symBinAddr: 0x100012BFC, symSize: 0xA4 }
  - { offset: 0x3E7E3, size: 0x8, addend: 0x0, symName: __ZSt14__partial_sortIN9__gnu_cxx17__normal_iteratorIPiSt6vectorIiSaIiEEEENS0_5__ops15_Iter_less_iterEEvT_S9_S9_T0_, symObjAddr: 0x11624, symBinAddr: 0x100012BB0, symSize: 0x4C }
  - { offset: 0x3E852, size: 0x8, addend: 0x0, symName: __ZSt18uninitialized_copyIN9__gnu_cxx17__normal_iteratorIPiSt6vectorIiSaIiEEEES2_ET0_T_S8_S7_, symObjAddr: 0x115E8, symBinAddr: 0x100012B74, symSize: 0x3C }
  - { offset: 0x3E8CD, size: 0x8, addend: 0x0, symName: __ZSt20uninitialized_fill_nIPSt6vectorIiSaIiEEmS2_ET_S4_T0_RKT1_, symObjAddr: 0x115B8, symBinAddr: 0x100012B44, symSize: 0x30 }
  - { offset: 0x3E95B, size: 0x8, addend: 0x0, symName: __ZSt20uninitialized_fill_nIPimiET_S1_T0_RKT1_, symObjAddr: 0x11584, symBinAddr: 0x100012B10, symSize: 0x34 }
  - { offset: 0x3E9ED, size: 0x8, addend: 0x0, symName: __ZNSt8_Rb_treeINSt7__cxx1112basic_stringIcSt11char_traitsIcESaIcEEES5_St9_IdentityIS5_ESt4lessIS5_ESaIS5_EE11_M_put_nodeEPSt13_Rb_tree_nodeIS5_E, symObjAddr: 0x11538, symBinAddr: 0x100012AC4, symSize: 0x4C }
  - { offset: 0x3EA5E, size: 0x8, addend: 0x0, symName: __ZNSt8_Rb_treeINSt7__cxx1112basic_stringIcSt11char_traitsIcESaIcEEES5_St9_IdentityIS5_ESt4lessIS5_ESaIS5_EE15_M_destroy_nodeEPSt13_Rb_tree_nodeIS5_E, symObjAddr: 0x114D8, symBinAddr: 0x100012A64, symSize: 0x60 }
  - { offset: 0x3EAF6, size: 0x8, addend: 0x0, symName: __ZSt7forwardISt17_Rb_tree_iteratorINSt7__cxx1112basic_stringIcSt11char_traitsIcESaIcEEEEEOT_RNSt16remove_referenceIS8_E4typeE, symObjAddr: 0x114C4, symBinAddr: 0x100012A50, symSize: 0x14 }
  - { offset: 0x3EB37, size: 0x8, addend: 0x0, symName: __ZNKSt8_Rb_treeINSt7__cxx1112basic_stringIcSt11char_traitsIcESaIcEEES5_St9_IdentityIS5_ESt4lessIS5_ESaIS5_EE11_Alloc_nodeclIRKS5_EEPSt13_Rb_tree_nodeIS5_EOT_, symObjAddr: 0x11488, symBinAddr: 0x100012A14, symSize: 0x3C }
  - { offset: 0x3EBC3, size: 0x8, addend: 0x0, symName: __ZNSt4pairIPSt18_Rb_tree_node_baseS1_EC1IS1_S1_Lb1EEERKS1_S5_, symObjAddr: 0x1144C, symBinAddr: 0x1000129D8, symSize: 0x3C }
  - { offset: 0x3EC09, size: 0x8, addend: 0x0, symName: __ZNSt8_Rb_treeINSt7__cxx1112basic_stringIcSt11char_traitsIcESaIcEEES5_St9_IdentityIS5_ESt4lessIS5_ESaIS5_EE6_S_keyEPKSt18_Rb_tree_node_base, symObjAddr: 0x11430, symBinAddr: 0x1000129BC, symSize: 0x1C }
  - { offset: 0x3EC37, size: 0x8, addend: 0x0, symName: __ZNSt17_Rb_tree_iteratorINSt7__cxx1112basic_stringIcSt11char_traitsIcESaIcEEEEmmEv, symObjAddr: 0x11400, symBinAddr: 0x10001298C, symSize: 0x30 }
  - { offset: 0x3ECA9, size: 0x8, addend: 0x0, symName: __ZNSt4pairIPSt18_Rb_tree_node_baseS1_EC1IRPSt13_Rb_tree_nodeINSt7__cxx1112basic_stringIcSt11char_traitsIcESaIcEEEERS1_Lb1EEEOT_OT0_, symObjAddr: 0x113B8, symBinAddr: 0x100012944, symSize: 0x48 }
  - { offset: 0x3ECF6, size: 0x8, addend: 0x0, symName: __ZSteqRKSt17_Rb_tree_iteratorINSt7__cxx1112basic_stringIcSt11char_traitsIcESaIcEEEES8_, symObjAddr: 0x11388, symBinAddr: 0x100012914, symSize: 0x30 }
  - { offset: 0x3ED35, size: 0x8, addend: 0x0, symName: __ZNSt8_Rb_treeINSt7__cxx1112basic_stringIcSt11char_traitsIcESaIcEEES5_St9_IdentityIS5_ESt4lessIS5_ESaIS5_EE5beginEv, symObjAddr: 0x11360, symBinAddr: 0x1000128EC, symSize: 0x28 }
  - { offset: 0x3ED5F, size: 0x8, addend: 0x0, symName: __ZNKSt4lessINSt7__cxx1112basic_stringIcSt11char_traitsIcESaIcEEEEclERKS5_S8_, symObjAddr: 0x11338, symBinAddr: 0x1000128C4, symSize: 0x28 }
  - { offset: 0x3EDA7, size: 0x8, addend: 0x0, symName: __ZNSt8_Rb_treeINSt7__cxx1112basic_stringIcSt11char_traitsIcESaIcEEES5_St9_IdentityIS5_ESt4lessIS5_ESaIS5_EE6_S_keyEPKSt13_Rb_tree_nodeIS5_E, symObjAddr: 0x11310, symBinAddr: 0x10001289C, symSize: 0x28 }
  - { offset: 0x3EDD5, size: 0x8, addend: 0x0, symName: __ZNSt8_Rb_treeINSt7__cxx1112basic_stringIcSt11char_traitsIcESaIcEEES5_St9_IdentityIS5_ESt4lessIS5_ESaIS5_EE6_M_endEv, symObjAddr: 0x112F8, symBinAddr: 0x100012884, symSize: 0x18 }
  - { offset: 0x3EDFB, size: 0x8, addend: 0x0, symName: __ZNSt12_Destroy_auxILb0EE9__destroyIPSt6vectorIiSaIiEEEEvT_S6_, symObjAddr: 0x112AC, symBinAddr: 0x100012838, symSize: 0x4C }
  - { offset: 0x3EE3D, size: 0x8, addend: 0x0, symName: __ZSt12__relocate_aIPSt6vectorIiSaIiEES3_SaIS2_EET0_T_S6_S5_RT1_, symObjAddr: 0x11250, symBinAddr: 0x1000127DC, symSize: 0x5C }
  - { offset: 0x3EEB9, size: 0x8, addend: 0x0, symName: __ZNSt15__new_allocatorISt6vectorIiSaIiEEE10deallocateEPS2_m, symObjAddr: 0x11214, symBinAddr: 0x1000127A0, symSize: 0x3C }
  - { offset: 0x3EF27, size: 0x8, addend: 0x0, symName: __ZNK9__gnu_cxx17__normal_iteratorIPSt6vectorIiSaIiEES1_IS3_SaIS3_EEE4baseEv, symObjAddr: 0x11200, symBinAddr: 0x10001278C, symSize: 0x14 }
  - { offset: 0x3EF79, size: 0x8, addend: 0x0, symName: __ZN9__gnu_cxx17__normal_iteratorIPSt6vectorIiSaIiEES1_IS3_SaIS3_EEEC1ERKS4_, symObjAddr: 0x111D8, symBinAddr: 0x100012764, symSize: 0x28 }
  - { offset: 0x3EFA8, size: 0x8, addend: 0x0, symName: __ZNKSt6vectorIS_IiSaIiEESaIS1_EE4sizeEv, symObjAddr: 0x111A4, symBinAddr: 0x100012730, symSize: 0x34 }
  - { offset: 0x3EFD2, size: 0x8, addend: 0x0, symName: __ZNKSt6vectorIS_IiSaIiEESaIS1_EE8max_sizeEv, symObjAddr: 0x11184, symBinAddr: 0x100012710, symSize: 0x20 }
  - { offset: 0x3F024, size: 0x8, addend: 0x0, symName: __ZNSt6vectorIiSaIiEEC1ERKS1_, symObjAddr: 0x11070, symBinAddr: 0x1000125FC, symSize: 0x114 }
  - { offset: 0x3F133, size: 0x8, addend: 0x0, symName: __ZNSt12_Destroy_auxILb0EE9__destroyIPNSt7__cxx1112basic_stringIcSt11char_traitsIcESaIcEEEEEvT_S9_, symObjAddr: 0x11024, symBinAddr: 0x1000125B0, symSize: 0x4C }
  - { offset: 0x3F175, size: 0x8, addend: 0x0, symName: __ZSt12__relocate_aIPNSt7__cxx1112basic_stringIcSt11char_traitsIcESaIcEEES6_SaIS5_EET0_T_S9_S8_RT1_, symObjAddr: 0x10FC8, symBinAddr: 0x100012554, symSize: 0x5C }
  - { offset: 0x3F1F1, size: 0x8, addend: 0x0, symName: __ZNSt15__new_allocatorINSt7__cxx1112basic_stringIcSt11char_traitsIcESaIcEEEE10deallocateEPS5_m, symObjAddr: 0x10F98, symBinAddr: 0x100012524, symSize: 0x30 }
  - { offset: 0x3F25F, size: 0x8, addend: 0x0, symName: __ZNK9__gnu_cxx17__normal_iteratorIPNSt7__cxx1112basic_stringIcSt11char_traitsIcESaIcEEESt6vectorIS6_SaIS6_EEE4baseEv, symObjAddr: 0x10F84, symBinAddr: 0x100012510, symSize: 0x14 }
  - { offset: 0x3F2B1, size: 0x8, addend: 0x0, symName: __ZN9__gnu_cxx17__normal_iteratorIPNSt7__cxx1112basic_stringIcSt11char_traitsIcESaIcEEESt6vectorIS6_SaIS6_EEEC1ERKS7_, symObjAddr: 0x10F5C, symBinAddr: 0x1000124E8, symSize: 0x28 }
  - { offset: 0x3F2E0, size: 0x8, addend: 0x0, symName: __ZNKSt6vectorINSt7__cxx1112basic_stringIcSt11char_traitsIcESaIcEEESaIS5_EE8max_sizeEv, symObjAddr: 0x10F3C, symBinAddr: 0x1000124C8, symSize: 0x20 }
  - { offset: 0x3F30A, size: 0x8, addend: 0x0, symName: __ZNSt11_Deque_baseIiSaIiEE16_M_allocate_nodeEv, symObjAddr: 0x10EF8, symBinAddr: 0x100012484, symSize: 0x44 }
  - { offset: 0x3F361, size: 0x8, addend: 0x0, symName: __ZNSt5dequeIiSaIiEE22_M_reserve_map_at_backEm, symObjAddr: 0x10E98, symBinAddr: 0x100012424, symSize: 0x60 }
  - { offset: 0x3F39C, size: 0x8, addend: 0x0, symName: __ZNKSt5dequeIiSaIiEE8max_sizeEv, symObjAddr: 0x10E78, symBinAddr: 0x100012404, symSize: 0x20 }
  - { offset: 0x3F418, size: 0x8, addend: 0x0, symName: __ZNKSt11_Deque_baseIiSaIiEE20_M_get_map_allocatorEv, symObjAddr: 0x10E30, symBinAddr: 0x1000123BC, symSize: 0x48 }
  - { offset: 0x3F492, size: 0x8, addend: 0x0, symName: __ZNSt11_Deque_baseIiSaIiEE18_M_deallocate_nodeEPi, symObjAddr: 0x10DD8, symBinAddr: 0x100012364, symSize: 0x58 }
  - { offset: 0x3F503, size: 0x8, addend: 0x0, symName: __ZNSt15_Deque_iteratorIiRiPiE11_M_set_nodeEPS1_, symObjAddr: 0x10D7C, symBinAddr: 0x100012308, symSize: 0x5C }
  - { offset: 0x3F53E, size: 0x8, addend: 0x0, symName: __ZNSt11_Deque_baseIiSaIiEE15_M_create_nodesEPPiS3_, symObjAddr: 0x10CF0, symBinAddr: 0x10001227C, symSize: 0x8C }
  - { offset: 0x3F59B, size: 0x8, addend: 0x0, symName: __ZNSt11_Deque_baseIiSaIiEE15_M_allocate_mapEm, symObjAddr: 0x10C70, symBinAddr: 0x1000121FC, symSize: 0x80 }
  - { offset: 0x3F66D, size: 0x8, addend: 0x0, symName: __ZNSt11_Deque_baseIiSaIiEE16_Deque_impl_dataC2Ev, symObjAddr: 0x10C30, symBinAddr: 0x1000121BC, symSize: 0x40 }
  - { offset: 0x3F68F, size: 0x8, addend: 0x0, symName: __ZNSt15_Deque_iteratorIiRiPiE14_S_buffer_sizeEv, symObjAddr: 0x10C18, symBinAddr: 0x1000121A4, symSize: 0x18 }
  - { offset: 0x3F6A7, size: 0x8, addend: 0x0, symName: __ZNSt12_Destroy_auxILb1EE9__destroyIPiEEvT_S3_, symObjAddr: 0x10C00, symBinAddr: 0x10001218C, symSize: 0x18 }
  - { offset: 0x3F6DB, size: 0x8, addend: 0x0, symName: __ZSt12__relocate_aIPiS0_SaIiEET0_T_S3_S2_RT1_, symObjAddr: 0x10BA4, symBinAddr: 0x100012130, symSize: 0x5C }
  - { offset: 0x3F757, size: 0x8, addend: 0x0, symName: __ZNSt15__new_allocatorIiE10deallocateEPim, symObjAddr: 0x10B74, symBinAddr: 0x100012100, symSize: 0x30 }
  - { offset: 0x3F7C5, size: 0x8, addend: 0x0, symName: __ZNKSt6vectorIiSaIiEE8max_sizeEv, symObjAddr: 0x10B54, symBinAddr: 0x1000120E0, symSize: 0x20 }
  - { offset: 0x3F813, size: 0x8, addend: 0x0, symName: __ZNSt15__new_allocatorIcE10deallocateEPcm, symObjAddr: 0x10B2C, symBinAddr: 0x1000120B8, symSize: 0x28 }
  - { offset: 0x3F859, size: 0x8, addend: 0x0, symName: __ZSt13__countl_zeroImEiT_, symObjAddr: 0x10AD8, symBinAddr: 0x100012064, symSize: 0x54 }
  - { offset: 0x3F909, size: 0x8, addend: 0x0, symName: __ZSt8_DestroyIPSt6vectorIcSaIcEEEvT_S4_, symObjAddr: 0x10AB0, symBinAddr: 0x10001203C, symSize: 0x28 }
  - { offset: 0x3F94B, size: 0x8, addend: 0x0, symName: __ZSt22__uninitialized_copy_aIPKSt6vectorIcSaIcEEPS2_S2_ET0_T_S7_S6_RSaIT1_E, symObjAddr: 0x10A80, symBinAddr: 0x10001200C, symSize: 0x30 }
  - { offset: 0x3F9BF, size: 0x8, addend: 0x0, symName: __ZNSt12_Vector_baseISt6vectorIcSaIcEESaIS2_EE11_M_allocateEm, symObjAddr: 0x10A30, symBinAddr: 0x100011FBC, symSize: 0x50 }
  - { offset: 0x3FA23, size: 0x8, addend: 0x0, symName: __ZNSt6vectorIS_IcSaIcEESaIS1_EE17_S_check_init_lenEmRKS2_, symObjAddr: 0x109AC, symBinAddr: 0x100011F38, symSize: 0x84 }
  - { offset: 0x3FB26, size: 0x8, addend: 0x0, symName: __ZNKSt16initializer_listISt6vectorIcSaIcEEE4sizeEv, symObjAddr: 0x10994, symBinAddr: 0x100011F20, symSize: 0x18 }
  - { offset: 0x3FB50, size: 0x8, addend: 0x0, symName: __ZNSt12_Vector_baseISt6vectorIcSaIcEESaIS2_EE13_M_deallocateEPS2_m, symObjAddr: 0x1093C, symBinAddr: 0x100011EC8, symSize: 0x58 }
  - { offset: 0x3FBF9, size: 0x8, addend: 0x0, symName: __ZNSt12_Vector_baseISt6vectorIcSaIcEESaIS2_EE12_Vector_implC1ERKS3_, symObjAddr: 0x108F0, symBinAddr: 0x100011E7C, symSize: 0x4C }
  - { offset: 0x3FC7C, size: 0x8, addend: 0x0, symName: __ZSt8_DestroyIPcEvT_S1_, symObjAddr: 0x108C8, symBinAddr: 0x100011E54, symSize: 0x28 }
  - { offset: 0x3FCC2, size: 0x8, addend: 0x0, symName: __ZNSt12_Vector_baseIcSaIcEE11_M_allocateEm, symObjAddr: 0x10878, symBinAddr: 0x100011E04, symSize: 0x50 }
  - { offset: 0x3FD51, size: 0x8, addend: 0x0, symName: __ZNSt12_Vector_baseIcSaIcEE12_Vector_implC1ERKS0_, symObjAddr: 0x1082C, symBinAddr: 0x100011DB8, symSize: 0x4C }
  - { offset: 0x3FE2B, size: 0x8, addend: 0x0, symName: __ZNSt10_HashtableIcSt4pairIKcNSt7__cxx1112basic_stringIcSt11char_traitsIcESaIcEEEESaIS8_ENSt8__detail10_Select1stESt8equal_toIcESt4hashIcENSA_18_Mod_range_hashingENSA_20_Default_ranged_hashENSA_20_Prime_rehash_policyENSA_17_Hashtable_traitsILb0ELb0ELb1EEEE12_Scoped_nodeC1IJRKSt21piecewise_construct_tSt5tupleIJRS1_EESR_IJEEEEEPNSA_16_Hashtable_allocISaINSA_10_Hash_nodeIS8_Lb0EEEEEEDpOT_, symObjAddr: 0x107A4, symBinAddr: 0x100011D30, symSize: 0x88 }
  - { offset: 0x3FE91, size: 0x8, addend: 0x0, symName: __ZNKSt8__detail14_Node_iteratorISt4pairIKcNSt7__cxx1112basic_stringIcSt11char_traitsIcESaIcEEEELb0ELb0EEptEv, symObjAddr: 0x10774, symBinAddr: 0x100011D00, symSize: 0x30 }
  - { offset: 0x3FEDF, size: 0x8, addend: 0x0, symName: __ZNSt10_HashtableIcSt4pairIKcNSt7__cxx1112basic_stringIcSt11char_traitsIcESaIcEEEESaIS8_ENSt8__detail10_Select1stESt8equal_toIcESt4hashIcENSA_18_Mod_range_hashingENSA_20_Default_ranged_hashENSA_20_Prime_rehash_policyENSA_17_Hashtable_traitsILb0ELb0ELb1EEEE21_M_insert_unique_nodeEmmPNSA_10_Hash_nodeIS8_Lb0EEEm, symObjAddr: 0x10664, symBinAddr: 0x100011BF0, symSize: 0x110 }
  - { offset: 0x3FF96, size: 0x8, addend: 0x0, symName: __ZNSt10_HashtableIcSt4pairIKcNSt7__cxx1112basic_stringIcSt11char_traitsIcESaIcEEEESaIS8_ENSt8__detail10_Select1stESt8equal_toIcESt4hashIcENSA_18_Mod_range_hashingENSA_20_Default_ranged_hashENSA_20_Prime_rehash_policyENSA_17_Hashtable_traitsILb0ELb0ELb1EEEE12_Scoped_nodeD1Ev, symObjAddr: 0x10620, symBinAddr: 0x100011BAC, symSize: 0x44 }
  - { offset: 0x4000F, size: 0x8, addend: 0x0, symName: __ZNSt10_HashtableIcSt4pairIKcNSt7__cxx1112basic_stringIcSt11char_traitsIcESaIcEEEESaIS8_ENSt8__detail10_Select1stESt8equal_toIcESt4hashIcENSA_18_Mod_range_hashingENSA_20_Default_ranged_hashENSA_20_Prime_rehash_policyENSA_17_Hashtable_traitsILb0ELb0ELb1EEEE12_Scoped_nodeC1IJRKSt21piecewise_construct_tSt5tupleIJOcEESR_IJEEEEEPNSA_16_Hashtable_allocISaINSA_10_Hash_nodeIS8_Lb0EEEEEEDpOT_, symObjAddr: 0x10598, symBinAddr: 0x100011B24, symSize: 0x88 }
  - { offset: 0x4008B, size: 0x8, addend: 0x0, symName: __ZNKSt10_HashtableIcSt4pairIKcNSt7__cxx1112basic_stringIcSt11char_traitsIcESaIcEEEESaIS8_ENSt8__detail10_Select1stESt8equal_toIcESt4hashIcENSA_18_Mod_range_hashingENSA_20_Default_ranged_hashENSA_20_Prime_rehash_policyENSA_17_Hashtable_traitsILb0ELb0ELb1EEEE12_M_find_nodeEmRS1_m, symObjAddr: 0x10544, symBinAddr: 0x100011AD0, symSize: 0x54 }
  - { offset: 0x400F9, size: 0x8, addend: 0x0, symName: __ZNKSt10_HashtableIcSt4pairIKcNSt7__cxx1112basic_stringIcSt11char_traitsIcESaIcEEEESaIS8_ENSt8__detail10_Select1stESt8equal_toIcESt4hashIcENSA_18_Mod_range_hashingENSA_20_Default_ranged_hashENSA_20_Prime_rehash_policyENSA_17_Hashtable_traitsILb0ELb0ELb1EEEE15_M_bucket_indexEm, symObjAddr: 0x10514, symBinAddr: 0x100011AA0, symSize: 0x30 }
  - { offset: 0x40134, size: 0x8, addend: 0x0, symName: __ZNKSt8__detail15_Hash_code_baseIcSt4pairIKcNSt7__cxx1112basic_stringIcSt11char_traitsIcESaIcEEEENS_10_Select1stESt4hashIcENS_18_Mod_range_hashingENS_20_Default_ranged_hashELb0EE12_M_hash_codeERS2_, symObjAddr: 0x104DC, symBinAddr: 0x100011A68, symSize: 0x38 }
  - { offset: 0x4016F, size: 0x8, addend: 0x0, symName: __ZNSt10_HashtableIcSt4pairIKcNSt7__cxx1112basic_stringIcSt11char_traitsIcESaIcEEEESaIS8_ENSt8__detail10_Select1stESt8equal_toIcESt4hashIcENSA_18_Mod_range_hashingENSA_20_Default_ranged_hashENSA_20_Prime_rehash_policyENSA_17_Hashtable_traitsILb0ELb0ELb1EEEE21_M_deallocate_bucketsEPPNSA_15_Hash_node_baseEm, symObjAddr: 0x10490, symBinAddr: 0x100011A1C, symSize: 0x4C }
  - { offset: 0x401BB, size: 0x8, addend: 0x0, symName: __ZNSt8__detail16_Hashtable_allocISaINS_10_Hash_nodeISt4pairIKcNSt7__cxx1112basic_stringIcSt11char_traitsIcESaIcEEEELb0EEEEE19_M_deallocate_nodesEPSB_, symObjAddr: 0x10440, symBinAddr: 0x1000119CC, symSize: 0x50 }
  - { offset: 0x4021A, size: 0x8, addend: 0x0, symName: __ZNKSt10_HashtableIcSt4pairIKcNSt7__cxx1112basic_stringIcSt11char_traitsIcESaIcEEEESaIS8_ENSt8__detail10_Select1stESt8equal_toIcESt4hashIcENSA_18_Mod_range_hashingENSA_20_Default_ranged_hashENSA_20_Prime_rehash_policyENSA_17_Hashtable_traitsILb0ELb0ELb1EEEE8_M_beginEv, symObjAddr: 0x10428, symBinAddr: 0x1000119B4, symSize: 0x18 }
  - { offset: 0x40256, size: 0x8, addend: 0x0, symName: __ZSt18uninitialized_copyIN9__gnu_cxx17__normal_iteratorIPKNSt7__cxx1112basic_stringIcSt11char_traitsIcESaIcEEESt6vectorIS7_SaIS7_EEEEPS7_ET0_T_SG_SF_, symObjAddr: 0x103F4, symBinAddr: 0x100011980, symSize: 0x34 }
  - { offset: 0x402FD, size: 0x8, addend: 0x0, symName: __ZN9__gnu_cxx17__normal_iteratorIPKNSt7__cxx1112basic_stringIcSt11char_traitsIcESaIcEEESt6vectorIS6_SaIS6_EEEC1ERKS8_, symObjAddr: 0x103CC, symBinAddr: 0x100011958, symSize: 0x28 }
  - { offset: 0x4033E, size: 0x8, addend: 0x0, symName: __ZSt27__uninitialized_default_n_aIPimiET_S1_T0_RSaIT1_E, symObjAddr: 0x103A4, symBinAddr: 0x100011930, symSize: 0x28 }
  - { offset: 0x4039D, size: 0x8, addend: 0x0, symName: __ZSt18uninitialized_copyIPiS0_ET0_T_S2_S1_, symObjAddr: 0x10368, symBinAddr: 0x1000118F4, symSize: 0x3C }
  - { offset: 0x40418, size: 0x8, addend: 0x0, symName: __ZSt13__copy_move_aILb0EPiS0_ET1_T0_S2_S1_, symObjAddr: 0x10308, symBinAddr: 0x100011894, symSize: 0x60 }
  - { offset: 0x40480, size: 0x8, addend: 0x0, symName: __ZSt12__miter_baseIPiET_S1_, symObjAddr: 0x102F4, symBinAddr: 0x100011880, symSize: 0x14 }
  - { offset: 0x404B3, size: 0x8, addend: 0x0, symName: __ZSt8_DestroyIN9__gnu_cxx17__normal_iteratorIPiSt6vectorIiSaIiEEEEEvT_S7_, symObjAddr: 0x102CC, symBinAddr: 0x100011858, symSize: 0x28 }
  - { offset: 0x404F5, size: 0x8, addend: 0x0, symName: __ZSt13__copy_move_aILb0EN9__gnu_cxx17__normal_iteratorIPKiSt6vectorIiSaIiEEEENS1_IPiS6_EEET1_T0_SB_SA_, symObjAddr: 0x1026C, symBinAddr: 0x1000117F8, symSize: 0x60 }
  - { offset: 0x4055D, size: 0x8, addend: 0x0, symName: __ZSt12__miter_baseIN9__gnu_cxx17__normal_iteratorIPKiSt6vectorIiSaIiEEEEET_S8_, symObjAddr: 0x10258, symBinAddr: 0x1000117E4, symSize: 0x14 }
  - { offset: 0x40590, size: 0x8, addend: 0x0, symName: __ZSt22__uninitialized_copy_aIN9__gnu_cxx17__normal_iteratorIPKiSt6vectorIiSaIiEEEEPiiET0_T_SA_S9_RSaIT1_E, symObjAddr: 0x10228, symBinAddr: 0x1000117B4, symSize: 0x30 }
  - { offset: 0x4062C, size: 0x8, addend: 0x0, symName: __ZN9__gnu_cxx17__normal_iteratorIPKiSt6vectorIiSaIiEEEC1ERKS2_, symObjAddr: 0x10200, symBinAddr: 0x10001178C, symSize: 0x28 }
  - { offset: 0x4065B, size: 0x8, addend: 0x0, symName: __ZNSt6vectorIiSaIiEE15_M_erase_at_endEPi, symObjAddr: 0x10178, symBinAddr: 0x100011704, symSize: 0x88 }
  - { offset: 0x406F0, size: 0x8, addend: 0x0, symName: __ZNSt5dequeIiSaIiEE16_M_pop_front_auxEv, symObjAddr: 0x100E4, symBinAddr: 0x100011670, symSize: 0x94 }
  - { offset: 0x40770, size: 0x8, addend: 0x0, symName: __ZSt18uninitialized_copyISt15_Deque_iteratorIiRKiPS1_ES0_IiRiPiEET0_T_S9_S8_, symObjAddr: 0x10070, symBinAddr: 0x1000115FC, symSize: 0x74 }
  - { offset: 0x4081C, size: 0x8, addend: 0x0, symName: __ZNSt15_Deque_iteratorIiRKiPS0_EC1ERKS3_, symObjAddr: 0x10018, symBinAddr: 0x1000115A4, symSize: 0x58 }
  - { offset: 0x4087B, size: 0x8, addend: 0x0, symName: __ZNSt15_Deque_iteratorIiRKiPS0_EC1IS_IiRiPiEvEERKT_, symObjAddr: 0xFFC0, symBinAddr: 0x10001154C, symSize: 0x58 }
  - { offset: 0x408DB, size: 0x8, addend: 0x0, symName: __ZNSt11_Deque_baseIiSaIiEE11_Deque_implC1ERKS0_, symObjAddr: 0xFF74, symBinAddr: 0x100011500, symSize: 0x4C }
  - { offset: 0x40990, size: 0x8, addend: 0x0, symName: __ZSt27__uninitialized_default_n_aIPNSt7__cxx1112basic_stringIcSt11char_traitsIcESaIcEEEmS5_ET_S7_T0_RSaIT1_E, symObjAddr: 0xFF4C, symBinAddr: 0x1000114D8, symSize: 0x28 }
  - { offset: 0x409F3, size: 0x8, addend: 0x0, symName: __ZNSt12_Vector_baseINSt7__cxx1112basic_stringIcSt11char_traitsIcESaIcEEESaIS5_EE17_M_create_storageEm, symObjAddr: 0xFEEC, symBinAddr: 0x100011478, symSize: 0x60 }
  - { offset: 0x40A55, size: 0x8, addend: 0x0, symName: __ZNSt12_Vector_baseINSt7__cxx1112basic_stringIcSt11char_traitsIcESaIcEEESaIS5_EE12_Vector_implC1ERKS6_, symObjAddr: 0xFEA0, symBinAddr: 0x10001142C, symSize: 0x4C }
  - { offset: 0x40AD8, size: 0x8, addend: 0x0, symName: __ZNSt6vectorINSt7__cxx1112basic_stringIcSt11char_traitsIcESaIcEEESaIS5_EE11_S_max_sizeERKS6_, symObjAddr: 0xFE4C, symBinAddr: 0x1000113D8, symSize: 0x54 }
  - { offset: 0x40B8F, size: 0x8, addend: 0x0, symName: __ZSt8_DestroyIPSt6vectorINSt7__cxx1112basic_stringIcSt11char_traitsIcESaIcEEESaIS6_EEEvT_SA_, symObjAddr: 0xFE24, symBinAddr: 0x1000113B0, symSize: 0x28 }
  - { offset: 0x40BE7, size: 0x8, addend: 0x0, symName: __ZNSt6vectorIS_INSt7__cxx1112basic_stringIcSt11char_traitsIcESaIcEEESaIS5_EESaIS7_EE11_S_relocateEPS7_SA_SA_RS8_, symObjAddr: 0xFDF0, symBinAddr: 0x10001137C, symSize: 0x34 }
  - { offset: 0x40C44, size: 0x8, addend: 0x0, symName: __ZSt12__to_addressISt6vectorINSt7__cxx1112basic_stringIcSt11char_traitsIcESaIcEEESaIS6_EEEPT_SA_, symObjAddr: 0xFDDC, symBinAddr: 0x100011368, symSize: 0x14 }
  - { offset: 0x40CAC, size: 0x8, addend: 0x0, symName: __ZNSt12_Vector_baseISt6vectorINSt7__cxx1112basic_stringIcSt11char_traitsIcESaIcEEESaIS6_EESaIS8_EE11_M_allocateEm, symObjAddr: 0xFD8C, symBinAddr: 0x100011318, symSize: 0x50 }
  - { offset: 0x40D17, size: 0x8, addend: 0x0, symName: __ZN9__gnu_cxxmiIPSt6vectorINSt7__cxx1112basic_stringIcSt11char_traitsIcESaIcEEESaIS7_EES1_IS9_SaIS9_EEEENS_17__normal_iteratorIT_T0_E15difference_typeERKSG_SJ_, symObjAddr: 0xFD40, symBinAddr: 0x1000112CC, symSize: 0x4C }
  - { offset: 0x40D68, size: 0x8, addend: 0x0, symName: __ZNSt6vectorIS_INSt7__cxx1112basic_stringIcSt11char_traitsIcESaIcEEESaIS5_EESaIS7_EE5beginEv, symObjAddr: 0xFD1C, symBinAddr: 0x1000112A8, symSize: 0x24 }
  - { offset: 0x40D92, size: 0x8, addend: 0x0, symName: __ZNSt6vectorIS_INSt7__cxx1112basic_stringIcSt11char_traitsIcESaIcEEESaIS5_EESaIS7_EE3endEv, symObjAddr: 0xFCF4, symBinAddr: 0x100011280, symSize: 0x28 }
  - { offset: 0x40DBC, size: 0x8, addend: 0x0, symName: __ZNKSt6vectorIS_INSt7__cxx1112basic_stringIcSt11char_traitsIcESaIcEEESaIS5_EESaIS7_EE12_M_check_lenEmPKc, symObjAddr: 0xFC24, symBinAddr: 0x1000111B0, symSize: 0xD0 }
  - { offset: 0x40E5E, size: 0x8, addend: 0x0, symName: __ZSt7forwardIRKSt6vectorINSt7__cxx1112basic_stringIcSt11char_traitsIcESaIcEEESaIS6_EEEOT_RNSt16remove_referenceISB_E4typeE, symObjAddr: 0xFC10, symBinAddr: 0x10001119C, symSize: 0x14 }
  - { offset: 0x40E90, size: 0x8, addend: 0x0, symName: __ZSt22__uninitialized_copy_aIPKcPccET0_T_S4_S3_RSaIT1_E, symObjAddr: 0xFBE0, symBinAddr: 0x10001116C, symSize: 0x30 }
  - { offset: 0x40F41, size: 0x8, addend: 0x0, symName: __ZSt4copyIPKcPcET0_T_S4_S3_, symObjAddr: 0xFB98, symBinAddr: 0x100011124, symSize: 0x48 }
  - { offset: 0x40FA3, size: 0x8, addend: 0x0, symName: __ZNSt6vectorIcSaIcEE15_M_erase_at_endEPc, symObjAddr: 0xFB14, symBinAddr: 0x1000110A0, symSize: 0x84 }
  - { offset: 0x41038, size: 0x8, addend: 0x0, symName: __ZNSt12_Vector_baseIcSaIcEE13_M_deallocateEPcm, symObjAddr: 0xFABC, symBinAddr: 0x100011048, symSize: 0x58 }
  - { offset: 0x410BA, size: 0x8, addend: 0x0, symName: __ZNSt6vectorIcSaIcEE20_M_allocate_and_copyIPKcEEPcmT_S6_, symObjAddr: 0xFA38, symBinAddr: 0x100010FC4, symSize: 0x84 }
  - { offset: 0x4112D, size: 0x8, addend: 0x0, symName: __ZNSt6vectorIcSaIcEE17_S_check_init_lenEmRKS0_, symObjAddr: 0xF9B4, symBinAddr: 0x100010F40, symSize: 0x84 }
  - { offset: 0x411E3, size: 0x8, addend: 0x0, symName: __ZNKSt6vectorIcSaIcEE8capacityEv, symObjAddr: 0xF990, symBinAddr: 0x100010F1C, symSize: 0x24 }
  - { offset: 0x4123D, size: 0x8, addend: 0x0, symName: __ZNKSt16initializer_listIcE4sizeEv, symObjAddr: 0xF978, symBinAddr: 0x100010F04, symSize: 0x18 }
  - { offset: 0x412BA, size: 0x8, addend: 0x0, symName: __ZNSt10_HashtableIcSt4pairIKcSt6vectorIcSaIcEEESaIS5_ENSt8__detail10_Select1stESt8equal_toIcESt4hashIcENS7_18_Mod_range_hashingENS7_20_Default_ranged_hashENS7_20_Prime_rehash_policyENS7_17_Hashtable_traitsILb0ELb0ELb1EEEE12_Scoped_nodeC1IJRKSt21piecewise_construct_tSt5tupleIJOcEESO_IJEEEEEPNS7_16_Hashtable_allocISaINS7_10_Hash_nodeIS5_Lb0EEEEEEDpOT_, symObjAddr: 0xF8F0, symBinAddr: 0x100010E7C, symSize: 0x88 }
  - { offset: 0x4131C, size: 0x8, addend: 0x0, symName: __ZSt16forward_as_tupleIJcEESt5tupleIJDpOT_EES3_, symObjAddr: 0xF8B8, symBinAddr: 0x100010E44, symSize: 0x38 }
  - { offset: 0x41354, size: 0x8, addend: 0x0, symName: __ZNSt10_HashtableIcSt4pairIKcSt6vectorIcSaIcEEESaIS5_ENSt8__detail10_Select1stESt8equal_toIcESt4hashIcENS7_18_Mod_range_hashingENS7_20_Default_ranged_hashENS7_20_Prime_rehash_policyENS7_17_Hashtable_traitsILb0ELb0ELb1EEEE21_M_deallocate_bucketsEPPNS7_15_Hash_node_baseEm, symObjAddr: 0xF86C, symBinAddr: 0x100010DF8, symSize: 0x4C }
  - { offset: 0x413A0, size: 0x8, addend: 0x0, symName: __ZNSt8__detail16_Hashtable_allocISaINS_10_Hash_nodeISt4pairIKcSt6vectorIcSaIcEEELb0EEEEE19_M_deallocate_nodesEPS8_, symObjAddr: 0xF81C, symBinAddr: 0x100010DA8, symSize: 0x50 }
  - { offset: 0x413FF, size: 0x8, addend: 0x0, symName: __ZNKSt10_HashtableIcSt4pairIKcSt6vectorIcSaIcEEESaIS5_ENSt8__detail10_Select1stESt8equal_toIcESt4hashIcENS7_18_Mod_range_hashingENS7_20_Default_ranged_hashENS7_20_Prime_rehash_policyENS7_17_Hashtable_traitsILb0ELb0ELb1EEEE8_M_beginEv, symObjAddr: 0xF804, symBinAddr: 0x100010D90, symSize: 0x18 }
  - { offset: 0x4143F, size: 0x8, addend: 0x0, symName: __ZNKSt8__detail14_Node_iteratorISt4pairIKcSt6vectorIcSaIcEEELb0ELb0EEptEv, symObjAddr: 0xF7D4, symBinAddr: 0x100010D60, symSize: 0x30 }
  - { offset: 0x4148D, size: 0x8, addend: 0x0, symName: __ZNSt10_HashtableIcSt4pairIKcSt6vectorIcSaIcEEESaIS5_ENSt8__detail10_Select1stESt8equal_toIcESt4hashIcENS7_18_Mod_range_hashingENS7_20_Default_ranged_hashENS7_20_Prime_rehash_policyENS7_17_Hashtable_traitsILb0ELb0ELb1EEEE21_M_insert_unique_nodeEmmPNS7_10_Hash_nodeIS5_Lb0EEEm, symObjAddr: 0xF6C4, symBinAddr: 0x100010C50, symSize: 0x110 }
  - { offset: 0x41544, size: 0x8, addend: 0x0, symName: __ZNSt10_HashtableIcSt4pairIKcSt6vectorIcSaIcEEESaIS5_ENSt8__detail10_Select1stESt8equal_toIcESt4hashIcENS7_18_Mod_range_hashingENS7_20_Default_ranged_hashENS7_20_Prime_rehash_policyENS7_17_Hashtable_traitsILb0ELb0ELb1EEEE12_Scoped_nodeD1Ev, symObjAddr: 0xF680, symBinAddr: 0x100010C0C, symSize: 0x44 }
  - { offset: 0x415BD, size: 0x8, addend: 0x0, symName: __ZNSt10_HashtableIcSt4pairIKcSt6vectorIcSaIcEEESaIS5_ENSt8__detail10_Select1stESt8equal_toIcESt4hashIcENS7_18_Mod_range_hashingENS7_20_Default_ranged_hashENS7_20_Prime_rehash_policyENS7_17_Hashtable_traitsILb0ELb0ELb1EEEE12_Scoped_nodeC1IJRKSt21piecewise_construct_tSt5tupleIJRS1_EESO_IJEEEEEPNS7_16_Hashtable_allocISaINS7_10_Hash_nodeIS5_Lb0EEEEEEDpOT_, symObjAddr: 0xF5F8, symBinAddr: 0x100010B84, symSize: 0x88 }
  - { offset: 0x41655, size: 0x8, addend: 0x0, symName: __ZNSt5tupleIJRKcEEC1ILb1ELb1EEES1_, symObjAddr: 0xF5D0, symBinAddr: 0x100010B5C, symSize: 0x28 }
  - { offset: 0x416A4, size: 0x8, addend: 0x0, symName: __ZNKSt10_HashtableIcSt4pairIKcSt6vectorIcSaIcEEESaIS5_ENSt8__detail10_Select1stESt8equal_toIcESt4hashIcENS7_18_Mod_range_hashingENS7_20_Default_ranged_hashENS7_20_Prime_rehash_policyENS7_17_Hashtable_traitsILb0ELb0ELb1EEEE12_M_find_nodeEmRS1_m, symObjAddr: 0xF57C, symBinAddr: 0x100010B08, symSize: 0x54 }
  - { offset: 0x41712, size: 0x8, addend: 0x0, symName: __ZNKSt10_HashtableIcSt4pairIKcSt6vectorIcSaIcEEESaIS5_ENSt8__detail10_Select1stESt8equal_toIcESt4hashIcENS7_18_Mod_range_hashingENS7_20_Default_ranged_hashENS7_20_Prime_rehash_policyENS7_17_Hashtable_traitsILb0ELb0ELb1EEEE15_M_bucket_indexEm, symObjAddr: 0xF54C, symBinAddr: 0x100010AD8, symSize: 0x30 }
  - { offset: 0x4174D, size: 0x8, addend: 0x0, symName: __ZNKSt8__detail15_Hash_code_baseIcSt4pairIKcSt6vectorIcSaIcEEENS_10_Select1stESt4hashIcENS_18_Mod_range_hashingENS_20_Default_ranged_hashELb0EE12_M_hash_codeERS2_, symObjAddr: 0xF514, symBinAddr: 0x100010AA0, symSize: 0x38 }
  - { offset: 0x4179F, size: 0x8, addend: 0x0, symName: __ZSt22__uninitialized_copy_aISt23_Rb_tree_const_iteratorISt6vectorIiSaIiEEEPS3_S3_ET0_T_S7_S6_RSaIT1_E, symObjAddr: 0xF4E4, symBinAddr: 0x100010A70, symSize: 0x30 }
  - { offset: 0x41866, size: 0x8, addend: 0x0, symName: __ZNSt23_Rb_tree_const_iteratorISt6vectorIiSaIiEEEC1EPKSt18_Rb_tree_node_base, symObjAddr: 0xF4C0, symBinAddr: 0x100010A4C, symSize: 0x24 }
  - { offset: 0x41895, size: 0x8, addend: 0x0, symName: __ZNKSt8_Rb_treeISt6vectorIiSaIiEES2_St9_IdentityIS2_ESt4lessIS2_ESaIS2_EE9_M_mbeginEv, symObjAddr: 0xF4A8, symBinAddr: 0x100010A34, symSize: 0x18 }
  - { offset: 0x418BF, size: 0x8, addend: 0x0, symName: __ZNSt8_Rb_treeISt6vectorIiSaIiEES2_St9_IdentityIS2_ESt4lessIS2_ESaIS2_EE12_M_drop_nodeEPSt13_Rb_tree_nodeIS2_E, symObjAddr: 0xF474, symBinAddr: 0x100010A00, symSize: 0x34 }
  - { offset: 0x418F6, size: 0x8, addend: 0x0, symName: __ZNSt8_Rb_treeISt6vectorIiSaIiEES2_St9_IdentityIS2_ESt4lessIS2_ESaIS2_EE7_S_leftEPSt18_Rb_tree_node_base, symObjAddr: 0xF45C, symBinAddr: 0x1000109E8, symSize: 0x18 }
  - { offset: 0x41920, size: 0x8, addend: 0x0, symName: __ZNSt8_Rb_treeISt6vectorIiSaIiEES2_St9_IdentityIS2_ESt4lessIS2_ESaIS2_EE8_S_rightEPSt18_Rb_tree_node_base, symObjAddr: 0xF444, symBinAddr: 0x1000109D0, symSize: 0x18 }
  - { offset: 0x4198C, size: 0x8, addend: 0x0, symName: __ZNSt23_Rb_tree_const_iteratorISt6vectorIiSaIiEEEC1ERKSt17_Rb_tree_iteratorIS2_E, symObjAddr: 0xF41C, symBinAddr: 0x1000109A8, symSize: 0x28 }
  - { offset: 0x419BE, size: 0x8, addend: 0x0, symName: __ZSt7forwardIRSt17_Rb_tree_iteratorISt6vectorIiSaIiEEEEOT_RNSt16remove_referenceIS6_E4typeE, symObjAddr: 0xF408, symBinAddr: 0x100010994, symSize: 0x14 }
  - { offset: 0x41A1C, size: 0x8, addend: 0x0, symName: __ZNSt17_Rb_tree_iteratorISt6vectorIiSaIiEEEC1EPSt18_Rb_tree_node_base, symObjAddr: 0xF3E4, symBinAddr: 0x100010970, symSize: 0x24 }
  - { offset: 0x41A93, size: 0x8, addend: 0x0, symName: __ZNSt4pairISt17_Rb_tree_iteratorISt6vectorIiSaIiEEEbEC1IS4_bLb1EEEOT_OT0_, symObjAddr: 0xF398, symBinAddr: 0x100010924, symSize: 0x4C }
  - { offset: 0x41AE4, size: 0x8, addend: 0x0, symName: __ZNSt8_Rb_treeISt6vectorIiSaIiEES2_St9_IdentityIS2_ESt4lessIS2_ESaIS2_EE10_M_insert_IRKS2_NS8_11_Alloc_nodeEEESt17_Rb_tree_iteratorIS2_EPSt18_Rb_tree_node_baseSG_OT_RT0_, symObjAddr: 0xF2A8, symBinAddr: 0x100010834, symSize: 0xF0 }
  - { offset: 0x41BAF, size: 0x8, addend: 0x0, symName: __ZNSt8_Rb_treeISt6vectorIiSaIiEES2_St9_IdentityIS2_ESt4lessIS2_ESaIS2_EE11_Alloc_nodeC1ERS8_, symObjAddr: 0xF284, symBinAddr: 0x100010810, symSize: 0x24 }
  - { offset: 0x41BDE, size: 0x8, addend: 0x0, symName: __ZNKSt9_IdentityISt6vectorIiSaIiEEEclERKS2_, symObjAddr: 0xF26C, symBinAddr: 0x1000107F8, symSize: 0x18 }
  - { offset: 0x41C19, size: 0x8, addend: 0x0, symName: __ZNSt8_Rb_treeISt6vectorIiSaIiEES2_St9_IdentityIS2_ESt4lessIS2_ESaIS2_EE24_M_get_insert_unique_posERKS2_, symObjAddr: 0xF114, symBinAddr: 0x1000106A0, symSize: 0x158 }
  - { offset: 0x41C99, size: 0x8, addend: 0x0, symName: __ZSt22__final_insertion_sortIN9__gnu_cxx17__normal_iteratorIPiSt6vectorIiSaIiEEEENS0_5__ops15_Iter_less_iterEEvT_S9_T0_, symObjAddr: 0xF078, symBinAddr: 0x100010604, symSize: 0x9C }
  - { offset: 0x41CF7, size: 0x8, addend: 0x0, symName: __ZSt16__introsort_loopIN9__gnu_cxx17__normal_iteratorIPiSt6vectorIiSaIiEEEElNS0_5__ops15_Iter_less_iterEEvT_S9_T0_T1_, symObjAddr: 0xEFC0, symBinAddr: 0x10001054C, symSize: 0xB8 }
  - { offset: 0x41D93, size: 0x8, addend: 0x0, symName: __ZSt4__lgIlET_S0_, symObjAddr: 0xEF9C, symBinAddr: 0x100010528, symSize: 0x24 }
  - { offset: 0x41DC6, size: 0x8, addend: 0x0, symName: __ZSt22__uninitialized_copy_aIN9__gnu_cxx17__normal_iteratorIPiSt6vectorIiSaIiEEEES2_iET0_T_S8_S7_RSaIT1_E, symObjAddr: 0xEF6C, symBinAddr: 0x1000104F8, symSize: 0x30 }
  - { offset: 0x41E66, size: 0x8, addend: 0x0, symName: __ZSt24__uninitialized_fill_n_aIPSt6vectorIiSaIiEEmS2_S2_ET_S4_T0_RKT1_RSaIT2_E, symObjAddr: 0xEF3C, symBinAddr: 0x1000104C8, symSize: 0x30 }
  - { offset: 0x41EE3, size: 0x8, addend: 0x0, symName: __ZNSt12_Vector_baseISt6vectorIiSaIiEESaIS2_EE17_M_create_storageEm, symObjAddr: 0xEED0, symBinAddr: 0x10001045C, symSize: 0x6C }
  - { offset: 0x41F45, size: 0x8, addend: 0x0, symName: __ZNSt12_Vector_baseISt6vectorIiSaIiEESaIS2_EE12_Vector_implC1ERKS3_, symObjAddr: 0xEE84, symBinAddr: 0x100010410, symSize: 0x4C }
  - { offset: 0x41FC8, size: 0x8, addend: 0x0, symName: __ZNSt6vectorIS_IiSaIiEESaIS1_EE11_S_max_sizeERKS2_, symObjAddr: 0xEE28, symBinAddr: 0x1000103B4, symSize: 0x5C }
  - { offset: 0x4207F, size: 0x8, addend: 0x0, symName: __ZSt24__uninitialized_fill_n_aIPimiiET_S1_T0_RKT1_RSaIT2_E, symObjAddr: 0xEDF8, symBinAddr: 0x100010384, symSize: 0x30 }
  - { offset: 0x420FC, size: 0x8, addend: 0x0, symName: __ZNSt12_Vector_baseIiSaIiEE17_M_create_storageEm, symObjAddr: 0xED98, symBinAddr: 0x100010324, symSize: 0x60 }
  - { offset: 0x4215E, size: 0x8, addend: 0x0, symName: __ZNSt12_Vector_baseIiSaIiEE12_Vector_implC1ERKS0_, symObjAddr: 0xED4C, symBinAddr: 0x1000102D8, symSize: 0x4C }
  - { offset: 0x421E1, size: 0x8, addend: 0x0, symName: __ZNSt6vectorIiSaIiEE11_S_max_sizeERKS0_, symObjAddr: 0xECF8, symBinAddr: 0x100010284, symSize: 0x54 }
  - { offset: 0x4229C, size: 0x8, addend: 0x0, symName: __ZNKSt8_Rb_treeINSt7__cxx1112basic_stringIcSt11char_traitsIcESaIcEEES5_St9_IdentityIS5_ESt4lessIS5_ESaIS5_EE9_M_mbeginEv, symObjAddr: 0xECE0, symBinAddr: 0x10001026C, symSize: 0x18 }
  - { offset: 0x422C6, size: 0x8, addend: 0x0, symName: __ZNSt8_Rb_treeINSt7__cxx1112basic_stringIcSt11char_traitsIcESaIcEEES5_St9_IdentityIS5_ESt4lessIS5_ESaIS5_EE12_M_drop_nodeEPSt13_Rb_tree_nodeIS5_E, symObjAddr: 0xECAC, symBinAddr: 0x100010238, symSize: 0x34 }
  - { offset: 0x422FD, size: 0x8, addend: 0x0, symName: __ZNSt8_Rb_treeINSt7__cxx1112basic_stringIcSt11char_traitsIcESaIcEEES5_St9_IdentityIS5_ESt4lessIS5_ESaIS5_EE7_S_leftEPSt18_Rb_tree_node_base, symObjAddr: 0xEC94, symBinAddr: 0x100010220, symSize: 0x18 }
  - { offset: 0x42327, size: 0x8, addend: 0x0, symName: __ZNSt8_Rb_treeINSt7__cxx1112basic_stringIcSt11char_traitsIcESaIcEEES5_St9_IdentityIS5_ESt4lessIS5_ESaIS5_EE8_S_rightEPSt18_Rb_tree_node_base, symObjAddr: 0xEC7C, symBinAddr: 0x100010208, symSize: 0x18 }
  - { offset: 0x42393, size: 0x8, addend: 0x0, symName: __ZNSt23_Rb_tree_const_iteratorINSt7__cxx1112basic_stringIcSt11char_traitsIcESaIcEEEEC1ERKSt17_Rb_tree_iteratorIS5_E, symObjAddr: 0xEC54, symBinAddr: 0x1000101E0, symSize: 0x28 }
  - { offset: 0x423C5, size: 0x8, addend: 0x0, symName: __ZSt7forwardIRbEOT_RNSt16remove_referenceIS1_E4typeE, symObjAddr: 0xEC40, symBinAddr: 0x1000101CC, symSize: 0x14 }
  - { offset: 0x423FE, size: 0x8, addend: 0x0, symName: __ZSt7forwardIRSt17_Rb_tree_iteratorINSt7__cxx1112basic_stringIcSt11char_traitsIcESaIcEEEEEOT_RNSt16remove_referenceIS9_E4typeE, symObjAddr: 0xEC2C, symBinAddr: 0x1000101B8, symSize: 0x14 }
  - { offset: 0x4245C, size: 0x8, addend: 0x0, symName: __ZNSt17_Rb_tree_iteratorINSt7__cxx1112basic_stringIcSt11char_traitsIcESaIcEEEEC1EPSt18_Rb_tree_node_base, symObjAddr: 0xEC08, symBinAddr: 0x100010194, symSize: 0x24 }
  - { offset: 0x424D3, size: 0x8, addend: 0x0, symName: __ZNSt4pairISt17_Rb_tree_iteratorINSt7__cxx1112basic_stringIcSt11char_traitsIcESaIcEEEEbEC1IS7_bLb1EEEOT_OT0_, symObjAddr: 0xEBBC, symBinAddr: 0x100010148, symSize: 0x4C }
  - { offset: 0x42524, size: 0x8, addend: 0x0, symName: __ZNSt8_Rb_treeINSt7__cxx1112basic_stringIcSt11char_traitsIcESaIcEEES5_St9_IdentityIS5_ESt4lessIS5_ESaIS5_EE10_M_insert_IRKS5_NSB_11_Alloc_nodeEEESt17_Rb_tree_iteratorIS5_EPSt18_Rb_tree_node_baseSJ_OT_RT0_, symObjAddr: 0xEACC, symBinAddr: 0x100010058, symSize: 0xF0 }
  - { offset: 0x425EF, size: 0x8, addend: 0x0, symName: __ZNSt8_Rb_treeINSt7__cxx1112basic_stringIcSt11char_traitsIcESaIcEEES5_St9_IdentityIS5_ESt4lessIS5_ESaIS5_EE11_Alloc_nodeC1ERSB_, symObjAddr: 0xEAA8, symBinAddr: 0x100010034, symSize: 0x24 }
  - { offset: 0x4261E, size: 0x8, addend: 0x0, symName: __ZNKSt9_IdentityINSt7__cxx1112basic_stringIcSt11char_traitsIcESaIcEEEEclERKS5_, symObjAddr: 0xEA90, symBinAddr: 0x10001001C, symSize: 0x18 }
  - { offset: 0x42659, size: 0x8, addend: 0x0, symName: __ZNSt8_Rb_treeINSt7__cxx1112basic_stringIcSt11char_traitsIcESaIcEEES5_St9_IdentityIS5_ESt4lessIS5_ESaIS5_EE24_M_get_insert_unique_posERKS5_, symObjAddr: 0xE938, symBinAddr: 0x10000FEC4, symSize: 0x158 }
  - { offset: 0x426F4, size: 0x8, addend: 0x0, symName: __ZSt8_DestroyIPSt6vectorIiSaIiEEEvT_S4_, symObjAddr: 0xE910, symBinAddr: 0x10000FE9C, symSize: 0x28 }
  - { offset: 0x42736, size: 0x8, addend: 0x0, symName: __ZNSt6vectorIS_IiSaIiEESaIS1_EE11_S_relocateEPS1_S4_S4_RS2_, symObjAddr: 0xE8DC, symBinAddr: 0x10000FE68, symSize: 0x34 }
  - { offset: 0x42793, size: 0x8, addend: 0x0, symName: __ZSt12__to_addressISt6vectorIiSaIiEEEPT_S4_, symObjAddr: 0xE8C8, symBinAddr: 0x10000FE54, symSize: 0x14 }
  - { offset: 0x427FB, size: 0x8, addend: 0x0, symName: __ZNSt12_Vector_baseISt6vectorIiSaIiEESaIS2_EE11_M_allocateEm, symObjAddr: 0xE878, symBinAddr: 0x10000FE04, symSize: 0x50 }
  - { offset: 0x42866, size: 0x8, addend: 0x0, symName: __ZN9__gnu_cxxmiIPSt6vectorIiSaIiEES1_IS3_SaIS3_EEEENS_17__normal_iteratorIT_T0_E15difference_typeERKSA_SD_, symObjAddr: 0xE82C, symBinAddr: 0x10000FDB8, symSize: 0x4C }
  - { offset: 0x428B7, size: 0x8, addend: 0x0, symName: __ZNSt6vectorIS_IiSaIiEESaIS1_EE5beginEv, symObjAddr: 0xE808, symBinAddr: 0x10000FD94, symSize: 0x24 }
  - { offset: 0x428E1, size: 0x8, addend: 0x0, symName: __ZNSt6vectorIS_IiSaIiEESaIS1_EE3endEv, symObjAddr: 0xE7E0, symBinAddr: 0x10000FD6C, symSize: 0x28 }
  - { offset: 0x4290B, size: 0x8, addend: 0x0, symName: __ZNKSt6vectorIS_IiSaIiEESaIS1_EE12_M_check_lenEmPKc, symObjAddr: 0xE710, symBinAddr: 0x10000FC9C, symSize: 0xD0 }
  - { offset: 0x429AD, size: 0x8, addend: 0x0, symName: __ZSt7forwardIRKSt6vectorIiSaIiEEEOT_RNSt16remove_referenceIS5_E4typeE, symObjAddr: 0xE6FC, symBinAddr: 0x10000FC88, symSize: 0x14 }
  - { offset: 0x429FA, size: 0x8, addend: 0x0, symName: __ZSt8_DestroyIPNSt7__cxx1112basic_stringIcSt11char_traitsIcESaIcEEEEvT_S7_, symObjAddr: 0xE6D4, symBinAddr: 0x10000FC60, symSize: 0x28 }
  - { offset: 0x42A3C, size: 0x8, addend: 0x0, symName: __ZNSt6vectorINSt7__cxx1112basic_stringIcSt11char_traitsIcESaIcEEESaIS5_EE11_S_relocateEPS5_S8_S8_RS6_, symObjAddr: 0xE6A0, symBinAddr: 0x10000FC2C, symSize: 0x34 }
  - { offset: 0x42A99, size: 0x8, addend: 0x0, symName: __ZSt12__to_addressINSt7__cxx1112basic_stringIcSt11char_traitsIcESaIcEEEEPT_S7_, symObjAddr: 0xE68C, symBinAddr: 0x10000FC18, symSize: 0x14 }
  - { offset: 0x42B01, size: 0x8, addend: 0x0, symName: __ZNSt12_Vector_baseINSt7__cxx1112basic_stringIcSt11char_traitsIcESaIcEEESaIS5_EE11_M_allocateEm, symObjAddr: 0xE63C, symBinAddr: 0x10000FBC8, symSize: 0x50 }
  - { offset: 0x42B6C, size: 0x8, addend: 0x0, symName: __ZN9__gnu_cxxmiIPNSt7__cxx1112basic_stringIcSt11char_traitsIcESaIcEEESt6vectorIS6_SaIS6_EEEENS_17__normal_iteratorIT_T0_E15difference_typeERKSE_SH_, symObjAddr: 0xE5FC, symBinAddr: 0x10000FB88, symSize: 0x40 }
  - { offset: 0x42BBD, size: 0x8, addend: 0x0, symName: __ZNSt6vectorINSt7__cxx1112basic_stringIcSt11char_traitsIcESaIcEEESaIS5_EE5beginEv, symObjAddr: 0xE5D8, symBinAddr: 0x10000FB64, symSize: 0x24 }
  - { offset: 0x42BE7, size: 0x8, addend: 0x0, symName: __ZNSt6vectorINSt7__cxx1112basic_stringIcSt11char_traitsIcESaIcEEESaIS5_EE3endEv, symObjAddr: 0xE5B0, symBinAddr: 0x10000FB3C, symSize: 0x28 }
  - { offset: 0x42C11, size: 0x8, addend: 0x0, symName: __ZNKSt6vectorINSt7__cxx1112basic_stringIcSt11char_traitsIcESaIcEEESaIS5_EE12_M_check_lenEmPKc, symObjAddr: 0xE4E0, symBinAddr: 0x10000FA6C, symSize: 0xD0 }
  - { offset: 0x42CB3, size: 0x8, addend: 0x0, symName: __ZSt7forwardIRKNSt7__cxx1112basic_stringIcSt11char_traitsIcESaIcEEEEOT_RNSt16remove_referenceIS8_E4typeE, symObjAddr: 0xE4CC, symBinAddr: 0x10000FA58, symSize: 0x14 }
  - { offset: 0x42CEC, size: 0x8, addend: 0x0, symName: __ZSteqRKSt15_Deque_iteratorIiRiPiES4_, symObjAddr: 0xE49C, symBinAddr: 0x10000FA28, symSize: 0x30 }
  - { offset: 0x42D2B, size: 0x8, addend: 0x0, symName: __ZNSt5dequeIiSaIiEE16_M_push_back_auxIJRKiEEEvDpOT_, symObjAddr: 0xE37C, symBinAddr: 0x10000F908, symSize: 0x120 }
  - { offset: 0x42DDC, size: 0x8, addend: 0x0, symName: __ZNSt5dequeIiSaIiEE15_M_pop_back_auxEv, symObjAddr: 0xE2E4, symBinAddr: 0x10000F870, symSize: 0x98 }
  - { offset: 0x42E60, size: 0x8, addend: 0x0, symName: __ZNKSt15_Deque_iteratorIiRiPiEdeEv, symObjAddr: 0xE2CC, symBinAddr: 0x10000F858, symSize: 0x18 }
  - { offset: 0x42E8A, size: 0x8, addend: 0x0, symName: __ZNSt15_Deque_iteratorIiRiPiEmmEv, symObjAddr: 0xE260, symBinAddr: 0x10000F7EC, symSize: 0x6C }
  - { offset: 0x42EB4, size: 0x8, addend: 0x0, symName: __ZNSt11_Deque_baseIiSaIiEE17_M_deallocate_mapEPPim, symObjAddr: 0xE200, symBinAddr: 0x10000F78C, symSize: 0x60 }
  - { offset: 0x42F65, size: 0x8, addend: 0x0, symName: __ZNSt11_Deque_baseIiSaIiEE16_M_destroy_nodesEPPiS3_, symObjAddr: 0xE1A0, symBinAddr: 0x10000F72C, symSize: 0x60 }
  - { offset: 0x42FD5, size: 0x8, addend: 0x0, symName: __ZNSt11_Deque_baseIiSaIiEE17_M_initialize_mapEm, symObjAddr: 0xE014, symBinAddr: 0x10000F5A0, symSize: 0x18C }
  - { offset: 0x4305D, size: 0x8, addend: 0x0, symName: __ZNSt11_Deque_baseIiSaIiEE11_Deque_implC1Ev, symObjAddr: 0xDFDC, symBinAddr: 0x10000F568, symSize: 0x38 }
  - { offset: 0x430C6, size: 0x8, addend: 0x0, symName: __ZStmiRKSt15_Deque_iteratorIiRiPiES4_, symObjAddr: 0xDF48, symBinAddr: 0x10000F4D4, symSize: 0x94 }
  - { offset: 0x43101, size: 0x8, addend: 0x0, symName: __ZSt8_DestroyIPiEvT_S1_, symObjAddr: 0xDF20, symBinAddr: 0x10000F4AC, symSize: 0x28 }
  - { offset: 0x4316F, size: 0x8, addend: 0x0, symName: __ZNSt6vectorIiSaIiEE11_S_relocateEPiS2_S2_RS0_, symObjAddr: 0xDEEC, symBinAddr: 0x10000F478, symSize: 0x34 }
  - { offset: 0x431CC, size: 0x8, addend: 0x0, symName: __ZSt12__to_addressIiEPT_S1_, symObjAddr: 0xDED8, symBinAddr: 0x10000F464, symSize: 0x14 }
  - { offset: 0x43234, size: 0x8, addend: 0x0, symName: __ZNSt12_Vector_baseIiSaIiEE11_M_allocateEm, symObjAddr: 0xDE88, symBinAddr: 0x10000F414, symSize: 0x50 }
  - { offset: 0x43298, size: 0x8, addend: 0x0, symName: __ZN9__gnu_cxxmiIPiSt6vectorIiSaIiEEEENS_17__normal_iteratorIT_T0_E15difference_typeERKS8_SB_, symObjAddr: 0xDE48, symBinAddr: 0x10000F3D4, symSize: 0x40 }
  - { offset: 0x432E9, size: 0x8, addend: 0x0, symName: __ZNKSt6vectorIiSaIiEE12_M_check_lenEmPKc, symObjAddr: 0xDD78, symBinAddr: 0x10000F304, symSize: 0xD0 }
  - { offset: 0x4338B, size: 0x8, addend: 0x0, symName: __ZSt7forwardIRKiEOT_RNSt16remove_referenceIS2_E4typeE, symObjAddr: 0xDD64, symBinAddr: 0x10000F2F0, symSize: 0x14 }
  - { offset: 0x43405, size: 0x8, addend: 0x0, symName: __ZSt11__bit_widthImEiT_, symObjAddr: 0xDD34, symBinAddr: 0x10000F2C0, symSize: 0x30 }
  - { offset: 0x43470, size: 0x8, addend: 0x0, symName: __ZNK9__gnu_cxx17__normal_iteratorIPcSt6vectorIcSaIcEEE4baseEv, symObjAddr: 0xDD20, symBinAddr: 0x10000F2AC, symSize: 0x14 }
  - { offset: 0x434C2, size: 0x8, addend: 0x0, symName: __ZN9__gnu_cxx17__normal_iteratorIPcSt6vectorIcSaIcEEEC1ERKS1_, symObjAddr: 0xDCF8, symBinAddr: 0x10000F284, symSize: 0x28 }
  - { offset: 0x434F1, size: 0x8, addend: 0x0, symName: __ZNK9__gnu_cxx17__normal_iteratorIPSt6vectorIcSaIcEES1_IS3_SaIS3_EEE4baseEv, symObjAddr: 0xDCE4, symBinAddr: 0x10000F270, symSize: 0x14 }
  - { offset: 0x43543, size: 0x8, addend: 0x0, symName: __ZN9__gnu_cxx17__normal_iteratorIPSt6vectorIcSaIcEES1_IS3_SaIS3_EEEC1ERKS4_, symObjAddr: 0xDCBC, symBinAddr: 0x10000F248, symSize: 0x28 }
  - { offset: 0x435AD, size: 0x8, addend: 0x0, symName: __ZNSt12_Vector_baseISt6vectorIcSaIcEESaIS2_EE19_M_get_Tp_allocatorEv, symObjAddr: 0xDCA8, symBinAddr: 0x10000F234, symSize: 0x14 }
  - { offset: 0x435D7, size: 0x8, addend: 0x0, symName: __ZNSt6vectorIS_IcSaIcEESaIS1_EE19_M_range_initializeIPKS1_EEvT_S7_St20forward_iterator_tag, symObjAddr: 0xDBAC, symBinAddr: 0x10000F138, symSize: 0xFC }
  - { offset: 0x436F5, size: 0x8, addend: 0x0, symName: __ZNKSt16initializer_listISt6vectorIcSaIcEEE3endEv, symObjAddr: 0xDB64, symBinAddr: 0x10000F0F0, symSize: 0x48 }
  - { offset: 0x4371F, size: 0x8, addend: 0x0, symName: __ZNKSt16initializer_listISt6vectorIcSaIcEEE5beginEv, symObjAddr: 0xDB4C, symBinAddr: 0x10000F0D8, symSize: 0x18 }
  - { offset: 0x4376D, size: 0x8, addend: 0x0, symName: __ZNSt12_Vector_baseISt6vectorIcSaIcEESaIS2_EED2Ev, symObjAddr: 0xDAF0, symBinAddr: 0x10000F07C, symSize: 0x5C }
  - { offset: 0x437BB, size: 0x8, addend: 0x0, symName: __ZNSt12_Vector_baseISt6vectorIcSaIcEESaIS2_EEC2ERKS3_, symObjAddr: 0xDAC8, symBinAddr: 0x10000F054, symSize: 0x28 }
  - { offset: 0x43811, size: 0x8, addend: 0x0, symName: __ZNSt12_Vector_baseISt6vectorIcSaIcEESaIS2_EE12_Vector_implD1Ev, symObjAddr: 0xDA9C, symBinAddr: 0x10000F028, symSize: 0x2C }
  - { offset: 0x4387E, size: 0x8, addend: 0x0, symName: __ZNSt15__new_allocatorISt6vectorIcSaIcEEED2Ev, symObjAddr: 0xDA88, symBinAddr: 0x10000F014, symSize: 0x14 }
  - { offset: 0x438F5, size: 0x8, addend: 0x0, symName: __ZNSt12_Vector_baseIcSaIcEE19_M_get_Tp_allocatorEv, symObjAddr: 0xDA74, symBinAddr: 0x10000F000, symSize: 0x14 }
  - { offset: 0x4391F, size: 0x8, addend: 0x0, symName: __ZNSt6vectorIcSaIcEE19_M_range_initializeIPKcEEvT_S5_St20forward_iterator_tag, symObjAddr: 0xD998, symBinAddr: 0x10000EF24, symSize: 0xDC }
  - { offset: 0x43A36, size: 0x8, addend: 0x0, symName: __ZNSt12_Vector_baseIcSaIcEED2Ev, symObjAddr: 0xD94C, symBinAddr: 0x10000EED8, symSize: 0x4C }
  - { offset: 0x43A84, size: 0x8, addend: 0x0, symName: __ZNSt12_Vector_baseIcSaIcEEC2ERKS0_, symObjAddr: 0xD924, symBinAddr: 0x10000EEB0, symSize: 0x28 }
  - { offset: 0x43ADA, size: 0x8, addend: 0x0, symName: __ZNSt12_Vector_baseIcSaIcEE12_Vector_implD1Ev, symObjAddr: 0xD8F8, symBinAddr: 0x10000EE84, symSize: 0x2C }
  - { offset: 0x43B23, size: 0x8, addend: 0x0, symName: __ZNSt8__detail9_Map_baseIcSt4pairIKcNSt7__cxx1112basic_stringIcSt11char_traitsIcESaIcEEEESaIS9_ENS_10_Select1stESt8equal_toIcESt4hashIcENS_18_Mod_range_hashingENS_20_Default_ranged_hashENS_20_Prime_rehash_policyENS_17_Hashtable_traitsILb0ELb0ELb1EEELb1EEixERS2_, symObjAddr: 0xD7D8, symBinAddr: 0x10000ED64, symSize: 0x120 }
  - { offset: 0x43C29, size: 0x8, addend: 0x0, symName: __ZNK9__gnu_cxx17__normal_iteratorIPcNSt7__cxx1112basic_stringIcSt11char_traitsIcESaIcEEEE4baseEv, symObjAddr: 0xD7C4, symBinAddr: 0x10000ED50, symSize: 0x14 }
  - { offset: 0x43C53, size: 0x8, addend: 0x0, symName: __ZNSt8__detail9_Map_baseIcSt4pairIKcNSt7__cxx1112basic_stringIcSt11char_traitsIcESaIcEEEESaIS9_ENS_10_Select1stESt8equal_toIcESt4hashIcENS_18_Mod_range_hashingENS_20_Default_ranged_hashENS_20_Prime_rehash_policyENS_17_Hashtable_traitsILb0ELb0ELb1EEELb1EEixEOc, symObjAddr: 0xD694, symBinAddr: 0x10000EC20, symSize: 0x130 }
  - { offset: 0x43D53, size: 0x8, addend: 0x0, symName: __ZNSt10_HashtableIcSt4pairIKcNSt7__cxx1112basic_stringIcSt11char_traitsIcESaIcEEEESaIS8_ENSt8__detail10_Select1stESt8equal_toIcESt4hashIcENSA_18_Mod_range_hashingENSA_20_Default_ranged_hashENSA_20_Prime_rehash_policyENSA_17_Hashtable_traitsILb0ELb0ELb1EEEE21_M_deallocate_bucketsEv, symObjAddr: 0xD660, symBinAddr: 0x10000EBEC, symSize: 0x34 }
  - { offset: 0x43D7D, size: 0x8, addend: 0x0, symName: __ZNSt10_HashtableIcSt4pairIKcNSt7__cxx1112basic_stringIcSt11char_traitsIcESaIcEEEESaIS8_ENSt8__detail10_Select1stESt8equal_toIcESt4hashIcENSA_18_Mod_range_hashingENSA_20_Default_ranged_hashENSA_20_Prime_rehash_policyENSA_17_Hashtable_traitsILb0ELb0ELb1EEEE5clearEv, symObjAddr: 0xD600, symBinAddr: 0x10000EB8C, symSize: 0x60 }
  - { offset: 0x43DCB, size: 0x8, addend: 0x0, symName: __ZNSt15__new_allocatorINSt8__detail10_Hash_nodeISt4pairIKcNSt7__cxx1112basic_stringIcSt11char_traitsIcESaIcEEEELb0EEEED2Ev, symObjAddr: 0xD5EC, symBinAddr: 0x10000EB78, symSize: 0x14 }
  - { offset: 0x43E03, size: 0x8, addend: 0x0, symName: __ZSt22__uninitialized_copy_aIN9__gnu_cxx17__normal_iteratorIPKNSt7__cxx1112basic_stringIcSt11char_traitsIcESaIcEEESt6vectorIS7_SaIS7_EEEEPS7_S7_ET0_T_SG_SF_RSaIT1_E, symObjAddr: 0xD5BC, symBinAddr: 0x10000EB48, symSize: 0x30 }
  - { offset: 0x43E77, size: 0x8, addend: 0x0, symName: __ZNKSt6vectorINSt7__cxx1112basic_stringIcSt11char_traitsIcESaIcEEESaIS5_EE3endEv, symObjAddr: 0xD594, symBinAddr: 0x10000EB20, symSize: 0x28 }
  - { offset: 0x43EA1, size: 0x8, addend: 0x0, symName: __ZNKSt6vectorINSt7__cxx1112basic_stringIcSt11char_traitsIcESaIcEEESaIS5_EE5beginEv, symObjAddr: 0xD570, symBinAddr: 0x10000EAFC, symSize: 0x24 }
  - { offset: 0x43EE0, size: 0x8, addend: 0x0, symName: __ZNKSt12_Vector_baseINSt7__cxx1112basic_stringIcSt11char_traitsIcESaIcEEESaIS5_EE19_M_get_Tp_allocatorEv, symObjAddr: 0xD55C, symBinAddr: 0x10000EAE8, symSize: 0x14 }
  - { offset: 0x43F0A, size: 0x8, addend: 0x0, symName: __ZNSt6vectorIiSaIiEE21_M_default_initializeEm, symObjAddr: 0xD50C, symBinAddr: 0x10000EA98, symSize: 0x50 }
  - { offset: 0x43F41, size: 0x8, addend: 0x0, symName: __ZSt22__uninitialized_copy_aIPiS0_iET0_T_S2_S1_RSaIT1_E, symObjAddr: 0xD4DC, symBinAddr: 0x10000EA68, symSize: 0x30 }
  - { offset: 0x43FB1, size: 0x8, addend: 0x0, symName: __ZSt4copyIPiS0_ET0_T_S2_S1_, symObjAddr: 0xD494, symBinAddr: 0x10000EA20, symSize: 0x48 }
  - { offset: 0x4404A, size: 0x8, addend: 0x0, symName: __ZSt4copyIN9__gnu_cxx17__normal_iteratorIPKiSt6vectorIiSaIiEEEENS1_IPiS6_EEET0_T_SB_SA_, symObjAddr: 0xD44C, symBinAddr: 0x10000E9D8, symSize: 0x48 }
  - { offset: 0x440AC, size: 0x8, addend: 0x0, symName: __ZNSt6vectorIiSaIiEE20_M_allocate_and_copyIN9__gnu_cxx17__normal_iteratorIPKiS1_EEEEPimT_S9_, symObjAddr: 0xD3C8, symBinAddr: 0x10000E954, symSize: 0x84 }
  - { offset: 0x44123, size: 0x8, addend: 0x0, symName: __ZNKSt6vectorIiSaIiEE3endEv, symObjAddr: 0xD3A0, symBinAddr: 0x10000E92C, symSize: 0x28 }
  - { offset: 0x4414D, size: 0x8, addend: 0x0, symName: __ZNKSt6vectorIiSaIiEE5beginEv, symObjAddr: 0xD37C, symBinAddr: 0x10000E908, symSize: 0x24 }
  - { offset: 0x44177, size: 0x8, addend: 0x0, symName: __ZNKSt6vectorIiSaIiEE8capacityEv, symObjAddr: 0xD354, symBinAddr: 0x10000E8E0, symSize: 0x28 }
  - { offset: 0x441CE, size: 0x8, addend: 0x0, symName: __ZNSt6vectorIiSaIiEE5clearEv, symObjAddr: 0xD328, symBinAddr: 0x10000E8B4, symSize: 0x2C }
  - { offset: 0x4420A, size: 0x8, addend: 0x0, symName: __ZNKSt12_Vector_baseIiSaIiEE19_M_get_Tp_allocatorEv, symObjAddr: 0xD314, symBinAddr: 0x10000E8A0, symSize: 0x14 }
  - { offset: 0x44234, size: 0x8, addend: 0x0, symName: __ZNSt5dequeIiSaIiEE9pop_frontEv, symObjAddr: 0xD28C, symBinAddr: 0x10000E818, symSize: 0x88 }
  - { offset: 0x442B8, size: 0x8, addend: 0x0, symName: __ZNSt5dequeIiSaIiEE5frontEv, symObjAddr: 0xD260, symBinAddr: 0x10000E7EC, symSize: 0x2C }
  - { offset: 0x442DE, size: 0x8, addend: 0x0, symName: __ZSt22__uninitialized_copy_aISt15_Deque_iteratorIiRKiPS1_ES0_IiRiPiEiET0_T_S9_S8_RSaIT1_E, symObjAddr: 0xD1F8, symBinAddr: 0x10000E784, symSize: 0x68 }
  - { offset: 0x44380, size: 0x8, addend: 0x0, symName: __ZNSt15_Deque_iteratorIiRiPiEC1ERKS2_, symObjAddr: 0xD1A0, symBinAddr: 0x10000E72C, symSize: 0x58 }
  - { offset: 0x443AF, size: 0x8, addend: 0x0, symName: __ZNKSt5dequeIiSaIiEE3endEv, symObjAddr: 0xD168, symBinAddr: 0x10000E6F4, symSize: 0x38 }
  - { offset: 0x443D9, size: 0x8, addend: 0x0, symName: __ZNKSt5dequeIiSaIiEE5beginEv, symObjAddr: 0xD130, symBinAddr: 0x10000E6BC, symSize: 0x38 }
  - { offset: 0x44439, size: 0x8, addend: 0x0, symName: __ZNSt11_Deque_baseIiSaIiEEC2ERKS0_m, symObjAddr: 0xD0DC, symBinAddr: 0x10000E668, symSize: 0x54 }
  - { offset: 0x44486, size: 0x8, addend: 0x0, symName: __ZNKSt11_Deque_baseIiSaIiEE19_M_get_Tp_allocatorEv, symObjAddr: 0xD0C8, symBinAddr: 0x10000E654, symSize: 0x14 }
  - { offset: 0x444D7, size: 0x8, addend: 0x0, symName: __ZNSt12_Vector_baseISt6vectorINSt7__cxx1112basic_stringIcSt11char_traitsIcESaIcEEESaIS6_EESaIS8_EE17_Vector_impl_dataC2EOSB_, symObjAddr: 0xD058, symBinAddr: 0x10000E5E4, symSize: 0x70 }
  - { offset: 0x44533, size: 0x8, addend: 0x0, symName: __ZSt4moveIRNSt12_Vector_baseISt6vectorINSt7__cxx1112basic_stringIcSt11char_traitsIcESaIcEEESaIS7_EESaIS9_EE12_Vector_implEEONSt16remove_referenceIT_E4typeEOSF_, symObjAddr: 0xD044, symBinAddr: 0x10000E5D0, symSize: 0x14 }
  - { offset: 0x44569, size: 0x8, addend: 0x0, symName: __ZNSt6vectorINSt7__cxx1112basic_stringIcSt11char_traitsIcESaIcEEESaIS5_EE21_M_default_initializeEm, symObjAddr: 0xCFF4, symBinAddr: 0x10000E580, symSize: 0x50 }
  - { offset: 0x445DA, size: 0x8, addend: 0x0, symName: __ZNSt12_Vector_baseINSt7__cxx1112basic_stringIcSt11char_traitsIcESaIcEEESaIS5_EEC2EmRKS6_, symObjAddr: 0xCFA0, symBinAddr: 0x10000E52C, symSize: 0x54 }
  - { offset: 0x4460E, size: 0x8, addend: 0x0, symName: __ZNSt6vectorINSt7__cxx1112basic_stringIcSt11char_traitsIcESaIcEEESaIS5_EE17_S_check_init_lenEmRKS6_, symObjAddr: 0xCF1C, symBinAddr: 0x10000E4A8, symSize: 0x84 }
  - { offset: 0x44715, size: 0x8, addend: 0x0, symName: __ZNSt12_Vector_baseISt6vectorINSt7__cxx1112basic_stringIcSt11char_traitsIcESaIcEEESaIS6_EESaIS8_EE19_M_get_Tp_allocatorEv, symObjAddr: 0xCF08, symBinAddr: 0x10000E494, symSize: 0x14 }
  - { offset: 0x4473F, size: 0x8, addend: 0x0, symName: __ZNSt12_Vector_baseISt6vectorINSt7__cxx1112basic_stringIcSt11char_traitsIcESaIcEEESaIS6_EESaIS8_EE13_M_deallocateEPS8_m, symObjAddr: 0xCEB0, symBinAddr: 0x10000E43C, symSize: 0x58 }
  - { offset: 0x447E5, size: 0x8, addend: 0x0, symName: __ZNSt15__new_allocatorISt6vectorINSt7__cxx1112basic_stringIcSt11char_traitsIcESaIcEEESaIS6_EEED2Ev, symObjAddr: 0xCE9C, symBinAddr: 0x10000E428, symSize: 0x14 }
  - { offset: 0x44825, size: 0x8, addend: 0x0, symName: __ZNSt12_Vector_baseISt6vectorINSt7__cxx1112basic_stringIcSt11char_traitsIcESaIcEEESaIS6_EESaIS8_EE17_Vector_impl_dataC2Ev, symObjAddr: 0xCE70, symBinAddr: 0x10000E3FC, symSize: 0x2C }
  - { offset: 0x44861, size: 0x8, addend: 0x0, symName: __ZNSt6vectorIS_INSt7__cxx1112basic_stringIcSt11char_traitsIcESaIcEEESaIS5_EESaIS7_EE17_M_realloc_appendIJRKS7_EEEvDpOT_, symObjAddr: 0xCC48, symBinAddr: 0x10000E1D4, symSize: 0x228 }
  - { offset: 0x449E6, size: 0x8, addend: 0x0, symName: __ZZNSt6vectorIS_INSt7__cxx1112basic_stringIcSt11char_traitsIcESaIcEEESaIS5_EESaIS7_EE17_M_realloc_appendIJRKS7_EEEvDpOT_EN6_GuardC1EPS7_mRS8_, symObjAddr: 0xCBA4, symBinAddr: 0x10000E130, symSize: 0x44 }
  - { offset: 0x44A2B, size: 0x8, addend: 0x0, symName: __ZZNSt6vectorIS_INSt7__cxx1112basic_stringIcSt11char_traitsIcESaIcEEESaIS5_EESaIS7_EE17_M_realloc_appendIJRKS7_EEEvDpOT_EN6_GuardD1Ev, symObjAddr: 0xCBE8, symBinAddr: 0x10000E174, symSize: 0x60 }
  - { offset: 0x44B5E, size: 0x8, addend: 0x0, symName: __ZNSt6vectorIcSaIcEE13_M_assign_auxIPKcEEvT_S5_St20forward_iterator_tag, symObjAddr: 0xC964, symBinAddr: 0x10000DEF0, symSize: 0x240 }
  - { offset: 0x44D7C, size: 0x8, addend: 0x0, symName: __ZNKSt16initializer_listIcE3endEv, symObjAddr: 0xC930, symBinAddr: 0x10000DEBC, symSize: 0x34 }
  - { offset: 0x44DA6, size: 0x8, addend: 0x0, symName: __ZNKSt16initializer_listIcE5beginEv, symObjAddr: 0xC918, symBinAddr: 0x10000DEA4, symSize: 0x18 }
  - { offset: 0x44DD0, size: 0x8, addend: 0x0, symName: __ZNSt8__detail9_Map_baseIcSt4pairIKcSt6vectorIcSaIcEEESaIS6_ENS_10_Select1stESt8equal_toIcESt4hashIcENS_18_Mod_range_hashingENS_20_Default_ranged_hashENS_20_Prime_rehash_policyENS_17_Hashtable_traitsILb0ELb0ELb1EEELb1EEixEOc, symObjAddr: 0xC7E8, symBinAddr: 0x10000DD74, symSize: 0x130 }
  - { offset: 0x44ED9, size: 0x8, addend: 0x0, symName: __ZSt4moveIRcEONSt16remove_referenceIT_E4typeEOS2_, symObjAddr: 0xC7D4, symBinAddr: 0x10000DD60, symSize: 0x14 }
  - { offset: 0x44F0F, size: 0x8, addend: 0x0, symName: __ZNSt10_HashtableIcSt4pairIKcSt6vectorIcSaIcEEESaIS5_ENSt8__detail10_Select1stESt8equal_toIcESt4hashIcENS7_18_Mod_range_hashingENS7_20_Default_ranged_hashENS7_20_Prime_rehash_policyENS7_17_Hashtable_traitsILb0ELb0ELb1EEEE21_M_deallocate_bucketsEv, symObjAddr: 0xC7A0, symBinAddr: 0x10000DD2C, symSize: 0x34 }
  - { offset: 0x44F39, size: 0x8, addend: 0x0, symName: __ZNSt10_HashtableIcSt4pairIKcSt6vectorIcSaIcEEESaIS5_ENSt8__detail10_Select1stESt8equal_toIcESt4hashIcENS7_18_Mod_range_hashingENS7_20_Default_ranged_hashENS7_20_Prime_rehash_policyENS7_17_Hashtable_traitsILb0ELb0ELb1EEEE5clearEv, symObjAddr: 0xC740, symBinAddr: 0x10000DCCC, symSize: 0x60 }
  - { offset: 0x44F87, size: 0x8, addend: 0x0, symName: __ZNSt15__new_allocatorINSt8__detail10_Hash_nodeISt4pairIKcSt6vectorIcSaIcEEELb0EEEED2Ev, symObjAddr: 0xC72C, symBinAddr: 0x10000DCB8, symSize: 0x14 }
  - { offset: 0x44FC3, size: 0x8, addend: 0x0, symName: __ZNSt8__detail9_Map_baseIcSt4pairIKcSt6vectorIcSaIcEEESaIS6_ENS_10_Select1stESt8equal_toIcESt4hashIcENS_18_Mod_range_hashingENS_20_Default_ranged_hashENS_20_Prime_rehash_policyENS_17_Hashtable_traitsILb0ELb0ELb1EEELb1EEixERS2_, symObjAddr: 0xC60C, symBinAddr: 0x10000DB98, symSize: 0x120 }
  - { offset: 0x450EA, size: 0x8, addend: 0x0, symName: __ZNSt12_Vector_baseIiSaIiEE17_Vector_impl_dataC2EOS2_, symObjAddr: 0xC59C, symBinAddr: 0x10000DB28, symSize: 0x70 }
  - { offset: 0x45146, size: 0x8, addend: 0x0, symName: __ZSt4moveIRNSt12_Vector_baseIiSaIiEE12_Vector_implEEONSt16remove_referenceIT_E4typeEOS6_, symObjAddr: 0xC588, symBinAddr: 0x10000DB14, symSize: 0x14 }
  - { offset: 0x4517C, size: 0x8, addend: 0x0, symName: __ZNSt6vectorIS_IiSaIiEESaIS1_EE19_M_range_initializeISt23_Rb_tree_const_iteratorIS1_EEEvT_S7_St20forward_iterator_tag, symObjAddr: 0xC4A8, symBinAddr: 0x10000DA34, symSize: 0xE0 }
  - { offset: 0x45276, size: 0x8, addend: 0x0, symName: __ZNSt12_Vector_baseISt6vectorIiSaIiEESaIS2_EEC2ERKS3_, symObjAddr: 0xC480, symBinAddr: 0x10000DA0C, symSize: 0x28 }
  - { offset: 0x452A5, size: 0x8, addend: 0x0, symName: __ZNKSt8_Rb_treeISt6vectorIiSaIiEES2_St9_IdentityIS2_ESt4lessIS2_ESaIS2_EE3endEv, symObjAddr: 0xC458, symBinAddr: 0x10000D9E4, symSize: 0x28 }
  - { offset: 0x452CF, size: 0x8, addend: 0x0, symName: __ZNKSt8_Rb_treeISt6vectorIiSaIiEES2_St9_IdentityIS2_ESt4lessIS2_ESaIS2_EE5beginEv, symObjAddr: 0xC430, symBinAddr: 0x10000D9BC, symSize: 0x28 }
  - { offset: 0x452F9, size: 0x8, addend: 0x0, symName: __ZNSt8_Rb_treeISt6vectorIiSaIiEES2_St9_IdentityIS2_ESt4lessIS2_ESaIS2_EE8_M_beginEv, symObjAddr: 0xC414, symBinAddr: 0x10000D9A0, symSize: 0x1C }
  - { offset: 0x45323, size: 0x8, addend: 0x0, symName: __ZNSt8_Rb_treeISt6vectorIiSaIiEES2_St9_IdentityIS2_ESt4lessIS2_ESaIS2_EE8_M_eraseEPSt13_Rb_tree_nodeIS2_E, symObjAddr: 0xC3B0, symBinAddr: 0x10000D93C, symSize: 0x64 }
  - { offset: 0x453A6, size: 0x8, addend: 0x0, symName: __ZNSt15__new_allocatorISt13_Rb_tree_nodeISt6vectorIiSaIiEEEED2Ev, symObjAddr: 0xC39C, symBinAddr: 0x10000D928, symSize: 0x14 }
  - { offset: 0x453E6, size: 0x8, addend: 0x0, symName: __ZNSt20_Rb_tree_key_compareISt4lessISt6vectorIiSaIiEEEEC2Ev, symObjAddr: 0xC388, symBinAddr: 0x10000D914, symSize: 0x14 }
  - { offset: 0x4546A, size: 0x8, addend: 0x0, symName: __ZNSt4pairISt23_Rb_tree_const_iteratorISt6vectorIiSaIiEEEbEC1IRSt17_Rb_tree_iteratorIS3_ERbLb1EEEOT_OT0_, symObjAddr: 0xC334, symBinAddr: 0x10000D8C0, symSize: 0x54 }
  - { offset: 0x454B4, size: 0x8, addend: 0x0, symName: __ZNSt8_Rb_treeISt6vectorIiSaIiEES2_St9_IdentityIS2_ESt4lessIS2_ESaIS2_EE16_M_insert_uniqueIRKS2_EESt4pairISt17_Rb_tree_iteratorIS2_EbEOT_, symObjAddr: 0xC268, symBinAddr: 0x10000D7F4, symSize: 0xCC }
  - { offset: 0x4552D, size: 0x8, addend: 0x0, symName: __ZSt6__sortIN9__gnu_cxx17__normal_iteratorIPiSt6vectorIiSaIiEEEENS0_5__ops15_Iter_less_iterEEvT_S9_T0_, symObjAddr: 0xC1F0, symBinAddr: 0x10000D77C, symSize: 0x78 }
  - { offset: 0x4558F, size: 0x8, addend: 0x0, symName: __ZNSt6vectorIiSaIiEE19_M_range_initializeIN9__gnu_cxx17__normal_iteratorIPiS1_EEEEvT_S7_St20forward_iterator_tag, symObjAddr: 0xC10C, symBinAddr: 0x10000D698, symSize: 0xE4 }
  - { offset: 0x456EB, size: 0x8, addend: 0x0, symName: __ZNSt12_Vector_baseIiSaIiEEC2ERKS0_, symObjAddr: 0xC0E4, symBinAddr: 0x10000D670, symSize: 0x28 }
  - { offset: 0x4571A, size: 0x8, addend: 0x0, symName: __ZNSt6vectorIS_IiSaIiEESaIS1_EE18_M_fill_initializeEmRKS1_, symObjAddr: 0xC08C, symBinAddr: 0x10000D618, symSize: 0x58 }
  - { offset: 0x4579C, size: 0x8, addend: 0x0, symName: __ZNSt12_Vector_baseISt6vectorIiSaIiEESaIS2_EEC2EmRKS3_, symObjAddr: 0xC038, symBinAddr: 0x10000D5C4, symSize: 0x54 }
  - { offset: 0x457D0, size: 0x8, addend: 0x0, symName: __ZNSt6vectorIS_IiSaIiEESaIS1_EE17_S_check_init_lenEmRKS2_, symObjAddr: 0xBFB4, symBinAddr: 0x10000D540, symSize: 0x84 }
  - { offset: 0x4589C, size: 0x8, addend: 0x0, symName: __ZNSt6vectorIiSaIiEE18_M_fill_initializeEmRKi, symObjAddr: 0xBF5C, symBinAddr: 0x10000D4E8, symSize: 0x58 }
  - { offset: 0x4591E, size: 0x8, addend: 0x0, symName: __ZNSt12_Vector_baseIiSaIiEEC2EmRKS0_, symObjAddr: 0xBF08, symBinAddr: 0x10000D494, symSize: 0x54 }
  - { offset: 0x45952, size: 0x8, addend: 0x0, symName: __ZNSt6vectorIiSaIiEE17_S_check_init_lenEmRKS0_, symObjAddr: 0xBE84, symBinAddr: 0x10000D410, symSize: 0x84 }
  - { offset: 0x45A1E, size: 0x8, addend: 0x0, symName: __ZNKSt8_Rb_treeINSt7__cxx1112basic_stringIcSt11char_traitsIcESaIcEEES5_St9_IdentityIS5_ESt4lessIS5_ESaIS5_EE4sizeEv, symObjAddr: 0xBE6C, symBinAddr: 0x10000D3F8, symSize: 0x18 }
  - { offset: 0x45A48, size: 0x8, addend: 0x0, symName: __ZNSt8_Rb_treeINSt7__cxx1112basic_stringIcSt11char_traitsIcESaIcEEES5_St9_IdentityIS5_ESt4lessIS5_ESaIS5_EE8_M_beginEv, symObjAddr: 0xBE50, symBinAddr: 0x10000D3DC, symSize: 0x1C }
  - { offset: 0x45A72, size: 0x8, addend: 0x0, symName: __ZNSt8_Rb_treeINSt7__cxx1112basic_stringIcSt11char_traitsIcESaIcEEES5_St9_IdentityIS5_ESt4lessIS5_ESaIS5_EE8_M_eraseEPSt13_Rb_tree_nodeIS5_E, symObjAddr: 0xBDEC, symBinAddr: 0x10000D378, symSize: 0x64 }
  - { offset: 0x45AF5, size: 0x8, addend: 0x0, symName: __ZNSt15__new_allocatorISt13_Rb_tree_nodeINSt7__cxx1112basic_stringIcSt11char_traitsIcESaIcEEEEED2Ev, symObjAddr: 0xBDD8, symBinAddr: 0x10000D364, symSize: 0x14 }
  - { offset: 0x45B35, size: 0x8, addend: 0x0, symName: __ZNSt20_Rb_tree_key_compareISt4lessINSt7__cxx1112basic_stringIcSt11char_traitsIcESaIcEEEEEC2Ev, symObjAddr: 0xBDC4, symBinAddr: 0x10000D350, symSize: 0x14 }
  - { offset: 0x45BB9, size: 0x8, addend: 0x0, symName: __ZNSt4pairISt23_Rb_tree_const_iteratorINSt7__cxx1112basic_stringIcSt11char_traitsIcESaIcEEEEbEC1IRSt17_Rb_tree_iteratorIS6_ERbLb1EEEOT_OT0_, symObjAddr: 0xBD70, symBinAddr: 0x10000D2FC, symSize: 0x54 }
  - { offset: 0x45C03, size: 0x8, addend: 0x0, symName: __ZNSt8_Rb_treeINSt7__cxx1112basic_stringIcSt11char_traitsIcESaIcEEES5_St9_IdentityIS5_ESt4lessIS5_ESaIS5_EE16_M_insert_uniqueIRKS5_EESt4pairISt17_Rb_tree_iteratorIS5_EbEOT_, symObjAddr: 0xBCA4, symBinAddr: 0x10000D230, symSize: 0xCC }
  - { offset: 0x45CDE, size: 0x8, addend: 0x0, symName: __ZNSt12_Vector_baseISt6vectorIiSaIiEESaIS2_EE19_M_get_Tp_allocatorEv, symObjAddr: 0xBC90, symBinAddr: 0x10000D21C, symSize: 0x14 }
  - { offset: 0x45D08, size: 0x8, addend: 0x0, symName: __ZNSt12_Vector_baseISt6vectorIiSaIiEESaIS2_EE13_M_deallocateEPS2_m, symObjAddr: 0xBC38, symBinAddr: 0x10000D1C4, symSize: 0x58 }
  - { offset: 0x45DAE, size: 0x8, addend: 0x0, symName: __ZNSt15__new_allocatorISt6vectorIiSaIiEEED2Ev, symObjAddr: 0xBC24, symBinAddr: 0x10000D1B0, symSize: 0x14 }
  - { offset: 0x45DEE, size: 0x8, addend: 0x0, symName: __ZNSt12_Vector_baseISt6vectorIiSaIiEESaIS2_EE17_Vector_impl_dataC2Ev, symObjAddr: 0xBBF8, symBinAddr: 0x10000D184, symSize: 0x2C }
  - { offset: 0x45E14, size: 0x8, addend: 0x0, symName: __ZNSt6vectorIS_IiSaIiEESaIS1_EE17_M_realloc_appendIJRKS1_EEEvDpOT_, symObjAddr: 0xB9D0, symBinAddr: 0x10000CF5C, symSize: 0x228 }
  - { offset: 0x45F99, size: 0x8, addend: 0x0, symName: __ZZNSt6vectorIS_IiSaIiEESaIS1_EE17_M_realloc_appendIJRKS1_EEEvDpOT_EN6_GuardC1EPS1_mRS2_, symObjAddr: 0xB92C, symBinAddr: 0x10000CEB8, symSize: 0x44 }
  - { offset: 0x45FDE, size: 0x8, addend: 0x0, symName: __ZZNSt6vectorIS_IiSaIiEESaIS1_EE17_M_realloc_appendIJRKS1_EEEvDpOT_EN6_GuardD1Ev, symObjAddr: 0xB970, symBinAddr: 0x10000CEFC, symSize: 0x60 }
  - { offset: 0x46138, size: 0x8, addend: 0x0, symName: __ZNSt12_Vector_baseINSt7__cxx1112basic_stringIcSt11char_traitsIcESaIcEEESaIS5_EE17_Vector_impl_dataC2EOS8_, symObjAddr: 0xB8BC, symBinAddr: 0x10000CE48, symSize: 0x70 }
  - { offset: 0x46194, size: 0x8, addend: 0x0, symName: __ZSt4moveIRNSt12_Vector_baseINSt7__cxx1112basic_stringIcSt11char_traitsIcESaIcEEESaIS6_EE12_Vector_implEEONSt16remove_referenceIT_E4typeEOSC_, symObjAddr: 0xB8A8, symBinAddr: 0x10000CE34, symSize: 0x14 }
  - { offset: 0x46205, size: 0x8, addend: 0x0, symName: __ZNSt12_Vector_baseINSt7__cxx1112basic_stringIcSt11char_traitsIcESaIcEEESaIS5_EE19_M_get_Tp_allocatorEv, symObjAddr: 0xB894, symBinAddr: 0x10000CE20, symSize: 0x14 }
  - { offset: 0x4622F, size: 0x8, addend: 0x0, symName: __ZNSt12_Vector_baseINSt7__cxx1112basic_stringIcSt11char_traitsIcESaIcEEESaIS5_EE13_M_deallocateEPS5_m, symObjAddr: 0xB83C, symBinAddr: 0x10000CDC8, symSize: 0x58 }
  - { offset: 0x462D5, size: 0x8, addend: 0x0, symName: __ZNSt15__new_allocatorINSt7__cxx1112basic_stringIcSt11char_traitsIcESaIcEEEED2Ev, symObjAddr: 0xB828, symBinAddr: 0x10000CDB4, symSize: 0x14 }
  - { offset: 0x46315, size: 0x8, addend: 0x0, symName: __ZNSt12_Vector_baseINSt7__cxx1112basic_stringIcSt11char_traitsIcESaIcEEESaIS5_EE17_Vector_impl_dataC2Ev, symObjAddr: 0xB7FC, symBinAddr: 0x10000CD88, symSize: 0x2C }
  - { offset: 0x4633D, size: 0x8, addend: 0x0, symName: __ZSt12__str_concatINSt7__cxx1112basic_stringIcSt11char_traitsIcESaIcEEEET_PKNS6_10value_typeENS6_9size_typeES9_SA_RKNS6_14allocator_typeE, symObjAddr: 0xB71C, symBinAddr: 0x10000CCA8, symSize: 0xE0 }
  - { offset: 0x4648F, size: 0x8, addend: 0x0, symName: __ZNSt6vectorINSt7__cxx1112basic_stringIcSt11char_traitsIcESaIcEEESaIS5_EE17_M_realloc_appendIJRKS5_EEEvDpOT_, symObjAddr: 0xB520, symBinAddr: 0x10000CAAC, symSize: 0x1FC }
  - { offset: 0x46614, size: 0x8, addend: 0x0, symName: __ZZNSt6vectorINSt7__cxx1112basic_stringIcSt11char_traitsIcESaIcEEESaIS5_EE17_M_realloc_appendIJRKS5_EEEvDpOT_EN6_GuardC1EPS5_mRS6_, symObjAddr: 0xB47C, symBinAddr: 0x10000CA08, symSize: 0x44 }
  - { offset: 0x46659, size: 0x8, addend: 0x0, symName: __ZZNSt6vectorINSt7__cxx1112basic_stringIcSt11char_traitsIcESaIcEEESaIS5_EE17_M_realloc_appendIJRKS5_EEEvDpOT_EN6_GuardD1Ev, symObjAddr: 0xB4C0, symBinAddr: 0x10000CA4C, symSize: 0x60 }
  - { offset: 0x4678C, size: 0x8, addend: 0x0, symName: __ZNKSt5dequeIiSaIiEE5emptyEv, symObjAddr: 0xB44C, symBinAddr: 0x10000C9D8, symSize: 0x30 }
  - { offset: 0x467B6, size: 0x8, addend: 0x0, symName: __ZNSt5dequeIiSaIiEE9push_backERKi, symObjAddr: 0xB380, symBinAddr: 0x10000C90C, symSize: 0xCC }
  - { offset: 0x4685D, size: 0x8, addend: 0x0, symName: __ZNSt5dequeIiSaIiEE8pop_backEv, symObjAddr: 0xB2FC, symBinAddr: 0x10000C888, symSize: 0x84 }
  - { offset: 0x468E1, size: 0x8, addend: 0x0, symName: __ZNSt5dequeIiSaIiEE4backEv, symObjAddr: 0xB2C8, symBinAddr: 0x10000C854, symSize: 0x34 }
  - { offset: 0x4691C, size: 0x8, addend: 0x0, symName: __ZNSt5dequeIiSaIiEE15_M_destroy_dataESt15_Deque_iteratorIiRiPiES5_RKS0_, symObjAddr: 0xB2A8, symBinAddr: 0x10000C834, symSize: 0x20 }
  - { offset: 0x46977, size: 0x8, addend: 0x0, symName: __ZNSt11_Deque_baseIiSaIiEE19_M_get_Tp_allocatorEv, symObjAddr: 0xB294, symBinAddr: 0x10000C820, symSize: 0x14 }
  - { offset: 0x469A1, size: 0x8, addend: 0x0, symName: __ZNSt5dequeIiSaIiEE3endEv, symObjAddr: 0xB25C, symBinAddr: 0x10000C7E8, symSize: 0x38 }
  - { offset: 0x469CB, size: 0x8, addend: 0x0, symName: __ZNSt5dequeIiSaIiEE5beginEv, symObjAddr: 0xB224, symBinAddr: 0x10000C7B0, symSize: 0x38 }
  - { offset: 0x46A19, size: 0x8, addend: 0x0, symName: __ZNSt11_Deque_baseIiSaIiEED2Ev, symObjAddr: 0xB1B8, symBinAddr: 0x10000C744, symSize: 0x6C }
  - { offset: 0x46A59, size: 0x8, addend: 0x0, symName: __ZNSt11_Deque_baseIiSaIiEEC2Ev, symObjAddr: 0xB170, symBinAddr: 0x10000C6FC, symSize: 0x48 }
  - { offset: 0x46AA7, size: 0x8, addend: 0x0, symName: __ZNSt11_Deque_baseIiSaIiEE11_Deque_implD1Ev, symObjAddr: 0xB144, symBinAddr: 0x10000C6D0, symSize: 0x2C }
  - { offset: 0x46AF1, size: 0x8, addend: 0x0, symName: __ZNKSt5dequeIiSaIiEE4sizeEv, symObjAddr: 0xB114, symBinAddr: 0x10000C6A0, symSize: 0x30 }
  - { offset: 0x46B56, size: 0x8, addend: 0x0, symName: __ZNSt12_Vector_baseIiSaIiEE19_M_get_Tp_allocatorEv, symObjAddr: 0xB100, symBinAddr: 0x10000C68C, symSize: 0x14 }
  - { offset: 0x46B80, size: 0x8, addend: 0x0, symName: __ZNSt12_Vector_baseIiSaIiEE13_M_deallocateEPim, symObjAddr: 0xB0A8, symBinAddr: 0x10000C634, symSize: 0x58 }
  - { offset: 0x46C26, size: 0x8, addend: 0x0, symName: __ZNSt15__new_allocatorIiED2Ev, symObjAddr: 0xB094, symBinAddr: 0x10000C620, symSize: 0x14 }
  - { offset: 0x46C66, size: 0x8, addend: 0x0, symName: __ZNSt12_Vector_baseIiSaIiEE17_Vector_impl_dataC2Ev, symObjAddr: 0xB068, symBinAddr: 0x10000C5F4, symSize: 0x2C }
  - { offset: 0x46CB9, size: 0x8, addend: 0x0, symName: __ZNSt6vectorIiSaIiEE17_M_realloc_appendIJRKiEEEvDpOT_, symObjAddr: 0xAEAC, symBinAddr: 0x10000C438, symSize: 0x1BC }
  - { offset: 0x46E3E, size: 0x8, addend: 0x0, symName: __ZZNSt6vectorIiSaIiEE17_M_realloc_appendIJRKiEEEvDpOT_EN6_GuardC1EPimRS0_, symObjAddr: 0xAE08, symBinAddr: 0x10000C394, symSize: 0x44 }
  - { offset: 0x46E83, size: 0x8, addend: 0x0, symName: __ZZNSt6vectorIiSaIiEE17_M_realloc_appendIJRKiEEEvDpOT_EN6_GuardD1Ev, symObjAddr: 0xAE4C, symBinAddr: 0x10000C3D8, symSize: 0x60 }
  - { offset: 0x46FBA, size: 0x8, addend: 0x0, symName: __ZNK9__gnu_cxx17__normal_iteratorIPiSt6vectorIiSaIiEEE4baseEv, symObjAddr: 0xADF4, symBinAddr: 0x10000C380, symSize: 0x14 }
  - { offset: 0x4700C, size: 0x8, addend: 0x0, symName: __ZN9__gnu_cxx17__normal_iteratorIPiSt6vectorIiSaIiEEEC1ERKS1_, symObjAddr: 0xADCC, symBinAddr: 0x10000C358, symSize: 0x28 }
  - { offset: 0x47053, size: 0x8, addend: 0x0, symName: __ZSt7forwardIbEOT_RNSt16remove_referenceIS0_E4typeE, symObjAddr: 0xADB8, symBinAddr: 0x10000C344, symSize: 0x14 }
  - { offset: 0x47089, size: 0x8, addend: 0x0, symName: __ZNSt7__cxx1112basic_stringIcSt11char_traitsIcESaIcEE12_M_constructIPKcEEvT_S8_St20forward_iterator_tag, symObjAddr: 0xACB8, symBinAddr: 0x10000C244, symSize: 0x100 }
  - { offset: 0x47192, size: 0x8, addend: 0x0, symName: __ZZNSt7__cxx1112basic_stringIcSt11char_traitsIcESaIcEE12_M_constructIPKcEEvT_S8_St20forward_iterator_tagEN6_GuardC1EPS4_, symObjAddr: 0xAC60, symBinAddr: 0x10000C1EC, symSize: 0x24 }
  - { offset: 0x471C5, size: 0x8, addend: 0x0, symName: __ZZNSt7__cxx1112basic_stringIcSt11char_traitsIcESaIcEE12_M_constructIPKcEEvT_S8_St20forward_iterator_tagEN6_GuardD1Ev, symObjAddr: 0xAC84, symBinAddr: 0x10000C210, symSize: 0x34 }
  - { offset: 0x472C5, size: 0x8, addend: 0x0, symName: __ZNSt15__new_allocatorIcED2Ev, symObjAddr: 0xAC4C, symBinAddr: 0x10000C1D8, symSize: 0x14 }
  - { offset: 0x47329, size: 0x8, addend: 0x0, symName: __ZN9__gnu_cxx11char_traitsIcE2eqERKcS3_, symObjAddr: 0xAC1C, symBinAddr: 0x10000C1A8, symSize: 0x30 }
  - { offset: 0x47366, size: 0x8, addend: 0x0, symName: __ZNK9__gnu_cxx17__normal_iteratorIPcSt6vectorIcSaIcEEEdeEv, symObjAddr: 0xAC04, symBinAddr: 0x10000C190, symSize: 0x18 }
  - { offset: 0x47390, size: 0x8, addend: 0x0, symName: __ZN9__gnu_cxx17__normal_iteratorIPcSt6vectorIcSaIcEEEppEv, symObjAddr: 0xABDC, symBinAddr: 0x10000C168, symSize: 0x28 }
  - { offset: 0x473BD, size: 0x8, addend: 0x0, symName: __ZN9__gnu_cxxneIPcSt6vectorIcSaIcEEEEbRKNS_17__normal_iteratorIT_T0_EESA_, symObjAddr: 0xAB98, symBinAddr: 0x10000C124, symSize: 0x44 }
  - { offset: 0x4740E, size: 0x8, addend: 0x0, symName: __ZNSt6vectorIcSaIcEE3endEv, symObjAddr: 0xAB70, symBinAddr: 0x10000C0FC, symSize: 0x28 }
  - { offset: 0x47438, size: 0x8, addend: 0x0, symName: __ZNSt6vectorIcSaIcEE5beginEv, symObjAddr: 0xAB4C, symBinAddr: 0x10000C0D8, symSize: 0x24 }
  - { offset: 0x47462, size: 0x8, addend: 0x0, symName: __ZNK9__gnu_cxx17__normal_iteratorIPSt6vectorIcSaIcEES1_IS3_SaIS3_EEEdeEv, symObjAddr: 0xAB34, symBinAddr: 0x10000C0C0, symSize: 0x18 }
  - { offset: 0x4748C, size: 0x8, addend: 0x0, symName: __ZN9__gnu_cxx17__normal_iteratorIPSt6vectorIcSaIcEES1_IS3_SaIS3_EEEppEv, symObjAddr: 0xAB0C, symBinAddr: 0x10000C098, symSize: 0x28 }
  - { offset: 0x474B9, size: 0x8, addend: 0x0, symName: __ZN9__gnu_cxxneIPSt6vectorIcSaIcEES1_IS3_SaIS3_EEEEbRKNS_17__normal_iteratorIT_T0_EESC_, symObjAddr: 0xAAC8, symBinAddr: 0x10000C054, symSize: 0x44 }
  - { offset: 0x4750A, size: 0x8, addend: 0x0, symName: __ZNSt6vectorIS_IcSaIcEESaIS1_EE3endEv, symObjAddr: 0xAAA0, symBinAddr: 0x10000C02C, symSize: 0x28 }
  - { offset: 0x47534, size: 0x8, addend: 0x0, symName: __ZNSt6vectorIS_IcSaIcEESaIS1_EE5beginEv, symObjAddr: 0xAA7C, symBinAddr: 0x10000C008, symSize: 0x24 }
  - { offset: 0x47582, size: 0x8, addend: 0x0, symName: __ZNSt6vectorIS_IcSaIcEESaIS1_EED1Ev, symObjAddr: 0xAA20, symBinAddr: 0x10000BFAC, symSize: 0x5C }
  - { offset: 0x47614, size: 0x8, addend: 0x0, symName: __ZNSt6vectorIS_IcSaIcEESaIS1_EEC1ESt16initializer_listIS1_ERKS2_, symObjAddr: 0xA9B0, symBinAddr: 0x10000BF3C, symSize: 0x70 }
  - { offset: 0x476A6, size: 0x8, addend: 0x0, symName: __ZNSt6vectorIcSaIcEED1Ev, symObjAddr: 0xA954, symBinAddr: 0x10000BEE0, symSize: 0x5C }
  - { offset: 0x47738, size: 0x8, addend: 0x0, symName: __ZNSt6vectorIcSaIcEEC1ESt16initializer_listIcERKS0_, symObjAddr: 0xA8E4, symBinAddr: 0x10000BE70, symSize: 0x70 }
  - { offset: 0x47770, size: 0x8, addend: 0x0, symName: __ZNSt13unordered_mapIcNSt7__cxx1112basic_stringIcSt11char_traitsIcESaIcEEESt4hashIcESt8equal_toIcESaISt4pairIKcS5_EEEixERSB_, symObjAddr: 0xA8C0, symBinAddr: 0x10000BE4C, symSize: 0x24 }
  - { offset: 0x477AB, size: 0x8, addend: 0x0, symName: __ZNK9__gnu_cxx17__normal_iteratorIPcNSt7__cxx1112basic_stringIcSt11char_traitsIcESaIcEEEEdeEv, symObjAddr: 0xA8A8, symBinAddr: 0x10000BE34, symSize: 0x18 }
  - { offset: 0x477D5, size: 0x8, addend: 0x0, symName: __ZN9__gnu_cxx17__normal_iteratorIPcNSt7__cxx1112basic_stringIcSt11char_traitsIcESaIcEEEEppEv, symObjAddr: 0xA880, symBinAddr: 0x10000BE0C, symSize: 0x28 }
  - { offset: 0x47802, size: 0x8, addend: 0x0, symName: __ZN9__gnu_cxxneIPcNSt7__cxx1112basic_stringIcSt11char_traitsIcESaIcEEEEEbRKNS_17__normal_iteratorIT_T0_EESD_, symObjAddr: 0xA83C, symBinAddr: 0x10000BDC8, symSize: 0x44 }
  - { offset: 0x47853, size: 0x8, addend: 0x0, symName: __ZNSt13unordered_mapIcNSt7__cxx1112basic_stringIcSt11char_traitsIcESaIcEEESt4hashIcESt8equal_toIcESaISt4pairIKcS5_EEEixEOc, symObjAddr: 0xA804, symBinAddr: 0x10000BD90, symSize: 0x38 }
  - { offset: 0x478B2, size: 0x8, addend: 0x0, symName: __ZNSt10_HashtableIcSt4pairIKcNSt7__cxx1112basic_stringIcSt11char_traitsIcESaIcEEEESaIS8_ENSt8__detail10_Select1stESt8equal_toIcESt4hashIcENSA_18_Mod_range_hashingENSA_20_Default_ranged_hashENSA_20_Prime_rehash_policyENSA_17_Hashtable_traitsILb0ELb0ELb1EEEED1Ev, symObjAddr: 0xA7D4, symBinAddr: 0x10000BD60, symSize: 0x30 }
  - { offset: 0x47912, size: 0x8, addend: 0x0, symName: __ZNSt8__detail21_Hashtable_ebo_helperILi0ESaINS_10_Hash_nodeISt4pairIKcNSt7__cxx1112basic_stringIcSt11char_traitsIcESaIcEEEELb0EEEELb1EEC2Ev, symObjAddr: 0xA7A8, symBinAddr: 0x10000BD34, symSize: 0x2C }
  - { offset: 0x479A7, size: 0x8, addend: 0x0, symName: __ZNSt6vectorINSt7__cxx1112basic_stringIcSt11char_traitsIcESaIcEEESaIS5_EEC1ERKS7_, symObjAddr: 0xA694, symBinAddr: 0x10000BC20, symSize: 0x114 }
  - { offset: 0x47AF0, size: 0x8, addend: 0x0, symName: __ZNSt6vectorIiSaIiEEC1EmRKS0_, symObjAddr: 0xA62C, symBinAddr: 0x10000BBB8, symSize: 0x68 }
  - { offset: 0x47B28, size: 0x8, addend: 0x0, symName: __ZNSt6vectorIiSaIiEEaSERKS1_, symObjAddr: 0xA2E4, symBinAddr: 0x10000B870, symSize: 0x348 }
  - { offset: 0x47CAC, size: 0x8, addend: 0x0, symName: __ZSt11__addressofIKSt6vectorIiSaIiEEEPT_RS4_, symObjAddr: 0xA2D0, symBinAddr: 0x10000B85C, symSize: 0x14 }
  - { offset: 0x47D0A, size: 0x8, addend: 0x0, symName: __ZNSt5queueIiSt5dequeIiSaIiEEEC1IS2_vEEv, symObjAddr: 0xA294, symBinAddr: 0x10000B820, symSize: 0x3C }
  - { offset: 0x47D3E, size: 0x8, addend: 0x0, symName: __ZNSt5queueIiSt5dequeIiSaIiEEE3popEv, symObjAddr: 0xA274, symBinAddr: 0x10000B800, symSize: 0x20 }
  - { offset: 0x47D68, size: 0x8, addend: 0x0, symName: __ZNSt5queueIiSt5dequeIiSaIiEEE5frontEv, symObjAddr: 0xA258, symBinAddr: 0x10000B7E4, symSize: 0x1C }
  - { offset: 0x47D92, size: 0x8, addend: 0x0, symName: __ZNSt5queueIiSt5dequeIiSaIiEEE4pushERKi, symObjAddr: 0xA230, symBinAddr: 0x10000B7BC, symSize: 0x28 }
  - { offset: 0x47DF5, size: 0x8, addend: 0x0, symName: __ZNSt5dequeIiSaIiEEC1ERKS1_, symObjAddr: 0xA114, symBinAddr: 0x10000B6A0, symSize: 0x11C }
  - { offset: 0x47F08, size: 0x8, addend: 0x0, symName: __ZNSt6vectorIS_IcSaIcEESaIS1_EEixEm, symObjAddr: 0xA0E0, symBinAddr: 0x10000B66C, symSize: 0x34 }
  - { offset: 0x47F43, size: 0x8, addend: 0x0, symName: __ZNKSt6vectorINSt7__cxx1112basic_stringIcSt11char_traitsIcESaIcEEESaIS5_EE4sizeEv, symObjAddr: 0xA0B8, symBinAddr: 0x10000B644, symSize: 0x28 }
  - { offset: 0x47F94, size: 0x8, addend: 0x0, symName: __ZNSt12_Vector_baseISt6vectorINSt7__cxx1112basic_stringIcSt11char_traitsIcESaIcEEESaIS6_EESaIS8_EE12_Vector_implC1EOSB_, symObjAddr: 0xA04C, symBinAddr: 0x10000B5D8, symSize: 0x6C }
  - { offset: 0x4805F, size: 0x8, addend: 0x0, symName: __ZNSt7__cxx1112basic_stringIcSt11char_traitsIcESaIcEEC1IS3_EEmcRKS3_, symObjAddr: 0x9FD8, symBinAddr: 0x10000B564, symSize: 0x74 }
  - { offset: 0x480D6, size: 0x8, addend: 0x0, symName: __ZNSt6vectorINSt7__cxx1112basic_stringIcSt11char_traitsIcESaIcEEESaIS5_EEC1EmRKS6_, symObjAddr: 0x9F70, symBinAddr: 0x10000B4FC, symSize: 0x68 }
  - { offset: 0x48148, size: 0x8, addend: 0x0, symName: __ZNSt6vectorIS_INSt7__cxx1112basic_stringIcSt11char_traitsIcESaIcEEESaIS5_EESaIS7_EED1Ev, symObjAddr: 0x9F14, symBinAddr: 0x10000B4A0, symSize: 0x5C }
  - { offset: 0x481C8, size: 0x8, addend: 0x0, symName: __ZNSt12_Vector_baseISt6vectorINSt7__cxx1112basic_stringIcSt11char_traitsIcESaIcEEESaIS6_EESaIS8_EED2Ev, symObjAddr: 0x9EB8, symBinAddr: 0x10000B444, symSize: 0x5C }
  - { offset: 0x48228, size: 0x8, addend: 0x0, symName: __ZNSt12_Vector_baseISt6vectorINSt7__cxx1112basic_stringIcSt11char_traitsIcESaIcEEESaIS6_EESaIS8_EE12_Vector_implC1Ev, symObjAddr: 0x9E80, symBinAddr: 0x10000B40C, symSize: 0x38 }
  - { offset: 0x48294, size: 0x8, addend: 0x0, symName: __ZNSt6vectorIS_INSt7__cxx1112basic_stringIcSt11char_traitsIcESaIcEEESaIS5_EESaIS7_EE9push_backERKS7_, symObjAddr: 0x9D84, symBinAddr: 0x10000B310, symSize: 0xFC }
  - { offset: 0x48333, size: 0x8, addend: 0x0, symName: __ZNSt6vectorINSt7__cxx1112basic_stringIcSt11char_traitsIcESaIcEEESaIS5_EEixEm, symObjAddr: 0x9D5C, symBinAddr: 0x10000B2E8, symSize: 0x28 }
  - { offset: 0x4836E, size: 0x8, addend: 0x0, symName: __ZNSt6vectorIcSaIcEEaSESt16initializer_listIcE, symObjAddr: 0x9D10, symBinAddr: 0x10000B29C, symSize: 0x4C }
  - { offset: 0x483A9, size: 0x8, addend: 0x0, symName: __ZNSt13unordered_mapIcSt6vectorIcSaIcEESt4hashIcESt8equal_toIcESaISt4pairIKcS2_EEEixEOc, symObjAddr: 0x9CD8, symBinAddr: 0x10000B264, symSize: 0x38 }
  - { offset: 0x48408, size: 0x8, addend: 0x0, symName: __ZNSt10_HashtableIcSt4pairIKcSt6vectorIcSaIcEEESaIS5_ENSt8__detail10_Select1stESt8equal_toIcESt4hashIcENS7_18_Mod_range_hashingENS7_20_Default_ranged_hashENS7_20_Prime_rehash_policyENS7_17_Hashtable_traitsILb0ELb0ELb1EEEED1Ev, symObjAddr: 0x9CA8, symBinAddr: 0x10000B234, symSize: 0x30 }
  - { offset: 0x48468, size: 0x8, addend: 0x0, symName: __ZNSt8__detail21_Hashtable_ebo_helperILi0ESaINS_10_Hash_nodeISt4pairIKcSt6vectorIcSaIcEEELb0EEEELb1EEC2Ev, symObjAddr: 0x9C7C, symBinAddr: 0x10000B208, symSize: 0x2C }
  - { offset: 0x484EF, size: 0x8, addend: 0x0, symName: __ZNSt8__detail21_Hashtable_ebo_helperILi0ESt8equal_toIcELb1EEC2Ev, symObjAddr: 0x9C68, symBinAddr: 0x10000B1F4, symSize: 0x14 }
  - { offset: 0x4852F, size: 0x8, addend: 0x0, symName: __ZNSt8__detail21_Hashtable_ebo_helperILi1ESt4hashIcELb1EEC2Ev, symObjAddr: 0x9C54, symBinAddr: 0x10000B1E0, symSize: 0x14 }
  - { offset: 0x48555, size: 0x8, addend: 0x0, symName: __ZNSt6vectorIcSaIcEEixEm, symObjAddr: 0x9C30, symBinAddr: 0x10000B1BC, symSize: 0x24 }
  - { offset: 0x48590, size: 0x8, addend: 0x0, symName: __ZNKSt6vectorIcSaIcEE4sizeEv, symObjAddr: 0x9C0C, symBinAddr: 0x10000B198, symSize: 0x24 }
  - { offset: 0x485BA, size: 0x8, addend: 0x0, symName: __ZNSt13unordered_mapIcSt6vectorIcSaIcEESt4hashIcESt8equal_toIcESaISt4pairIKcS2_EEEixERS8_, symObjAddr: 0x9BE8, symBinAddr: 0x10000B174, symSize: 0x24 }
  - { offset: 0x4861C, size: 0x8, addend: 0x0, symName: __ZNSt12_Vector_baseIiSaIiEE12_Vector_implC1EOS2_, symObjAddr: 0x9B7C, symBinAddr: 0x10000B108, symSize: 0x6C }
  - { offset: 0x486F0, size: 0x8, addend: 0x0, symName: __ZNSt6vectorIS_IiSaIiEESaIS1_EEC1ISt23_Rb_tree_const_iteratorIS1_EvEET_S7_RKS2_, symObjAddr: 0x9B18, symBinAddr: 0x10000B0A4, symSize: 0x64 }
  - { offset: 0x4875B, size: 0x8, addend: 0x0, symName: __ZNKSt3setISt6vectorIiSaIiEESt4lessIS2_ESaIS2_EE3endEv, symObjAddr: 0x9AFC, symBinAddr: 0x10000B088, symSize: 0x1C }
  - { offset: 0x48785, size: 0x8, addend: 0x0, symName: __ZNKSt3setISt6vectorIiSaIiEESt4lessIS2_ESaIS2_EE5beginEv, symObjAddr: 0x9AE0, symBinAddr: 0x10000B06C, symSize: 0x1C }
  - { offset: 0x487D3, size: 0x8, addend: 0x0, symName: __ZNSt8_Rb_treeISt6vectorIiSaIiEES2_St9_IdentityIS2_ESt4lessIS2_ESaIS2_EED1Ev, symObjAddr: 0x9AAC, symBinAddr: 0x10000B038, symSize: 0x34 }
  - { offset: 0x48833, size: 0x8, addend: 0x0, symName: __ZNSt8_Rb_treeISt6vectorIiSaIiEES2_St9_IdentityIS2_ESt4lessIS2_ESaIS2_EE13_Rb_tree_implIS6_Lb1EEC1Ev, symObjAddr: 0x9A68, symBinAddr: 0x10000AFF4, symSize: 0x44 }
  - { offset: 0x488A0, size: 0x8, addend: 0x0, symName: __ZNSt3setISt6vectorIiSaIiEESt4lessIS2_ESaIS2_EE6insertERKS2_, symObjAddr: 0x9A28, symBinAddr: 0x10000AFB4, symSize: 0x40 }
  - { offset: 0x488E8, size: 0x8, addend: 0x0, symName: __ZSt4sortIN9__gnu_cxx17__normal_iteratorIPiSt6vectorIiSaIiEEEEEvT_S7_, symObjAddr: 0x99F0, symBinAddr: 0x10000AF7C, symSize: 0x38 }
  - { offset: 0x4897D, size: 0x8, addend: 0x0, symName: __ZNSt6vectorIiSaIiEEC1IN9__gnu_cxx17__normal_iteratorIPiS1_EEvEET_S7_RKS0_, symObjAddr: 0x998C, symBinAddr: 0x10000AF18, symSize: 0x64 }
  - { offset: 0x48A2C, size: 0x8, addend: 0x0, symName: __ZNSt6vectorIS_IiSaIiEESaIS1_EEC1EmRKS1_RKS2_, symObjAddr: 0x991C, symBinAddr: 0x10000AEA8, symSize: 0x70 }
  - { offset: 0x48AC7, size: 0x8, addend: 0x0, symName: __ZNSt6vectorIiSaIiEEC1EmRKiRKS0_, symObjAddr: 0x98AC, symBinAddr: 0x10000AE38, symSize: 0x70 }
  - { offset: 0x48B1E, size: 0x8, addend: 0x0, symName: __ZNSt6vectorIS_IiSaIiEESaIS1_EEixEm, symObjAddr: 0x9878, symBinAddr: 0x10000AE04, symSize: 0x34 }
  - { offset: 0x48B59, size: 0x8, addend: 0x0, symName: __ZNKSt3setINSt7__cxx1112basic_stringIcSt11char_traitsIcESaIcEEESt4lessIS5_ESaIS5_EE4sizeEv, symObjAddr: 0x985C, symBinAddr: 0x10000ADE8, symSize: 0x1C }
  - { offset: 0x48BA7, size: 0x8, addend: 0x0, symName: __ZNSt8_Rb_treeINSt7__cxx1112basic_stringIcSt11char_traitsIcESaIcEEES5_St9_IdentityIS5_ESt4lessIS5_ESaIS5_EED1Ev, symObjAddr: 0x9828, symBinAddr: 0x10000ADB4, symSize: 0x34 }
  - { offset: 0x48C07, size: 0x8, addend: 0x0, symName: __ZNSt8_Rb_treeINSt7__cxx1112basic_stringIcSt11char_traitsIcESaIcEEES5_St9_IdentityIS5_ESt4lessIS5_ESaIS5_EE13_Rb_tree_implIS9_Lb1EEC1Ev, symObjAddr: 0x97E4, symBinAddr: 0x10000AD70, symSize: 0x44 }
  - { offset: 0x48C74, size: 0x8, addend: 0x0, symName: __ZNSt3setINSt7__cxx1112basic_stringIcSt11char_traitsIcESaIcEEESt4lessIS5_ESaIS5_EE6insertERKS5_, symObjAddr: 0x97A4, symBinAddr: 0x10000AD30, symSize: 0x40 }
  - { offset: 0x48CE4, size: 0x8, addend: 0x0, symName: __ZNSt6vectorIS_IiSaIiEESaIS1_EED1Ev, symObjAddr: 0x9748, symBinAddr: 0x10000ACD4, symSize: 0x5C }
  - { offset: 0x48D64, size: 0x8, addend: 0x0, symName: __ZNSt12_Vector_baseISt6vectorIiSaIiEESaIS2_EED2Ev, symObjAddr: 0x96EC, symBinAddr: 0x10000AC78, symSize: 0x5C }
  - { offset: 0x48DC4, size: 0x8, addend: 0x0, symName: __ZNSt12_Vector_baseISt6vectorIiSaIiEESaIS2_EE12_Vector_implC1Ev, symObjAddr: 0x96B4, symBinAddr: 0x10000AC40, symSize: 0x38 }
  - { offset: 0x48E30, size: 0x8, addend: 0x0, symName: __ZNSt6vectorIS_IiSaIiEESaIS1_EE9push_backERKS1_, symObjAddr: 0x95B8, symBinAddr: 0x10000AB44, symSize: 0xFC }
  - { offset: 0x48EF6, size: 0x8, addend: 0x0, symName: __ZNSt12_Vector_baseINSt7__cxx1112basic_stringIcSt11char_traitsIcESaIcEEESaIS5_EE12_Vector_implC1EOS8_, symObjAddr: 0x954C, symBinAddr: 0x10000AAD8, symSize: 0x6C }
  - { offset: 0x48FA1, size: 0x8, addend: 0x0, symName: __ZNSt6vectorINSt7__cxx1112basic_stringIcSt11char_traitsIcESaIcEEESaIS5_EED1Ev, symObjAddr: 0x94F0, symBinAddr: 0x10000AA7C, symSize: 0x5C }
  - { offset: 0x49021, size: 0x8, addend: 0x0, symName: __ZNSt12_Vector_baseINSt7__cxx1112basic_stringIcSt11char_traitsIcESaIcEEESaIS5_EED2Ev, symObjAddr: 0x94A0, symBinAddr: 0x10000AA2C, symSize: 0x50 }
  - { offset: 0x49081, size: 0x8, addend: 0x0, symName: __ZNSt12_Vector_baseINSt7__cxx1112basic_stringIcSt11char_traitsIcESaIcEEESaIS5_EE12_Vector_implC1Ev, symObjAddr: 0x9468, symBinAddr: 0x10000A9F4, symSize: 0x38 }
  - { offset: 0x490E9, size: 0x8, addend: 0x0, symName: __ZStplIcSt11char_traitsIcESaIcEENSt7__cxx1112basic_stringIT_T0_T1_EERKS8_PKS5_, symObjAddr: 0x93B8, symBinAddr: 0x10000A944, symSize: 0xB0 }
  - { offset: 0x49185, size: 0x8, addend: 0x0, symName: __ZNSt6vectorINSt7__cxx1112basic_stringIcSt11char_traitsIcESaIcEEESaIS5_EE9push_backERKS5_, symObjAddr: 0x92BC, symBinAddr: 0x10000A848, symSize: 0xFC }
  - { offset: 0x49224, size: 0x8, addend: 0x0, symName: __ZNKSt5stackIiSt5dequeIiSaIiEEE5emptyEv, symObjAddr: 0x92A0, symBinAddr: 0x10000A82C, symSize: 0x1C }
  - { offset: 0x4924E, size: 0x8, addend: 0x0, symName: __ZNSt5stackIiSt5dequeIiSaIiEEE4pushERKi, symObjAddr: 0x9278, symBinAddr: 0x10000A804, symSize: 0x28 }
  - { offset: 0x49289, size: 0x8, addend: 0x0, symName: __ZNSt5stackIiSt5dequeIiSaIiEEE3popEv, symObjAddr: 0x9258, symBinAddr: 0x10000A7E4, symSize: 0x20 }
  - { offset: 0x492B3, size: 0x8, addend: 0x0, symName: __ZNSt5stackIiSt5dequeIiSaIiEEE3topEv, symObjAddr: 0x923C, symBinAddr: 0x10000A7C8, symSize: 0x1C }
  - { offset: 0x49301, size: 0x8, addend: 0x0, symName: __ZNSt5dequeIiSaIiEED1Ev, symObjAddr: 0x91D4, symBinAddr: 0x10000A760, symSize: 0x68 }
  - { offset: 0x49350, size: 0x8, addend: 0x0, symName: __ZNSt5stackIiSt5dequeIiSaIiEEEC1IS2_vEEv, symObjAddr: 0x9198, symBinAddr: 0x10000A724, symSize: 0x3C }
  - { offset: 0x4939E, size: 0x8, addend: 0x0, symName: __ZNSt5dequeIiSaIiEEC1Ev, symObjAddr: 0x9178, symBinAddr: 0x10000A704, symSize: 0x20 }
  - { offset: 0x493C4, size: 0x8, addend: 0x0, symName: __ZNKSt5stackIiSt5dequeIiSaIiEEE4sizeEv, symObjAddr: 0x915C, symBinAddr: 0x10000A6E8, symSize: 0x1C }
  - { offset: 0x49412, size: 0x8, addend: 0x0, symName: __ZNSt6vectorIiSaIiEED1Ev, symObjAddr: 0x9100, symBinAddr: 0x10000A68C, symSize: 0x5C }
  - { offset: 0x49492, size: 0x8, addend: 0x0, symName: __ZNSt12_Vector_baseIiSaIiEED2Ev, symObjAddr: 0x90B0, symBinAddr: 0x10000A63C, symSize: 0x50 }
  - { offset: 0x494F2, size: 0x8, addend: 0x0, symName: __ZNSt12_Vector_baseIiSaIiEE12_Vector_implC1Ev, symObjAddr: 0x9078, symBinAddr: 0x10000A604, symSize: 0x38 }
  - { offset: 0x4955E, size: 0x8, addend: 0x0, symName: __ZNSt6vectorIiSaIiEE8pop_backEv, symObjAddr: 0x9024, symBinAddr: 0x10000A5B0, symSize: 0x54 }
  - { offset: 0x495E2, size: 0x8, addend: 0x0, symName: __ZNSt6vectorIiSaIiEE9push_backERKi, symObjAddr: 0x8F5C, symBinAddr: 0x10000A4E8, symSize: 0xC8 }
  - { offset: 0x49689, size: 0x8, addend: 0x0, symName: __ZNK9__gnu_cxx17__normal_iteratorIPiSt6vectorIiSaIiEEEdeEv, symObjAddr: 0x8F44, symBinAddr: 0x10000A4D0, symSize: 0x18 }
  - { offset: 0x496B3, size: 0x8, addend: 0x0, symName: __ZN9__gnu_cxx17__normal_iteratorIPiSt6vectorIiSaIiEEEppEv, symObjAddr: 0x8F1C, symBinAddr: 0x10000A4A8, symSize: 0x28 }
  - { offset: 0x496D9, size: 0x8, addend: 0x0, symName: __ZN9__gnu_cxxneIPiSt6vectorIiSaIiEEEEbRKNS_17__normal_iteratorIT_T0_EESA_, symObjAddr: 0x8ED8, symBinAddr: 0x10000A464, symSize: 0x44 }
  - { offset: 0x4972A, size: 0x8, addend: 0x0, symName: __ZNSt6vectorIiSaIiEE3endEv, symObjAddr: 0x8EB0, symBinAddr: 0x10000A43C, symSize: 0x28 }
  - { offset: 0x49754, size: 0x8, addend: 0x0, symName: __ZNSt6vectorIiSaIiEE5beginEv, symObjAddr: 0x8E8C, symBinAddr: 0x10000A418, symSize: 0x24 }
  - { offset: 0x4977E, size: 0x8, addend: 0x0, symName: __ZNKSt6vectorIiSaIiEE4sizeEv, symObjAddr: 0x8E64, symBinAddr: 0x10000A3F0, symSize: 0x28 }
  - { offset: 0x497A4, size: 0x8, addend: 0x0, symName: __ZSt4swapIiENSt9enable_ifIXsrSt6__and_IJSt6__not_ISt15__is_tuple_likeIT_EESt21is_move_constructibleIS4_ESt18is_move_assignableIS4_EEE5valueEvE4typeERS4_SE_, symObjAddr: 0x8E10, symBinAddr: 0x10000A39C, symSize: 0x54 }
  - { offset: 0x497FD, size: 0x8, addend: 0x0, symName: __ZSt4moveIRiEONSt16remove_referenceIT_E4typeEOS2_, symObjAddr: 0x8DFC, symBinAddr: 0x10000A388, symSize: 0x14 }
  - { offset: 0x49833, size: 0x8, addend: 0x0, symName: __ZNSt6vectorIiSaIiEEixEm, symObjAddr: 0x8DD4, symBinAddr: 0x10000A360, symSize: 0x28 }
  - { offset: 0x4986A, size: 0x8, addend: 0x0, symName: __ZSt11__addressofINSt7__cxx1112basic_stringIcSt11char_traitsIcESaIcEEEEPT_RS6_, symObjAddr: 0x8DC0, symBinAddr: 0x10000A34C, symSize: 0x14 }
  - { offset: 0x498A3, size: 0x8, addend: 0x0, symName: __ZSt4moveIRNSt7__cxx1112basic_stringIcSt11char_traitsIcESaIcEEEEONSt16remove_referenceIT_E4typeEOS8_, symObjAddr: 0x8DAC, symBinAddr: 0x10000A338, symSize: 0x14 }
  - { offset: 0x49920, size: 0x8, addend: 0x0, symName: __ZNSt7__cxx1112basic_stringIcSt11char_traitsIcESaIcEEC1IS3_EEPKcRKS3_, symObjAddr: 0x8D10, symBinAddr: 0x10000A29C, symSize: 0x9C }
  - { offset: 0x49981, size: 0x8, addend: 0x0, symName: __ZSt3maxImERKT_S2_S2_, symObjAddr: 0x8CD8, symBinAddr: 0x10000A264, symSize: 0x38 }
  - { offset: 0x49A26, size: 0x8, addend: 0x0, symName: __ZNSt7__cxx1112basic_stringIcSt11char_traitsIcESaIcEE12_Alloc_hiderD1Ev, symObjAddr: 0x8CAC, symBinAddr: 0x10000A238, symSize: 0x2C }
  - { offset: 0x49A6B, size: 0x8, addend: 0x0, symName: __ZN9__gnu_cxx11char_traitsIcE6lengthEPKc, symObjAddr: 0x8C54, symBinAddr: 0x10000A1E0, symSize: 0x58 }
  - { offset: 0x49AAC, size: 0x8, addend: 0x0, symName: _main, symObjAddr: 0x8704, symBinAddr: 0x100009C90, symSize: 0x550 }
  - { offset: 0x49D95, size: 0x8, addend: 0x0, symName: __Z19solveSudokuRevisionRSt6vectorIS_IcSaIcEESaIS1_EEi, symObjAddr: 0x8570, symBinAddr: 0x100009AFC, symSize: 0x194 }
  - { offset: 0x49E48, size: 0x8, addend: 0x0, symName: __Z19isValidDataRevisioniiRSt6vectorIS_IcSaIcEESaIS1_EEc, symObjAddr: 0x8374, symBinAddr: 0x100009900, symSize: 0x1FC }
  - { offset: 0x49F1B, size: 0x8, addend: 0x0, symName: __Z21isValidMatrixRevisioniiRSt6vectorIS_IcSaIcEESaIS1_EEc, symObjAddr: 0x82A8, symBinAddr: 0x100009834, symSize: 0xCC }
  - { offset: 0x49FCC, size: 0x8, addend: 0x0, symName: __Z20solveNQueensRevisionB5cxx11i, symObjAddr: 0x80A0, symBinAddr: 0x10000962C, symSize: 0x208 }
  - { offset: 0x4A20F, size: 0x8, addend: 0x0, symName: __Z12solveNQueensRiRSt6vectorIS0_INSt7__cxx1112basic_stringIcSt11char_traitsIcESaIcEEESaIS6_EESaIS8_EERS8_iRS0_IiSaIiEESF_, symObjAddr: 0x7F30, symBinAddr: 0x1000094BC, symSize: 0x170 }
  - { offset: 0x4A2BE, size: 0x8, addend: 0x0, symName: __Z15isValidPositioniiRSt6vectorIiSaIiEES2_RS_INSt7__cxx1112basic_stringIcSt11char_traitsIcESaIcEEESaIS8_EERi, symObjAddr: 0x7D7C, symBinAddr: 0x100009308, symSize: 0x1B4 }
  - { offset: 0x4A3B3, size: 0x8, addend: 0x0, symName: __Z26letterCombinationsRevisionNSt7__cxx1112basic_stringIcSt11char_traitsIcESaIcEEE, symObjAddr: 0x7A88, symBinAddr: 0x100009014, symSize: 0x2F4 }
  - { offset: 0x4A4A0, size: 0x8, addend: 0x0, symName: __ZNSt13unordered_mapIcNSt7__cxx1112basic_stringIcSt11char_traitsIcESaIcEEESt4hashIcESt8equal_toIcESaISt4pairIKcS5_EEED1Ev, symObjAddr: 0x7A68, symBinAddr: 0x100008FF4, symSize: 0x20 }
  - { offset: 0x4A4E0, size: 0x8, addend: 0x0, symName: __ZNSt13unordered_mapIcNSt7__cxx1112basic_stringIcSt11char_traitsIcESaIcEEESt4hashIcESt8equal_toIcESaISt4pairIKcS5_EEEC1Ev, symObjAddr: 0x7A48, symBinAddr: 0x100008FD4, symSize: 0x20 }
  - { offset: 0x4A520, size: 0x8, addend: 0x0, symName: __ZNSt10_HashtableIcSt4pairIKcNSt7__cxx1112basic_stringIcSt11char_traitsIcESaIcEEEESaIS8_ENSt8__detail10_Select1stESt8equal_toIcESt4hashIcENSA_18_Mod_range_hashingENSA_20_Default_ranged_hashENSA_20_Prime_rehash_policyENSA_17_Hashtable_traitsILb0ELb0ELb1EEEEC1Ev, symObjAddr: 0x79D8, symBinAddr: 0x100008F64, symSize: 0x70 }
  - { offset: 0x4A56E, size: 0x8, addend: 0x0, symName: __ZNSt8__detail16_Hashtable_allocISaINS_10_Hash_nodeISt4pairIKcNSt7__cxx1112basic_stringIcSt11char_traitsIcESaIcEEEELb0EEEEED2Ev, symObjAddr: 0x79B8, symBinAddr: 0x100008F44, symSize: 0x20 }
  - { offset: 0x4A5AE, size: 0x8, addend: 0x0, symName: __ZNSt8__detail16_Hashtable_allocISaINS_10_Hash_nodeISt4pairIKcNSt7__cxx1112basic_stringIcSt11char_traitsIcESaIcEEEELb0EEEEEC2Ev, symObjAddr: 0x7998, symBinAddr: 0x100008F24, symSize: 0x20 }
  - { offset: 0x4A5FC, size: 0x8, addend: 0x0, symName: __ZNSt8__detail21_Hashtable_ebo_helperILi0ESaINS_10_Hash_nodeISt4pairIKcNSt7__cxx1112basic_stringIcSt11char_traitsIcESaIcEEEELb0EEEELb1EED2Ev, symObjAddr: 0x796C, symBinAddr: 0x100008EF8, symSize: 0x2C }
  - { offset: 0x4A660, size: 0x8, addend: 0x0, symName: __ZNSt8__detail15_Hashtable_baseIcSt4pairIKcNSt7__cxx1112basic_stringIcSt11char_traitsIcESaIcEEEENS_10_Select1stESt8equal_toIcESt4hashIcENS_18_Mod_range_hashingENS_20_Default_ranged_hashENS_17_Hashtable_traitsILb0ELb0ELb1EEEEC2Ev, symObjAddr: 0x7944, symBinAddr: 0x100008ED0, symSize: 0x28 }
  - { offset: 0x4A6A0, size: 0x8, addend: 0x0, symName: __ZNSt8__detail15_Hash_code_baseIcSt4pairIKcNSt7__cxx1112basic_stringIcSt11char_traitsIcESaIcEEEENS_10_Select1stESt4hashIcENS_18_Mod_range_hashingENS_20_Default_ranged_hashELb0EEC2Ev, symObjAddr: 0x7924, symBinAddr: 0x100008EB0, symSize: 0x20 }
  - { offset: 0x4A6CA, size: 0x8, addend: 0x0, symName: __Z18letterCombinationsSt6vectorINSt7__cxx1112basic_stringIcSt11char_traitsIcESaIcEEESaIS5_EERS7_RS5_i, symObjAddr: 0x7800, symBinAddr: 0x100008D8C, symSize: 0x124 }
  - { offset: 0x4A753, size: 0x8, addend: 0x0, symName: __Z16permuteRevision2RSt6vectorIiSaIiEE, symObjAddr: 0x77AC, symBinAddr: 0x100008D38, symSize: 0x54 }
  - { offset: 0x4A796, size: 0x8, addend: 0x0, symName: __Z7permuteiRSt6vectorIiSaIiEERS_IS1_SaIS1_EE, symObjAddr: 0x76A4, symBinAddr: 0x100008C30, symSize: 0x108 }
  - { offset: 0x4A812, size: 0x8, addend: 0x0, symName: __Z15permuteRevisionRSt6vectorIiSaIiEE, symObjAddr: 0x75D0, symBinAddr: 0x100008B5C, symSize: 0xD4 }
  - { offset: 0x4A910, size: 0x8, addend: 0x0, symName: __Z7permuteRSt6vectorIiSaIiEERS_IS1_SaIS1_EES2_S2_, symObjAddr: 0x749C, symBinAddr: 0x100008A28, symSize: 0x134 }
  - { offset: 0x4A99D, size: 0x8, addend: 0x0, symName: __Z22subsetsWithDupRevisionRSt6vectorIiSaIiEE, symObjAddr: 0x73FC, symBinAddr: 0x100008988, symSize: 0xA0 }
  - { offset: 0x4AA02, size: 0x8, addend: 0x0, symName: __Z14subsetsWithDupRSt6vectorIiSaIiEERS_IS1_SaIS1_EES2_i, symObjAddr: 0x72B8, symBinAddr: 0x100008844, symSize: 0x144 }
  - { offset: 0x4AA8F, size: 0x8, addend: 0x0, symName: __Z19subsetSumsRevision2RSt6vectorIiSaIiEE, symObjAddr: 0x724C, symBinAddr: 0x1000087D8, symSize: 0x6C }
  - { offset: 0x4AAF4, size: 0x8, addend: 0x0, symName: __Z11subsetSums2RSt6vectorIiSaIiEES2_iRi, symObjAddr: 0x7144, symBinAddr: 0x1000086D0, symSize: 0x108 }
  - { offset: 0x4AB81, size: 0x8, addend: 0x0, symName: __Z18subsetSumsRevisionRSt6vectorIiSaIiEE, symObjAddr: 0x70D8, symBinAddr: 0x100008664, symSize: 0x6C }
  - { offset: 0x4ABE6, size: 0x8, addend: 0x0, symName: __Z10subsetSumsRSt6vectorIiSaIiEES2_iRi, symObjAddr: 0x6FF4, symBinAddr: 0x100008580, symSize: 0xE4 }
  - { offset: 0x4AC4F, size: 0x8, addend: 0x0, symName: __Z23combinationSum2PracticeRSt6vectorIiSaIiEEi, symObjAddr: 0x6F58, symBinAddr: 0x1000084E4, symSize: 0x9C }
  - { offset: 0x4ACB4, size: 0x8, addend: 0x0, symName: __Z24CombinationSum2RecursiveRSt6vectorIS_IiSaIiEESaIS1_EERS1_iiS5_, symObjAddr: 0x6D78, symBinAddr: 0x100008304, symSize: 0x1E0 }
  - { offset: 0x4AD46, size: 0x8, addend: 0x0, symName: __Z22combinationSumRevisionRSt6vectorIiSaIiEEi, symObjAddr: 0x6CFC, symBinAddr: 0x100008288, symSize: 0x7C }
  - { offset: 0x4ADAB, size: 0x8, addend: 0x0, symName: __Z23CombinationSumRecursiveRSt6vectorIS_IiSaIiEESaIS1_EERS1_iiS5_, symObjAddr: 0x6BE0, symBinAddr: 0x10000816C, symSize: 0x11C }
  - { offset: 0x4AE25, size: 0x8, addend: 0x0, symName: __Z35perfectSumSpaceOptimizationRevisionRSt6vectorIiSaIiEEi, symObjAddr: 0x68F8, symBinAddr: 0x100007E84, symSize: 0x2E8 }
  - { offset: 0x4B04B, size: 0x8, addend: 0x0, symName: __Z28perfectSumTabulationRevisionRSt6vectorIiSaIiEEi, symObjAddr: 0x6590, symBinAddr: 0x100007B1C, symSize: 0x368 }
  - { offset: 0x4B264, size: 0x8, addend: 0x0, symName: __Z18perfectSumRevisionRSt6vectorIiSaIiEEi, symObjAddr: 0x6460, symBinAddr: 0x1000079EC, symSize: 0x130 }
  - { offset: 0x4B3DC, size: 0x8, addend: 0x0, symName: __Z20findSubsequenceCountRSt6vectorIiSaIiEEiiRS_IS1_SaIS1_EE, symObjAddr: 0x61E4, symBinAddr: 0x100007770, symSize: 0x27C }
  - { offset: 0x4B467, size: 0x8, addend: 0x0, symName: __Z23betterStringRevisionGFGNSt7__cxx1112basic_stringIcSt11char_traitsIcESaIcEEES4_, symObjAddr: 0x6128, symBinAddr: 0x1000076B4, symSize: 0xBC }
  - { offset: 0x4B4D4, size: 0x8, addend: 0x0, symName: __Z25countDistinctSubsequencesNSt7__cxx1112basic_stringIcSt11char_traitsIcESaIcEEE, symObjAddr: 0x5EC8, symBinAddr: 0x100007454, symSize: 0x260 }
  - { offset: 0x4B671, size: 0x8, addend: 0x0, symName: __Z20betterStringRevisionNSt7__cxx1112basic_stringIcSt11char_traitsIcESaIcEEES4_, symObjAddr: 0x5DD4, symBinAddr: 0x100007360, symSize: 0xF4 }
  - { offset: 0x4B6FE, size: 0x8, addend: 0x0, symName: __Z16findSubsequencesRNSt7__cxx1112basic_stringIcSt11char_traitsIcESaIcEEERSt3setIS4_St4lessIS4_ESaIS4_EEiS5_, symObjAddr: 0x5D18, symBinAddr: 0x1000072A4, symSize: 0xBC }
  - { offset: 0x4B767, size: 0x8, addend: 0x0, symName: __Z15subsetsRevisionRSt6vectorIiSaIiEE, symObjAddr: 0x5C98, symBinAddr: 0x100007224, symSize: 0x80 }
  - { offset: 0x4B7CC, size: 0x8, addend: 0x0, symName: __Z7subsetsRSt6vectorIiSaIiEEiRS_IS1_SaIS1_EES2_, symObjAddr: 0x5BE0, symBinAddr: 0x10000716C, symSize: 0xB8 }
  - { offset: 0x4B835, size: 0x8, addend: 0x0, symName: __Z27generateParenthesisPracticeB5cxx11i, symObjAddr: 0x5B6C, symBinAddr: 0x1000070F8, symSize: 0x74 }
  - { offset: 0x4B889, size: 0x8, addend: 0x0, symName: __Z19generateParenthesisRNSt7__cxx1112basic_stringIcSt11char_traitsIcESaIcEEEiRSt6vectorIS4_SaIS4_EEii, symObjAddr: 0x5A80, symBinAddr: 0x10000700C, symSize: 0xEC }
  - { offset: 0x4B903, size: 0x8, addend: 0x0, symName: __Z22generateBinaryStrings2B5cxx11i, symObjAddr: 0x59AC, symBinAddr: 0x100006F38, symSize: 0xD4 }
  - { offset: 0x4B9DD, size: 0x8, addend: 0x0, symName: __Z28generateBinaryStringsHelper2RNSt7__cxx1112basic_stringIcSt11char_traitsIcESaIcEEEiRSt6vectorIS4_SaIS4_EE, symObjAddr: 0x58F0, symBinAddr: 0x100006E7C, symSize: 0xBC }
  - { offset: 0x4BA57, size: 0x8, addend: 0x0, symName: __Z29generateBinaryStringsRevisionB5cxx11i, symObjAddr: 0x5844, symBinAddr: 0x100006DD0, symSize: 0xAC }
  - { offset: 0x4BB31, size: 0x8, addend: 0x0, symName: __Z21generateBinaryStringsRNSt7__cxx1112basic_stringIcSt11char_traitsIcESaIcEEEiRSt6vectorIS4_SaIS4_EE, symObjAddr: 0x578C, symBinAddr: 0x100006D18, symSize: 0xB8 }
  - { offset: 0x4BB85, size: 0x8, addend: 0x0, symName: __Z15reverseRevisionRSt5stackIiSt5dequeIiSaIiEEE, symObjAddr: 0x5738, symBinAddr: 0x100006CC4, symSize: 0x54 }
  - { offset: 0x4BBED, size: 0x8, addend: 0x0, symName: __ZNSt5queueIiSt5dequeIiSaIiEEED1Ev, symObjAddr: 0x5718, symBinAddr: 0x100006CA4, symSize: 0x20 }
  - { offset: 0x4BC17, size: 0x8, addend: 0x0, symName: __Z15reverseRevisionRSt5stackIiSt5dequeIiSaIiEEERSt5queueIiS2_E, symObjAddr: 0x56A0, symBinAddr: 0x100006C2C, symSize: 0x78 }
  - { offset: 0x4BC5A, size: 0x8, addend: 0x0, symName: __Z12sortRevisionRSt5stackIiSt5dequeIiSaIiEEE, symObjAddr: 0x5494, symBinAddr: 0x100006A20, symSize: 0x20C }
  - { offset: 0x4BCD6, size: 0x8, addend: 0x0, symName: __ZNSt5stackIiSt5dequeIiSaIiEEEC1ERKS3_, symObjAddr: 0x546C, symBinAddr: 0x1000069F8, symSize: 0x28 }
  - { offset: 0x4BD0D, size: 0x8, addend: 0x0, symName: __Z24countGoodNumbersRevisionx, symObjAddr: 0x53B4, symBinAddr: 0x100006940, symSize: 0xB8 }
  - { offset: 0x4BDA9, size: 0x8, addend: 0x0, symName: __Z14powerCalculatexxRi, symObjAddr: 0x52F4, symBinAddr: 0x100006880, symSize: 0xC0 }
  - { offset: 0x4BE01, size: 0x8, addend: 0x0, symName: __Z8myPowTUFdi, symObjAddr: 0x5234, symBinAddr: 0x1000067C0, symSize: 0xC0 }
  - { offset: 0x4BE6A, size: 0x8, addend: 0x0, symName: __Z13myPowRevisiondi, symObjAddr: 0x5134, symBinAddr: 0x1000066C0, symSize: 0x100 }
  - { offset: 0x4BED3, size: 0x8, addend: 0x0, symName: __Z14calculatePowerdi, symObjAddr: 0x50E8, symBinAddr: 0x100006674, symSize: 0x4C }
  - { offset: 0x4BF1A, size: 0x8, addend: 0x0, symName: __Z14myAtoiRevisionNSt7__cxx1112basic_stringIcSt11char_traitsIcESaIcEEE, symObjAddr: 0x4EB4, symBinAddr: 0x100006440, symSize: 0x234 }
  - { offset: 0x4BF95, size: 0x8, addend: 0x0, symName: __Z11solveSudokuRSt6vectorIS_IcSaIcEESaIS1_EEi, symObjAddr: 0x4D20, symBinAddr: 0x1000062AC, symSize: 0x194 }
  - { offset: 0x4C048, size: 0x8, addend: 0x0, symName: __Z11isValidDataiiRSt6vectorIS_IcSaIcEESaIS1_EEc, symObjAddr: 0x4B24, symBinAddr: 0x1000060B0, symSize: 0x1FC }
  - { offset: 0x4C11B, size: 0x8, addend: 0x0, symName: __Z13isValidMatrixiiRSt6vectorIS_IcSaIcEESaIS1_EEc, symObjAddr: 0x4A58, symBinAddr: 0x100005FE4, symSize: 0xCC }
  - { offset: 0x4C1CC, size: 0x8, addend: 0x0, symName: __Z13solveNQueens2B5cxx11i, symObjAddr: 0x489C, symBinAddr: 0x100005E28, symSize: 0x1BC }
  - { offset: 0x4C3AC, size: 0x8, addend: 0x0, symName: __Z23solveNQueensRecursivelyiRSt6vectorIiSaIiEES2_RS_INSt7__cxx1112basic_stringIcSt11char_traitsIcESaIcEEESaIS8_EEiRS_ISA_SaISA_EE, symObjAddr: 0x44C8, symBinAddr: 0x100005A54, symSize: 0x3D4 }
  - { offset: 0x4C4D9, size: 0x8, addend: 0x0, symName: __Z12solveNQueensB5cxx11i, symObjAddr: 0x4380, symBinAddr: 0x10000590C, symSize: 0x148 }
  - { offset: 0x4C68B, size: 0x8, addend: 0x0, symName: __ZNSt6vectorIS_INSt7__cxx1112basic_stringIcSt11char_traitsIcESaIcEEESaIS5_EESaIS7_EEC1EOS9_, symObjAddr: 0x4358, symBinAddr: 0x1000058E4, symSize: 0x28 }
  - { offset: 0x4C6D9, size: 0x8, addend: 0x0, symName: __ZNSt12_Vector_baseISt6vectorINSt7__cxx1112basic_stringIcSt11char_traitsIcESaIcEEESaIS6_EESaIS8_EEC2EOSA_, symObjAddr: 0x4330, symBinAddr: 0x1000058BC, symSize: 0x28 }
  - { offset: 0x4C722, size: 0x8, addend: 0x0, symName: __ZNSt6vectorIS_INSt7__cxx1112basic_stringIcSt11char_traitsIcESaIcEEESaIS5_EESaIS7_EEC1Ev, symObjAddr: 0x4310, symBinAddr: 0x10000589C, symSize: 0x20 }
  - { offset: 0x4C762, size: 0x8, addend: 0x0, symName: __ZNSt12_Vector_baseISt6vectorINSt7__cxx1112basic_stringIcSt11char_traitsIcESaIcEEESaIS6_EESaIS8_EEC2Ev, symObjAddr: 0x42F0, symBinAddr: 0x10000587C, symSize: 0x20 }
  - { offset: 0x4C7AF, size: 0x8, addend: 0x0, symName: __ZNSt12_Vector_baseISt6vectorINSt7__cxx1112basic_stringIcSt11char_traitsIcESaIcEEESaIS6_EESaIS8_EE12_Vector_implD1Ev, symObjAddr: 0x42C4, symBinAddr: 0x100005850, symSize: 0x2C }
  - { offset: 0x4C7FC, size: 0x8, addend: 0x0, symName: __Z5solveiRSt6vectorINSt7__cxx1112basic_stringIcSt11char_traitsIcESaIcEEESaIS5_EERS_IS7_SaIS7_EEi, symObjAddr: 0x41D0, symBinAddr: 0x10000575C, symSize: 0xF4 }
  - { offset: 0x4C889, size: 0x8, addend: 0x0, symName: __Z6isSafeiiRSt6vectorINSt7__cxx1112basic_stringIcSt11char_traitsIcESaIcEEESaIS5_EEi, symObjAddr: 0x401C, symBinAddr: 0x1000055A8, symSize: 0x1B4 }
  - { offset: 0x4C914, size: 0x8, addend: 0x0, symName: __Z8permute2RSt6vectorIiSaIiEE, symObjAddr: 0x3FC8, symBinAddr: 0x100005554, symSize: 0x54 }
  - { offset: 0x4C957, size: 0x8, addend: 0x0, symName: __Z12recurPermuteiRSt6vectorIiSaIiEERS_IS1_SaIS1_EE, symObjAddr: 0x3EC0, symBinAddr: 0x10000544C, symSize: 0x108 }
  - { offset: 0x4C9D3, size: 0x8, addend: 0x0, symName: __Z7permuteRSt6vectorIiSaIiEE, symObjAddr: 0x3DDC, symBinAddr: 0x100005368, symSize: 0xE4 }
  - { offset: 0x4CAD1, size: 0x8, addend: 0x0, symName: __Z13permuteHelperRSt6vectorIiSaIiEERS_IS1_SaIS1_EES2_S2_, symObjAddr: 0x3CB0, symBinAddr: 0x10000523C, symSize: 0x12C }
  - { offset: 0x4CB5E, size: 0x8, addend: 0x0, symName: __Z18letterCombinationsNSt7__cxx1112basic_stringIcSt11char_traitsIcESaIcEEE, symObjAddr: 0x39F4, symBinAddr: 0x100004F80, symSize: 0x2BC }
  - { offset: 0x4CBEA, size: 0x8, addend: 0x0, symName: __ZNSt13unordered_mapIcSt6vectorIcSaIcEESt4hashIcESt8equal_toIcESaISt4pairIKcS2_EEED1Ev, symObjAddr: 0x39D4, symBinAddr: 0x100004F60, symSize: 0x20 }
  - { offset: 0x4CC2A, size: 0x8, addend: 0x0, symName: __ZNSt13unordered_mapIcSt6vectorIcSaIcEESt4hashIcESt8equal_toIcESaISt4pairIKcS2_EEEC1Ev, symObjAddr: 0x39B4, symBinAddr: 0x100004F40, symSize: 0x20 }
  - { offset: 0x4CC6A, size: 0x8, addend: 0x0, symName: __ZNSt10_HashtableIcSt4pairIKcSt6vectorIcSaIcEEESaIS5_ENSt8__detail10_Select1stESt8equal_toIcESt4hashIcENS7_18_Mod_range_hashingENS7_20_Default_ranged_hashENS7_20_Prime_rehash_policyENS7_17_Hashtable_traitsILb0ELb0ELb1EEEEC1Ev, symObjAddr: 0x3944, symBinAddr: 0x100004ED0, symSize: 0x70 }
  - { offset: 0x4CCB8, size: 0x8, addend: 0x0, symName: __ZNSt8__detail16_Hashtable_allocISaINS_10_Hash_nodeISt4pairIKcSt6vectorIcSaIcEEELb0EEEEED2Ev, symObjAddr: 0x3924, symBinAddr: 0x100004EB0, symSize: 0x20 }
  - { offset: 0x4CCF8, size: 0x8, addend: 0x0, symName: __ZNSt8__detail16_Hashtable_allocISaINS_10_Hash_nodeISt4pairIKcSt6vectorIcSaIcEEELb0EEEEEC2Ev, symObjAddr: 0x3904, symBinAddr: 0x100004E90, symSize: 0x20 }
  - { offset: 0x4CD46, size: 0x8, addend: 0x0, symName: __ZNSt8__detail21_Hashtable_ebo_helperILi0ESaINS_10_Hash_nodeISt4pairIKcSt6vectorIcSaIcEEELb0EEEELb1EED2Ev, symObjAddr: 0x38D8, symBinAddr: 0x100004E64, symSize: 0x2C }
  - { offset: 0x4CDAA, size: 0x8, addend: 0x0, symName: __ZNSt8__detail15_Hashtable_baseIcSt4pairIKcSt6vectorIcSaIcEEENS_10_Select1stESt8equal_toIcESt4hashIcENS_18_Mod_range_hashingENS_20_Default_ranged_hashENS_17_Hashtable_traitsILb0ELb0ELb1EEEEC2Ev, symObjAddr: 0x38B0, symBinAddr: 0x100004E3C, symSize: 0x28 }
  - { offset: 0x4CDEA, size: 0x8, addend: 0x0, symName: __ZNSt8__detail15_Hash_code_baseIcSt4pairIKcSt6vectorIcSaIcEEENS_10_Select1stESt4hashIcENS_18_Mod_range_hashingENS_20_Default_ranged_hashELb0EEC2Ev, symObjAddr: 0x3890, symBinAddr: 0x100004E1C, symSize: 0x20 }
  - { offset: 0x4CE14, size: 0x8, addend: 0x0, symName: __Z24letterCombinationsHelperNSt7__cxx1112basic_stringIcSt11char_traitsIcESaIcEEERSt6vectorIS4_SaIS4_EERS4_iRSt13unordered_mapIcS5_IcS3_ESt4hashIcESt8equal_toIcESaISt4pairIKcSB_EEE, symObjAddr: 0x374C, symBinAddr: 0x100004CD8, symSize: 0x144 }
  - { offset: 0x4CEAA, size: 0x8, addend: 0x0, symName: __Z15subsetsWithDup2RSt6vectorIiSaIiEE, symObjAddr: 0x36B8, symBinAddr: 0x100004C44, symSize: 0x94 }
  - { offset: 0x4CEFE, size: 0x8, addend: 0x0, symName: __Z21subsetsWithDupHelper2RSt6vectorIiSaIiEERS_IS1_SaIS1_EES2_i, symObjAddr: 0x3598, symBinAddr: 0x100004B24, symSize: 0x120 }
  - { offset: 0x4CF8B, size: 0x8, addend: 0x0, symName: __Z14subsetsWithDupRSt6vectorIiSaIiEE, symObjAddr: 0x34A8, symBinAddr: 0x100004A34, symSize: 0xF0 }
  - { offset: 0x4D067, size: 0x8, addend: 0x0, symName: __Z20subsetsWithDupHelperRSt6vectorIiSaIiEERSt3setIS1_St4lessIS1_ESaIS1_EES2_i, symObjAddr: 0x3364, symBinAddr: 0x1000048F0, symSize: 0x144 }
  - { offset: 0x4D170, size: 0x8, addend: 0x0, symName: __Z10subsetSumsSt6vectorIiSaIiEEi, symObjAddr: 0x3300, symBinAddr: 0x10000488C, symSize: 0x64 }
  - { offset: 0x4D1E0, size: 0x8, addend: 0x0, symName: __ZNSt6vectorIiSaIiEEC1EOS1_, symObjAddr: 0x32D8, symBinAddr: 0x100004864, symSize: 0x28 }
  - { offset: 0x4D22E, size: 0x8, addend: 0x0, symName: __ZNSt12_Vector_baseIiSaIiEEC2EOS1_, symObjAddr: 0x32B0, symBinAddr: 0x10000483C, symSize: 0x28 }
  - { offset: 0x4D261, size: 0x8, addend: 0x0, symName: __Z16subsetSumsHelperRSt6vectorIiSaIiEES2_ii, symObjAddr: 0x3218, symBinAddr: 0x1000047A4, symSize: 0x98 }
  - { offset: 0x4D2CA, size: 0x8, addend: 0x0, symName: __Z17combinationSum2_2RSt6vectorIiSaIiEEi, symObjAddr: 0x317C, symBinAddr: 0x100004708, symSize: 0x9C }
  - { offset: 0x4D32B, size: 0x8, addend: 0x0, symName: __ZL16findCombinationsiiRSt6vectorIiSaIiEERS_IS1_SaIS1_EES2_, symObjAddr: 0x2FF8, symBinAddr: 0x100004584, symSize: 0x184 }
  - { offset: 0x4D3C9, size: 0x8, addend: 0x0, symName: __Z15combinationSum2RSt6vectorIiSaIiEEi, symObjAddr: 0x2F00, symBinAddr: 0x10000448C, symSize: 0xF8 }
  - { offset: 0x4D4D7, size: 0x8, addend: 0x0, symName: __ZNSt3setISt6vectorIiSaIiEESt4lessIS2_ESaIS2_EED1Ev, symObjAddr: 0x2EE0, symBinAddr: 0x10000446C, symSize: 0x20 }
  - { offset: 0x4D517, size: 0x8, addend: 0x0, symName: __ZNSt3setISt6vectorIiSaIiEESt4lessIS2_ESaIS2_EEC1Ev, symObjAddr: 0x2EC0, symBinAddr: 0x10000444C, symSize: 0x20 }
  - { offset: 0x4D557, size: 0x8, addend: 0x0, symName: __ZNSt8_Rb_treeISt6vectorIiSaIiEES2_St9_IdentityIS2_ESt4lessIS2_ESaIS2_EEC1Ev, symObjAddr: 0x2EA0, symBinAddr: 0x10000442C, symSize: 0x20 }
  - { offset: 0x4D5A5, size: 0x8, addend: 0x0, symName: __ZNSt8_Rb_treeISt6vectorIiSaIiEES2_St9_IdentityIS2_ESt4lessIS2_ESaIS2_EE13_Rb_tree_implIS6_Lb1EED1Ev, symObjAddr: 0x2E74, symBinAddr: 0x100004400, symSize: 0x2C }
  - { offset: 0x4D5F3, size: 0x8, addend: 0x0, symName: __Z21combinationSum2HelperRSt6vectorIiSaIiEEiS2_RSt3setIS1_St4lessIS1_ESaIS1_EEi, symObjAddr: 0x2CC4, symBinAddr: 0x100004250, symSize: 0x1B0 }
  - { offset: 0x4D70D, size: 0x8, addend: 0x0, symName: __Z14combinationSumRSt6vectorIiSaIiEEi, symObjAddr: 0x2C38, symBinAddr: 0x1000041C4, symSize: 0x8C }
  - { offset: 0x4D772, size: 0x8, addend: 0x0, symName: __Z20combinationSumHelperRSt6vectorIiSaIiEEiiS2_RS_IS1_SaIS1_EE, symObjAddr: 0x2B3C, symBinAddr: 0x1000040C8, symSize: 0xFC }
  - { offset: 0x4D7EC, size: 0x8, addend: 0x0, symName: __Z15isSubsetPresentiiRSt6vectorIiSaIiEE, symObjAddr: 0x2A0C, symBinAddr: 0x100003F98, symSize: 0x130 }
  - { offset: 0x4D965, size: 0x8, addend: 0x0, symName: __Z21isSubsetPresentHelperiRSt6vectorIiSaIiEEiRS_IS1_SaIS1_EE, symObjAddr: 0x27D0, symBinAddr: 0x100003D5C, symSize: 0x23C }
  - { offset: 0x4D9CE, size: 0x8, addend: 0x0, symName: __Z11perfectSum2Piii, symObjAddr: 0x2694, symBinAddr: 0x100003C20, symSize: 0x13C }
  - { offset: 0x4DB55, size: 0x8, addend: 0x0, symName: __ZL19perfectSumRecursionPiiiRSt6vectorIS0_IiSaIiEESaIS2_EERi, symObjAddr: 0x24E4, symBinAddr: 0x100003A70, symSize: 0x1B0 }
  - { offset: 0x4DBF1, size: 0x8, addend: 0x0, symName: __Z10perfectSumPiii, symObjAddr: 0x24B0, symBinAddr: 0x100003A3C, symSize: 0x34 }
  - { offset: 0x4DC49, size: 0x8, addend: 0x0, symName: __Z16perfectSumHelperPiiiii, symObjAddr: 0x23EC, symBinAddr: 0x100003978, symSize: 0xC4 }
  - { offset: 0x4DCE5, size: 0x8, addend: 0x0, symName: __Z12betterStringNSt7__cxx1112basic_stringIcSt11char_traitsIcESaIcEEES4_, symObjAddr: 0x2224, symBinAddr: 0x1000037B0, symSize: 0x1C8 }
  - { offset: 0x4DE7C, size: 0x8, addend: 0x0, symName: __ZNSt3setINSt7__cxx1112basic_stringIcSt11char_traitsIcESaIcEEESt4lessIS5_ESaIS5_EED1Ev, symObjAddr: 0x2204, symBinAddr: 0x100003790, symSize: 0x20 }
  - { offset: 0x4DEBC, size: 0x8, addend: 0x0, symName: __ZNSt3setINSt7__cxx1112basic_stringIcSt11char_traitsIcESaIcEEESt4lessIS5_ESaIS5_EEC1Ev, symObjAddr: 0x21E4, symBinAddr: 0x100003770, symSize: 0x20 }
  - { offset: 0x4DEFC, size: 0x8, addend: 0x0, symName: __ZNSt8_Rb_treeINSt7__cxx1112basic_stringIcSt11char_traitsIcESaIcEEES5_St9_IdentityIS5_ESt4lessIS5_ESaIS5_EEC1Ev, symObjAddr: 0x21C4, symBinAddr: 0x100003750, symSize: 0x20 }
  - { offset: 0x4DF4A, size: 0x8, addend: 0x0, symName: __ZNSt8_Rb_treeINSt7__cxx1112basic_stringIcSt11char_traitsIcESaIcEEES5_St9_IdentityIS5_ESt4lessIS5_ESaIS5_EE13_Rb_tree_implIS9_Lb1EED1Ev, symObjAddr: 0x2198, symBinAddr: 0x100003724, symSize: 0x2C }
  - { offset: 0x4DF98, size: 0x8, addend: 0x0, symName: __Z11findSubsetsNSt7__cxx1112basic_stringIcSt11char_traitsIcESaIcEEERSt3setIS4_St4lessIS4_ESaIS4_EES4_i, symObjAddr: 0x2038, symBinAddr: 0x1000035C4, symSize: 0x160 }
  - { offset: 0x4E007, size: 0x8, addend: 0x0, symName: __Z7subsetsRSt6vectorIiSaIiEE, symObjAddr: 0x1FC4, symBinAddr: 0x100003550, symSize: 0x74 }
  - { offset: 0x4E071, size: 0x8, addend: 0x0, symName: __ZNSt6vectorIS_IiSaIiEESaIS1_EEC1Ev, symObjAddr: 0x1FA4, symBinAddr: 0x100003530, symSize: 0x20 }
  - { offset: 0x4E0B1, size: 0x8, addend: 0x0, symName: __ZNSt12_Vector_baseISt6vectorIiSaIiEESaIS2_EEC2Ev, symObjAddr: 0x1F84, symBinAddr: 0x100003510, symSize: 0x20 }
  - { offset: 0x4E0FE, size: 0x8, addend: 0x0, symName: __ZNSt12_Vector_baseISt6vectorIiSaIiEESaIS2_EE12_Vector_implD1Ev, symObjAddr: 0x1F58, symBinAddr: 0x1000034E4, symSize: 0x2C }
  - { offset: 0x4E14B, size: 0x8, addend: 0x0, symName: __Z13subSetsHelperRSt6vectorIiSaIiEERS_IS1_SaIS1_EEiS2_, symObjAddr: 0x1EA0, symBinAddr: 0x10000342C, symSize: 0xB8 }
  - { offset: 0x4E1B4, size: 0x8, addend: 0x0, symName: __Z19generateParenthesisB5cxx11i, symObjAddr: 0x1DE4, symBinAddr: 0x100003370, symSize: 0xBC }
  - { offset: 0x4E27D, size: 0x8, addend: 0x0, symName: __Z25generateParenthesisHelperiRSt6vectorINSt7__cxx1112basic_stringIcSt11char_traitsIcESaIcEEESaIS5_EEiiS5_, symObjAddr: 0x1CB4, symBinAddr: 0x100003240, symSize: 0x130 }
  - { offset: 0x4E2FD, size: 0x8, addend: 0x0, symName: __Z21generateBinaryStringsB5cxx11i, symObjAddr: 0x1B90, symBinAddr: 0x10000311C, symSize: 0x124 }
  - { offset: 0x4E468, size: 0x8, addend: 0x0, symName: __ZNSt6vectorINSt7__cxx1112basic_stringIcSt11char_traitsIcESaIcEEESaIS5_EEC1EOS7_, symObjAddr: 0x1B68, symBinAddr: 0x1000030F4, symSize: 0x28 }
  - { offset: 0x4E4B6, size: 0x8, addend: 0x0, symName: __ZNSt12_Vector_baseINSt7__cxx1112basic_stringIcSt11char_traitsIcESaIcEEESaIS5_EEC2EOS7_, symObjAddr: 0x1B40, symBinAddr: 0x1000030CC, symSize: 0x28 }
  - { offset: 0x4E4FF, size: 0x8, addend: 0x0, symName: __ZNSt6vectorINSt7__cxx1112basic_stringIcSt11char_traitsIcESaIcEEESaIS5_EEC1Ev, symObjAddr: 0x1B20, symBinAddr: 0x1000030AC, symSize: 0x20 }
  - { offset: 0x4E53F, size: 0x8, addend: 0x0, symName: __ZNSt12_Vector_baseINSt7__cxx1112basic_stringIcSt11char_traitsIcESaIcEEESaIS5_EEC2Ev, symObjAddr: 0x1B00, symBinAddr: 0x10000308C, symSize: 0x20 }
  - { offset: 0x4E58C, size: 0x8, addend: 0x0, symName: __ZNSt12_Vector_baseINSt7__cxx1112basic_stringIcSt11char_traitsIcESaIcEEESaIS5_EE12_Vector_implD1Ev, symObjAddr: 0x1AD4, symBinAddr: 0x100003060, symSize: 0x2C }
  - { offset: 0x4E5D9, size: 0x8, addend: 0x0, symName: __Z27generateBinaryStringsHelperNSt7__cxx1112basic_stringIcSt11char_traitsIcESaIcEEEiRSt6vectorIS4_SaIS4_EE, symObjAddr: 0x19C8, symBinAddr: 0x100002F54, symSize: 0x10C }
  - { offset: 0x4E653, size: 0x8, addend: 0x0, symName: __Z7ReverseRSt5stackIiSt5dequeIiSaIiEEE, symObjAddr: 0x19A4, symBinAddr: 0x100002F30, symSize: 0x24 }
  - { offset: 0x4E685, size: 0x8, addend: 0x0, symName: __Z13ReverseHelperRSt5stackIiSt5dequeIiSaIiEEEi, symObjAddr: 0x186C, symBinAddr: 0x100002DF8, symSize: 0x138 }
  - { offset: 0x4E6EE, size: 0x8, addend: 0x0, symName: __Z11SortedStackRSt5stackIiSt5dequeIiSaIiEEE, symObjAddr: 0x1848, symBinAddr: 0x100002DD4, symSize: 0x24 }
  - { offset: 0x4E720, size: 0x8, addend: 0x0, symName: __Z15sortStackHelperRSt5stackIiSt5dequeIiSaIiEEEi, symObjAddr: 0x16E4, symBinAddr: 0x100002C70, symSize: 0x164 }
  - { offset: 0x4E7D1, size: 0x8, addend: 0x0, symName: __ZNSt5stackIiSt5dequeIiSaIiEEED1Ev, symObjAddr: 0x16C4, symBinAddr: 0x100002C50, symSize: 0x20 }
  - { offset: 0x4E7FF, size: 0x8, addend: 0x0, symName: __Z24countGoodNumbersOtherWayx, symObjAddr: 0x160C, symBinAddr: 0x100002B98, symSize: 0xB8 }
  - { offset: 0x4E89B, size: 0x8, addend: 0x0, symName: __Z11powerHelperxxRi, symObjAddr: 0x154C, symBinAddr: 0x100002AD8, symSize: 0xC0 }
  - { offset: 0x4E8F3, size: 0x8, addend: 0x0, symName: __Z16countGoodNumbersx, symObjAddr: 0x14D8, symBinAddr: 0x100002A64, symSize: 0x74 }
  - { offset: 0x4E95E, size: 0x8, addend: 0x0, symName: __Z5myPowdi, symObjAddr: 0x13EC, symBinAddr: 0x100002978, symSize: 0xEC }
  - { offset: 0x4E9B6, size: 0x8, addend: 0x0, symName: __Z17powHelperNegativedi, symObjAddr: 0x1390, symBinAddr: 0x10000291C, symSize: 0x5C }
  - { offset: 0x4E9FD, size: 0x8, addend: 0x0, symName: __Z17powHelperPositivedi, symObjAddr: 0x1344, symBinAddr: 0x1000028D0, symSize: 0x4C }
  - { offset: 0x4EA44, size: 0x8, addend: 0x0, symName: __Z6myAtoiNSt7__cxx1112basic_stringIcSt11char_traitsIcESaIcEEE, symObjAddr: 0x11CC, symBinAddr: 0x100002758, symSize: 0x178 }
  - { offset: 0x4EAD0, size: 0x8, addend: 0x0, symName: __Z12myAtoiHelperRNSt7__cxx1112basic_stringIcSt11char_traitsIcESaIcEEEid, symObjAddr: 0x10E0, symBinAddr: 0x10000266C, symSize: 0xEC }
  - { offset: 0x4EB24, size: 0x8, addend: 0x0, symName: __Z9quickSortRSt6vectorIiSaIiEEii, symObjAddr: 0x106C, symBinAddr: 0x1000025F8, symSize: 0x74 }
  - { offset: 0x4EBA0, size: 0x8, addend: 0x0, symName: __Z13findPartitionRSt6vectorIiSaIiEEii, symObjAddr: 0xEEC, symBinAddr: 0x100002478, symSize: 0x180 }
  - { offset: 0x4EC27, size: 0x8, addend: 0x0, symName: __Z9mergeSortRSt6vectorIiSaIiEEii, symObjAddr: 0xE60, symBinAddr: 0x1000023EC, symSize: 0x8C }
  - { offset: 0x4EC8B, size: 0x8, addend: 0x0, symName: __Z5mergeRSt6vectorIiSaIiEEiii, symObjAddr: 0xC74, symBinAddr: 0x100002200, symSize: 0x1EC }
  - { offset: 0x4ED57, size: 0x8, addend: 0x0, symName: __ZNSt6vectorIiSaIiEEC1Ev, symObjAddr: 0xC54, symBinAddr: 0x1000021E0, symSize: 0x20 }
  - { offset: 0x4ED97, size: 0x8, addend: 0x0, symName: __ZNSt12_Vector_baseIiSaIiEEC2Ev, symObjAddr: 0xC34, symBinAddr: 0x1000021C0, symSize: 0x20 }
  - { offset: 0x4EDE4, size: 0x8, addend: 0x0, symName: __ZNSt12_Vector_baseIiSaIiEE12_Vector_implD1Ev, symObjAddr: 0xC08, symBinAddr: 0x100002194, symSize: 0x2C }
  - { offset: 0x4EE34, size: 0x8, addend: 0x0, symName: __Z25countSubSequencesWithSumKRSt6vectorIiSaIiEEii, symObjAddr: 0xB44, symBinAddr: 0x1000020D0, symSize: 0xC4 }
  - { offset: 0x4EEA8, size: 0x8, addend: 0x0, symName: __Z31printonlyOneSubSequenceWithSumKRSt6vectorIiSaIiEES2_ii, symObjAddr: 0x9AC, symBinAddr: 0x100001F38, symSize: 0x198 }
  - { offset: 0x4EF52, size: 0x8, addend: 0x0, symName: __Z24printSubSequenceWithSumKRSt6vectorIiSaIiEES2_ii, symObjAddr: 0x844, symBinAddr: 0x100001DD0, symSize: 0x168 }
  - { offset: 0x4EFFC, size: 0x8, addend: 0x0, symName: __Z20printAllSubsequencesRSt6vectorIiSaIiEES2_i, symObjAddr: 0x6E4, symBinAddr: 0x100001C70, symSize: 0x160 }
  - { offset: 0x4F09A, size: 0x8, addend: 0x0, symName: __Z12fibonacciNumi, symObjAddr: 0x688, symBinAddr: 0x100001C14, symSize: 0x5C }
  - { offset: 0x4F0CE, size: 0x8, addend: 0x0, symName: __Z19isStringPalindrome2NSt7__cxx1112basic_stringIcSt11char_traitsIcESaIcEEEi, symObjAddr: 0x59C, symBinAddr: 0x100001B28, symSize: 0xEC }
  - { offset: 0x4F123, size: 0x8, addend: 0x0, symName: __Z18isStringPalindromeNSt7__cxx1112basic_stringIcSt11char_traitsIcESaIcEEEii, symObjAddr: 0x4C8, symBinAddr: 0x100001A54, symSize: 0xD4 }
  - { offset: 0x4F174, size: 0x8, addend: 0x0, symName: __Z13reverseArray2RSt6vectorIiSaIiEEi, symObjAddr: 0x428, symBinAddr: 0x1000019B4, symSize: 0xA0 }
  - { offset: 0x4F1C4, size: 0x8, addend: 0x0, symName: __Z12reverseArrayRSt6vectorIiSaIiEEii, symObjAddr: 0x3A0, symBinAddr: 0x10000192C, symSize: 0x88 }
  - { offset: 0x4F218, size: 0x8, addend: 0x0, symName: __Z24sumOfFirstNNaturalNumberi, symObjAddr: 0x360, symBinAddr: 0x1000018EC, symSize: 0x40 }
  - { offset: 0x4F248, size: 0x8, addend: 0x0, symName: __Z26print1ToNUsingBacktrackingi, symObjAddr: 0x310, symBinAddr: 0x10000189C, symSize: 0x50 }
  - { offset: 0x4F278, size: 0x8, addend: 0x0, symName: __Z15printHelloWorldi, symObjAddr: 0x2BC, symBinAddr: 0x100001848, symSize: 0x54 }
  - { offset: 0x4F2A8, size: 0x8, addend: 0x0, symName: __ZSt7forwardIcEOT_RNSt16remove_referenceIS0_E4typeE, symObjAddr: 0x2A8, symBinAddr: 0x100001834, symSize: 0x14 }
  - { offset: 0x4F2DE, size: 0x8, addend: 0x0, symName: __ZNSt15_Rb_tree_header8_M_resetEv, symObjAddr: 0x26C, symBinAddr: 0x1000017F8, symSize: 0x3C }
  - { offset: 0x4F322, size: 0x8, addend: 0x0, symName: __ZNSt15_Rb_tree_headerC2Ev, symObjAddr: 0x244, symBinAddr: 0x1000017D0, symSize: 0x28 }
  - { offset: 0x4F344, size: 0x8, addend: 0x0, symName: __ZSt16__deque_buf_sizem, symObjAddr: 0x214, symBinAddr: 0x1000017A0, symSize: 0x30 }
  - { offset: 0x4F36D, size: 0x8, addend: 0x0, symName: __ZSt3minIlERKT_S2_S2_, symObjAddr: 0x1DC, symBinAddr: 0x100001768, symSize: 0x38 }
  - { offset: 0x4F3AF, size: 0x8, addend: 0x0, symName: __ZSt3minImERKT_S2_S2_, symObjAddr: 0x1A4, symBinAddr: 0x100001730, symSize: 0x38 }
  - { offset: 0x4F3F5, size: 0x8, addend: 0x0, symName: __ZNSt8__detail20_Prime_rehash_policy8_M_resetEm, symObjAddr: 0x180, symBinAddr: 0x10000170C, symSize: 0x24 }
  - { offset: 0x4F430, size: 0x8, addend: 0x0, symName: __ZNKSt8__detail20_Prime_rehash_policy8_M_stateEv, symObjAddr: 0x168, symBinAddr: 0x1000016F4, symSize: 0x18 }
  - { offset: 0x4F482, size: 0x8, addend: 0x0, symName: __ZNSt8__detail20_Prime_rehash_policyC1Ef, symObjAddr: 0x13C, symBinAddr: 0x1000016C8, symSize: 0x2C }
  - { offset: 0x4F4B1, size: 0x8, addend: 0x0, symName: __ZNKSt8__detail18_Mod_range_hashingclEmm, symObjAddr: 0x10C, symBinAddr: 0x100001698, symSize: 0x30 }
  - { offset: 0x4F517, size: 0x8, addend: 0x0, symName: __ZNSt8__detail15_Hash_node_baseC1Ev, symObjAddr: 0xF0, symBinAddr: 0x10000167C, symSize: 0x1C }
  - { offset: 0x4F541, size: 0x8, addend: 0x0, symName: __ZNSt8__detail15_Hash_node_baseC2Ev, symObjAddr: 0xD4, symBinAddr: 0x100001660, symSize: 0x1C }
  - { offset: 0x4F567, size: 0x8, addend: 0x0, symName: __ZNKSt4hashIcEclEc, symObjAddr: 0xB8, symBinAddr: 0x100001644, symSize: 0x1C }
  - { offset: 0x4F59D, size: 0x8, addend: 0x0, symName: __ZNSt11char_traitsIcE6lengthEPKc, symObjAddr: 0x7C, symBinAddr: 0x100001608, symSize: 0x3C }
  - { offset: 0x4F5E8, size: 0x8, addend: 0x0, symName: __ZdlPvS_, symObjAddr: 0x64, symBinAddr: 0x1000015F0, symSize: 0x18 }
  - { offset: 0x4F61E, size: 0x8, addend: 0x0, symName: __ZnwmPv, symObjAddr: 0x4C, symBinAddr: 0x1000015D8, symSize: 0x18 }
  - { offset: 0x4F650, size: 0x8, addend: 0x0, symName: __ZSt17__size_to_integerm, symObjAddr: 0x38, symBinAddr: 0x1000015C4, symSize: 0x14 }
  - { offset: 0x4F67A, size: 0x8, addend: 0x0, symName: __ZN9__gnu_cxx5__ops15__val_comp_iterENS0_15_Iter_less_iterE, symObjAddr: 0x20, symBinAddr: 0x1000015AC, symSize: 0x18 }
  - { offset: 0x4F6BF, size: 0x8, addend: 0x0, symName: __ZN9__gnu_cxx5__ops14_Iter_less_valC1ENS0_15_Iter_less_iterE, symObjAddr: 0x8, symBinAddr: 0x100001594, symSize: 0x18 }
  - { offset: 0x4F6EA, size: 0x8, addend: 0x0, symName: __ZN9__gnu_cxx5__ops16__iter_less_iterEv, symObjAddr: 0x0, symBinAddr: 0x10000158C, symSize: 0x8 }
...
