---
triple:          'arm64-apple-darwin'
binary-path:     '/Users/lalitsiraswa/Documents/Daily-Practice/BinarySearch'
relocations:
  - { offset: 0x1C1BF, size: 0x8, addend: 0x0, symName: __ZStL8__ioinit, symObjAddr: 0x96CDE, symBinAddr: 0x100014000, symSize: 0x0 }
  - { offset: 0x1C7C6, size: 0x8, addend: 0x0, symName: __ZNSt11__copy_moveILb0ELb0ESt26random_access_iterator_tagE12__assign_oneIiKiEEvPT_PT0_, symObjAddr: 0x8B48, symBinAddr: 0x10000BA98, symSize: 0x28 }
  - { offset: 0x1C810, size: 0x8, addend: 0x0, symName: __ZNSt11__copy_moveILb1ELb0ESt26random_access_iterator_tagE12__assign_oneIiiEEvPT_PT0_, symObjAddr: 0x8B18, symBinAddr: 0x10000BA68, symSize: 0x30 }
  - { offset: 0x1C85A, size: 0x8, addend: 0x0, symName: __ZNSt11__copy_moveILb0ELb1ESt26random_access_iterator_tagE8__copy_mIKiiEEPT0_PT_S7_S5_, symObjAddr: 0x8A88, symBinAddr: 0x10000B9D8, symSize: 0x90 }
  - { offset: 0x1C8C4, size: 0x8, addend: 0x0, symName: __ZNSt20__copy_move_backwardILb1ELb1ESt26random_access_iterator_tagE13__copy_move_bIiiEEPT0_PT_S6_S4_, symObjAddr: 0x89DC, symBinAddr: 0x10000B92C, symSize: 0xAC }
  - { offset: 0x1C93D, size: 0x8, addend: 0x0, symName: __ZNK9__gnu_cxx5__ops14_Iter_less_valclINS_17__normal_iteratorIPiSt6vectorIiSaIiEEEEiEEbT_RT0_, symObjAddr: 0x89A0, symBinAddr: 0x10000B8F0, symSize: 0x3C }
  - { offset: 0x1CA07, size: 0x8, addend: 0x0, symName: __ZSt7forwardISt6vectorIiSaIiEEEOT_RNSt16remove_referenceIS3_E4typeE, symObjAddr: 0x898C, symBinAddr: 0x10000B8DC, symSize: 0x14 }
  - { offset: 0x1CA38, size: 0x8, addend: 0x0, symName: __ZSt12__niter_baseIPKiET_S2_, symObjAddr: 0x8978, symBinAddr: 0x10000B8C8, symSize: 0x14 }
  - { offset: 0x1CA69, size: 0x8, addend: 0x0, symName: __ZSt14__copy_move_a2ILb0EPKiPiET1_T0_S4_S3_, symObjAddr: 0x894C, symBinAddr: 0x10000B89C, symSize: 0x2C }
  - { offset: 0x1CAD1, size: 0x8, addend: 0x0, symName: __ZNK9__gnu_cxx17__normal_iteratorIPKiSt6vectorIiSaIiEEE4baseEv, symObjAddr: 0x8938, symBinAddr: 0x10000B888, symSize: 0x14 }
  - { offset: 0x1CAF5, size: 0x8, addend: 0x0, symName: __ZSt23__copy_move_backward_a2ILb1EPiS0_ET1_T0_S2_S1_, symObjAddr: 0x890C, symBinAddr: 0x10000B85C, symSize: 0x2C }
  - { offset: 0x1CB5F, size: 0x8, addend: 0x0, symName: __ZSt11__push_heapIN9__gnu_cxx17__normal_iteratorIPiSt6vectorIiSaIiEEEEliNS0_5__ops14_Iter_less_valEEvT_T0_SA_T1_RT2_, symObjAddr: 0x87E8, symBinAddr: 0x10000B738, symSize: 0x124 }
  - { offset: 0x1CC08, size: 0x8, addend: 0x0, symName: __ZSt4moveIRN9__gnu_cxx5__ops15_Iter_less_iterEEONSt16remove_referenceIT_E4typeEOS5_, symObjAddr: 0x87D4, symBinAddr: 0x10000B724, symSize: 0x14 }
  - { offset: 0x1CCB0, size: 0x8, addend: 0x0, symName: __ZSt4moveIRSt6vectorIiSaIiEEEONSt16remove_referenceIT_E4typeEOS5_, symObjAddr: 0x87C0, symBinAddr: 0x10000B710, symSize: 0x14 }
  - { offset: 0x1CCF7, size: 0x8, addend: 0x0, symName: __ZSt13__copy_move_aILb0EPKiPiET1_T0_S4_S3_, symObjAddr: 0x8760, symBinAddr: 0x10000B6B0, symSize: 0x60 }
  - { offset: 0x1CD5B, size: 0x8, addend: 0x0, symName: __ZSt12__miter_baseIPKiET_S2_, symObjAddr: 0x874C, symBinAddr: 0x10000B69C, symSize: 0x14 }
  - { offset: 0x1CD8C, size: 0x8, addend: 0x0, symName: __ZSt12__niter_wrapIPiET_RKS1_S1_, symObjAddr: 0x8734, symBinAddr: 0x10000B684, symSize: 0x18 }
  - { offset: 0x1CDC6, size: 0x8, addend: 0x0, symName: __ZSt14__copy_move_a1ILb0EPKiPiET1_T0_S4_S3_, symObjAddr: 0x8708, symBinAddr: 0x10000B658, symSize: 0x2C }
  - { offset: 0x1CE2A, size: 0x8, addend: 0x0, symName: __ZSt12__niter_baseIPKiSt6vectorIiSaIiEEET_N9__gnu_cxx17__normal_iteratorIS5_T0_EE, symObjAddr: 0x86E8, symBinAddr: 0x10000B638, symSize: 0x20 }
  - { offset: 0x1CE64, size: 0x8, addend: 0x0, symName: __ZSt12__niter_wrapIN9__gnu_cxx17__normal_iteratorIPiSt6vectorIiSaIiEEEES2_ET_S7_T0_, symObjAddr: 0x86A0, symBinAddr: 0x10000B5F0, symSize: 0x48 }
  - { offset: 0x1CEAE, size: 0x8, addend: 0x0, symName: __ZSt23__copy_move_backward_a1ILb1EPiS0_ET1_T0_S2_S1_, symObjAddr: 0x8674, symBinAddr: 0x10000B5C4, symSize: 0x2C }
  - { offset: 0x1CF12, size: 0x8, addend: 0x0, symName: __ZSt12__niter_baseIPiSt6vectorIiSaIiEEET_N9__gnu_cxx17__normal_iteratorIS4_T0_EE, symObjAddr: 0x8654, symBinAddr: 0x10000B5A4, symSize: 0x20 }
  - { offset: 0x1CF4C, size: 0x8, addend: 0x0, symName: __ZSt13__adjust_heapIN9__gnu_cxx17__normal_iteratorIPiSt6vectorIiSaIiEEEEliNS0_5__ops15_Iter_less_iterEEvT_T0_SA_T1_T2_, symObjAddr: 0x8480, symBinAddr: 0x10000B3D0, symSize: 0x1D4 }
  - { offset: 0x1D00D, size: 0x8, addend: 0x0, symName: __ZSt19__relocate_object_aISt6vectorIiSaIiEES2_SaIS2_EEvPT_PT0_RT1_, symObjAddr: 0x83B0, symBinAddr: 0x10000B300, symSize: 0xD0 }
  - { offset: 0x1D151, size: 0x8, addend: 0x0, symName: __ZSt4copyIPKiPiET0_T_S4_S3_, symObjAddr: 0x8368, symBinAddr: 0x10000B2B8, symSize: 0x48 }
  - { offset: 0x1D1C1, size: 0x8, addend: 0x0, symName: __ZSt13__copy_move_aILb0EN9__gnu_cxx17__normal_iteratorIPKiSt6vectorIiSaIiEEEEPiET1_T0_SA_S9_, symObjAddr: 0x8308, symBinAddr: 0x10000B258, symSize: 0x60 }
  - { offset: 0x1D225, size: 0x8, addend: 0x0, symName: __ZSt12__miter_baseIN9__gnu_cxx17__normal_iteratorIPKiSt6vectorIiSaIiEEEEET_S8_, symObjAddr: 0x82F4, symBinAddr: 0x10000B244, symSize: 0x14 }
  - { offset: 0x1D265, size: 0x8, addend: 0x0, symName: __ZNK9__gnu_cxx5__ops14_Val_less_iterclIiNS_17__normal_iteratorIPiSt6vectorIiSaIiEEEEEEbRT_T0_, symObjAddr: 0x82B0, symBinAddr: 0x10000B200, symSize: 0x44 }
  - { offset: 0x1D2BB, size: 0x8, addend: 0x0, symName: __ZSt22__copy_move_backward_aILb1EN9__gnu_cxx17__normal_iteratorIPiSt6vectorIiSaIiEEEES6_ET1_T0_S8_S7_, symObjAddr: 0x8250, symBinAddr: 0x10000B1A0, symSize: 0x60 }
  - { offset: 0x1D31F, size: 0x8, addend: 0x0, symName: __ZSt12__miter_baseIN9__gnu_cxx17__normal_iteratorIPiSt6vectorIiSaIiEEEEET_S7_, symObjAddr: 0x823C, symBinAddr: 0x10000B18C, symSize: 0x14 }
  - { offset: 0x1D350, size: 0x8, addend: 0x0, symName: __ZSt9iter_swapIN9__gnu_cxx17__normal_iteratorIPiSt6vectorIiSaIiEEEES6_EvT_T0_, symObjAddr: 0x81F8, symBinAddr: 0x10000B148, symSize: 0x44 }
  - { offset: 0x1D39E, size: 0x8, addend: 0x0, symName: __ZN9__gnu_cxx17__normal_iteratorIPiSt6vectorIiSaIiEEEmmEv, symObjAddr: 0x81D0, symBinAddr: 0x10000B120, symSize: 0x28 }
  - { offset: 0x1D3C2, size: 0x8, addend: 0x0, symName: __ZSt10__pop_heapIN9__gnu_cxx17__normal_iteratorIPiSt6vectorIiSaIiEEEENS0_5__ops15_Iter_less_iterEEvT_S9_S9_RT0_, symObjAddr: 0x8140, symBinAddr: 0x10000B090, symSize: 0x90 }
  - { offset: 0x1D45C, size: 0x8, addend: 0x0, symName: __ZN9__gnu_cxxltIPiSt6vectorIiSaIiEEEEbRKNS_17__normal_iteratorIT_T0_EESA_, symObjAddr: 0x80FC, symBinAddr: 0x10000B04C, symSize: 0x44 }
  - { offset: 0x1D4A6, size: 0x8, addend: 0x0, symName: __ZSt11__make_heapIN9__gnu_cxx17__normal_iteratorIPiSt6vectorIiSaIiEEEENS0_5__ops15_Iter_less_iterEEvT_S9_RT0_, symObjAddr: 0x801C, symBinAddr: 0x10000AF6C, symSize: 0xE0 }
  - { offset: 0x1D556, size: 0x8, addend: 0x0, symName: __ZSt8_DestroyISt6vectorIiSaIiEEEvPT_, symObjAddr: 0x7FFC, symBinAddr: 0x10000AF4C, symSize: 0x20 }
  - { offset: 0x1D587, size: 0x8, addend: 0x0, symName: __ZSt11__addressofISt6vectorIiSaIiEEEPT_RS3_, symObjAddr: 0x7FE8, symBinAddr: 0x10000AF38, symSize: 0x14 }
  - { offset: 0x1D5B8, size: 0x8, addend: 0x0, symName: __ZSt14__relocate_a_1IPSt6vectorIiSaIiEES3_SaIS2_EET0_T_S6_S5_RT1_, symObjAddr: 0x7F64, symBinAddr: 0x10000AEB4, symSize: 0x84 }
  - { offset: 0x1D63B, size: 0x8, addend: 0x0, symName: __ZSt12__niter_baseIPSt6vectorIiSaIiEEET_S4_, symObjAddr: 0x7F50, symBinAddr: 0x10000AEA0, symSize: 0x14 }
  - { offset: 0x1D670, size: 0x8, addend: 0x0, symName: __ZNSt15__new_allocatorISt6vectorIiSaIiEEE8allocateEmPKv, symObjAddr: 0x7EC0, symBinAddr: 0x10000AE10, symSize: 0x90 }
  - { offset: 0x1D6FA, size: 0x8, addend: 0x0, symName: __ZNKSt12_Vector_baseISt6vectorIiSaIiEESaIS2_EE19_M_get_Tp_allocatorEv, symObjAddr: 0x7EAC, symBinAddr: 0x10000ADFC, symSize: 0x14 }
  - { offset: 0x1D71E, size: 0x8, addend: 0x0, symName: __ZNSt6vectorIS_IiSaIiEESaIS1_EE11_S_max_sizeERKS2_, symObjAddr: 0x7E50, symBinAddr: 0x10000ADA0, symSize: 0x5C }
  - { offset: 0x1D7D1, size: 0x8, addend: 0x0, symName: __ZNSt20__uninitialized_copyILb1EE13__uninit_copyIPKiPiEET0_T_S6_S5_, symObjAddr: 0x7E24, symBinAddr: 0x10000AD74, symSize: 0x2C }
  - { offset: 0x1D841, size: 0x8, addend: 0x0, symName: __ZSt4copyIN9__gnu_cxx17__normal_iteratorIPKiSt6vectorIiSaIiEEEEPiET0_T_SA_S9_, symObjAddr: 0x7DDC, symBinAddr: 0x10000AD2C, symSize: 0x48 }
  - { offset: 0x1D89B, size: 0x8, addend: 0x0, symName: __ZSt14__relocate_a_1IiiENSt9enable_ifIXsrSt24__is_bitwise_relocatableIT_vE5valueEPS2_E4typeES4_S4_S4_RSaIT0_E, symObjAddr: 0x7D78, symBinAddr: 0x10000ACC8, symSize: 0x64 }
  - { offset: 0x1D915, size: 0x8, addend: 0x0, symName: __ZSt12__niter_baseIPiET_S1_, symObjAddr: 0x7D64, symBinAddr: 0x10000ACB4, symSize: 0x14 }
  - { offset: 0x1D94A, size: 0x8, addend: 0x0, symName: __ZNSt15__new_allocatorIiE8allocateEmPKv, symObjAddr: 0x7CE8, symBinAddr: 0x10000AC38, symSize: 0x7C }
  - { offset: 0x1D9D0, size: 0x8, addend: 0x0, symName: __ZSt25__unguarded_linear_insertIN9__gnu_cxx17__normal_iteratorIPiSt6vectorIiSaIiEEEENS0_5__ops14_Val_less_iterEEvT_T0_, symObjAddr: 0x7C3C, symBinAddr: 0x10000AB8C, symSize: 0xAC }
  - { offset: 0x1DA3A, size: 0x8, addend: 0x0, symName: __ZSt13move_backwardIN9__gnu_cxx17__normal_iteratorIPiSt6vectorIiSaIiEEEES6_ET0_T_S8_S7_, symObjAddr: 0x7BF4, symBinAddr: 0x10000AB44, symSize: 0x48 }
  - { offset: 0x1DA94, size: 0x8, addend: 0x0, symName: __ZSt21__unguarded_partitionIN9__gnu_cxx17__normal_iteratorIPiSt6vectorIiSaIiEEEENS0_5__ops15_Iter_less_iterEET_S9_S9_S9_T0_, symObjAddr: 0x7B3C, symBinAddr: 0x10000AA8C, symSize: 0xB8 }
  - { offset: 0x1DAFE, size: 0x8, addend: 0x0, symName: __ZSt22__move_median_to_firstIN9__gnu_cxx17__normal_iteratorIPiSt6vectorIiSaIiEEEENS0_5__ops15_Iter_less_iterEEvT_S9_S9_S9_T0_, symObjAddr: 0x7A2C, symBinAddr: 0x10000A97C, symSize: 0x110 }
  - { offset: 0x1DB7C, size: 0x8, addend: 0x0, symName: __ZNK9__gnu_cxx17__normal_iteratorIPiSt6vectorIiSaIiEEEmiEl, symObjAddr: 0x79E8, symBinAddr: 0x10000A938, symSize: 0x44 }
  - { offset: 0x1DBB0, size: 0x8, addend: 0x0, symName: __ZSt11__sort_heapIN9__gnu_cxx17__normal_iteratorIPiSt6vectorIiSaIiEEEENS0_5__ops15_Iter_less_iterEEvT_S9_RT0_, symObjAddr: 0x7980, symBinAddr: 0x10000A8D0, symSize: 0x68 }
  - { offset: 0x1DC0A, size: 0x8, addend: 0x0, symName: __ZSt13__heap_selectIN9__gnu_cxx17__normal_iteratorIPiSt6vectorIiSaIiEEEENS0_5__ops15_Iter_less_iterEEvT_S9_S9_T0_, symObjAddr: 0x78E4, symBinAddr: 0x10000A834, symSize: 0x9C }
  - { offset: 0x1DC97, size: 0x8, addend: 0x0, symName: __ZNSt12_Destroy_auxILb0EE9__destroyIPSt6vectorIiSaIiEEEEvT_S6_, symObjAddr: 0x7898, symBinAddr: 0x10000A7E8, symSize: 0x4C }
  - { offset: 0x1DCD8, size: 0x8, addend: 0x0, symName: __ZSt12__relocate_aIPSt6vectorIiSaIiEES3_SaIS2_EET0_T_S6_S5_RT1_, symObjAddr: 0x783C, symBinAddr: 0x10000A78C, symSize: 0x5C }
  - { offset: 0x1DD4F, size: 0x8, addend: 0x0, symName: __ZNSt15__new_allocatorISt6vectorIiSaIiEEE10deallocateEPS2_m, symObjAddr: 0x7800, symBinAddr: 0x10000A750, symSize: 0x3C }
  - { offset: 0x1DDBB, size: 0x8, addend: 0x0, symName: __ZNK9__gnu_cxx17__normal_iteratorIPSt6vectorIiSaIiEES1_IS3_SaIS3_EEE4baseEv, symObjAddr: 0x77EC, symBinAddr: 0x10000A73C, symSize: 0x14 }
  - { offset: 0x1DE0C, size: 0x8, addend: 0x0, symName: __ZN9__gnu_cxx17__normal_iteratorIPSt6vectorIiSaIiEES1_IS3_SaIS3_EEEC1ERKS4_, symObjAddr: 0x77C4, symBinAddr: 0x10000A714, symSize: 0x28 }
  - { offset: 0x1DE3A, size: 0x8, addend: 0x0, symName: __ZNKSt6vectorIS_IiSaIiEESaIS1_EE8max_sizeEv, symObjAddr: 0x77A4, symBinAddr: 0x10000A6F4, symSize: 0x20 }
  - { offset: 0x1DE5E, size: 0x8, addend: 0x0, symName: __ZSt18uninitialized_copyIPKiPiET0_T_S4_S3_, symObjAddr: 0x7768, symBinAddr: 0x10000A6B8, symSize: 0x3C }
  - { offset: 0x1DED8, size: 0x8, addend: 0x0, symName: __ZNSt6vectorIiSaIiEE11_S_max_sizeERKS0_, symObjAddr: 0x7714, symBinAddr: 0x10000A664, symSize: 0x54 }
  - { offset: 0x1DF8B, size: 0x8, addend: 0x0, symName: __ZNSt20__uninitialized_copyILb1EE13__uninit_copyIN9__gnu_cxx17__normal_iteratorIPKiSt6vectorIiSaIiEEEEPiEET0_T_SC_SB_, symObjAddr: 0x76E8, symBinAddr: 0x10000A638, symSize: 0x2C }
  - { offset: 0x1DFE5, size: 0x8, addend: 0x0, symName: __ZSt12__relocate_aIPiS0_SaIiEET0_T_S3_S2_RT1_, symObjAddr: 0x768C, symBinAddr: 0x10000A5DC, symSize: 0x5C }
  - { offset: 0x1E080, size: 0x8, addend: 0x0, symName: __ZNKSt6vectorIiSaIiEE8max_sizeEv, symObjAddr: 0x766C, symBinAddr: 0x10000A5BC, symSize: 0x20 }
  - { offset: 0x1E0A4, size: 0x8, addend: 0x0, symName: __ZSt26__unguarded_insertion_sortIN9__gnu_cxx17__normal_iteratorIPiSt6vectorIiSaIiEEEENS0_5__ops15_Iter_less_iterEEvT_S9_T0_, symObjAddr: 0x7600, symBinAddr: 0x10000A550, symSize: 0x6C }
  - { offset: 0x1E121, size: 0x8, addend: 0x0, symName: __ZSt16__insertion_sortIN9__gnu_cxx17__normal_iteratorIPiSt6vectorIiSaIiEEEENS0_5__ops15_Iter_less_iterEEvT_S9_T0_, symObjAddr: 0x7504, symBinAddr: 0x10000A454, symSize: 0xFC }
  - { offset: 0x1E1C5, size: 0x8, addend: 0x0, symName: __ZNK9__gnu_cxx17__normal_iteratorIPiSt6vectorIiSaIiEEEplEl, symObjAddr: 0x74C4, symBinAddr: 0x10000A414, symSize: 0x40 }
  - { offset: 0x1E1F9, size: 0x8, addend: 0x0, symName: __ZSt27__unguarded_partition_pivotIN9__gnu_cxx17__normal_iteratorIPiSt6vectorIiSaIiEEEENS0_5__ops15_Iter_less_iterEET_S9_S9_T0_, symObjAddr: 0x7420, symBinAddr: 0x10000A370, symSize: 0xA4 }
  - { offset: 0x1E263, size: 0x8, addend: 0x0, symName: __ZSt14__partial_sortIN9__gnu_cxx17__normal_iteratorIPiSt6vectorIiSaIiEEEENS0_5__ops15_Iter_less_iterEEvT_S9_S9_T0_, symObjAddr: 0x73D4, symBinAddr: 0x10000A324, symSize: 0x4C }
  - { offset: 0x1E2CD, size: 0x8, addend: 0x0, symName: __ZNSt12_Destroy_auxILb1EE9__destroyIPiEEvT_S3_, symObjAddr: 0x73BC, symBinAddr: 0x10000A30C, symSize: 0x18 }
  - { offset: 0x1E304, size: 0x8, addend: 0x0, symName: __ZNSt15__new_allocatorIiE10deallocateEPim, symObjAddr: 0x738C, symBinAddr: 0x10000A2DC, symSize: 0x30 }
  - { offset: 0x1E348, size: 0x8, addend: 0x0, symName: __ZSt13__countl_zeroImEiT_, symObjAddr: 0x7338, symBinAddr: 0x10000A288, symSize: 0x54 }
  - { offset: 0x1E3DC, size: 0x8, addend: 0x0, symName: __ZSt8_DestroyIPSt6vectorIiSaIiEEEvT_S4_, symObjAddr: 0x7310, symBinAddr: 0x10000A260, symSize: 0x28 }
  - { offset: 0x1E45F, size: 0x8, addend: 0x0, symName: __ZNSt6vectorIS_IiSaIiEESaIS1_EE11_S_relocateEPS1_S4_S4_RS2_, symObjAddr: 0x72DC, symBinAddr: 0x10000A22C, symSize: 0x34 }
  - { offset: 0x1E4B7, size: 0x8, addend: 0x0, symName: __ZSt12__to_addressISt6vectorIiSaIiEEEPT_S4_, symObjAddr: 0x72C8, symBinAddr: 0x10000A218, symSize: 0x14 }
  - { offset: 0x1E51E, size: 0x8, addend: 0x0, symName: __ZNSt12_Vector_baseISt6vectorIiSaIiEESaIS2_EE11_M_allocateEm, symObjAddr: 0x7278, symBinAddr: 0x10000A1C8, symSize: 0x50 }
  - { offset: 0x1E585, size: 0x8, addend: 0x0, symName: __ZN9__gnu_cxxmiIPSt6vectorIiSaIiEES1_IS3_SaIS3_EEEENS_17__normal_iteratorIT_T0_E15difference_typeERKSA_SD_, symObjAddr: 0x722C, symBinAddr: 0x10000A17C, symSize: 0x4C }
  - { offset: 0x1E5D3, size: 0x8, addend: 0x0, symName: __ZNSt6vectorIS_IiSaIiEESaIS1_EE5beginEv, symObjAddr: 0x7208, symBinAddr: 0x10000A158, symSize: 0x24 }
  - { offset: 0x1E5FB, size: 0x8, addend: 0x0, symName: __ZNSt6vectorIS_IiSaIiEESaIS1_EE3endEv, symObjAddr: 0x71E0, symBinAddr: 0x10000A130, symSize: 0x28 }
  - { offset: 0x1E623, size: 0x8, addend: 0x0, symName: __ZNKSt6vectorIS_IiSaIiEESaIS1_EE12_M_check_lenEmPKc, symObjAddr: 0x7110, symBinAddr: 0x10000A060, symSize: 0xD0 }
  - { offset: 0x1E6BF, size: 0x8, addend: 0x0, symName: __ZSt7forwardIRKSt6vectorIiSaIiEEEOT_RNSt16remove_referenceIS5_E4typeE, symObjAddr: 0x70FC, symBinAddr: 0x10000A04C, symSize: 0x14 }
  - { offset: 0x1E6F0, size: 0x8, addend: 0x0, symName: __ZSt22__uninitialized_copy_aIPKiPiiET0_T_S4_S3_RSaIT1_E, symObjAddr: 0x70CC, symBinAddr: 0x10000A01C, symSize: 0x30 }
  - { offset: 0x1E75C, size: 0x8, addend: 0x0, symName: __ZNSt6vectorIiSaIiEE17_S_check_init_lenEmRKS0_, symObjAddr: 0x7048, symBinAddr: 0x100009F98, symSize: 0x84 }
  - { offset: 0x1E855, size: 0x8, addend: 0x0, symName: __ZNKSt16initializer_listIiE4sizeEv, symObjAddr: 0x7030, symBinAddr: 0x100009F80, symSize: 0x18 }
  - { offset: 0x1E879, size: 0x8, addend: 0x0, symName: __ZSt18uninitialized_copyIN9__gnu_cxx17__normal_iteratorIPKiSt6vectorIiSaIiEEEEPiET0_T_SA_S9_, symObjAddr: 0x6FF4, symBinAddr: 0x100009F44, symSize: 0x3C }
  - { offset: 0x1E920, size: 0x8, addend: 0x0, symName: __ZN9__gnu_cxx17__normal_iteratorIPKiSt6vectorIiSaIiEEEC1ERKS2_, symObjAddr: 0x6FCC, symBinAddr: 0x100009F1C, symSize: 0x28 }
  - { offset: 0x1E94E, size: 0x8, addend: 0x0, symName: __ZNSt12_Vector_baseIiSaIiEE17_M_create_storageEm, symObjAddr: 0x6F6C, symBinAddr: 0x100009EBC, symSize: 0x60 }
  - { offset: 0x1E9AE, size: 0x8, addend: 0x0, symName: __ZNSt12_Vector_baseIiSaIiEE12_Vector_implC1ERKS0_, symObjAddr: 0x6F20, symBinAddr: 0x100009E70, symSize: 0x4C }
  - { offset: 0x1EA55, size: 0x8, addend: 0x0, symName: __ZNK9__gnu_cxx5__ops15_Iter_less_iterclINS_17__normal_iteratorIPiSt6vectorIiSaIiEEEES8_EEbT_T0_, symObjAddr: 0x6ED8, symBinAddr: 0x100009E28, symSize: 0x48 }
  - { offset: 0x1EAAB, size: 0x8, addend: 0x0, symName: __ZN9__gnu_cxxeqIPiSt6vectorIiSaIiEEEEbRKNS_17__normal_iteratorIT_T0_EESA_, symObjAddr: 0x6E94, symBinAddr: 0x100009DE4, symSize: 0x44 }
  - { offset: 0x1EB10, size: 0x8, addend: 0x0, symName: __ZNSt6vectorIiSaIiEE11_S_relocateEPiS2_S2_RS0_, symObjAddr: 0x6E60, symBinAddr: 0x100009DB0, symSize: 0x34 }
  - { offset: 0x1EB68, size: 0x8, addend: 0x0, symName: __ZSt12__to_addressIiEPT_S1_, symObjAddr: 0x6E4C, symBinAddr: 0x100009D9C, symSize: 0x14 }
  - { offset: 0x1EB9D, size: 0x8, addend: 0x0, symName: __ZNSt12_Vector_baseIiSaIiEE11_M_allocateEm, symObjAddr: 0x6DFC, symBinAddr: 0x100009D4C, symSize: 0x50 }
  - { offset: 0x1EC02, size: 0x8, addend: 0x0, symName: __ZNKSt6vectorIiSaIiEE12_M_check_lenEmPKc, symObjAddr: 0x6D2C, symBinAddr: 0x100009C7C, symSize: 0xD0 }
  - { offset: 0x1EC9E, size: 0x8, addend: 0x0, symName: __ZSt7forwardIRKiEOT_RNSt16remove_referenceIS2_E4typeE, symObjAddr: 0x6D18, symBinAddr: 0x100009C68, symSize: 0x14 }
  - { offset: 0x1ECCF, size: 0x8, addend: 0x0, symName: __ZSt22__final_insertion_sortIN9__gnu_cxx17__normal_iteratorIPiSt6vectorIiSaIiEEEENS0_5__ops15_Iter_less_iterEEvT_S9_T0_, symObjAddr: 0x6C7C, symBinAddr: 0x100009BCC, symSize: 0x9C }
  - { offset: 0x1ED29, size: 0x8, addend: 0x0, symName: __ZSt16__introsort_loopIN9__gnu_cxx17__normal_iteratorIPiSt6vectorIiSaIiEEEElNS0_5__ops15_Iter_less_iterEEvT_S9_T0_T1_, symObjAddr: 0x6BC4, symBinAddr: 0x100009B14, symSize: 0xB8 }
  - { offset: 0x1EDBF, size: 0x8, addend: 0x0, symName: __ZSt4__lgIlET_S0_, symObjAddr: 0x6BA0, symBinAddr: 0x100009AF0, symSize: 0x24 }
  - { offset: 0x1EDF0, size: 0x8, addend: 0x0, symName: __ZN9__gnu_cxxmiIPiSt6vectorIiSaIiEEEENS_17__normal_iteratorIT_T0_E15difference_typeERKS8_SB_, symObjAddr: 0x6B60, symBinAddr: 0x100009AB0, symSize: 0x40 }
  - { offset: 0x1EE3A, size: 0x8, addend: 0x0, symName: __ZSt8_DestroyIPiEvT_S1_, symObjAddr: 0x6B38, symBinAddr: 0x100009A88, symSize: 0x28 }
  - { offset: 0x1EEAD, size: 0x8, addend: 0x0, symName: __ZSt11__bit_widthImEiT_, symObjAddr: 0x6B08, symBinAddr: 0x100009A58, symSize: 0x30 }
  - { offset: 0x1EF2E, size: 0x8, addend: 0x0, symName: __ZNSt12_Vector_baseISt6vectorIiSaIiEESaIS2_EE19_M_get_Tp_allocatorEv, symObjAddr: 0x6AF4, symBinAddr: 0x100009A44, symSize: 0x14 }
  - { offset: 0x1EF56, size: 0x8, addend: 0x0, symName: __ZNSt12_Vector_baseISt6vectorIiSaIiEESaIS2_EE13_M_deallocateEPS2_m, symObjAddr: 0x6A9C, symBinAddr: 0x1000099EC, symSize: 0x58 }
  - { offset: 0x1EFF9, size: 0x8, addend: 0x0, symName: __ZNSt15__new_allocatorISt6vectorIiSaIiEEED2Ev, symObjAddr: 0x6A88, symBinAddr: 0x1000099D8, symSize: 0x14 }
  - { offset: 0x1F039, size: 0x8, addend: 0x0, symName: __ZNSt12_Vector_baseISt6vectorIiSaIiEESaIS2_EE17_Vector_impl_dataC2Ev, symObjAddr: 0x6A5C, symBinAddr: 0x1000099AC, symSize: 0x2C }
  - { offset: 0x1F0A1, size: 0x8, addend: 0x0, symName: __ZNSt6vectorIS_IiSaIiEESaIS1_EE17_M_realloc_appendIJRKS1_EEEvDpOT_, symObjAddr: 0x6834, symBinAddr: 0x100009784, symSize: 0x228 }
  - { offset: 0x1F21E, size: 0x8, addend: 0x0, symName: __ZZNSt6vectorIS_IiSaIiEESaIS1_EE17_M_realloc_appendIJRKS1_EEEvDpOT_EN6_GuardC1EPS1_mRS2_, symObjAddr: 0x6790, symBinAddr: 0x1000096E0, symSize: 0x44 }
  - { offset: 0x1F263, size: 0x8, addend: 0x0, symName: __ZZNSt6vectorIS_IiSaIiEESaIS1_EE17_M_realloc_appendIJRKS1_EEEvDpOT_EN6_GuardD1Ev, symObjAddr: 0x67D4, symBinAddr: 0x100009724, symSize: 0x60 }
  - { offset: 0x1F394, size: 0x8, addend: 0x0, symName: __ZNSt6vectorIiSaIiEE19_M_range_initializeIPKiEEvT_S5_St20forward_iterator_tag, symObjAddr: 0x66AC, symBinAddr: 0x1000095FC, symSize: 0xE4 }
  - { offset: 0x1F4AD, size: 0x8, addend: 0x0, symName: __ZNKSt16initializer_listIiE3endEv, symObjAddr: 0x6674, symBinAddr: 0x1000095C4, symSize: 0x38 }
  - { offset: 0x1F4D5, size: 0x8, addend: 0x0, symName: __ZNKSt16initializer_listIiE5beginEv, symObjAddr: 0x665C, symBinAddr: 0x1000095AC, symSize: 0x18 }
  - { offset: 0x1F526, size: 0x8, addend: 0x0, symName: __ZNSt12_Vector_baseIiSaIiEEC2ERKS0_, symObjAddr: 0x6634, symBinAddr: 0x100009584, symSize: 0x28 }
  - { offset: 0x1F566, size: 0x8, addend: 0x0, symName: __ZSt22__uninitialized_copy_aIN9__gnu_cxx17__normal_iteratorIPKiSt6vectorIiSaIiEEEEPiiET0_T_SA_S9_RSaIT1_E, symObjAddr: 0x6604, symBinAddr: 0x100009554, symSize: 0x30 }
  - { offset: 0x1F5D6, size: 0x8, addend: 0x0, symName: __ZNKSt6vectorIiSaIiEE3endEv, symObjAddr: 0x65DC, symBinAddr: 0x10000952C, symSize: 0x28 }
  - { offset: 0x1F5FE, size: 0x8, addend: 0x0, symName: __ZNKSt6vectorIiSaIiEE5beginEv, symObjAddr: 0x65B8, symBinAddr: 0x100009508, symSize: 0x24 }
  - { offset: 0x1F65D, size: 0x8, addend: 0x0, symName: __ZNSt12_Vector_baseIiSaIiEEC2EmRKS0_, symObjAddr: 0x6564, symBinAddr: 0x1000094B4, symSize: 0x54 }
  - { offset: 0x1F6A9, size: 0x8, addend: 0x0, symName: __ZNKSt12_Vector_baseIiSaIiEE19_M_get_Tp_allocatorEv, symObjAddr: 0x6550, symBinAddr: 0x1000094A0, symSize: 0x14 }
  - { offset: 0x1F6D1, size: 0x8, addend: 0x0, symName: __ZNK9__gnu_cxx17__normal_iteratorIPiSt6vectorIiSaIiEEE4baseEv, symObjAddr: 0x653C, symBinAddr: 0x10000948C, symSize: 0x14 }
  - { offset: 0x1F6F5, size: 0x8, addend: 0x0, symName: __ZSt13__max_elementIN9__gnu_cxx17__normal_iteratorIPiSt6vectorIiSaIiEEEENS0_5__ops15_Iter_less_iterEET_S9_S9_T0_, symObjAddr: 0x64A4, symBinAddr: 0x1000093F4, symSize: 0x98 }
  - { offset: 0x1F78B, size: 0x8, addend: 0x0, symName: __ZNSt12_Vector_baseIiSaIiEE17_Vector_impl_dataC2EOS2_, symObjAddr: 0x6434, symBinAddr: 0x100009384, symSize: 0x70 }
  - { offset: 0x1F7E4, size: 0x8, addend: 0x0, symName: __ZSt4moveIRNSt12_Vector_baseIiSaIiEE12_Vector_implEEONSt16remove_referenceIT_E4typeEOS6_, symObjAddr: 0x6420, symBinAddr: 0x100009370, symSize: 0x14 }
  - { offset: 0x1F819, size: 0x8, addend: 0x0, symName: __ZNSt6vectorIiSaIiEE17_M_realloc_appendIJRKiEEEvDpOT_, symObjAddr: 0x6264, symBinAddr: 0x1000091B4, symSize: 0x1BC }
  - { offset: 0x1F996, size: 0x8, addend: 0x0, symName: __ZZNSt6vectorIiSaIiEE17_M_realloc_appendIJRKiEEEvDpOT_EN6_GuardC1EPimRS0_, symObjAddr: 0x61C0, symBinAddr: 0x100009110, symSize: 0x44 }
  - { offset: 0x1F9DB, size: 0x8, addend: 0x0, symName: __ZZNSt6vectorIiSaIiEE17_M_realloc_appendIJRKiEEEvDpOT_EN6_GuardD1Ev, symObjAddr: 0x6204, symBinAddr: 0x100009154, symSize: 0x60 }
  - { offset: 0x1FB0C, size: 0x8, addend: 0x0, symName: __ZSt6__sortIN9__gnu_cxx17__normal_iteratorIPiSt6vectorIiSaIiEEEENS0_5__ops15_Iter_less_iterEEvT_S9_T0_, symObjAddr: 0x6148, symBinAddr: 0x100009098, symSize: 0x78 }
  - { offset: 0x1FB93, size: 0x8, addend: 0x0, symName: __ZN9__gnu_cxx17__normal_iteratorIPiSt6vectorIiSaIiEEEC1ERKS1_, symObjAddr: 0x6120, symBinAddr: 0x100009070, symSize: 0x28 }
  - { offset: 0x1FBFC, size: 0x8, addend: 0x0, symName: __ZNSt12_Vector_baseIiSaIiEE19_M_get_Tp_allocatorEv, symObjAddr: 0x610C, symBinAddr: 0x10000905C, symSize: 0x14 }
  - { offset: 0x1FC24, size: 0x8, addend: 0x0, symName: __ZNSt12_Vector_baseIiSaIiEE13_M_deallocateEPim, symObjAddr: 0x60B4, symBinAddr: 0x100009004, symSize: 0x58 }
  - { offset: 0x1FCC7, size: 0x8, addend: 0x0, symName: __ZNSt15__new_allocatorIiED2Ev, symObjAddr: 0x60A0, symBinAddr: 0x100008FF0, symSize: 0x14 }
  - { offset: 0x1FD07, size: 0x8, addend: 0x0, symName: __ZNSt12_Vector_baseIiSaIiEE17_Vector_impl_dataC2Ev, symObjAddr: 0x6074, symBinAddr: 0x100008FC4, symSize: 0x2C }
  - { offset: 0x1FD51, size: 0x8, addend: 0x0, symName: __ZNSt15__new_allocatorIcED2Ev, symObjAddr: 0x6060, symBinAddr: 0x100008FB0, symSize: 0x14 }
  - { offset: 0x1FDD1, size: 0x8, addend: 0x0, symName: __ZNSt7__cxx1112basic_stringIcSt11char_traitsIcESaIcEEC1IS3_EEmcRKS3_, symObjAddr: 0x5FEC, symBinAddr: 0x100008F3C, symSize: 0x74 }
  - { offset: 0x1FE0D, size: 0x8, addend: 0x0, symName: __ZSt3maxIiERKT_S2_S2_, symObjAddr: 0x5FB4, symBinAddr: 0x100008F04, symSize: 0x38 }
  - { offset: 0x1FE77, size: 0x8, addend: 0x0, symName: __ZNSt6vectorIS_IiSaIiEESaIS1_EED1Ev, symObjAddr: 0x5F58, symBinAddr: 0x100008EA8, symSize: 0x5C }
  - { offset: 0x1FEF7, size: 0x8, addend: 0x0, symName: __ZNSt12_Vector_baseISt6vectorIiSaIiEESaIS2_EED2Ev, symObjAddr: 0x5EFC, symBinAddr: 0x100008E4C, symSize: 0x5C }
  - { offset: 0x1FF57, size: 0x8, addend: 0x0, symName: __ZNSt12_Vector_baseISt6vectorIiSaIiEESaIS2_EE12_Vector_implC1Ev, symObjAddr: 0x5EC4, symBinAddr: 0x100008E14, symSize: 0x38 }
  - { offset: 0x1FFC2, size: 0x8, addend: 0x0, symName: __ZNSt6vectorIiSaIiEE8pop_backEv, symObjAddr: 0x5E70, symBinAddr: 0x100008DC0, symSize: 0x54 }
  - { offset: 0x20044, size: 0x8, addend: 0x0, symName: __ZNSt6vectorIS_IiSaIiEESaIS1_EE9push_backERKS1_, symObjAddr: 0x5D74, symBinAddr: 0x100008CC4, symSize: 0xFC }
  - { offset: 0x20117, size: 0x8, addend: 0x0, symName: __ZNSt6vectorIiSaIiEEC1ESt16initializer_listIiERKS0_, symObjAddr: 0x5D04, symBinAddr: 0x100008C54, symSize: 0x70 }
  - { offset: 0x2018D, size: 0x8, addend: 0x0, symName: __ZNSt6vectorIiSaIiEEC1ERKS1_, symObjAddr: 0x5BF0, symBinAddr: 0x100008B40, symSize: 0x114 }
  - { offset: 0x2029F, size: 0x8, addend: 0x0, symName: __ZNSt6vectorIS_IiSaIiEESaIS1_EEixEm, symObjAddr: 0x5BBC, symBinAddr: 0x100008B0C, symSize: 0x34 }
  - { offset: 0x202D7, size: 0x8, addend: 0x0, symName: __ZNKSt6vectorIS_IiSaIiEESaIS1_EE4sizeEv, symObjAddr: 0x5B88, symBinAddr: 0x100008AD8, symSize: 0x34 }
  - { offset: 0x202FB, size: 0x8, addend: 0x0, symName: __ZSt4swapIiENSt9enable_ifIXsrSt6__and_IJSt6__not_ISt15__is_tuple_likeIT_EESt21is_move_constructibleIS4_ESt18is_move_assignableIS4_EEE5valueEvE4typeERS4_SE_, symObjAddr: 0x5B34, symBinAddr: 0x100008A84, symSize: 0x54 }
  - { offset: 0x20352, size: 0x8, addend: 0x0, symName: __ZSt4moveIRiEONSt16remove_referenceIT_E4typeEOS2_, symObjAddr: 0x5B20, symBinAddr: 0x100008A70, symSize: 0x14 }
  - { offset: 0x20387, size: 0x8, addend: 0x0, symName: __ZN9__gnu_cxx17__normal_iteratorIPiSt6vectorIiSaIiEEEppEv, symObjAddr: 0x5AF8, symBinAddr: 0x100008A48, symSize: 0x28 }
  - { offset: 0x203AB, size: 0x8, addend: 0x0, symName: __ZN9__gnu_cxxneIPiSt6vectorIiSaIiEEEEbRKNS_17__normal_iteratorIT_T0_EESA_, symObjAddr: 0x5AB4, symBinAddr: 0x100008A04, symSize: 0x44 }
  - { offset: 0x203F9, size: 0x8, addend: 0x0, symName: __ZNK9__gnu_cxx17__normal_iteratorIPiSt6vectorIiSaIiEEEdeEv, symObjAddr: 0x5A9C, symBinAddr: 0x1000089EC, symSize: 0x18 }
  - { offset: 0x2041D, size: 0x8, addend: 0x0, symName: __ZSt11max_elementIN9__gnu_cxx17__normal_iteratorIPiSt6vectorIiSaIiEEEEET_S7_S7_, symObjAddr: 0x5A68, symBinAddr: 0x1000089B8, symSize: 0x34 }
  - { offset: 0x2045E, size: 0x8, addend: 0x0, symName: __ZSt3minIiERKT_S2_S2_, symObjAddr: 0x5A30, symBinAddr: 0x100008980, symSize: 0x38 }
  - { offset: 0x204CB, size: 0x8, addend: 0x0, symName: __ZNSt12_Vector_baseIiSaIiEE12_Vector_implC1EOS2_, symObjAddr: 0x59C4, symBinAddr: 0x100008914, symSize: 0x6C }
  - { offset: 0x20551, size: 0x8, addend: 0x0, symName: __ZNSt6vectorIiSaIiEE9push_backERKi, symObjAddr: 0x58FC, symBinAddr: 0x10000884C, symSize: 0xC8 }
  - { offset: 0x205F1, size: 0x8, addend: 0x0, symName: __ZSt4sortIN9__gnu_cxx17__normal_iteratorIPiSt6vectorIiSaIiEEEEEvT_S7_, symObjAddr: 0x58C4, symBinAddr: 0x100008814, symSize: 0x38 }
  - { offset: 0x20636, size: 0x8, addend: 0x0, symName: __ZNSt6vectorIiSaIiEE3endEv, symObjAddr: 0x589C, symBinAddr: 0x1000087EC, symSize: 0x28 }
  - { offset: 0x2065E, size: 0x8, addend: 0x0, symName: __ZNSt6vectorIiSaIiEE5beginEv, symObjAddr: 0x5878, symBinAddr: 0x1000087C8, symSize: 0x24 }
  - { offset: 0x206AB, size: 0x8, addend: 0x0, symName: __ZNSt6vectorIiSaIiEED1Ev, symObjAddr: 0x581C, symBinAddr: 0x10000876C, symSize: 0x5C }
  - { offset: 0x2072B, size: 0x8, addend: 0x0, symName: __ZNSt12_Vector_baseIiSaIiEED2Ev, symObjAddr: 0x57CC, symBinAddr: 0x10000871C, symSize: 0x50 }
  - { offset: 0x2078B, size: 0x8, addend: 0x0, symName: __ZNSt12_Vector_baseIiSaIiEE12_Vector_implC1Ev, symObjAddr: 0x5794, symBinAddr: 0x1000086E4, symSize: 0x38 }
  - { offset: 0x207F6, size: 0x8, addend: 0x0, symName: __ZNSt6vectorIxSaIxEEixEm, symObjAddr: 0x576C, symBinAddr: 0x1000086BC, symSize: 0x28 }
  - { offset: 0x2082E, size: 0x8, addend: 0x0, symName: __ZNSt6vectorIiSaIiEEixEm, symObjAddr: 0x5744, symBinAddr: 0x100008694, symSize: 0x28 }
  - { offset: 0x20866, size: 0x8, addend: 0x0, symName: __ZNKSt6vectorIiSaIiEE4sizeEv, symObjAddr: 0x571C, symBinAddr: 0x10000866C, symSize: 0x28 }
  - { offset: 0x2088A, size: 0x8, addend: 0x0, symName: __ZSt3maxImERKT_S2_S2_, symObjAddr: 0x56E4, symBinAddr: 0x100008634, symSize: 0x38 }
  - { offset: 0x2092D, size: 0x8, addend: 0x0, symName: __ZNSt7__cxx1112basic_stringIcSt11char_traitsIcESaIcEE12_Alloc_hiderD1Ev, symObjAddr: 0x56B8, symBinAddr: 0x100008608, symSize: 0x2C }
  - { offset: 0x2097A, size: 0x8, addend: 0x0, symName: _main, symObjAddr: 0x54E8, symBinAddr: 0x100008438, symSize: 0x1D0 }
  - { offset: 0x20B42, size: 0x8, addend: 0x0, symName: __Z27smallestDivisorBinarySearchRSt6vectorIiSaIiEEi, symObjAddr: 0x5310, symBinAddr: 0x100008260, symSize: 0x1D8 }
  - { offset: 0x20CA4, size: 0x8, addend: 0x0, symName: __Z23smallestDivisorRevisionRSt6vectorIiSaIiEEi, symObjAddr: 0x51BC, symBinAddr: 0x10000810C, symSize: 0x154 }
  - { offset: 0x20DE7, size: 0x8, addend: 0x0, symName: __Z7minDaysRSt6vectorIiSaIiEEii, symObjAddr: 0x4F84, symBinAddr: 0x100007ED4, symSize: 0x238 }
  - { offset: 0x20F50, size: 0x8, addend: 0x0, symName: __Z8possibleRSt6vectorIiSaIiEEiii, symObjAddr: 0x4EA4, symBinAddr: 0x100007DF4, symSize: 0xE0 }
  - { offset: 0x21008, size: 0x8, addend: 0x0, symName: __Z14minEatingSpeedRSt6vectorIiSaIiEEi, symObjAddr: 0x4D0C, symBinAddr: 0x100007C5C, symSize: 0x198 }
  - { offset: 0x2115C, size: 0x8, addend: 0x0, symName: __Z15nthRootRevisionii, symObjAddr: 0x4BFC, symBinAddr: 0x100007B4C, symSize: 0x110 }
  - { offset: 0x21227, size: 0x8, addend: 0x0, symName: __Z17floorSqrtRevisioni, symObjAddr: 0x4B50, symBinAddr: 0x100007AA0, symSize: 0xAC }
  - { offset: 0x212AF, size: 0x8, addend: 0x0, symName: __Z23findPeakElementRevisionRSt6vectorIiSaIiEE, symObjAddr: 0x48D8, symBinAddr: 0x100007828, symSize: 0x278 }
  - { offset: 0x21337, size: 0x8, addend: 0x0, symName: __Z26singleNonDuplicateRevisionRSt6vectorIiSaIiEE, symObjAddr: 0x4610, symBinAddr: 0x100007560, symSize: 0x2C8 }
  - { offset: 0x213CF, size: 0x8, addend: 0x0, symName: __Z21findKRotationRevisionRSt6vectorIiSaIiEE, symObjAddr: 0x4440, symBinAddr: 0x100007390, symSize: 0x1D0 }
  - { offset: 0x21467, size: 0x8, addend: 0x0, symName: __Z15findMinRevisionRSt6vectorIiSaIiEE, symObjAddr: 0x42C8, symBinAddr: 0x100007218, symSize: 0x178 }
  - { offset: 0x214EF, size: 0x8, addend: 0x0, symName: __Z15search2RevisionRSt6vectorIiSaIiEEi, symObjAddr: 0x4054, symBinAddr: 0x100006FA4, symSize: 0x274 }
  - { offset: 0x21587, size: 0x8, addend: 0x0, symName: __Z10splitArrayRSt6vectorIiSaIiEEi, symObjAddr: 0x3F24, symBinAddr: 0x100006E74, symSize: 0x130 }
  - { offset: 0x21668, size: 0x8, addend: 0x0, symName: __ZNSt6vectorIS_IiSaIiEESaIS1_EEC1Ev, symObjAddr: 0x3F04, symBinAddr: 0x100006E54, symSize: 0x20 }
  - { offset: 0x216A8, size: 0x8, addend: 0x0, symName: __ZNSt12_Vector_baseISt6vectorIiSaIiEESaIS2_EEC2Ev, symObjAddr: 0x3EE4, symBinAddr: 0x100006E34, symSize: 0x20 }
  - { offset: 0x216F5, size: 0x8, addend: 0x0, symName: __ZNSt12_Vector_baseISt6vectorIiSaIiEESaIS2_EE12_Vector_implD1Ev, symObjAddr: 0x3EB8, symBinAddr: 0x100006E08, symSize: 0x2C }
  - { offset: 0x21742, size: 0x8, addend: 0x0, symName: __Z16splitArrayHelperRSt6vectorIiSaIiEEiiiS2_RS_IS1_SaIS1_EE, symObjAddr: 0x3DBC, symBinAddr: 0x100006D0C, symSize: 0xFC }
  - { offset: 0x217FA, size: 0x8, addend: 0x0, symName: __Z14searchRevisionRSt6vectorIiSaIiEEi, symObjAddr: 0x3BE8, symBinAddr: 0x100006B38, symSize: 0x1D4 }
  - { offset: 0x21892, size: 0x8, addend: 0x0, symName: __Z19searchRangeRevisionRSt6vectorIiSaIiEEi, symObjAddr: 0x3938, symBinAddr: 0x100006888, symSize: 0x2B0 }
  - { offset: 0x219F5, size: 0x8, addend: 0x0, symName: __Z23getFloorAndCeilRevisioniRSt6vectorIiSaIiEE, symObjAddr: 0x385C, symBinAddr: 0x1000067AC, symSize: 0xDC }
  - { offset: 0x21AE0, size: 0x8, addend: 0x0, symName: __Z16findCeilRevisionRSt6vectorIiSaIiEEi, symObjAddr: 0x3774, symBinAddr: 0x1000066C4, symSize: 0xE8 }
  - { offset: 0x21B88, size: 0x8, addend: 0x0, symName: __Z17findFloorRevisionRSt6vectorIiSaIiEEi, symObjAddr: 0x368C, symBinAddr: 0x1000065DC, symSize: 0xE8 }
  - { offset: 0x21C30, size: 0x8, addend: 0x0, symName: __Z27findKthPositiveBinarySearchRSt6vectorIiSaIiEEi, symObjAddr: 0x35C8, symBinAddr: 0x100006518, symSize: 0xC4 }
  - { offset: 0x21CD8, size: 0x8, addend: 0x0, symName: __Z25findKthPositiveBruteForceRSt6vectorIiSaIiEEi, symObjAddr: 0x3538, symBinAddr: 0x100006488, symSize: 0x90 }
  - { offset: 0x21D50, size: 0x8, addend: 0x0, symName: __Z23findKthPositiveRevisionRSt6vectorIiSaIiEEi, symObjAddr: 0x3444, symBinAddr: 0x100006394, symSize: 0xF4 }
  - { offset: 0x21DC5, size: 0x8, addend: 0x0, symName: __Z18searchMatrix_2_TUFRSt6vectorIS_IiSaIiEESaIS1_EEi, symObjAddr: 0x332C, symBinAddr: 0x10000627C, symSize: 0x118 }
  - { offset: 0x21E4A, size: 0x8, addend: 0x0, symName: __Z14searchMatrix_2RSt6vectorIS_IiSaIiEESaIS1_EEi, symObjAddr: 0x3234, symBinAddr: 0x100006184, symSize: 0xF8 }
  - { offset: 0x21F05, size: 0x8, addend: 0x0, symName: __Z19binarySearchRowWiseRSt6vectorIS_IiSaIiEESaIS1_EEii, symObjAddr: 0x3108, symBinAddr: 0x100006058, symSize: 0x12C }
  - { offset: 0x21FAD, size: 0x8, addend: 0x0, symName: __Z13searchMatrix2RSt6vectorIS_IiSaIiEESaIS1_EEi, symObjAddr: 0x2FA0, symBinAddr: 0x100005EF0, symSize: 0x168 }
  - { offset: 0x22075, size: 0x8, addend: 0x0, symName: __Z12searchMatrixRSt6vectorIS_IiSaIiEESaIS1_EEi, symObjAddr: 0x2DB4, symBinAddr: 0x100005D04, symSize: 0x1EC }
  - { offset: 0x22154, size: 0x8, addend: 0x0, symName: __Z13rowWithMax1s2RSt6vectorIS_IiSaIiEESaIS1_EE, symObjAddr: 0x2CF0, symBinAddr: 0x100005C40, symSize: 0xC4 }
  - { offset: 0x2220F, size: 0x8, addend: 0x0, symName: __Z14findLowerBoundSt6vectorIiSaIiEE, symObjAddr: 0x2C24, symBinAddr: 0x100005B74, symSize: 0xCC }
  - { offset: 0x222A8, size: 0x8, addend: 0x0, symName: __Z12rowWithMax1sRSt6vectorIS_IiSaIiEESaIS1_EE, symObjAddr: 0x2B40, symBinAddr: 0x100005A90, symSize: 0xE4 }
  - { offset: 0x22386, size: 0x8, addend: 0x0, symName: __Z10kthElementiRSt6vectorIiSaIiEES2_, symObjAddr: 0x2978, symBinAddr: 0x1000058C8, symSize: 0x1C8 }
  - { offset: 0x2242B, size: 0x8, addend: 0x0, symName: __Z23findMedianSortedArrays2RSt6vectorIiSaIiEES2_, symObjAddr: 0x2684, symBinAddr: 0x1000055D4, symSize: 0x2F4 }
  - { offset: 0x22510, size: 0x8, addend: 0x0, symName: __Z22findMedianSortedArraysRSt6vectorIiSaIiEES2_, symObjAddr: 0x2560, symBinAddr: 0x1000054B0, symSize: 0x124 }
  - { offset: 0x225B8, size: 0x8, addend: 0x0, symName: __Z16findKthPositive3RSt6vectorIiSaIiEEi, symObjAddr: 0x2490, symBinAddr: 0x1000053E0, symSize: 0xD0 }
  - { offset: 0x22660, size: 0x8, addend: 0x0, symName: __Z16findKthPositive2RSt6vectorIiSaIiEEi, symObjAddr: 0x2364, symBinAddr: 0x1000052B4, symSize: 0x12C }
  - { offset: 0x226F8, size: 0x8, addend: 0x0, symName: __Z15findKthPositiveRSt6vectorIiSaIiEEi, symObjAddr: 0x2294, symBinAddr: 0x1000051E4, symSize: 0xD0 }
  - { offset: 0x2277D, size: 0x8, addend: 0x0, symName: __Z16smallestDivisor2RSt6vectorIiSaIiEEi, symObjAddr: 0x20EC, symBinAddr: 0x10000503C, symSize: 0x1A8 }
  - { offset: 0x22881, size: 0x8, addend: 0x0, symName: __Z15smallestDivisorRSt6vectorIiSaIiEEi, symObjAddr: 0x1F9C, symBinAddr: 0x100004EEC, symSize: 0x150 }
  - { offset: 0x22978, size: 0x8, addend: 0x0, symName: __Z8NthRoot2ii, symObjAddr: 0x1E90, symBinAddr: 0x100004DE0, symSize: 0x10C }
  - { offset: 0x22A43, size: 0x8, addend: 0x0, symName: __Z7NthRootii, symObjAddr: 0x1DD4, symBinAddr: 0x100004D24, symSize: 0xBC }
  - { offset: 0x22AF5, size: 0x8, addend: 0x0, symName: __Z10floorSqrt2x, symObjAddr: 0x1D24, symBinAddr: 0x100004C74, symSize: 0xB0 }
  - { offset: 0x22B7D, size: 0x8, addend: 0x0, symName: __Z9floorSqrtx, symObjAddr: 0x1CA8, symBinAddr: 0x100004BF8, symSize: 0x7C }
  - { offset: 0x22BE5, size: 0x8, addend: 0x0, symName: __Z19findPeakElementTUF2RSt6vectorIiSaIiEE, symObjAddr: 0x1A30, symBinAddr: 0x100004980, symSize: 0x278 }
  - { offset: 0x22C6D, size: 0x8, addend: 0x0, symName: __Z18findPeakElementTUFRSt6vectorIiSaIiEE, symObjAddr: 0x1758, symBinAddr: 0x1000046A8, symSize: 0x2D8 }
  - { offset: 0x22CF5, size: 0x8, addend: 0x0, symName: __Z16findPeakElement2RSt6vectorIiSaIiEE, symObjAddr: 0x166C, symBinAddr: 0x1000045BC, symSize: 0xEC }
  - { offset: 0x22D6A, size: 0x8, addend: 0x0, symName: __Z15findPeakElementRSt6vectorIiSaIiEE, symObjAddr: 0x15D4, symBinAddr: 0x100004524, symSize: 0x98 }
  - { offset: 0x22DE2, size: 0x8, addend: 0x0, symName: __Z19singleNonDuplicate2RSt6vectorIiSaIiEE, symObjAddr: 0x1318, symBinAddr: 0x100004268, symSize: 0x2BC }
  - { offset: 0x22E6A, size: 0x8, addend: 0x0, symName: __Z18singleNonDuplicateRSt6vectorIiSaIiEE, symObjAddr: 0x10BC, symBinAddr: 0x10000400C, symSize: 0x25C }
  - { offset: 0x22EF6, size: 0x8, addend: 0x0, symName: __Z13findKRotationRSt6vectorIiSaIiEE, symObjAddr: 0xEB4, symBinAddr: 0x100003E04, symSize: 0x208 }
  - { offset: 0x22F82, size: 0x8, addend: 0x0, symName: __Z7findMinRSt6vectorIiSaIiEE, symObjAddr: 0xD3C, symBinAddr: 0x100003C8C, symSize: 0x178 }
  - { offset: 0x23009, size: 0x8, addend: 0x0, symName: __Z29searchInARotatedSortedArrayIIRSt6vectorIiSaIiEEi, symObjAddr: 0xAC8, symBinAddr: 0x100003A18, symSize: 0x274 }
  - { offset: 0x230A0, size: 0x8, addend: 0x0, symName: __Z6searchRSt6vectorIiSaIiEEi, symObjAddr: 0x8BC, symBinAddr: 0x10000380C, symSize: 0x20C }
  - { offset: 0x23127, size: 0x8, addend: 0x0, symName: __Z11searchRangeRSt6vectorIiSaIiEEi, symObjAddr: 0x6C8, symBinAddr: 0x100003618, symSize: 0x1F4 }
  - { offset: 0x23231, size: 0x8, addend: 0x0, symName: __Z12searchInsertRSt6vectorIiSaIiEEi, symObjAddr: 0x5F8, symBinAddr: 0x100003548, symSize: 0xD0 }
  - { offset: 0x232D8, size: 0x8, addend: 0x0, symName: __Z15getFloorAndCeiliRSt6vectorIiSaIiEE, symObjAddr: 0x424, symBinAddr: 0x100003374, symSize: 0x1D4 }
  - { offset: 0x233FA, size: 0x8, addend: 0x0, symName: __ZNSt6vectorIiSaIiEEC1EOS1_, symObjAddr: 0x3FC, symBinAddr: 0x10000334C, symSize: 0x28 }
  - { offset: 0x23448, size: 0x8, addend: 0x0, symName: __ZNSt12_Vector_baseIiSaIiEEC2EOS1_, symObjAddr: 0x3D4, symBinAddr: 0x100003324, symSize: 0x28 }
  - { offset: 0x23491, size: 0x8, addend: 0x0, symName: __ZNSt6vectorIiSaIiEEC1Ev, symObjAddr: 0x3B4, symBinAddr: 0x100003304, symSize: 0x20 }
  - { offset: 0x234D1, size: 0x8, addend: 0x0, symName: __ZNSt12_Vector_baseIiSaIiEEC2Ev, symObjAddr: 0x394, symBinAddr: 0x1000032E4, symSize: 0x20 }
  - { offset: 0x2351E, size: 0x8, addend: 0x0, symName: __ZNSt12_Vector_baseIiSaIiEE12_Vector_implD1Ev, symObjAddr: 0x368, symBinAddr: 0x1000032B8, symSize: 0x2C }
  - { offset: 0x2356E, size: 0x8, addend: 0x0, symName: __Z9findFloorRSt6vectorIxSaIxEExx, symObjAddr: 0x2A8, symBinAddr: 0x1000031F8, symSize: 0xC0 }
  - { offset: 0x23625, size: 0x8, addend: 0x0, symName: __Z21binarySearchRecursiveRSt6vectorIiSaIiEEi, symObjAddr: 0x260, symBinAddr: 0x1000031B0, symSize: 0x48 }
  - { offset: 0x23699, size: 0x8, addend: 0x0, symName: __Z18binarySearchHelperRSt6vectorIiSaIiEEiii, symObjAddr: 0x18C, symBinAddr: 0x1000030DC, symSize: 0xD4 }
  - { offset: 0x2371D, size: 0x8, addend: 0x0, symName: __Z12binarySearchRSt6vectorIiSaIiEEi, symObjAddr: 0xA0, symBinAddr: 0x100002FF0, symSize: 0xEC }
  - { offset: 0x237A8, size: 0x8, addend: 0x0, symName: __ZSt3minImERKT_S2_S2_, symObjAddr: 0x68, symBinAddr: 0x100002FB8, symSize: 0x38 }
  - { offset: 0x237F1, size: 0x8, addend: 0x0, symName: __ZdlPvS_, symObjAddr: 0x50, symBinAddr: 0x100002FA0, symSize: 0x18 }
  - { offset: 0x23827, size: 0x8, addend: 0x0, symName: __ZnwmPv, symObjAddr: 0x38, symBinAddr: 0x100002F88, symSize: 0x18 }
  - { offset: 0x23858, size: 0x8, addend: 0x0, symName: __ZN9__gnu_cxx5__ops15__val_comp_iterENS0_15_Iter_less_iterE, symObjAddr: 0x20, symBinAddr: 0x100002F70, symSize: 0x18 }
  - { offset: 0x2389D, size: 0x8, addend: 0x0, symName: __ZN9__gnu_cxx5__ops14_Iter_less_valC1ENS0_15_Iter_less_iterE, symObjAddr: 0x8, symBinAddr: 0x100002F58, symSize: 0x18 }
  - { offset: 0x238C8, size: 0x8, addend: 0x0, symName: __ZN9__gnu_cxx5__ops16__iter_less_iterEv, symObjAddr: 0x0, symBinAddr: 0x100002F50, symSize: 0x8 }
...
