---
triple:          'arm64-apple-darwin'
binary-path:     '/Users/lalitsiraswa/Documents/Daily-Practice/StackAndQueue'
relocations:
  - { offset: 0x25010, size: 0x8, addend: 0x0, symName: __ZStL8__ioinit, symObjAddr: 0xC85E7, symBinAddr: 0x100018000, symSize: 0x0 }
  - { offset: 0x25C89, size: 0x8, addend: 0x0, symName: __ZNSt10_Head_baseILm0ERKiLb0EE7_M_headERS2_, symObjAddr: 0xAA50, symBinAddr: 0x10000BBC8, symSize: 0x18 }
  - { offset: 0x25CB2, size: 0x8, addend: 0x0, symName: __ZNSt11__copy_moveILb0ELb0ESt26random_access_iterator_tagE12__assign_oneIiKiEEvPT_PT0_, symObjAddr: 0xAA28, symBinAddr: 0x10000BBA0, symSize: 0x28 }
  - { offset: 0x25CFF, size: 0x8, addend: 0x0, symName: __ZNSt11_Tuple_implILm0EJRKiEE7_M_headERS2_, symObjAddr: 0xAA0C, symBinAddr: 0x10000BB84, symSize: 0x1C }
  - { offset: 0x25D29, size: 0x8, addend: 0x0, symName: __ZNSt11__copy_moveILb0ELb0ESt26random_access_iterator_tagE12__assign_oneIPNSt7__cxx1112basic_stringIcSt11char_traitsIcESaIcEEES9_EEvPT_PT0_, symObjAddr: 0xA9E4, symBinAddr: 0x10000BB5C, symSize: 0x28 }
  - { offset: 0x25D76, size: 0x8, addend: 0x0, symName: __ZNSt11__copy_moveILb0ELb0ESt26random_access_iterator_tagE12__assign_oneIPcS3_EEvPT_PT0_, symObjAddr: 0xA9BC, symBinAddr: 0x10000BB34, symSize: 0x28 }
  - { offset: 0x25DC3, size: 0x8, addend: 0x0, symName: __ZNSt11__copy_moveILb0ELb0ESt26random_access_iterator_tagE12__assign_oneIPiS3_EEvPT_PT0_, symObjAddr: 0xA994, symBinAddr: 0x10000BB0C, symSize: 0x28 }
  - { offset: 0x25E10, size: 0x8, addend: 0x0, symName: __ZNSt11__copy_moveILb0ELb1ESt26random_access_iterator_tagE8__copy_mIKiiEEPT0_PT_S7_S5_, symObjAddr: 0xA904, symBinAddr: 0x10000BA7C, symSize: 0x90 }
  - { offset: 0x25E7F, size: 0x8, addend: 0x0, symName: __ZSt12__get_helperILm0ERKiJEERT0_RSt11_Tuple_implIXT_EJS2_DpT1_EE, symObjAddr: 0xA8E8, symBinAddr: 0x10000BA60, symSize: 0x1C }
  - { offset: 0x25EC1, size: 0x8, addend: 0x0, symName: __ZNSt20__copy_move_backwardILb0ELb1ESt26random_access_iterator_tagE13__copy_move_bIPNSt7__cxx1112basic_stringIcSt11char_traitsIcESaIcEEES9_EEPT0_PT_SD_SB_, symObjAddr: 0xA83C, symBinAddr: 0x10000B9B4, symSize: 0xAC }
  - { offset: 0x25F30, size: 0x8, addend: 0x0, symName: __ZNSt11__copy_moveILb0ELb1ESt26random_access_iterator_tagE8__copy_mIPNSt7__cxx1112basic_stringIcSt11char_traitsIcESaIcEEES9_EEPT0_PT_SD_SB_, symObjAddr: 0xA7AC, symBinAddr: 0x10000B924, symSize: 0x90 }
  - { offset: 0x25F9F, size: 0x8, addend: 0x0, symName: __ZNSt20__copy_move_backwardILb0ELb1ESt26random_access_iterator_tagE13__copy_move_bIPcS3_EEPT0_PT_S7_S5_, symObjAddr: 0xA700, symBinAddr: 0x10000B878, symSize: 0xAC }
  - { offset: 0x2600E, size: 0x8, addend: 0x0, symName: __ZNSt11__copy_moveILb0ELb1ESt26random_access_iterator_tagE8__copy_mIPcS3_EEPT0_PT_S7_S5_, symObjAddr: 0xA670, symBinAddr: 0x10000B7E8, symSize: 0x90 }
  - { offset: 0x2607D, size: 0x8, addend: 0x0, symName: __ZNSt20__copy_move_backwardILb0ELb1ESt26random_access_iterator_tagE13__copy_move_bIPiS3_EEPT0_PT_S7_S5_, symObjAddr: 0xA5C4, symBinAddr: 0x10000B73C, symSize: 0xAC }
  - { offset: 0x260EC, size: 0x8, addend: 0x0, symName: __ZNSt11__copy_moveILb0ELb1ESt26random_access_iterator_tagE8__copy_mIPiS3_EEPT0_PT_S7_S5_, symObjAddr: 0xA534, symBinAddr: 0x10000B6AC, symSize: 0x90 }
  - { offset: 0x2615B, size: 0x8, addend: 0x0, symName: __ZSt14__copy_move_a2ILb0EPKiPiET1_T0_S4_S3_, symObjAddr: 0xA508, symBinAddr: 0x10000B680, symSize: 0x2C }
  - { offset: 0x261C3, size: 0x8, addend: 0x0, symName: __ZSt9__fill_a1IPiiEN9__gnu_cxx11__enable_ifIXsrSt11__is_scalarIT0_E7__valueEvE6__typeET_S8_RKS4_, symObjAddr: 0xA4B0, symBinAddr: 0x10000B628, symSize: 0x58 }
  - { offset: 0x2623A, size: 0x8, addend: 0x0, symName: __ZNK9__gnu_cxx16__aligned_bufferISt4pairIKiiEE7_M_addrEv, symObjAddr: 0xA49C, symBinAddr: 0x10000B614, symSize: 0x14 }
  - { offset: 0x26260, size: 0x8, addend: 0x0, symName: __ZSt3getILm0EJRKiEERNSt13tuple_elementIXT_ESt5tupleIJDpT0_EEE4typeERS6_, symObjAddr: 0xA480, symBinAddr: 0x10000B5F8, symSize: 0x1C }
  - { offset: 0x2629F, size: 0x8, addend: 0x0, symName: __ZSt23__copy_move_backward_a2ILb0EPPNSt7__cxx1112basic_stringIcSt11char_traitsIcESaIcEEES7_ET1_T0_S9_S8_, symObjAddr: 0xA454, symBinAddr: 0x10000B5CC, symSize: 0x2C }
  - { offset: 0x26307, size: 0x8, addend: 0x0, symName: __ZSt14__copy_move_a2ILb0EPPNSt7__cxx1112basic_stringIcSt11char_traitsIcESaIcEEES7_ET1_T0_S9_S8_, symObjAddr: 0xA428, symBinAddr: 0x10000B5A0, symSize: 0x2C }
  - { offset: 0x2636F, size: 0x8, addend: 0x0, symName: __ZSt23__copy_move_backward_a2ILb0EPPcS1_ET1_T0_S3_S2_, symObjAddr: 0xA3FC, symBinAddr: 0x10000B574, symSize: 0x2C }
  - { offset: 0x263D7, size: 0x8, addend: 0x0, symName: __ZSt14__copy_move_a2ILb0EPPcS1_ET1_T0_S3_S2_, symObjAddr: 0xA3D0, symBinAddr: 0x10000B548, symSize: 0x2C }
  - { offset: 0x2643F, size: 0x8, addend: 0x0, symName: __ZSt23__copy_move_backward_a2ILb0EPPiS1_ET1_T0_S3_S2_, symObjAddr: 0xA3A4, symBinAddr: 0x10000B51C, symSize: 0x2C }
  - { offset: 0x264A7, size: 0x8, addend: 0x0, symName: __ZSt14__copy_move_a2ILb0EPPiS1_ET1_T0_S3_S2_, symObjAddr: 0xA378, symBinAddr: 0x10000B4F0, symSize: 0x2C }
  - { offset: 0x2650F, size: 0x8, addend: 0x0, symName: __ZSt12__niter_wrapIPiET_RKS1_S1_, symObjAddr: 0xA360, symBinAddr: 0x10000B4D8, symSize: 0x18 }
  - { offset: 0x2654B, size: 0x8, addend: 0x0, symName: __ZSt14__copy_move_a1ILb0EPKiPiET1_T0_S4_S3_, symObjAddr: 0xA334, symBinAddr: 0x10000B4AC, symSize: 0x2C }
  - { offset: 0x265B3, size: 0x8, addend: 0x0, symName: __ZSt12__niter_baseIPKiET_S2_, symObjAddr: 0xA320, symBinAddr: 0x10000B498, symSize: 0x14 }
  - { offset: 0x265E6, size: 0x8, addend: 0x0, symName: __ZSt8__fill_aIPiiEvT_S1_RKT0_, symObjAddr: 0xA2F0, symBinAddr: 0x10000B468, symSize: 0x30 }
  - { offset: 0x26648, size: 0x8, addend: 0x0, symName: __ZNK9__gnu_cxx16__aligned_bufferISt4pairIKiiEE6_M_ptrEv, symObjAddr: 0xA2D4, symBinAddr: 0x10000B44C, symSize: 0x1C }
  - { offset: 0x26672, size: 0x8, addend: 0x0, symName: __ZNSt15__new_allocatorIPNSt8__detail15_Hash_node_baseEE8allocateEmPKv, symObjAddr: 0xA258, symBinAddr: 0x10000B3D0, symSize: 0x7C }
  - { offset: 0x26767, size: 0x8, addend: 0x0, symName: __ZNSt4pairIKiiEC1IJRS0_EJLm0EEJEJEEERSt5tupleIJDpT_EERS4_IJDpT1_EESt12_Index_tupleIJXspT0_EEESD_IJXspT2_EEE, symObjAddr: 0xA210, symBinAddr: 0x10000B388, symSize: 0x48 }
  - { offset: 0x267DA, size: 0x8, addend: 0x0, symName: __ZNKSt8__detail21_Hashtable_ebo_helperILi0ESt8equal_toIiELb1EE7_M_cgetEv, symObjAddr: 0xA1FC, symBinAddr: 0x10000B374, symSize: 0x14 }
  - { offset: 0x26800, size: 0x8, addend: 0x0, symName: __ZSt11__addressofINSt8__detail10_Hash_nodeISt4pairIKiiELb0EEEEPT_RS6_, symObjAddr: 0xA1E8, symBinAddr: 0x10000B360, symSize: 0x14 }
  - { offset: 0x26832, size: 0x8, addend: 0x0, symName: __ZSt23__copy_move_backward_a1ILb0EPPNSt7__cxx1112basic_stringIcSt11char_traitsIcESaIcEEES7_ET1_T0_S9_S8_, symObjAddr: 0xA1BC, symBinAddr: 0x10000B334, symSize: 0x2C }
  - { offset: 0x2689A, size: 0x8, addend: 0x0, symName: __ZSt12__niter_wrapIPPNSt7__cxx1112basic_stringIcSt11char_traitsIcESaIcEEEET_RKS8_S8_, symObjAddr: 0xA1A4, symBinAddr: 0x10000B31C, symSize: 0x18 }
  - { offset: 0x268D6, size: 0x8, addend: 0x0, symName: __ZSt14__copy_move_a1ILb0EPPNSt7__cxx1112basic_stringIcSt11char_traitsIcESaIcEEES7_ET1_T0_S9_S8_, symObjAddr: 0xA178, symBinAddr: 0x10000B2F0, symSize: 0x2C }
  - { offset: 0x2693E, size: 0x8, addend: 0x0, symName: __ZSt12__niter_baseIPPNSt7__cxx1112basic_stringIcSt11char_traitsIcESaIcEEEET_S8_, symObjAddr: 0xA164, symBinAddr: 0x10000B2DC, symSize: 0x14 }
  - { offset: 0x26971, size: 0x8, addend: 0x0, symName: __ZSt23__copy_move_backward_a1ILb0EPPcS1_ET1_T0_S3_S2_, symObjAddr: 0xA138, symBinAddr: 0x10000B2B0, symSize: 0x2C }
  - { offset: 0x269D9, size: 0x8, addend: 0x0, symName: __ZSt12__niter_wrapIPPcET_RKS2_S2_, symObjAddr: 0xA120, symBinAddr: 0x10000B298, symSize: 0x18 }
  - { offset: 0x26A15, size: 0x8, addend: 0x0, symName: __ZSt14__copy_move_a1ILb0EPPcS1_ET1_T0_S3_S2_, symObjAddr: 0xA0F4, symBinAddr: 0x10000B26C, symSize: 0x2C }
  - { offset: 0x26A7D, size: 0x8, addend: 0x0, symName: __ZSt12__niter_baseIPPcET_S2_, symObjAddr: 0xA0E0, symBinAddr: 0x10000B258, symSize: 0x14 }
  - { offset: 0x26AB0, size: 0x8, addend: 0x0, symName: __ZSt23__copy_move_backward_a1ILb0EPPiS1_ET1_T0_S3_S2_, symObjAddr: 0xA0B4, symBinAddr: 0x10000B22C, symSize: 0x2C }
  - { offset: 0x26B18, size: 0x8, addend: 0x0, symName: __ZSt12__niter_wrapIPPiET_RKS2_S2_, symObjAddr: 0xA09C, symBinAddr: 0x10000B214, symSize: 0x18 }
  - { offset: 0x26B54, size: 0x8, addend: 0x0, symName: __ZSt14__copy_move_a1ILb0EPPiS1_ET1_T0_S3_S2_, symObjAddr: 0xA070, symBinAddr: 0x10000B1E8, symSize: 0x2C }
  - { offset: 0x26BBC, size: 0x8, addend: 0x0, symName: __ZSt12__niter_baseIPPiET_S2_, symObjAddr: 0xA05C, symBinAddr: 0x10000B1D4, symSize: 0x14 }
  - { offset: 0x26BEF, size: 0x8, addend: 0x0, symName: __ZSt13__copy_move_aILb0EPKiPiET1_T0_S4_S3_, symObjAddr: 0x9FFC, symBinAddr: 0x10000B174, symSize: 0x60 }
  - { offset: 0x26C57, size: 0x8, addend: 0x0, symName: __ZSt12__miter_baseIPKiET_S2_, symObjAddr: 0x9FE8, symBinAddr: 0x10000B160, symSize: 0x14 }
  - { offset: 0x26C8A, size: 0x8, addend: 0x0, symName: __ZSt10__fill_n_aIPimiET_S1_T0_RKT1_St26random_access_iterator_tag, symObjAddr: 0x9F84, symBinAddr: 0x10000B0FC, symSize: 0x64 }
  - { offset: 0x26D17, size: 0x8, addend: 0x0, symName: __ZSt7forwardIRKSt4pairIKiiEEOT_RNSt16remove_referenceIS5_E4typeE, symObjAddr: 0x9F70, symBinAddr: 0x10000B0E8, symSize: 0x14 }
  - { offset: 0x26D5F, size: 0x8, addend: 0x0, symName: __ZSt12__to_addressIPNSt8__detail15_Hash_node_baseEEPT_S4_, symObjAddr: 0x9F5C, symBinAddr: 0x10000B0D4, symSize: 0x14 }
  - { offset: 0x26E04, size: 0x8, addend: 0x0, symName: __ZNSt4pairIKiiEC1IJRS0_EJEEESt21piecewise_construct_tSt5tupleIJDpT_EES5_IJDpT0_EE, symObjAddr: 0x9F20, symBinAddr: 0x10000B098, symSize: 0x3C }
  - { offset: 0x26E7E, size: 0x8, addend: 0x0, symName: __ZNSt11_Tuple_implILm0EJRKiEEC2EOS2_, symObjAddr: 0x9EF8, symBinAddr: 0x10000B070, symSize: 0x28 }
  - { offset: 0x26EAD, size: 0x8, addend: 0x0, symName: __ZNKSt8equal_toIiEclERKiS2_, symObjAddr: 0x9EC4, symBinAddr: 0x10000B03C, symSize: 0x34 }
  - { offset: 0x26EF9, size: 0x8, addend: 0x0, symName: __ZNKSt8__detail15_Hashtable_baseIiSt4pairIKiiENS_10_Select1stESt8equal_toIiESt4hashIiENS_18_Mod_range_hashingENS_20_Default_ranged_hashENS_17_Hashtable_traitsILb0ELb0ELb1EEEE5_M_eqEv, symObjAddr: 0x9EA8, symBinAddr: 0x10000B020, symSize: 0x1C }
  - { offset: 0x26F1F, size: 0x8, addend: 0x0, symName: __ZSt11__addressofIPNSt8__detail15_Hash_node_baseEEPT_RS3_, symObjAddr: 0x9E94, symBinAddr: 0x10000B00C, symSize: 0x14 }
  - { offset: 0x26F51, size: 0x8, addend: 0x0, symName: __ZSt9addressofINSt8__detail10_Hash_nodeISt4pairIKiiELb0EEEEPT_RS6_, symObjAddr: 0x9E78, symBinAddr: 0x10000AFF0, symSize: 0x1C }
  - { offset: 0x26F83, size: 0x8, addend: 0x0, symName: __ZSt22__copy_move_backward_aILb0EPPNSt7__cxx1112basic_stringIcSt11char_traitsIcESaIcEEES7_ET1_T0_S9_S8_, symObjAddr: 0x9E18, symBinAddr: 0x10000AF90, symSize: 0x60 }
  - { offset: 0x26FEB, size: 0x8, addend: 0x0, symName: __ZSt13__copy_move_aILb0EPPNSt7__cxx1112basic_stringIcSt11char_traitsIcESaIcEEES7_ET1_T0_S9_S8_, symObjAddr: 0x9DB8, symBinAddr: 0x10000AF30, symSize: 0x60 }
  - { offset: 0x27053, size: 0x8, addend: 0x0, symName: __ZSt12__miter_baseIPPNSt7__cxx1112basic_stringIcSt11char_traitsIcESaIcEEEET_S8_, symObjAddr: 0x9DA4, symBinAddr: 0x10000AF1C, symSize: 0x14 }
  - { offset: 0x2709C, size: 0x8, addend: 0x0, symName: __ZSt8_DestroyINSt7__cxx1112basic_stringIcSt11char_traitsIcESaIcEEEEvPT_, symObjAddr: 0x9D84, symBinAddr: 0x10000AEFC, symSize: 0x20 }
  - { offset: 0x270CE, size: 0x8, addend: 0x0, symName: __ZSt22__copy_move_backward_aILb0EPPcS1_ET1_T0_S3_S2_, symObjAddr: 0x9D24, symBinAddr: 0x10000AE9C, symSize: 0x60 }
  - { offset: 0x27136, size: 0x8, addend: 0x0, symName: __ZSt13__copy_move_aILb0EPPcS1_ET1_T0_S3_S2_, symObjAddr: 0x9CC4, symBinAddr: 0x10000AE3C, symSize: 0x60 }
  - { offset: 0x2719E, size: 0x8, addend: 0x0, symName: __ZSt12__miter_baseIPPcET_S2_, symObjAddr: 0x9CB0, symBinAddr: 0x10000AE28, symSize: 0x14 }
  - { offset: 0x271E7, size: 0x8, addend: 0x0, symName: __ZSt22__copy_move_backward_aILb0EPPiS1_ET1_T0_S3_S2_, symObjAddr: 0x9C50, symBinAddr: 0x10000ADC8, symSize: 0x60 }
  - { offset: 0x2724F, size: 0x8, addend: 0x0, symName: __ZSt13__copy_move_aILb0EPPiS1_ET1_T0_S3_S2_, symObjAddr: 0x9BF0, symBinAddr: 0x10000AD68, symSize: 0x60 }
  - { offset: 0x272B7, size: 0x8, addend: 0x0, symName: __ZSt12__miter_baseIPPiET_S2_, symObjAddr: 0x9BDC, symBinAddr: 0x10000AD54, symSize: 0x14 }
  - { offset: 0x272EA, size: 0x8, addend: 0x0, symName: __ZSt4copyIPKiPiET0_T_S4_S3_, symObjAddr: 0x9B94, symBinAddr: 0x10000AD0C, symSize: 0x48 }
  - { offset: 0x27348, size: 0x8, addend: 0x0, symName: __ZSt10_ConstructIiJEEvPT_DpOT0_, symObjAddr: 0x9B68, symBinAddr: 0x10000ACE0, symSize: 0x2C }
  - { offset: 0x27384, size: 0x8, addend: 0x0, symName: __ZSt11__addressofIiEPT_RS0_, symObjAddr: 0x9B54, symBinAddr: 0x10000ACCC, symSize: 0x14 }
  - { offset: 0x273B6, size: 0x8, addend: 0x0, symName: __ZSt6fill_nIPimiET_S1_T0_RKT1_, symObjAddr: 0x9B0C, symBinAddr: 0x10000AC84, symSize: 0x48 }
  - { offset: 0x2744D, size: 0x8, addend: 0x0, symName: __ZNKSt8__detail10_Select1stclIRKSt4pairIKiiEEEONS0_10__1st_typeIT_E4typeEOS8_, symObjAddr: 0x9AEC, symBinAddr: 0x10000AC64, symSize: 0x20 }
  - { offset: 0x274A6, size: 0x8, addend: 0x0, symName: __ZNSt8__detail16_Hashtable_allocISaINS_10_Hash_nodeISt4pairIKiiELb0EEEEE19_M_allocate_bucketsEm, symObjAddr: 0x9A3C, symBinAddr: 0x10000ABB4, symSize: 0xB0 }
  - { offset: 0x275CD, size: 0x8, addend: 0x0, symName: __ZNSt15__new_allocatorINSt8__detail10_Hash_nodeISt4pairIKiiELb0EEEE10deallocateEPS5_m, symObjAddr: 0x9A0C, symBinAddr: 0x10000AB84, symSize: 0x30 }
  - { offset: 0x2769A, size: 0x8, addend: 0x0, symName: __ZNSt5tupleIJRKiEEC1EOS2_, symObjAddr: 0x99E4, symBinAddr: 0x10000AB5C, symSize: 0x28 }
  - { offset: 0x276C9, size: 0x8, addend: 0x0, symName: __ZNSt15__new_allocatorINSt8__detail10_Hash_nodeISt4pairIKiiELb0EEEE8allocateEmPKv, symObjAddr: 0x9968, symBinAddr: 0x10000AAE0, symSize: 0x7C }
  - { offset: 0x27759, size: 0x8, addend: 0x0, symName: __ZN9__gnu_cxx16__aligned_bufferISt4pairIKiiEE7_M_addrEv, symObjAddr: 0x9954, symBinAddr: 0x10000AACC, symSize: 0x14 }
  - { offset: 0x27783, size: 0x8, addend: 0x0, symName: __ZNKSt8__detail15_Hashtable_baseIiSt4pairIKiiENS_10_Select1stESt8equal_toIiESt4hashIiENS_18_Mod_range_hashingENS_20_Default_ranged_hashENS_17_Hashtable_traitsILb0ELb0ELb1EEEE13_M_key_equalsERS2_RKNS_16_Hash_node_valueIS3_Lb0EEE, symObjAddr: 0x98E8, symBinAddr: 0x10000AA60, symSize: 0x6C }
  - { offset: 0x27813, size: 0x8, addend: 0x0, symName: __ZNSt8__detail15_Hashtable_baseIiSt4pairIKiiENS_10_Select1stESt8equal_toIiESt4hashIiENS_18_Mod_range_hashingENS_20_Default_ranged_hashENS_17_Hashtable_traitsILb0ELb0ELb1EEEE9_S_equalsEmRKNS_21_Hash_node_code_cacheILb0EEE, symObjAddr: 0x98D0, symBinAddr: 0x10000AA48, symSize: 0x18 }
  - { offset: 0x27842, size: 0x8, addend: 0x0, symName: __ZNSt15__new_allocatorIPNSt8__detail15_Hash_node_baseEE10deallocateEPS2_m, symObjAddr: 0x98A0, symBinAddr: 0x10000AA18, symSize: 0x30 }
  - { offset: 0x278B0, size: 0x8, addend: 0x0, symName: __ZNSt15__new_allocatorIPNSt8__detail15_Hash_node_baseEED2Ev, symObjAddr: 0x988C, symBinAddr: 0x10000AA04, symSize: 0x14 }
  - { offset: 0x278E8, size: 0x8, addend: 0x0, symName: __ZSt9addressofIPNSt8__detail15_Hash_node_baseEEPT_RS3_, symObjAddr: 0x9870, symBinAddr: 0x10000A9E8, symSize: 0x1C }
  - { offset: 0x2791A, size: 0x8, addend: 0x0, symName: __ZNSt19__ptr_traits_ptr_toIPNSt8__detail10_Hash_nodeISt4pairIKiiELb0EEES5_Lb0EE10pointer_toERS5_, symObjAddr: 0x9854, symBinAddr: 0x10000A9CC, symSize: 0x1C }
  - { offset: 0x27973, size: 0x8, addend: 0x0, symName: __ZNSt8__detail21_Hashtable_ebo_helperILi0ESaINS_10_Hash_nodeISt4pairIKiiELb0EEEELb1EE6_M_getEv, symObjAddr: 0x9840, symBinAddr: 0x10000A9B8, symSize: 0x14 }
  - { offset: 0x2799D, size: 0x8, addend: 0x0, symName: __ZNSt15__new_allocatorINSt7__cxx1112basic_stringIcSt11char_traitsIcESaIcEEEE8allocateEmPKv, symObjAddr: 0x97C4, symBinAddr: 0x10000A93C, symSize: 0x7C }
  - { offset: 0x27A25, size: 0x8, addend: 0x0, symName: __ZSt13copy_backwardIPPNSt7__cxx1112basic_stringIcSt11char_traitsIcESaIcEEES7_ET0_T_S9_S8_, symObjAddr: 0x977C, symBinAddr: 0x10000A8F4, symSize: 0x48 }
  - { offset: 0x27A83, size: 0x8, addend: 0x0, symName: __ZSt4copyIPPNSt7__cxx1112basic_stringIcSt11char_traitsIcESaIcEEES7_ET0_T_S9_S8_, symObjAddr: 0x9734, symBinAddr: 0x10000A8AC, symSize: 0x48 }
  - { offset: 0x27AF7, size: 0x8, addend: 0x0, symName: __ZNSt12_Destroy_auxILb0EE9__destroyIPNSt7__cxx1112basic_stringIcSt11char_traitsIcESaIcEEEEEvT_S9_, symObjAddr: 0x96E8, symBinAddr: 0x10000A860, symSize: 0x4C }
  - { offset: 0x27B53, size: 0x8, addend: 0x0, symName: __ZNSt15__new_allocatorINSt7__cxx1112basic_stringIcSt11char_traitsIcESaIcEEEE10deallocateEPS5_m, symObjAddr: 0x96B8, symBinAddr: 0x10000A830, symSize: 0x30 }
  - { offset: 0x27B9D, size: 0x8, addend: 0x0, symName: __ZNSt15__new_allocatorIPNSt7__cxx1112basic_stringIcSt11char_traitsIcESaIcEEEE8allocateEmPKv, symObjAddr: 0x963C, symBinAddr: 0x10000A7B4, symSize: 0x7C }
  - { offset: 0x27C25, size: 0x8, addend: 0x0, symName: __ZSt13copy_backwardIPPcS1_ET0_T_S3_S2_, symObjAddr: 0x95F4, symBinAddr: 0x10000A76C, symSize: 0x48 }
  - { offset: 0x27C83, size: 0x8, addend: 0x0, symName: __ZSt4copyIPPcS1_ET0_T_S3_S2_, symObjAddr: 0x95AC, symBinAddr: 0x10000A724, symSize: 0x48 }
  - { offset: 0x27D11, size: 0x8, addend: 0x0, symName: __ZNSt15__new_allocatorIPcE8allocateEmPKv, symObjAddr: 0x9530, symBinAddr: 0x10000A6A8, symSize: 0x7C }
  - { offset: 0x27D99, size: 0x8, addend: 0x0, symName: __ZSt13copy_backwardIPPiS1_ET0_T_S3_S2_, symObjAddr: 0x94E8, symBinAddr: 0x10000A660, symSize: 0x48 }
  - { offset: 0x27DF7, size: 0x8, addend: 0x0, symName: __ZSt4copyIPPiS1_ET0_T_S3_S2_, symObjAddr: 0x94A0, symBinAddr: 0x10000A618, symSize: 0x48 }
  - { offset: 0x27E6F, size: 0x8, addend: 0x0, symName: __ZNSt15__new_allocatorIPiE8allocateEmPKv, symObjAddr: 0x9424, symBinAddr: 0x10000A59C, symSize: 0x7C }
  - { offset: 0x27EF7, size: 0x8, addend: 0x0, symName: __ZNSt20__uninitialized_copyILb1EE13__uninit_copyIPKiPiEET0_T_S6_S5_, symObjAddr: 0x93F8, symBinAddr: 0x10000A570, symSize: 0x2C }
  - { offset: 0x27F52, size: 0x8, addend: 0x0, symName: __ZNSt27__uninitialized_default_n_1ILb1EE18__uninit_default_nIPimEET_S3_T0_, symObjAddr: 0x9394, symBinAddr: 0x10000A50C, symSize: 0x64 }
  - { offset: 0x27FC9, size: 0x8, addend: 0x0, symName: __ZNSt22__uninitialized_fill_nILb1EE15__uninit_fill_nIPimiEET_S3_T0_RKT1_, symObjAddr: 0x9368, symBinAddr: 0x10000A4E0, symSize: 0x2C }
  - { offset: 0x28072, size: 0x8, addend: 0x0, symName: __ZNSt8__detail19_Node_iterator_baseISt4pairIKiiELb0EEC2EPNS_10_Hash_nodeIS3_Lb0EEE, symObjAddr: 0x9344, symBinAddr: 0x10000A4BC, symSize: 0x24 }
  - { offset: 0x280A1, size: 0x8, addend: 0x0, symName: __ZNKSt8__detail15_Hash_code_baseIiSt4pairIKiiENS_10_Select1stESt4hashIiENS_18_Mod_range_hashingENS_20_Default_ranged_hashELb0EE15_M_bucket_indexERKNS_16_Hash_node_valueIS3_Lb0EEEm, symObjAddr: 0x92E0, symBinAddr: 0x10000A458, symSize: 0x64 }
  - { offset: 0x28135, size: 0x8, addend: 0x0, symName: __ZNSt10_HashtableIiSt4pairIKiiESaIS2_ENSt8__detail10_Select1stESt8equal_toIiESt4hashIiENS4_18_Mod_range_hashingENS4_20_Default_ranged_hashENS4_20_Prime_rehash_policyENS4_17_Hashtable_traitsILb0ELb0ELb1EEEE19_M_allocate_bucketsEm, symObjAddr: 0x9288, symBinAddr: 0x10000A400, symSize: 0x58 }
  - { offset: 0x2816C, size: 0x8, addend: 0x0, symName: __ZSt11__addressofINSt8__detail20_Prime_rehash_policyEEPT_RS2_, symObjAddr: 0x9274, symBinAddr: 0x10000A3EC, symSize: 0x14 }
  - { offset: 0x28228, size: 0x8, addend: 0x0, symName: __ZSt12__to_addressINSt8__detail10_Hash_nodeISt4pairIKiiELb0EEEEPT_S7_, symObjAddr: 0x9260, symBinAddr: 0x10000A3D8, symSize: 0x14 }
  - { offset: 0x282A9, size: 0x8, addend: 0x0, symName: __ZNSt10_Head_baseILm0ERKiLb0EEC2ES1_, symObjAddr: 0x923C, symBinAddr: 0x10000A3B4, symSize: 0x24 }
  - { offset: 0x282D8, size: 0x8, addend: 0x0, symName: __ZN9__gnu_cxx16__aligned_bufferISt4pairIKiiEE6_M_ptrEv, symObjAddr: 0x9220, symBinAddr: 0x10000A398, symSize: 0x1C }
  - { offset: 0x28302, size: 0x8, addend: 0x0, symName: __ZNKSt10_HashtableIiSt4pairIKiiESaIS2_ENSt8__detail10_Select1stESt8equal_toIiESt4hashIiENS4_18_Mod_range_hashingENS4_20_Default_ranged_hashENS4_20_Prime_rehash_policyENS4_17_Hashtable_traitsILb0ELb0ELb1EEEE15_M_bucket_indexERKNS4_16_Hash_node_valueIS2_Lb0EEE, symObjAddr: 0x91F0, symBinAddr: 0x10000A368, symSize: 0x30 }
  - { offset: 0x2833D, size: 0x8, addend: 0x0, symName: __ZNKSt8__detail15_Hashtable_baseIiSt4pairIKiiENS_10_Select1stESt8equal_toIiESt4hashIiENS_18_Mod_range_hashingENS_20_Default_ranged_hashENS_17_Hashtable_traitsILb0ELb0ELb1EEEE9_M_equalsERS2_mRKNS_16_Hash_node_valueIS3_Lb0EEE, symObjAddr: 0x9190, symBinAddr: 0x10000A308, symSize: 0x60 }
  - { offset: 0x2839A, size: 0x8, addend: 0x0, symName: __ZNKSt8__detail21_Hashtable_ebo_helperILi1ESt4hashIiELb1EE7_M_cgetEv, symObjAddr: 0x917C, symBinAddr: 0x10000A2F4, symSize: 0x14 }
  - { offset: 0x28436, size: 0x8, addend: 0x0, symName: __ZNSt19__ptr_traits_ptr_toIPPNSt8__detail15_Hash_node_baseES2_Lb0EE10pointer_toERS2_, symObjAddr: 0x9160, symBinAddr: 0x10000A2D8, symSize: 0x1C }
  - { offset: 0x28463, size: 0x8, addend: 0x0, symName: __ZNSt8__detail16_Hashtable_allocISaINS_10_Hash_nodeISt4pairIKiiELb0EEEEE22_M_deallocate_node_ptrEPS5_, symObjAddr: 0x9108, symBinAddr: 0x10000A280, symSize: 0x58 }
  - { offset: 0x28512, size: 0x8, addend: 0x0, symName: __ZNSt8__detail16_Hashtable_allocISaINS_10_Hash_nodeISt4pairIKiiELb0EEEEE17_M_node_allocatorEv, symObjAddr: 0x90EC, symBinAddr: 0x10000A264, symSize: 0x1C }
  - { offset: 0x28538, size: 0x8, addend: 0x0, symName: __ZSt14__relocate_a_1IiiENSt9enable_ifIXsrSt24__is_bitwise_relocatableIT_vE5valueEPS2_E4typeES4_S4_S4_RSaIT0_E, symObjAddr: 0x9088, symBinAddr: 0x10000A200, symSize: 0x64 }
  - { offset: 0x285B8, size: 0x8, addend: 0x0, symName: __ZSt12__niter_baseIPiET_S1_, symObjAddr: 0x9074, symBinAddr: 0x10000A1EC, symSize: 0x14 }
  - { offset: 0x285EF, size: 0x8, addend: 0x0, symName: __ZNSt15__new_allocatorIiE8allocateEmPKv, symObjAddr: 0x8FF8, symBinAddr: 0x10000A170, symSize: 0x7C }
  - { offset: 0x2867B, size: 0x8, addend: 0x0, symName: __ZNKSt12_Vector_baseIiSaIiEE19_M_get_Tp_allocatorEv, symObjAddr: 0x8FE4, symBinAddr: 0x10000A15C, symSize: 0x14 }
  - { offset: 0x286C9, size: 0x8, addend: 0x0, symName: __ZNSt5dequeINSt7__cxx1112basic_stringIcSt11char_traitsIcESaIcEEESaIS5_EE17_M_reallocate_mapEmb, symObjAddr: 0x8DA0, symBinAddr: 0x100009F18, symSize: 0x244 }
  - { offset: 0x2877A, size: 0x8, addend: 0x0, symName: __ZNSt5dequeINSt7__cxx1112basic_stringIcSt11char_traitsIcESaIcEEESaIS5_EE11_S_max_sizeERKS6_, symObjAddr: 0x8D4C, symBinAddr: 0x100009EC4, symSize: 0x54 }
  - { offset: 0x28838, size: 0x8, addend: 0x0, symName: __ZStmiRKSt15_Deque_iteratorINSt7__cxx1112basic_stringIcSt11char_traitsIcESaIcEEERS5_PS5_ESA_, symObjAddr: 0x8CB8, symBinAddr: 0x100009E30, symSize: 0x94 }
  - { offset: 0x28873, size: 0x8, addend: 0x0, symName: __ZSt8_DestroyIPNSt7__cxx1112basic_stringIcSt11char_traitsIcESaIcEEEEvT_S7_, symObjAddr: 0x8C90, symBinAddr: 0x100009E08, symSize: 0x28 }
  - { offset: 0x288B9, size: 0x8, addend: 0x0, symName: __ZNSt15__new_allocatorIPNSt7__cxx1112basic_stringIcSt11char_traitsIcESaIcEEEE10deallocateEPS6_m, symObjAddr: 0x8C60, symBinAddr: 0x100009DD8, symSize: 0x30 }
  - { offset: 0x28927, size: 0x8, addend: 0x0, symName: __ZNSt15__new_allocatorIPNSt7__cxx1112basic_stringIcSt11char_traitsIcESaIcEEEED2Ev, symObjAddr: 0x8C4C, symBinAddr: 0x100009DC4, symSize: 0x14 }
  - { offset: 0x28971, size: 0x8, addend: 0x0, symName: __ZNKSt11_Deque_baseINSt7__cxx1112basic_stringIcSt11char_traitsIcESaIcEEESaIS5_EE19_M_get_Tp_allocatorEv, symObjAddr: 0x8C38, symBinAddr: 0x100009DB0, symSize: 0x14 }
  - { offset: 0x289C9, size: 0x8, addend: 0x0, symName: __ZNSt15_Deque_iteratorINSt7__cxx1112basic_stringIcSt11char_traitsIcESaIcEEERS5_PS5_E14_S_buffer_sizeEv, symObjAddr: 0x8C20, symBinAddr: 0x100009D98, symSize: 0x18 }
  - { offset: 0x28A23, size: 0x8, addend: 0x0, symName: __ZNSt15_Deque_iteratorINSt7__cxx1112basic_stringIcSt11char_traitsIcESaIcEEERS5_PS5_EC1Ev, symObjAddr: 0x8BEC, symBinAddr: 0x100009D64, symSize: 0x34 }
  - { offset: 0x28A5F, size: 0x8, addend: 0x0, symName: __ZNSt5dequeIcSaIcEE17_M_reallocate_mapEmb, symObjAddr: 0x89A8, symBinAddr: 0x100009B20, symSize: 0x244 }
  - { offset: 0x28B10, size: 0x8, addend: 0x0, symName: __ZNSt5dequeIcSaIcEE11_S_max_sizeERKS0_, symObjAddr: 0x8954, symBinAddr: 0x100009ACC, symSize: 0x54 }
  - { offset: 0x28BCE, size: 0x8, addend: 0x0, symName: __ZStmiRKSt15_Deque_iteratorIcRcPcES4_, symObjAddr: 0x88C8, symBinAddr: 0x100009A40, symSize: 0x8C }
  - { offset: 0x28C0D, size: 0x8, addend: 0x0, symName: __ZNSt15__new_allocatorIPcE10deallocateEPS0_m, symObjAddr: 0x8898, symBinAddr: 0x100009A10, symSize: 0x30 }
  - { offset: 0x28C7B, size: 0x8, addend: 0x0, symName: __ZNSt15__new_allocatorIPcED2Ev, symObjAddr: 0x8884, symBinAddr: 0x1000099FC, symSize: 0x14 }
  - { offset: 0x28CC5, size: 0x8, addend: 0x0, symName: __ZNKSt11_Deque_baseIcSaIcEE19_M_get_Tp_allocatorEv, symObjAddr: 0x8870, symBinAddr: 0x1000099E8, symSize: 0x14 }
  - { offset: 0x28CEB, size: 0x8, addend: 0x0, symName: __ZNSt15_Deque_iteratorIcRcPcE14_S_buffer_sizeEv, symObjAddr: 0x8858, symBinAddr: 0x1000099D0, symSize: 0x18 }
  - { offset: 0x28D45, size: 0x8, addend: 0x0, symName: __ZNSt15_Deque_iteratorIcRcPcEC1Ev, symObjAddr: 0x8824, symBinAddr: 0x10000999C, symSize: 0x34 }
  - { offset: 0x28D6B, size: 0x8, addend: 0x0, symName: __ZNSt5dequeIiSaIiEE17_M_reallocate_mapEmb, symObjAddr: 0x85E0, symBinAddr: 0x100009758, symSize: 0x244 }
  - { offset: 0x28E1C, size: 0x8, addend: 0x0, symName: __ZNSt5dequeIiSaIiEE11_S_max_sizeERKS0_, symObjAddr: 0x858C, symBinAddr: 0x100009704, symSize: 0x54 }
  - { offset: 0x28ED7, size: 0x8, addend: 0x0, symName: __ZNSt15__new_allocatorIPiE10deallocateEPS0_m, symObjAddr: 0x855C, symBinAddr: 0x1000096D4, symSize: 0x30 }
  - { offset: 0x28F45, size: 0x8, addend: 0x0, symName: __ZNSt15__new_allocatorIPiED2Ev, symObjAddr: 0x8548, symBinAddr: 0x1000096C0, symSize: 0x14 }
  - { offset: 0x28F8F, size: 0x8, addend: 0x0, symName: __ZNKSt11_Deque_baseIiSaIiEE19_M_get_Tp_allocatorEv, symObjAddr: 0x8534, symBinAddr: 0x1000096AC, symSize: 0x14 }
  - { offset: 0x28FF7, size: 0x8, addend: 0x0, symName: __ZNSt15_Deque_iteratorIiRiPiEC1Ev, symObjAddr: 0x8500, symBinAddr: 0x100009678, symSize: 0x34 }
  - { offset: 0x2901D, size: 0x8, addend: 0x0, symName: __ZNSt15__new_allocatorIcE8allocateEmPKv, symObjAddr: 0x849C, symBinAddr: 0x100009614, symSize: 0x64 }
  - { offset: 0x290A5, size: 0x8, addend: 0x0, symName: __ZSt18uninitialized_copyIPKiPiET0_T_S4_S3_, symObjAddr: 0x8460, symBinAddr: 0x1000095D8, symSize: 0x3C }
  - { offset: 0x29120, size: 0x8, addend: 0x0, symName: __ZSt25__uninitialized_default_nIPimET_S1_T0_, symObjAddr: 0x8434, symBinAddr: 0x1000095AC, symSize: 0x2C }
  - { offset: 0x2917E, size: 0x8, addend: 0x0, symName: __ZSt20uninitialized_fill_nIPimiET_S1_T0_RKT1_, symObjAddr: 0x8400, symBinAddr: 0x100009578, symSize: 0x34 }
  - { offset: 0x29238, size: 0x8, addend: 0x0, symName: __ZNSt8__detail14_Node_iteratorISt4pairIKiiELb0ELb0EEC1EPNS_10_Hash_nodeIS3_Lb0EEE, symObjAddr: 0x83D8, symBinAddr: 0x100009550, symSize: 0x28 }
  - { offset: 0x29267, size: 0x8, addend: 0x0, symName: __ZNSt10_HashtableIiSt4pairIKiiESaIS2_ENSt8__detail10_Select1stESt8equal_toIiESt4hashIiENS4_18_Mod_range_hashingENS4_20_Default_ranged_hashENS4_20_Prime_rehash_policyENS4_17_Hashtable_traitsILb0ELb0ELb1EEEE22_M_insert_bucket_beginEmPNS4_10_Hash_nodeIS2_Lb0EEE, symObjAddr: 0x82CC, symBinAddr: 0x100009444, symSize: 0x10C }
  - { offset: 0x292B3, size: 0x8, addend: 0x0, symName: __ZNKSt8__detail15_Hash_code_baseIiSt4pairIKiiENS_10_Select1stESt4hashIiENS_18_Mod_range_hashingENS_20_Default_ranged_hashELb0EE13_M_store_codeERNS_21_Hash_node_code_cacheILb0EEEm, symObjAddr: 0x82B0, symBinAddr: 0x100009428, symSize: 0x1C }
  - { offset: 0x292EF, size: 0x8, addend: 0x0, symName: __ZNSt10_HashtableIiSt4pairIKiiESaIS2_ENSt8__detail10_Select1stESt8equal_toIiESt4hashIiENS4_18_Mod_range_hashingENS4_20_Default_ranged_hashENS4_20_Prime_rehash_policyENS4_17_Hashtable_traitsILb0ELb0ELb1EEEE9_M_rehashEmSt17integral_constantIbLb1EE, symObjAddr: 0x8144, symBinAddr: 0x1000092BC, symSize: 0x16C }
  - { offset: 0x293C0, size: 0x8, addend: 0x0, symName: __ZNSt8__detail17_RehashStateGuardINS_20_Prime_rehash_policyEED1Ev, symObjAddr: 0x8100, symBinAddr: 0x100009278, symSize: 0x44 }
  - { offset: 0x2940E, size: 0x8, addend: 0x0, symName: __ZNSt8__detail17_RehashStateGuardINS_20_Prime_rehash_policyEEC1ERS1_, symObjAddr: 0x80BC, symBinAddr: 0x100009234, symSize: 0x44 }
  - { offset: 0x2943D, size: 0x8, addend: 0x0, symName: __ZNSt8__detail16_Hashtable_allocISaINS_10_Hash_nodeISt4pairIKiiELb0EEEEE16_M_allocate_nodeIJRKSt21piecewise_construct_tSt5tupleIJRS3_EESC_IJEEEEEPS5_DpOT_, symObjAddr: 0x7ED0, symBinAddr: 0x100009048, symSize: 0x1EC }
  - { offset: 0x2960D, size: 0x8, addend: 0x0, symName: __ZNSt8__detail10_Hash_nodeISt4pairIKiiELb0EEC1Ev, symObjAddr: 0x7EB0, symBinAddr: 0x100009028, symSize: 0x20 }
  - { offset: 0x29636, size: 0x8, addend: 0x0, symName: __ZSt7forwardISt5tupleIJEEEOT_RNSt16remove_referenceIS2_E4typeE, symObjAddr: 0x7E9C, symBinAddr: 0x100009014, symSize: 0x14 }
  - { offset: 0x2966F, size: 0x8, addend: 0x0, symName: __ZSt7forwardISt5tupleIJRKiEEEOT_RNSt16remove_referenceIS4_E4typeE, symObjAddr: 0x7E88, symBinAddr: 0x100009000, symSize: 0x14 }
  - { offset: 0x296A8, size: 0x8, addend: 0x0, symName: __ZSt7forwardIRKSt21piecewise_construct_tEOT_RNSt16remove_referenceIS3_E4typeE, symObjAddr: 0x7E74, symBinAddr: 0x100008FEC, symSize: 0x14 }
  - { offset: 0x29706, size: 0x8, addend: 0x0, symName: __ZNSt11_Tuple_implILm0EJRKiEEC2ES1_, symObjAddr: 0x7E4C, symBinAddr: 0x100008FC4, symSize: 0x28 }
  - { offset: 0x2974B, size: 0x8, addend: 0x0, symName: __ZNKSt10_HashtableIiSt4pairIKiiESaIS2_ENSt8__detail10_Select1stESt8equal_toIiESt4hashIiENS4_18_Mod_range_hashingENS4_20_Default_ranged_hashENS4_20_Prime_rehash_policyENS4_17_Hashtable_traitsILb0ELb0ELb1EEEE19_M_find_before_nodeEmRS1_m, symObjAddr: 0x7D50, symBinAddr: 0x100008EC8, symSize: 0xFC }
  - { offset: 0x297DD, size: 0x8, addend: 0x0, symName: __ZNKSt8__detail15_Hash_code_baseIiSt4pairIKiiENS_10_Select1stESt4hashIiENS_18_Mod_range_hashingENS_20_Default_ranged_hashELb0EE15_M_bucket_indexEmm, symObjAddr: 0x7D24, symBinAddr: 0x100008E9C, symSize: 0x2C }
  - { offset: 0x29829, size: 0x8, addend: 0x0, symName: __ZNKSt8__detail15_Hash_code_baseIiSt4pairIKiiENS_10_Select1stESt4hashIiENS_18_Mod_range_hashingENS_20_Default_ranged_hashELb0EE7_M_hashEv, symObjAddr: 0x7D08, symBinAddr: 0x100008E80, symSize: 0x1C }
  - { offset: 0x29853, size: 0x8, addend: 0x0, symName: __ZNSt8__detail16_Hashtable_allocISaINS_10_Hash_nodeISt4pairIKiiELb0EEEEE21_M_deallocate_bucketsEPPNS_15_Hash_node_baseEm, symObjAddr: 0x7C90, symBinAddr: 0x100008E08, symSize: 0x78 }
  - { offset: 0x29963, size: 0x8, addend: 0x0, symName: __ZNKSt10_HashtableIiSt4pairIKiiESaIS2_ENSt8__detail10_Select1stESt8equal_toIiESt4hashIiENS4_18_Mod_range_hashingENS4_20_Default_ranged_hashENS4_20_Prime_rehash_policyENS4_17_Hashtable_traitsILb0ELb0ELb1EEEE21_M_uses_single_bucketEPPNS4_15_Hash_node_baseE, symObjAddr: 0x7C54, symBinAddr: 0x100008DCC, symSize: 0x3C }
  - { offset: 0x2999E, size: 0x8, addend: 0x0, symName: __ZNSt8__detail16_Hashtable_allocISaINS_10_Hash_nodeISt4pairIKiiELb0EEEEE18_M_deallocate_nodeEPS5_, symObjAddr: 0x7BE0, symBinAddr: 0x100008D58, symSize: 0x74 }
  - { offset: 0x29A57, size: 0x8, addend: 0x0, symName: __ZNKSt8__detail10_Hash_nodeISt4pairIKiiELb0EE7_M_nextEv, symObjAddr: 0x7BC8, symBinAddr: 0x100008D40, symSize: 0x18 }
  - { offset: 0x29A81, size: 0x8, addend: 0x0, symName: __ZNK9__gnu_cxx17__normal_iteratorIPiSt6vectorIiSaIiEEEmiEl, symObjAddr: 0x7B84, symBinAddr: 0x100008CFC, symSize: 0x44 }
  - { offset: 0x29AFA, size: 0x8, addend: 0x0, symName: __ZSt12__relocate_aIPiS0_SaIiEET0_T_S3_S2_RT1_, symObjAddr: 0x7B28, symBinAddr: 0x100008CA0, symSize: 0x5C }
  - { offset: 0x29B9A, size: 0x8, addend: 0x0, symName: __ZNKSt6vectorIiSaIiEE8max_sizeEv, symObjAddr: 0x7B08, symBinAddr: 0x100008C80, symSize: 0x20 }
  - { offset: 0x29BC0, size: 0x8, addend: 0x0, symName: __ZNSt12_Destroy_auxILb1EE9__destroyIPiEEvT_S3_, symObjAddr: 0x7AF0, symBinAddr: 0x100008C68, symSize: 0x18 }
  - { offset: 0x29BF8, size: 0x8, addend: 0x0, symName: __ZNSt15__new_allocatorIiE10deallocateEPim, symObjAddr: 0x7AC0, symBinAddr: 0x100008C38, symSize: 0x30 }
  - { offset: 0x29C6E, size: 0x8, addend: 0x0, symName: __ZNSt11_Deque_baseINSt7__cxx1112basic_stringIcSt11char_traitsIcESaIcEEESaIS5_EE16_M_allocate_nodeEv, symObjAddr: 0x7A7C, symBinAddr: 0x100008BF4, symSize: 0x44 }
  - { offset: 0x29CC5, size: 0x8, addend: 0x0, symName: __ZNSt5dequeINSt7__cxx1112basic_stringIcSt11char_traitsIcESaIcEEESaIS5_EE22_M_reserve_map_at_backEm, symObjAddr: 0x7A1C, symBinAddr: 0x100008B94, symSize: 0x60 }
  - { offset: 0x29D00, size: 0x8, addend: 0x0, symName: __ZNKSt5dequeINSt7__cxx1112basic_stringIcSt11char_traitsIcESaIcEEESaIS5_EE8max_sizeEv, symObjAddr: 0x79FC, symBinAddr: 0x100008B74, symSize: 0x20 }
  - { offset: 0x29D2A, size: 0x8, addend: 0x0, symName: __ZNKSt5dequeINSt7__cxx1112basic_stringIcSt11char_traitsIcESaIcEEESaIS5_EE4sizeEv, symObjAddr: 0x79CC, symBinAddr: 0x100008B44, symSize: 0x30 }
  - { offset: 0x29D99, size: 0x8, addend: 0x0, symName: __ZSt7forwardIRKNSt7__cxx1112basic_stringIcSt11char_traitsIcESaIcEEEEOT_RNSt16remove_referenceIS8_E4typeE, symObjAddr: 0x79B8, symBinAddr: 0x100008B30, symSize: 0x14 }
  - { offset: 0x29E06, size: 0x8, addend: 0x0, symName: __ZNSt5dequeINSt7__cxx1112basic_stringIcSt11char_traitsIcESaIcEEESaIS5_EE14_S_buffer_sizeEv, symObjAddr: 0x79A0, symBinAddr: 0x100008B18, symSize: 0x18 }
  - { offset: 0x29E74, size: 0x8, addend: 0x0, symName: __ZNKSt11_Deque_baseINSt7__cxx1112basic_stringIcSt11char_traitsIcESaIcEEESaIS5_EE20_M_get_map_allocatorEv, symObjAddr: 0x7958, symBinAddr: 0x100008AD0, symSize: 0x48 }
  - { offset: 0x29EEE, size: 0x8, addend: 0x0, symName: __ZNSt11_Deque_baseINSt7__cxx1112basic_stringIcSt11char_traitsIcESaIcEEESaIS5_EE18_M_deallocate_nodeEPS5_, symObjAddr: 0x7900, symBinAddr: 0x100008A78, symSize: 0x58 }
  - { offset: 0x29F5F, size: 0x8, addend: 0x0, symName: __ZNSt15_Deque_iteratorINSt7__cxx1112basic_stringIcSt11char_traitsIcESaIcEEERS5_PS5_E11_M_set_nodeEPS7_, symObjAddr: 0x78A4, symBinAddr: 0x100008A1C, symSize: 0x5C }
  - { offset: 0x29F9A, size: 0x8, addend: 0x0, symName: __ZNSt11_Deque_baseINSt7__cxx1112basic_stringIcSt11char_traitsIcESaIcEEESaIS5_EE15_M_create_nodesEPPS5_S9_, symObjAddr: 0x7818, symBinAddr: 0x100008990, symSize: 0x8C }
  - { offset: 0x29FF7, size: 0x8, addend: 0x0, symName: __ZNSt11_Deque_baseINSt7__cxx1112basic_stringIcSt11char_traitsIcESaIcEEESaIS5_EE15_M_allocate_mapEm, symObjAddr: 0x7798, symBinAddr: 0x100008910, symSize: 0x80 }
  - { offset: 0x2A0D3, size: 0x8, addend: 0x0, symName: __ZNSt15__new_allocatorINSt7__cxx1112basic_stringIcSt11char_traitsIcESaIcEEEED2Ev, symObjAddr: 0x7784, symBinAddr: 0x1000088FC, symSize: 0x14 }
  - { offset: 0x2A113, size: 0x8, addend: 0x0, symName: __ZNSt11_Deque_baseINSt7__cxx1112basic_stringIcSt11char_traitsIcESaIcEEESaIS5_EE16_Deque_impl_dataC2Ev, symObjAddr: 0x7744, symBinAddr: 0x1000088BC, symSize: 0x40 }
  - { offset: 0x2A14B, size: 0x8, addend: 0x0, symName: __ZSt4swapIcENSt9enable_ifIXsrSt6__and_IJSt6__not_ISt15__is_tuple_likeIT_EESt21is_move_constructibleIS4_ESt18is_move_assignableIS4_EEE5valueEvE4typeERS4_SE_, symObjAddr: 0x76F0, symBinAddr: 0x100008868, symSize: 0x54 }
  - { offset: 0x2A1A4, size: 0x8, addend: 0x0, symName: __ZSt4moveIRcEONSt16remove_referenceIT_E4typeEOS2_, symObjAddr: 0x76DC, symBinAddr: 0x100008854, symSize: 0x14 }
  - { offset: 0x2A206, size: 0x8, addend: 0x0, symName: __ZNSt11_Deque_baseIcSaIcEE16_M_allocate_nodeEv, symObjAddr: 0x7698, symBinAddr: 0x100008810, symSize: 0x44 }
  - { offset: 0x2A25D, size: 0x8, addend: 0x0, symName: __ZNSt5dequeIcSaIcEE22_M_reserve_map_at_backEm, symObjAddr: 0x7638, symBinAddr: 0x1000087B0, symSize: 0x60 }
  - { offset: 0x2A298, size: 0x8, addend: 0x0, symName: __ZNKSt5dequeIcSaIcEE8max_sizeEv, symObjAddr: 0x7618, symBinAddr: 0x100008790, symSize: 0x20 }
  - { offset: 0x2A2C2, size: 0x8, addend: 0x0, symName: __ZNKSt5dequeIcSaIcEE4sizeEv, symObjAddr: 0x75E8, symBinAddr: 0x100008760, symSize: 0x30 }
  - { offset: 0x2A331, size: 0x8, addend: 0x0, symName: __ZSt7forwardIRKcEOT_RNSt16remove_referenceIS2_E4typeE, symObjAddr: 0x75D4, symBinAddr: 0x10000874C, symSize: 0x14 }
  - { offset: 0x2A3B9, size: 0x8, addend: 0x0, symName: __ZNKSt11_Deque_baseIcSaIcEE20_M_get_map_allocatorEv, symObjAddr: 0x758C, symBinAddr: 0x100008704, symSize: 0x48 }
  - { offset: 0x2A433, size: 0x8, addend: 0x0, symName: __ZNSt11_Deque_baseIcSaIcEE18_M_deallocate_nodeEPc, symObjAddr: 0x7534, symBinAddr: 0x1000086AC, symSize: 0x58 }
  - { offset: 0x2A4A4, size: 0x8, addend: 0x0, symName: __ZNSt15_Deque_iteratorIcRcPcE11_M_set_nodeEPS1_, symObjAddr: 0x74DC, symBinAddr: 0x100008654, symSize: 0x58 }
  - { offset: 0x2A4DF, size: 0x8, addend: 0x0, symName: __ZNSt11_Deque_baseIcSaIcEE15_M_create_nodesEPPcS3_, symObjAddr: 0x7450, symBinAddr: 0x1000085C8, symSize: 0x8C }
  - { offset: 0x2A53C, size: 0x8, addend: 0x0, symName: __ZNSt11_Deque_baseIcSaIcEE15_M_allocate_mapEm, symObjAddr: 0x73D0, symBinAddr: 0x100008548, symSize: 0x80 }
  - { offset: 0x2A60E, size: 0x8, addend: 0x0, symName: __ZNSt11_Deque_baseIcSaIcEE16_Deque_impl_dataC2Ev, symObjAddr: 0x7390, symBinAddr: 0x100008508, symSize: 0x40 }
  - { offset: 0x2A65C, size: 0x8, addend: 0x0, symName: __ZNSt15_Deque_iteratorIiRiPiE14_S_buffer_sizeEv, symObjAddr: 0x7378, symBinAddr: 0x1000084F0, symSize: 0x18 }
  - { offset: 0x2A678, size: 0x8, addend: 0x0, symName: __ZNSt11_Deque_baseIiSaIiEE16_M_allocate_nodeEv, symObjAddr: 0x7334, symBinAddr: 0x1000084AC, symSize: 0x44 }
  - { offset: 0x2A6CF, size: 0x8, addend: 0x0, symName: __ZNSt5dequeIiSaIiEE22_M_reserve_map_at_backEm, symObjAddr: 0x72D4, symBinAddr: 0x10000844C, symSize: 0x60 }
  - { offset: 0x2A70A, size: 0x8, addend: 0x0, symName: __ZNKSt5dequeIiSaIiEE8max_sizeEv, symObjAddr: 0x72B4, symBinAddr: 0x10000842C, symSize: 0x20 }
  - { offset: 0x2A786, size: 0x8, addend: 0x0, symName: __ZNKSt11_Deque_baseIiSaIiEE20_M_get_map_allocatorEv, symObjAddr: 0x726C, symBinAddr: 0x1000083E4, symSize: 0x48 }
  - { offset: 0x2A800, size: 0x8, addend: 0x0, symName: __ZNSt11_Deque_baseIiSaIiEE18_M_deallocate_nodeEPi, symObjAddr: 0x7214, symBinAddr: 0x10000838C, symSize: 0x58 }
  - { offset: 0x2A871, size: 0x8, addend: 0x0, symName: __ZNSt15_Deque_iteratorIiRiPiE11_M_set_nodeEPS1_, symObjAddr: 0x71B8, symBinAddr: 0x100008330, symSize: 0x5C }
  - { offset: 0x2A8AC, size: 0x8, addend: 0x0, symName: __ZNSt11_Deque_baseIiSaIiEE15_M_create_nodesEPPiS3_, symObjAddr: 0x712C, symBinAddr: 0x1000082A4, symSize: 0x8C }
  - { offset: 0x2A909, size: 0x8, addend: 0x0, symName: __ZNSt11_Deque_baseIiSaIiEE15_M_allocate_mapEm, symObjAddr: 0x70AC, symBinAddr: 0x100008224, symSize: 0x80 }
  - { offset: 0x2A9DB, size: 0x8, addend: 0x0, symName: __ZNSt11_Deque_baseIiSaIiEE16_Deque_impl_dataC2Ev, symObjAddr: 0x706C, symBinAddr: 0x1000081E4, symSize: 0x40 }
  - { offset: 0x2AA25, size: 0x8, addend: 0x0, symName: __ZNSt15__new_allocatorIcE10deallocateEPcm, symObjAddr: 0x7044, symBinAddr: 0x1000081BC, symSize: 0x28 }
  - { offset: 0x2AA86, size: 0x8, addend: 0x0, symName: __ZSt22__uninitialized_copy_aIPKiPiiET0_T_S4_S3_RSaIT1_E, symObjAddr: 0x7014, symBinAddr: 0x10000818C, symSize: 0x30 }
  - { offset: 0x2AB40, size: 0x8, addend: 0x0, symName: __ZNKSt16initializer_listIiE4sizeEv, symObjAddr: 0x6FFC, symBinAddr: 0x100008174, symSize: 0x18 }
  - { offset: 0x2AB66, size: 0x8, addend: 0x0, symName: __ZSt27__uninitialized_default_n_aIPimiET_S1_T0_RSaIT1_E, symObjAddr: 0x6FD4, symBinAddr: 0x10000814C, symSize: 0x28 }
  - { offset: 0x2ABC5, size: 0x8, addend: 0x0, symName: __ZSt24__uninitialized_fill_n_aIPimiiET_S1_T0_RKT1_RSaIT2_E, symObjAddr: 0x6FA4, symBinAddr: 0x10000811C, symSize: 0x30 }
  - { offset: 0x2AC42, size: 0x8, addend: 0x0, symName: __ZNSt12_Vector_baseIiSaIiEE17_M_create_storageEm, symObjAddr: 0x6F44, symBinAddr: 0x1000080BC, symSize: 0x60 }
  - { offset: 0x2ACA4, size: 0x8, addend: 0x0, symName: __ZNSt12_Vector_baseIiSaIiEE12_Vector_implC1ERKS0_, symObjAddr: 0x6EF8, symBinAddr: 0x100008070, symSize: 0x4C }
  - { offset: 0x2AD27, size: 0x8, addend: 0x0, symName: __ZNSt6vectorIiSaIiEE11_S_max_sizeERKS0_, symObjAddr: 0x6EA4, symBinAddr: 0x10000801C, symSize: 0x54 }
  - { offset: 0x2ADE2, size: 0x8, addend: 0x0, symName: __ZNKSt8__detail14_Node_iteratorISt4pairIKiiELb0ELb0EEptEv, symObjAddr: 0x6E74, symBinAddr: 0x100007FEC, symSize: 0x30 }
  - { offset: 0x2AE30, size: 0x8, addend: 0x0, symName: __ZNSt10_HashtableIiSt4pairIKiiESaIS2_ENSt8__detail10_Select1stESt8equal_toIiESt4hashIiENS4_18_Mod_range_hashingENS4_20_Default_ranged_hashENS4_20_Prime_rehash_policyENS4_17_Hashtable_traitsILb0ELb0ELb1EEEE21_M_insert_unique_nodeEmmPNS4_10_Hash_nodeIS2_Lb0EEEm, symObjAddr: 0x6D64, symBinAddr: 0x100007EDC, symSize: 0x110 }
  - { offset: 0x2AEE7, size: 0x8, addend: 0x0, symName: __ZNSt10_HashtableIiSt4pairIKiiESaIS2_ENSt8__detail10_Select1stESt8equal_toIiESt4hashIiENS4_18_Mod_range_hashingENS4_20_Default_ranged_hashENS4_20_Prime_rehash_policyENS4_17_Hashtable_traitsILb0ELb0ELb1EEEE12_Scoped_nodeD1Ev, symObjAddr: 0x6D20, symBinAddr: 0x100007E98, symSize: 0x44 }
  - { offset: 0x2AF60, size: 0x8, addend: 0x0, symName: __ZNSt10_HashtableIiSt4pairIKiiESaIS2_ENSt8__detail10_Select1stESt8equal_toIiESt4hashIiENS4_18_Mod_range_hashingENS4_20_Default_ranged_hashENS4_20_Prime_rehash_policyENS4_17_Hashtable_traitsILb0ELb0ELb1EEEE12_Scoped_nodeC1IJRKSt21piecewise_construct_tSt5tupleIJRS1_EESL_IJEEEEEPNS4_16_Hashtable_allocISaINS4_10_Hash_nodeIS2_Lb0EEEEEEDpOT_, symObjAddr: 0x6C98, symBinAddr: 0x100007E10, symSize: 0x88 }
  - { offset: 0x2AFF8, size: 0x8, addend: 0x0, symName: __ZNSt5tupleIJRKiEEC1ILb1ELb1EEES1_, symObjAddr: 0x6C70, symBinAddr: 0x100007DE8, symSize: 0x28 }
  - { offset: 0x2B047, size: 0x8, addend: 0x0, symName: __ZNKSt10_HashtableIiSt4pairIKiiESaIS2_ENSt8__detail10_Select1stESt8equal_toIiESt4hashIiENS4_18_Mod_range_hashingENS4_20_Default_ranged_hashENS4_20_Prime_rehash_policyENS4_17_Hashtable_traitsILb0ELb0ELb1EEEE12_M_find_nodeEmRS1_m, symObjAddr: 0x6C1C, symBinAddr: 0x100007D94, symSize: 0x54 }
  - { offset: 0x2B0B5, size: 0x8, addend: 0x0, symName: __ZNKSt10_HashtableIiSt4pairIKiiESaIS2_ENSt8__detail10_Select1stESt8equal_toIiESt4hashIiENS4_18_Mod_range_hashingENS4_20_Default_ranged_hashENS4_20_Prime_rehash_policyENS4_17_Hashtable_traitsILb0ELb0ELb1EEEE15_M_bucket_indexEm, symObjAddr: 0x6BEC, symBinAddr: 0x100007D64, symSize: 0x30 }
  - { offset: 0x2B0F0, size: 0x8, addend: 0x0, symName: __ZNKSt8__detail15_Hash_code_baseIiSt4pairIKiiENS_10_Select1stESt4hashIiENS_18_Mod_range_hashingENS_20_Default_ranged_hashELb0EE12_M_hash_codeERS2_, symObjAddr: 0x6BB4, symBinAddr: 0x100007D2C, symSize: 0x38 }
  - { offset: 0x2B12B, size: 0x8, addend: 0x0, symName: __ZNSt5dequeIiSaIiEE15_M_pop_back_auxEv, symObjAddr: 0x6B1C, symBinAddr: 0x100007C94, symSize: 0x98 }
  - { offset: 0x2B1AF, size: 0x8, addend: 0x0, symName: __ZNSt10_HashtableIiSt4pairIKiiESaIS2_ENSt8__detail10_Select1stESt8equal_toIiESt4hashIiENS4_18_Mod_range_hashingENS4_20_Default_ranged_hashENS4_20_Prime_rehash_policyENS4_17_Hashtable_traitsILb0ELb0ELb1EEEE21_M_deallocate_bucketsEPPNS4_15_Hash_node_baseEm, symObjAddr: 0x6AD0, symBinAddr: 0x100007C48, symSize: 0x4C }
  - { offset: 0x2B1FB, size: 0x8, addend: 0x0, symName: __ZNSt8__detail16_Hashtable_allocISaINS_10_Hash_nodeISt4pairIKiiELb0EEEEE19_M_deallocate_nodesEPS5_, symObjAddr: 0x6A80, symBinAddr: 0x100007BF8, symSize: 0x50 }
  - { offset: 0x2B25A, size: 0x8, addend: 0x0, symName: __ZNKSt10_HashtableIiSt4pairIKiiESaIS2_ENSt8__detail10_Select1stESt8equal_toIiESt4hashIiENS4_18_Mod_range_hashingENS4_20_Default_ranged_hashENS4_20_Prime_rehash_policyENS4_17_Hashtable_traitsILb0ELb0ELb1EEEE8_M_beginEv, symObjAddr: 0x6A68, symBinAddr: 0x100007BE0, symSize: 0x18 }
  - { offset: 0x2B2B5, size: 0x8, addend: 0x0, symName: __ZNSt6vectorIiSaIiEE4backEv, symObjAddr: 0x6A30, symBinAddr: 0x100007BA8, symSize: 0x38 }
  - { offset: 0x2B2DF, size: 0x8, addend: 0x0, symName: __ZNSt6vectorIiSaIiEE17_M_realloc_appendIJiEEEvDpOT_, symObjAddr: 0x6874, symBinAddr: 0x1000079EC, symSize: 0x1BC }
  - { offset: 0x2B464, size: 0x8, addend: 0x0, symName: __ZZNSt6vectorIiSaIiEE17_M_realloc_appendIJiEEEvDpOT_EN6_GuardC1EPimRS0_, symObjAddr: 0x67D0, symBinAddr: 0x100007948, symSize: 0x44 }
  - { offset: 0x2B4A9, size: 0x8, addend: 0x0, symName: __ZZNSt6vectorIiSaIiEE17_M_realloc_appendIJiEEEvDpOT_EN6_GuardD1Ev, symObjAddr: 0x6814, symBinAddr: 0x10000798C, symSize: 0x60 }
  - { offset: 0x2B5DC, size: 0x8, addend: 0x0, symName: __ZNSt6vectorIiSaIiEE11_S_relocateEPiS2_S2_RS0_, symObjAddr: 0x679C, symBinAddr: 0x100007914, symSize: 0x34 }
  - { offset: 0x2B639, size: 0x8, addend: 0x0, symName: __ZSt12__to_addressIiEPT_S1_, symObjAddr: 0x6788, symBinAddr: 0x100007900, symSize: 0x14 }
  - { offset: 0x2B66F, size: 0x8, addend: 0x0, symName: __ZNSt12_Vector_baseIiSaIiEE11_M_allocateEm, symObjAddr: 0x6738, symBinAddr: 0x1000078B0, symSize: 0x50 }
  - { offset: 0x2B6DA, size: 0x8, addend: 0x0, symName: __ZN9__gnu_cxxmiIPiSt6vectorIiSaIiEEEENS_17__normal_iteratorIT_T0_E15difference_typeERKS8_SB_, symObjAddr: 0x66F8, symBinAddr: 0x100007870, symSize: 0x40 }
  - { offset: 0x2B72B, size: 0x8, addend: 0x0, symName: __ZNKSt6vectorIiSaIiEE12_M_check_lenEmPKc, symObjAddr: 0x6628, symBinAddr: 0x1000077A0, symSize: 0xD0 }
  - { offset: 0x2B7C6, size: 0x8, addend: 0x0, symName: __ZSt8_DestroyIPiEvT_S1_, symObjAddr: 0x6600, symBinAddr: 0x100007778, symSize: 0x28 }
  - { offset: 0x2B83E, size: 0x8, addend: 0x0, symName: __ZNSt5dequeINSt7__cxx1112basic_stringIcSt11char_traitsIcESaIcEEESaIS5_EE15_M_pop_back_auxEv, symObjAddr: 0x6560, symBinAddr: 0x1000076D8, symSize: 0xA0 }
  - { offset: 0x2B8EF, size: 0x8, addend: 0x0, symName: __ZNKSt15_Deque_iteratorINSt7__cxx1112basic_stringIcSt11char_traitsIcESaIcEEERS5_PS5_EdeEv, symObjAddr: 0x6548, symBinAddr: 0x1000076C0, symSize: 0x18 }
  - { offset: 0x2B919, size: 0x8, addend: 0x0, symName: __ZNSt15_Deque_iteratorINSt7__cxx1112basic_stringIcSt11char_traitsIcESaIcEEERS5_PS5_EmmEv, symObjAddr: 0x64DC, symBinAddr: 0x100007654, symSize: 0x6C }
  - { offset: 0x2B943, size: 0x8, addend: 0x0, symName: __ZNSt5dequeINSt7__cxx1112basic_stringIcSt11char_traitsIcESaIcEEESaIS5_EE16_M_push_back_auxIJRKS5_EEEvDpOT_, symObjAddr: 0x6354, symBinAddr: 0x1000074CC, symSize: 0x188 }
  - { offset: 0x2BA30, size: 0x8, addend: 0x0, symName: __ZNSt5dequeINSt7__cxx1112basic_stringIcSt11char_traitsIcESaIcEEESaIS5_EE19_M_destroy_data_auxESt15_Deque_iteratorIS5_RS5_PS5_ESB_, symObjAddr: 0x6204, symBinAddr: 0x10000737C, symSize: 0x150 }
  - { offset: 0x2BBA9, size: 0x8, addend: 0x0, symName: __ZNSt15_Deque_iteratorINSt7__cxx1112basic_stringIcSt11char_traitsIcESaIcEEERS5_PS5_EC1ERKS8_, symObjAddr: 0x61AC, symBinAddr: 0x100007324, symSize: 0x58 }
  - { offset: 0x2BBD8, size: 0x8, addend: 0x0, symName: __ZNSt11_Deque_baseINSt7__cxx1112basic_stringIcSt11char_traitsIcESaIcEEESaIS5_EE17_M_deallocate_mapEPPS5_m, symObjAddr: 0x614C, symBinAddr: 0x1000072C4, symSize: 0x60 }
  - { offset: 0x2BC89, size: 0x8, addend: 0x0, symName: __ZNSt11_Deque_baseINSt7__cxx1112basic_stringIcSt11char_traitsIcESaIcEEESaIS5_EE16_M_destroy_nodesEPPS5_S9_, symObjAddr: 0x60EC, symBinAddr: 0x100007264, symSize: 0x60 }
  - { offset: 0x2BCF9, size: 0x8, addend: 0x0, symName: __ZNSt11_Deque_baseINSt7__cxx1112basic_stringIcSt11char_traitsIcESaIcEEESaIS5_EE17_M_initialize_mapEm, symObjAddr: 0x5F60, symBinAddr: 0x1000070D8, symSize: 0x18C }
  - { offset: 0x2BDA1, size: 0x8, addend: 0x0, symName: __ZNSt11_Deque_baseINSt7__cxx1112basic_stringIcSt11char_traitsIcESaIcEEESaIS5_EE11_Deque_implC1Ev, symObjAddr: 0x5F28, symBinAddr: 0x1000070A0, symSize: 0x38 }
  - { offset: 0x2BE0A, size: 0x8, addend: 0x0, symName: __ZSt9iter_swapIN9__gnu_cxx17__normal_iteratorIPcNSt7__cxx1112basic_stringIcSt11char_traitsIcESaIcEEEEES9_EvT_T0_, symObjAddr: 0x5EE4, symBinAddr: 0x10000705C, symSize: 0x44 }
  - { offset: 0x2BE5C, size: 0x8, addend: 0x0, symName: __ZN9__gnu_cxxltIPcNSt7__cxx1112basic_stringIcSt11char_traitsIcESaIcEEEEEbRKNS_17__normal_iteratorIT_T0_EESD_, symObjAddr: 0x5EA0, symBinAddr: 0x100007018, symSize: 0x44 }
  - { offset: 0x2BEAD, size: 0x8, addend: 0x0, symName: __ZN9__gnu_cxx17__normal_iteratorIPcNSt7__cxx1112basic_stringIcSt11char_traitsIcESaIcEEEEmmEv, symObjAddr: 0x5E78, symBinAddr: 0x100006FF0, symSize: 0x28 }
  - { offset: 0x2BED3, size: 0x8, addend: 0x0, symName: __ZN9__gnu_cxxeqIPcNSt7__cxx1112basic_stringIcSt11char_traitsIcESaIcEEEEEbRKNS_17__normal_iteratorIT_T0_EESD_, symObjAddr: 0x5E34, symBinAddr: 0x100006FAC, symSize: 0x44 }
  - { offset: 0x2BF24, size: 0x8, addend: 0x0, symName: __ZNSt5dequeIcSaIcEE15_M_pop_back_auxEv, symObjAddr: 0x5D9C, symBinAddr: 0x100006F14, symSize: 0x98 }
  - { offset: 0x2BFD5, size: 0x8, addend: 0x0, symName: __ZNKSt15_Deque_iteratorIcRcPcEdeEv, symObjAddr: 0x5D84, symBinAddr: 0x100006EFC, symSize: 0x18 }
  - { offset: 0x2BFFF, size: 0x8, addend: 0x0, symName: __ZNSt15_Deque_iteratorIcRcPcEmmEv, symObjAddr: 0x5D18, symBinAddr: 0x100006E90, symSize: 0x6C }
  - { offset: 0x2C025, size: 0x8, addend: 0x0, symName: __ZSteqRKSt15_Deque_iteratorIcRcPcES4_, symObjAddr: 0x5CE8, symBinAddr: 0x100006E60, symSize: 0x30 }
  - { offset: 0x2C064, size: 0x8, addend: 0x0, symName: __ZNSt5dequeIcSaIcEE16_M_push_back_auxIJRKcEEEvDpOT_, symObjAddr: 0x5BC8, symBinAddr: 0x100006D40, symSize: 0x120 }
  - { offset: 0x2C180, size: 0x8, addend: 0x0, symName: __ZNSt15_Deque_iteratorIcRcPcEC1ERKS2_, symObjAddr: 0x5B70, symBinAddr: 0x100006CE8, symSize: 0x58 }
  - { offset: 0x2C1AF, size: 0x8, addend: 0x0, symName: __ZNSt11_Deque_baseIcSaIcEE17_M_deallocate_mapEPPcm, symObjAddr: 0x5B10, symBinAddr: 0x100006C88, symSize: 0x60 }
  - { offset: 0x2C260, size: 0x8, addend: 0x0, symName: __ZNSt11_Deque_baseIcSaIcEE16_M_destroy_nodesEPPcS3_, symObjAddr: 0x5AB0, symBinAddr: 0x100006C28, symSize: 0x60 }
  - { offset: 0x2C2D0, size: 0x8, addend: 0x0, symName: __ZNSt11_Deque_baseIcSaIcEE17_M_initialize_mapEm, symObjAddr: 0x5928, symBinAddr: 0x100006AA0, symSize: 0x188 }
  - { offset: 0x2C358, size: 0x8, addend: 0x0, symName: __ZNSt11_Deque_baseIcSaIcEE11_Deque_implC1Ev, symObjAddr: 0x58F0, symBinAddr: 0x100006A68, symSize: 0x38 }
  - { offset: 0x2C3C5, size: 0x8, addend: 0x0, symName: __ZNSt15_Deque_iteratorIiRiPiEmmEv, symObjAddr: 0x5884, symBinAddr: 0x1000069FC, symSize: 0x6C }
  - { offset: 0x2C3F2, size: 0x8, addend: 0x0, symName: __ZSteqRKSt15_Deque_iteratorIiRiPiES4_, symObjAddr: 0x5854, symBinAddr: 0x1000069CC, symSize: 0x30 }
  - { offset: 0x2C45E, size: 0x8, addend: 0x0, symName: __ZNKSt15_Deque_iteratorIiRiPiEdeEv, symObjAddr: 0x583C, symBinAddr: 0x1000069B4, symSize: 0x18 }
  - { offset: 0x2C484, size: 0x8, addend: 0x0, symName: __ZStmiRKSt15_Deque_iteratorIiRiPiES4_, symObjAddr: 0x57A8, symBinAddr: 0x100006920, symSize: 0x94 }
  - { offset: 0x2C4C3, size: 0x8, addend: 0x0, symName: __ZNSt5dequeIiSaIiEE16_M_push_back_auxIJRKiEEEvDpOT_, symObjAddr: 0x5688, symBinAddr: 0x100006800, symSize: 0x120 }
  - { offset: 0x2C59B, size: 0x8, addend: 0x0, symName: __ZNSt15_Deque_iteratorIiRiPiEC1ERKS2_, symObjAddr: 0x5630, symBinAddr: 0x1000067A8, symSize: 0x58 }
  - { offset: 0x2C5CA, size: 0x8, addend: 0x0, symName: __ZNSt11_Deque_baseIiSaIiEE17_M_deallocate_mapEPPim, symObjAddr: 0x55D0, symBinAddr: 0x100006748, symSize: 0x60 }
  - { offset: 0x2C67B, size: 0x8, addend: 0x0, symName: __ZNSt11_Deque_baseIiSaIiEE16_M_destroy_nodesEPPiS3_, symObjAddr: 0x5570, symBinAddr: 0x1000066E8, symSize: 0x60 }
  - { offset: 0x2C6EB, size: 0x8, addend: 0x0, symName: __ZNSt11_Deque_baseIiSaIiEE17_M_initialize_mapEm, symObjAddr: 0x53E4, symBinAddr: 0x10000655C, symSize: 0x18C }
  - { offset: 0x2C773, size: 0x8, addend: 0x0, symName: __ZNSt11_Deque_baseIiSaIiEE11_Deque_implC1Ev, symObjAddr: 0x53AC, symBinAddr: 0x100006524, symSize: 0x38 }
  - { offset: 0x2C84B, size: 0x8, addend: 0x0, symName: __ZNK9__gnu_cxx17__normal_iteratorIPiSt6vectorIiSaIiEEE4baseEv, symObjAddr: 0x5398, symBinAddr: 0x100006510, symSize: 0x14 }
  - { offset: 0x2C89D, size: 0x8, addend: 0x0, symName: __ZN9__gnu_cxx17__normal_iteratorIPiSt6vectorIiSaIiEEEC1ERKS1_, symObjAddr: 0x5370, symBinAddr: 0x1000064E8, symSize: 0x28 }
  - { offset: 0x2C8CC, size: 0x8, addend: 0x0, symName: __ZNSt6vectorIiSaIiEE19_M_range_initializeIPKiEEvT_S5_St20forward_iterator_tag, symObjAddr: 0x528C, symBinAddr: 0x100006404, symSize: 0xE4 }
  - { offset: 0x2C9EA, size: 0x8, addend: 0x0, symName: __ZNKSt16initializer_listIiE3endEv, symObjAddr: 0x5254, symBinAddr: 0x1000063CC, symSize: 0x38 }
  - { offset: 0x2CA14, size: 0x8, addend: 0x0, symName: __ZNKSt16initializer_listIiE5beginEv, symObjAddr: 0x523C, symBinAddr: 0x1000063B4, symSize: 0x18 }
  - { offset: 0x2CA66, size: 0x8, addend: 0x0, symName: __ZNSt12_Vector_baseIiSaIiEEC2ERKS0_, symObjAddr: 0x5214, symBinAddr: 0x10000638C, symSize: 0x28 }
  - { offset: 0x2CA95, size: 0x8, addend: 0x0, symName: __ZNSt6vectorIiSaIiEE21_M_default_initializeEm, symObjAddr: 0x51C4, symBinAddr: 0x10000633C, symSize: 0x50 }
  - { offset: 0x2CAD0, size: 0x8, addend: 0x0, symName: __ZNSt6vectorIiSaIiEE18_M_fill_initializeEmRKi, symObjAddr: 0x516C, symBinAddr: 0x1000062E4, symSize: 0x58 }
  - { offset: 0x2CB52, size: 0x8, addend: 0x0, symName: __ZNSt12_Vector_baseIiSaIiEEC2EmRKS0_, symObjAddr: 0x5118, symBinAddr: 0x100006290, symSize: 0x54 }
  - { offset: 0x2CB86, size: 0x8, addend: 0x0, symName: __ZNSt6vectorIiSaIiEE17_S_check_init_lenEmRKS0_, symObjAddr: 0x5094, symBinAddr: 0x10000620C, symSize: 0x84 }
  - { offset: 0x2CC52, size: 0x8, addend: 0x0, symName: __ZNSt8__detail9_Map_baseIiSt4pairIKiiESaIS3_ENS_10_Select1stESt8equal_toIiESt4hashIiENS_18_Mod_range_hashingENS_20_Default_ranged_hashENS_20_Prime_rehash_policyENS_17_Hashtable_traitsILb0ELb0ELb1EEELb1EEixERS2_, symObjAddr: 0x4F74, symBinAddr: 0x1000060EC, symSize: 0x120 }
  - { offset: 0x2CD58, size: 0x8, addend: 0x0, symName: __ZNSt5dequeIiSaIiEE8pop_backEv, symObjAddr: 0x4EF0, symBinAddr: 0x100006068, symSize: 0x84 }
  - { offset: 0x2CDDC, size: 0x8, addend: 0x0, symName: __ZNSt10_HashtableIiSt4pairIKiiESaIS2_ENSt8__detail10_Select1stESt8equal_toIiESt4hashIiENS4_18_Mod_range_hashingENS4_20_Default_ranged_hashENS4_20_Prime_rehash_policyENS4_17_Hashtable_traitsILb0ELb0ELb1EEEE21_M_deallocate_bucketsEv, symObjAddr: 0x4EBC, symBinAddr: 0x100006034, symSize: 0x34 }
  - { offset: 0x2CE06, size: 0x8, addend: 0x0, symName: __ZNSt10_HashtableIiSt4pairIKiiESaIS2_ENSt8__detail10_Select1stESt8equal_toIiESt4hashIiENS4_18_Mod_range_hashingENS4_20_Default_ranged_hashENS4_20_Prime_rehash_policyENS4_17_Hashtable_traitsILb0ELb0ELb1EEEE5clearEv, symObjAddr: 0x4E5C, symBinAddr: 0x100005FD4, symSize: 0x60 }
  - { offset: 0x2CE54, size: 0x8, addend: 0x0, symName: __ZNSt15__new_allocatorINSt8__detail10_Hash_nodeISt4pairIKiiELb0EEEED2Ev, symObjAddr: 0x4E48, symBinAddr: 0x100005FC0, symSize: 0x14 }
  - { offset: 0x2CEB3, size: 0x8, addend: 0x0, symName: __ZNSt6vectorIiSaIiEE12emplace_backIJiEEERiDpOT_, symObjAddr: 0x4D70, symBinAddr: 0x100005EE8, symSize: 0xD8 }
  - { offset: 0x2CF65, size: 0x8, addend: 0x0, symName: __ZSt4moveIRiEONSt16remove_referenceIT_E4typeEOS2_, symObjAddr: 0x4D5C, symBinAddr: 0x100005ED4, symSize: 0x14 }
  - { offset: 0x2CF9B, size: 0x8, addend: 0x0, symName: __ZNSt6vectorIiSaIiEE17_M_realloc_appendIJRKiEEEvDpOT_, symObjAddr: 0x4BA0, symBinAddr: 0x100005D18, symSize: 0x1BC }
  - { offset: 0x2D120, size: 0x8, addend: 0x0, symName: __ZZNSt6vectorIiSaIiEE17_M_realloc_appendIJRKiEEEvDpOT_EN6_GuardC1EPimRS0_, symObjAddr: 0x4AFC, symBinAddr: 0x100005C74, symSize: 0x44 }
  - { offset: 0x2D165, size: 0x8, addend: 0x0, symName: __ZZNSt6vectorIiSaIiEE17_M_realloc_appendIJRKiEEEvDpOT_EN6_GuardD1Ev, symObjAddr: 0x4B40, symBinAddr: 0x100005CB8, symSize: 0x60 }
  - { offset: 0x2D2D7, size: 0x8, addend: 0x0, symName: __ZNSt12_Vector_baseIiSaIiEE19_M_get_Tp_allocatorEv, symObjAddr: 0x4AE8, symBinAddr: 0x100005C60, symSize: 0x14 }
  - { offset: 0x2D301, size: 0x8, addend: 0x0, symName: __ZNSt12_Vector_baseIiSaIiEE13_M_deallocateEPim, symObjAddr: 0x4A90, symBinAddr: 0x100005C08, symSize: 0x58 }
  - { offset: 0x2D3A7, size: 0x8, addend: 0x0, symName: __ZNSt15__new_allocatorIiED2Ev, symObjAddr: 0x4A7C, symBinAddr: 0x100005BF4, symSize: 0x14 }
  - { offset: 0x2D3E7, size: 0x8, addend: 0x0, symName: __ZNSt12_Vector_baseIiSaIiEE17_Vector_impl_dataC2Ev, symObjAddr: 0x4A50, symBinAddr: 0x100005BC8, symSize: 0x2C }
  - { offset: 0x2D40F, size: 0x8, addend: 0x0, symName: __ZSt12__str_concatINSt7__cxx1112basic_stringIcSt11char_traitsIcESaIcEEEET_PKNS6_10value_typeENS6_9size_typeES9_SA_RKNS6_14allocator_typeE, symObjAddr: 0x4970, symBinAddr: 0x100005AE8, symSize: 0xE0 }
  - { offset: 0x2D561, size: 0x8, addend: 0x0, symName: __ZNSt5dequeINSt7__cxx1112basic_stringIcSt11char_traitsIcESaIcEEESaIS5_EE8pop_backEv, symObjAddr: 0x48E4, symBinAddr: 0x100005A5C, symSize: 0x8C }
  - { offset: 0x2D5E5, size: 0x8, addend: 0x0, symName: __ZNSt5dequeINSt7__cxx1112basic_stringIcSt11char_traitsIcESaIcEEESaIS5_EE4backEv, symObjAddr: 0x48B0, symBinAddr: 0x100005A28, symSize: 0x34 }
  - { offset: 0x2D620, size: 0x8, addend: 0x0, symName: __ZNSt5dequeINSt7__cxx1112basic_stringIcSt11char_traitsIcESaIcEEESaIS5_EE9push_backERKS5_, symObjAddr: 0x47B0, symBinAddr: 0x100005928, symSize: 0x100 }
  - { offset: 0x2D6BF, size: 0x8, addend: 0x0, symName: __ZNSt5dequeINSt7__cxx1112basic_stringIcSt11char_traitsIcESaIcEEESaIS5_EE15_M_destroy_dataESt15_Deque_iteratorIS5_RS5_PS5_ESB_RKS6_, symObjAddr: 0x475C, symBinAddr: 0x1000058D4, symSize: 0x54 }
  - { offset: 0x2D71A, size: 0x8, addend: 0x0, symName: __ZNSt11_Deque_baseINSt7__cxx1112basic_stringIcSt11char_traitsIcESaIcEEESaIS5_EE19_M_get_Tp_allocatorEv, symObjAddr: 0x4748, symBinAddr: 0x1000058C0, symSize: 0x14 }
  - { offset: 0x2D744, size: 0x8, addend: 0x0, symName: __ZNSt5dequeINSt7__cxx1112basic_stringIcSt11char_traitsIcESaIcEEESaIS5_EE3endEv, symObjAddr: 0x4710, symBinAddr: 0x100005888, symSize: 0x38 }
  - { offset: 0x2D76E, size: 0x8, addend: 0x0, symName: __ZNSt5dequeINSt7__cxx1112basic_stringIcSt11char_traitsIcESaIcEEESaIS5_EE5beginEv, symObjAddr: 0x46D8, symBinAddr: 0x100005850, symSize: 0x38 }
  - { offset: 0x2D7BC, size: 0x8, addend: 0x0, symName: __ZNSt11_Deque_baseINSt7__cxx1112basic_stringIcSt11char_traitsIcESaIcEEESaIS5_EED2Ev, symObjAddr: 0x466C, symBinAddr: 0x1000057E4, symSize: 0x6C }
  - { offset: 0x2D7FC, size: 0x8, addend: 0x0, symName: __ZNSt11_Deque_baseINSt7__cxx1112basic_stringIcSt11char_traitsIcESaIcEEESaIS5_EEC2Ev, symObjAddr: 0x4624, symBinAddr: 0x10000579C, symSize: 0x48 }
  - { offset: 0x2D84A, size: 0x8, addend: 0x0, symName: __ZNSt11_Deque_baseINSt7__cxx1112basic_stringIcSt11char_traitsIcESaIcEEESaIS5_EE11_Deque_implD1Ev, symObjAddr: 0x45F8, symBinAddr: 0x100005770, symSize: 0x2C }
  - { offset: 0x2D890, size: 0x8, addend: 0x0, symName: __ZSt9__reverseIN9__gnu_cxx17__normal_iteratorIPcNSt7__cxx1112basic_stringIcSt11char_traitsIcESaIcEEEEEEvT_SA_St26random_access_iterator_tag, symObjAddr: 0x457C, symBinAddr: 0x1000056F4, symSize: 0x7C }
  - { offset: 0x2D8FA, size: 0x8, addend: 0x0, symName: __ZSt7forwardIRKiEOT_RNSt16remove_referenceIS2_E4typeE, symObjAddr: 0x4568, symBinAddr: 0x1000056E0, symSize: 0x14 }
  - { offset: 0x2D930, size: 0x8, addend: 0x0, symName: __ZNSt5dequeIcSaIcEE8pop_backEv, symObjAddr: 0x44E4, symBinAddr: 0x10000565C, symSize: 0x84 }
  - { offset: 0x2D9B4, size: 0x8, addend: 0x0, symName: __ZNSt5dequeIcSaIcEE4backEv, symObjAddr: 0x44B0, symBinAddr: 0x100005628, symSize: 0x34 }
  - { offset: 0x2D9EF, size: 0x8, addend: 0x0, symName: __ZNKSt5dequeIcSaIcEE5emptyEv, symObjAddr: 0x4480, symBinAddr: 0x1000055F8, symSize: 0x30 }
  - { offset: 0x2DA19, size: 0x8, addend: 0x0, symName: __ZNSt5dequeIcSaIcEE9push_backERKc, symObjAddr: 0x43B4, symBinAddr: 0x10000552C, symSize: 0xCC }
  - { offset: 0x2DAC0, size: 0x8, addend: 0x0, symName: __ZNK9__gnu_cxx17__normal_iteratorIPcNSt7__cxx1112basic_stringIcSt11char_traitsIcESaIcEEEE4baseEv, symObjAddr: 0x43A0, symBinAddr: 0x100005518, symSize: 0x14 }
  - { offset: 0x2DAEA, size: 0x8, addend: 0x0, symName: __ZNSt5dequeIcSaIcEE15_M_destroy_dataESt15_Deque_iteratorIcRcPcES5_RKS0_, symObjAddr: 0x4380, symBinAddr: 0x1000054F8, symSize: 0x20 }
  - { offset: 0x2DB45, size: 0x8, addend: 0x0, symName: __ZNSt11_Deque_baseIcSaIcEE19_M_get_Tp_allocatorEv, symObjAddr: 0x436C, symBinAddr: 0x1000054E4, symSize: 0x14 }
  - { offset: 0x2DB6F, size: 0x8, addend: 0x0, symName: __ZNSt5dequeIcSaIcEE3endEv, symObjAddr: 0x4334, symBinAddr: 0x1000054AC, symSize: 0x38 }
  - { offset: 0x2DB99, size: 0x8, addend: 0x0, symName: __ZNSt5dequeIcSaIcEE5beginEv, symObjAddr: 0x42FC, symBinAddr: 0x100005474, symSize: 0x38 }
  - { offset: 0x2DBE7, size: 0x8, addend: 0x0, symName: __ZNSt11_Deque_baseIcSaIcEED2Ev, symObjAddr: 0x4290, symBinAddr: 0x100005408, symSize: 0x6C }
  - { offset: 0x2DC27, size: 0x8, addend: 0x0, symName: __ZNSt11_Deque_baseIcSaIcEEC2Ev, symObjAddr: 0x4248, symBinAddr: 0x1000053C0, symSize: 0x48 }
  - { offset: 0x2DC75, size: 0x8, addend: 0x0, symName: __ZNSt11_Deque_baseIcSaIcEE11_Deque_implD1Ev, symObjAddr: 0x421C, symBinAddr: 0x100005394, symSize: 0x2C }
  - { offset: 0x2DCBF, size: 0x8, addend: 0x0, symName: __ZNSt5dequeIiSaIiEE4backEv, symObjAddr: 0x41E8, symBinAddr: 0x100005360, symSize: 0x34 }
  - { offset: 0x2DCFA, size: 0x8, addend: 0x0, symName: __ZNKSt5dequeIiSaIiEE5emptyEv, symObjAddr: 0x41B8, symBinAddr: 0x100005330, symSize: 0x30 }
  - { offset: 0x2DD24, size: 0x8, addend: 0x0, symName: __ZNKSt5dequeIiSaIiEE4sizeEv, symObjAddr: 0x4188, symBinAddr: 0x100005300, symSize: 0x30 }
  - { offset: 0x2DD4E, size: 0x8, addend: 0x0, symName: __ZNSt5dequeIiSaIiEE9push_backERKi, symObjAddr: 0x40BC, symBinAddr: 0x100005234, symSize: 0xCC }
  - { offset: 0x2DDF5, size: 0x8, addend: 0x0, symName: __ZNSt5dequeIiSaIiEE15_M_destroy_dataESt15_Deque_iteratorIiRiPiES5_RKS0_, symObjAddr: 0x409C, symBinAddr: 0x100005214, symSize: 0x20 }
  - { offset: 0x2DE50, size: 0x8, addend: 0x0, symName: __ZNSt11_Deque_baseIiSaIiEE19_M_get_Tp_allocatorEv, symObjAddr: 0x4088, symBinAddr: 0x100005200, symSize: 0x14 }
  - { offset: 0x2DE7A, size: 0x8, addend: 0x0, symName: __ZNSt5dequeIiSaIiEE3endEv, symObjAddr: 0x4050, symBinAddr: 0x1000051C8, symSize: 0x38 }
  - { offset: 0x2DEA4, size: 0x8, addend: 0x0, symName: __ZNSt5dequeIiSaIiEE5beginEv, symObjAddr: 0x4018, symBinAddr: 0x100005190, symSize: 0x38 }
  - { offset: 0x2DEF2, size: 0x8, addend: 0x0, symName: __ZNSt11_Deque_baseIiSaIiEED2Ev, symObjAddr: 0x3FAC, symBinAddr: 0x100005124, symSize: 0x6C }
  - { offset: 0x2DF32, size: 0x8, addend: 0x0, symName: __ZNSt11_Deque_baseIiSaIiEEC2Ev, symObjAddr: 0x3F64, symBinAddr: 0x1000050DC, symSize: 0x48 }
  - { offset: 0x2DF80, size: 0x8, addend: 0x0, symName: __ZNSt11_Deque_baseIiSaIiEE11_Deque_implD1Ev, symObjAddr: 0x3F38, symBinAddr: 0x1000050B0, symSize: 0x2C }
  - { offset: 0x2E003, size: 0x8, addend: 0x0, symName: __ZNSt15__new_allocatorIcED2Ev, symObjAddr: 0x3F24, symBinAddr: 0x10000509C, symSize: 0x14 }
  - { offset: 0x2E03F, size: 0x8, addend: 0x0, symName: __ZNK9__gnu_cxx17__normal_iteratorIPiSt6vectorIiSaIiEEEdeEv, symObjAddr: 0x3F0C, symBinAddr: 0x100005084, symSize: 0x18 }
  - { offset: 0x2E069, size: 0x8, addend: 0x0, symName: __ZN9__gnu_cxx17__normal_iteratorIPiSt6vectorIiSaIiEEEppEv, symObjAddr: 0x3EE4, symBinAddr: 0x10000505C, symSize: 0x28 }
  - { offset: 0x2E08F, size: 0x8, addend: 0x0, symName: __ZN9__gnu_cxxneIPiSt6vectorIiSaIiEEEEbRKNS_17__normal_iteratorIT_T0_EESA_, symObjAddr: 0x3EA0, symBinAddr: 0x100005018, symSize: 0x44 }
  - { offset: 0x2E0E0, size: 0x8, addend: 0x0, symName: __ZNSt6vectorIiSaIiEE3endEv, symObjAddr: 0x3E78, symBinAddr: 0x100004FF0, symSize: 0x28 }
  - { offset: 0x2E10A, size: 0x8, addend: 0x0, symName: __ZNSt6vectorIiSaIiEE5beginEv, symObjAddr: 0x3E54, symBinAddr: 0x100004FCC, symSize: 0x24 }
  - { offset: 0x2E16A, size: 0x8, addend: 0x0, symName: __ZNSt6vectorIiSaIiEEC1ESt16initializer_listIiERKS0_, symObjAddr: 0x3DE4, symBinAddr: 0x100004F5C, symSize: 0x70 }
  - { offset: 0x2E1A2, size: 0x8, addend: 0x0, symName: __ZNKSt5stackIiSt5dequeIiSaIiEEE4sizeEv, symObjAddr: 0x3DC8, symBinAddr: 0x100004F40, symSize: 0x1C }
  - { offset: 0x2E1C8, size: 0x8, addend: 0x0, symName: __ZSt3maxIiERKT_S2_S2_, symObjAddr: 0x3D90, symBinAddr: 0x100004F08, symSize: 0x38 }
  - { offset: 0x2E246, size: 0x8, addend: 0x0, symName: __ZNSt6vectorIiSaIiEEC1EmRKS0_, symObjAddr: 0x3D28, symBinAddr: 0x100004EA0, symSize: 0x68 }
  - { offset: 0x2E2C2, size: 0x8, addend: 0x0, symName: __ZNSt6vectorIiSaIiEEC1EmRKiRKS0_, symObjAddr: 0x3CB8, symBinAddr: 0x100004E30, symSize: 0x70 }
  - { offset: 0x2E319, size: 0x8, addend: 0x0, symName: __ZNSt5stackIiSt5dequeIiSaIiEEE4pushERKi, symObjAddr: 0x3C90, symBinAddr: 0x100004E08, symSize: 0x28 }
  - { offset: 0x2E354, size: 0x8, addend: 0x0, symName: __ZNSt13unordered_mapIiiSt4hashIiESt8equal_toIiESaISt4pairIKiiEEEixERS5_, symObjAddr: 0x3C6C, symBinAddr: 0x100004DE4, symSize: 0x24 }
  - { offset: 0x2E38F, size: 0x8, addend: 0x0, symName: __ZNSt5stackIiSt5dequeIiSaIiEEE3popEv, symObjAddr: 0x3C4C, symBinAddr: 0x100004DC4, symSize: 0x20 }
  - { offset: 0x2E3B9, size: 0x8, addend: 0x0, symName: __ZNSt5stackIiSt5dequeIiSaIiEEE3topEv, symObjAddr: 0x3C30, symBinAddr: 0x100004DA8, symSize: 0x1C }
  - { offset: 0x2E3E3, size: 0x8, addend: 0x0, symName: __ZNKSt5stackIiSt5dequeIiSaIiEEE5emptyEv, symObjAddr: 0x3C14, symBinAddr: 0x100004D8C, symSize: 0x1C }
  - { offset: 0x2E435, size: 0x8, addend: 0x0, symName: __ZNSt5stackIiSt5dequeIiSaIiEEEC1IS2_vEEv, symObjAddr: 0x3BD8, symBinAddr: 0x100004D50, symSize: 0x3C }
  - { offset: 0x2E48D, size: 0x8, addend: 0x0, symName: __ZNSt10_HashtableIiSt4pairIKiiESaIS2_ENSt8__detail10_Select1stESt8equal_toIiESt4hashIiENS4_18_Mod_range_hashingENS4_20_Default_ranged_hashENS4_20_Prime_rehash_policyENS4_17_Hashtable_traitsILb0ELb0ELb1EEEED1Ev, symObjAddr: 0x3BA8, symBinAddr: 0x100004D20, symSize: 0x30 }
  - { offset: 0x2E4ED, size: 0x8, addend: 0x0, symName: __ZNSt8__detail21_Hashtable_ebo_helperILi0ESaINS_10_Hash_nodeISt4pairIKiiELb0EEEELb1EEC2Ev, symObjAddr: 0x3B7C, symBinAddr: 0x100004CF4, symSize: 0x2C }
  - { offset: 0x2E574, size: 0x8, addend: 0x0, symName: __ZNSt8__detail21_Hashtable_ebo_helperILi0ESt8equal_toIiELb1EEC2Ev, symObjAddr: 0x3B68, symBinAddr: 0x100004CE0, symSize: 0x14 }
  - { offset: 0x2E5B4, size: 0x8, addend: 0x0, symName: __ZNSt8__detail21_Hashtable_ebo_helperILi1ESt4hashIiELb1EEC2Ev, symObjAddr: 0x3B54, symBinAddr: 0x100004CCC, symSize: 0x14 }
  - { offset: 0x2E5DA, size: 0x8, addend: 0x0, symName: __ZNSt6vectorIiSaIiEE9push_backEOi, symObjAddr: 0x3B24, symBinAddr: 0x100004C9C, symSize: 0x30 }
  - { offset: 0x2E615, size: 0x8, addend: 0x0, symName: __ZNSt6vectorIiSaIiEE9push_backERKi, symObjAddr: 0x3A5C, symBinAddr: 0x100004BD4, symSize: 0xC8 }
  - { offset: 0x2E6BC, size: 0x8, addend: 0x0, symName: __ZNSt6vectorIiSaIiEEixEm, symObjAddr: 0x3A34, symBinAddr: 0x100004BAC, symSize: 0x28 }
  - { offset: 0x2E71B, size: 0x8, addend: 0x0, symName: __ZNSt6vectorIiSaIiEED1Ev, symObjAddr: 0x39D8, symBinAddr: 0x100004B50, symSize: 0x5C }
  - { offset: 0x2E79B, size: 0x8, addend: 0x0, symName: __ZNSt12_Vector_baseIiSaIiEED2Ev, symObjAddr: 0x3988, symBinAddr: 0x100004B00, symSize: 0x50 }
  - { offset: 0x2E7FB, size: 0x8, addend: 0x0, symName: __ZNSt12_Vector_baseIiSaIiEE12_Vector_implC1Ev, symObjAddr: 0x3950, symBinAddr: 0x100004AC8, symSize: 0x38 }
  - { offset: 0x2E867, size: 0x8, addend: 0x0, symName: __ZNKSt6vectorIiSaIiEE4sizeEv, symObjAddr: 0x3928, symBinAddr: 0x100004AA0, symSize: 0x28 }
  - { offset: 0x2E88D, size: 0x8, addend: 0x0, symName: __ZStplIcSt11char_traitsIcESaIcEENSt7__cxx1112basic_stringIT_T0_T1_EERKS8_SA_, symObjAddr: 0x3864, symBinAddr: 0x1000049DC, symSize: 0xC4 }
  - { offset: 0x2E925, size: 0x8, addend: 0x0, symName: __ZStplIcSt11char_traitsIcESaIcEENSt7__cxx1112basic_stringIT_T0_T1_EEOS8_RKS8_, symObjAddr: 0x3820, symBinAddr: 0x100004998, symSize: 0x44 }
  - { offset: 0x2E97B, size: 0x8, addend: 0x0, symName: __ZStplIcSt11char_traitsIcESaIcEENSt7__cxx1112basic_stringIT_T0_T1_EEOS8_S5_, symObjAddr: 0x37D0, symBinAddr: 0x100004948, symSize: 0x50 }
  - { offset: 0x2E9D1, size: 0x8, addend: 0x0, symName: __ZStplIcSt11char_traitsIcESaIcEENSt7__cxx1112basic_stringIT_T0_T1_EES5_RKS8_, symObjAddr: 0x372C, symBinAddr: 0x1000048A4, symSize: 0xA4 }
  - { offset: 0x2EA6D, size: 0x8, addend: 0x0, symName: __ZNSt5stackINSt7__cxx1112basic_stringIcSt11char_traitsIcESaIcEEESt5dequeIS5_SaIS5_EEE3popEv, symObjAddr: 0x370C, symBinAddr: 0x100004884, symSize: 0x20 }
  - { offset: 0x2EA97, size: 0x8, addend: 0x0, symName: __ZNSt5stackINSt7__cxx1112basic_stringIcSt11char_traitsIcESaIcEEESt5dequeIS5_SaIS5_EEE3topEv, symObjAddr: 0x36F0, symBinAddr: 0x100004868, symSize: 0x1C }
  - { offset: 0x2EAC1, size: 0x8, addend: 0x0, symName: __ZNSt5stackINSt7__cxx1112basic_stringIcSt11char_traitsIcESaIcEEESt5dequeIS5_SaIS5_EEE4pushERKS5_, symObjAddr: 0x36C8, symBinAddr: 0x100004840, symSize: 0x28 }
  - { offset: 0x2EB40, size: 0x8, addend: 0x0, symName: __ZNSt7__cxx1112basic_stringIcSt11char_traitsIcESaIcEEC1IS3_EEmcRKS3_, symObjAddr: 0x3654, symBinAddr: 0x1000047CC, symSize: 0x74 }
  - { offset: 0x2EBA5, size: 0x8, addend: 0x0, symName: __ZNSt5dequeINSt7__cxx1112basic_stringIcSt11char_traitsIcESaIcEEESaIS5_EED1Ev, symObjAddr: 0x35EC, symBinAddr: 0x100004764, symSize: 0x68 }
  - { offset: 0x2EBF4, size: 0x8, addend: 0x0, symName: __ZNSt5stackINSt7__cxx1112basic_stringIcSt11char_traitsIcESaIcEEESt5dequeIS5_SaIS5_EEEC1IS8_vEEv, symObjAddr: 0x35B0, symBinAddr: 0x100004728, symSize: 0x3C }
  - { offset: 0x2EC42, size: 0x8, addend: 0x0, symName: __ZNSt5dequeINSt7__cxx1112basic_stringIcSt11char_traitsIcESaIcEEESaIS5_EEC1Ev, symObjAddr: 0x3590, symBinAddr: 0x100004708, symSize: 0x20 }
  - { offset: 0x2EC64, size: 0x8, addend: 0x0, symName: __ZSt7reverseIN9__gnu_cxx17__normal_iteratorIPcNSt7__cxx1112basic_stringIcSt11char_traitsIcESaIcEEEEEEvT_SA_, symObjAddr: 0x3564, symBinAddr: 0x1000046DC, symSize: 0x2C }
  - { offset: 0x2ECC9, size: 0x8, addend: 0x0, symName: __ZSt3minIiERKT_S2_S2_, symObjAddr: 0x352C, symBinAddr: 0x1000046A4, symSize: 0x38 }
  - { offset: 0x2ED0F, size: 0x8, addend: 0x0, symName: __ZNSt5stackIcSt5dequeIcSaIcEEE3popEv, symObjAddr: 0x350C, symBinAddr: 0x100004684, symSize: 0x20 }
  - { offset: 0x2ED39, size: 0x8, addend: 0x0, symName: __ZNSt5stackIcSt5dequeIcSaIcEEE3topEv, symObjAddr: 0x34F0, symBinAddr: 0x100004668, symSize: 0x1C }
  - { offset: 0x2ED63, size: 0x8, addend: 0x0, symName: __ZNKSt5stackIcSt5dequeIcSaIcEEE5emptyEv, symObjAddr: 0x34D4, symBinAddr: 0x10000464C, symSize: 0x1C }
  - { offset: 0x2ED8D, size: 0x8, addend: 0x0, symName: __ZNSt5stackIcSt5dequeIcSaIcEEE4pushERKc, symObjAddr: 0x34AC, symBinAddr: 0x100004624, symSize: 0x28 }
  - { offset: 0x2EDC8, size: 0x8, addend: 0x0, symName: __ZNK9__gnu_cxx17__normal_iteratorIPcNSt7__cxx1112basic_stringIcSt11char_traitsIcESaIcEEEEdeEv, symObjAddr: 0x3494, symBinAddr: 0x10000460C, symSize: 0x18 }
  - { offset: 0x2EDF2, size: 0x8, addend: 0x0, symName: __ZN9__gnu_cxx17__normal_iteratorIPcNSt7__cxx1112basic_stringIcSt11char_traitsIcESaIcEEEEppEv, symObjAddr: 0x346C, symBinAddr: 0x1000045E4, symSize: 0x28 }
  - { offset: 0x2EE18, size: 0x8, addend: 0x0, symName: __ZN9__gnu_cxxneIPcNSt7__cxx1112basic_stringIcSt11char_traitsIcESaIcEEEEEbRKNS_17__normal_iteratorIT_T0_EESD_, symObjAddr: 0x3428, symBinAddr: 0x1000045A0, symSize: 0x44 }
  - { offset: 0x2EE8D, size: 0x8, addend: 0x0, symName: __ZNSt5dequeIcSaIcEED1Ev, symObjAddr: 0x33C0, symBinAddr: 0x100004538, symSize: 0x68 }
  - { offset: 0x2EEDC, size: 0x8, addend: 0x0, symName: __ZNSt5stackIcSt5dequeIcSaIcEEEC1IS2_vEEv, symObjAddr: 0x3384, symBinAddr: 0x1000044FC, symSize: 0x3C }
  - { offset: 0x2EF2A, size: 0x8, addend: 0x0, symName: __ZNSt5dequeIcSaIcEEC1Ev, symObjAddr: 0x3364, symBinAddr: 0x1000044DC, symSize: 0x20 }
  - { offset: 0x2EF74, size: 0x8, addend: 0x0, symName: __ZNSt5dequeIiSaIiEED1Ev, symObjAddr: 0x32FC, symBinAddr: 0x100004474, symSize: 0x68 }
  - { offset: 0x2EFB5, size: 0x8, addend: 0x0, symName: __ZNSt5dequeIiSaIiEEC1Ev, symObjAddr: 0x32DC, symBinAddr: 0x100004454, symSize: 0x20 }
  - { offset: 0x2EFD7, size: 0x8, addend: 0x0, symName: __ZSt11__addressofINSt7__cxx1112basic_stringIcSt11char_traitsIcESaIcEEEEPT_RS6_, symObjAddr: 0x32C8, symBinAddr: 0x100004440, symSize: 0x14 }
  - { offset: 0x2F010, size: 0x8, addend: 0x0, symName: __ZSt4moveIRNSt7__cxx1112basic_stringIcSt11char_traitsIcESaIcEEEEONSt16remove_referenceIT_E4typeEOS8_, symObjAddr: 0x32B4, symBinAddr: 0x10000442C, symSize: 0x14 }
  - { offset: 0x2F049, size: 0x8, addend: 0x0, symName: __ZSt7forwardIiEOT_RNSt16remove_referenceIS0_E4typeE, symObjAddr: 0x32A0, symBinAddr: 0x100004418, symSize: 0x14 }
  - { offset: 0x2F07B, size: 0x8, addend: 0x0, symName: __ZSt3maxImERKT_S2_S2_, symObjAddr: 0x3268, symBinAddr: 0x1000043E0, symSize: 0x38 }
  - { offset: 0x2F120, size: 0x8, addend: 0x0, symName: __ZNSt7__cxx1112basic_stringIcSt11char_traitsIcESaIcEE12_Alloc_hiderD1Ev, symObjAddr: 0x323C, symBinAddr: 0x1000043B4, symSize: 0x2C }
  - { offset: 0x2F16D, size: 0x8, addend: 0x0, symName: _main, symObjAddr: 0x2F4C, symBinAddr: 0x1000040C4, symSize: 0x2F0 }
  - { offset: 0x2F42D, size: 0x8, addend: 0x0, symName: __Z9count_NGEiRSt6vectorIiSaIiEEiS2_, symObjAddr: 0x2D20, symBinAddr: 0x100003E98, symSize: 0x22C }
  - { offset: 0x2F54F, size: 0x8, addend: 0x0, symName: __Z20count_NGE_BruteForceiRSt6vectorIiSaIiEEiS2_, symObjAddr: 0x2BF4, symBinAddr: 0x100003D6C, symSize: 0x12C }
  - { offset: 0x2F646, size: 0x8, addend: 0x0, symName: __Z4trapRSt6vectorIiSaIiEE, symObjAddr: 0x2A78, symBinAddr: 0x100003BF0, symSize: 0x17C }
  - { offset: 0x2F706, size: 0x8, addend: 0x0, symName: __Z22trapByPrefixAndPostfixRSt6vectorIiSaIiEE, symObjAddr: 0x2754, symBinAddr: 0x1000038CC, symSize: 0x324 }
  - { offset: 0x2F80F, size: 0x8, addend: 0x0, symName: __Z16immediateSmallerRSt6vectorIiSaIiEE, symObjAddr: 0x25B8, symBinAddr: 0x100003730, symSize: 0x19C }
  - { offset: 0x2F924, size: 0x8, addend: 0x0, symName: __Z38nextGreaterElementsUsingMonotonicStackRSt6vectorIiSaIiEE, symObjAddr: 0x23E8, symBinAddr: 0x100003560, symSize: 0x1D0 }
  - { offset: 0x2FA5D, size: 0x8, addend: 0x0, symName: __Z30nextGreaterElementsBruteForce2RSt6vectorIiSaIiEE, symObjAddr: 0x2278, symBinAddr: 0x1000033F0, symSize: 0x170 }
  - { offset: 0x2FBA7, size: 0x8, addend: 0x0, symName: __Z29nextGreaterElementsBruteForceRSt6vectorIiSaIiEE, symObjAddr: 0x2060, symBinAddr: 0x1000031D8, symSize: 0x218 }
  - { offset: 0x2FD15, size: 0x8, addend: 0x0, symName: __Z21nextGreaterElementTufRSt6vectorIiSaIiEES2_, symObjAddr: 0x1E58, symBinAddr: 0x100002FD0, symSize: 0x208 }
  - { offset: 0x2FE1C, size: 0x8, addend: 0x0, symName: __ZNSt5stackIiSt5dequeIiSaIiEEED1Ev, symObjAddr: 0x1E38, symBinAddr: 0x100002FB0, symSize: 0x20 }
  - { offset: 0x2FE69, size: 0x8, addend: 0x0, symName: __ZNSt13unordered_mapIiiSt4hashIiESt8equal_toIiESaISt4pairIKiiEEED1Ev, symObjAddr: 0x1E18, symBinAddr: 0x100002F90, symSize: 0x20 }
  - { offset: 0x2FEA9, size: 0x8, addend: 0x0, symName: __ZNSt13unordered_mapIiiSt4hashIiESt8equal_toIiESaISt4pairIKiiEEEC1Ev, symObjAddr: 0x1DF8, symBinAddr: 0x100002F70, symSize: 0x20 }
  - { offset: 0x2FEE9, size: 0x8, addend: 0x0, symName: __ZNSt10_HashtableIiSt4pairIKiiESaIS2_ENSt8__detail10_Select1stESt8equal_toIiESt4hashIiENS4_18_Mod_range_hashingENS4_20_Default_ranged_hashENS4_20_Prime_rehash_policyENS4_17_Hashtable_traitsILb0ELb0ELb1EEEEC1Ev, symObjAddr: 0x1D88, symBinAddr: 0x100002F00, symSize: 0x70 }
  - { offset: 0x2FF37, size: 0x8, addend: 0x0, symName: __ZNSt8__detail16_Hashtable_allocISaINS_10_Hash_nodeISt4pairIKiiELb0EEEEED2Ev, symObjAddr: 0x1D68, symBinAddr: 0x100002EE0, symSize: 0x20 }
  - { offset: 0x2FF77, size: 0x8, addend: 0x0, symName: __ZNSt8__detail16_Hashtable_allocISaINS_10_Hash_nodeISt4pairIKiiELb0EEEEEC2Ev, symObjAddr: 0x1D48, symBinAddr: 0x100002EC0, symSize: 0x20 }
  - { offset: 0x2FFC5, size: 0x8, addend: 0x0, symName: __ZNSt8__detail21_Hashtable_ebo_helperILi0ESaINS_10_Hash_nodeISt4pairIKiiELb0EEEELb1EED2Ev, symObjAddr: 0x1D1C, symBinAddr: 0x100002E94, symSize: 0x2C }
  - { offset: 0x30029, size: 0x8, addend: 0x0, symName: __ZNSt8__detail15_Hashtable_baseIiSt4pairIKiiENS_10_Select1stESt8equal_toIiESt4hashIiENS_18_Mod_range_hashingENS_20_Default_ranged_hashENS_17_Hashtable_traitsILb0ELb0ELb1EEEEC2Ev, symObjAddr: 0x1CF4, symBinAddr: 0x100002E6C, symSize: 0x28 }
  - { offset: 0x30069, size: 0x8, addend: 0x0, symName: __ZNSt8__detail15_Hash_code_baseIiSt4pairIKiiENS_10_Select1stESt4hashIiENS_18_Mod_range_hashingENS_20_Default_ranged_hashELb0EEC2Ev, symObjAddr: 0x1CD4, symBinAddr: 0x100002E4C, symSize: 0x20 }
  - { offset: 0x30097, size: 0x8, addend: 0x0, symName: __Z18nextGreaterElementRSt6vectorIiSaIiEES2_, symObjAddr: 0x1B2C, symBinAddr: 0x100002CA4, symSize: 0x1A8 }
  - { offset: 0x301A0, size: 0x8, addend: 0x0, symName: __ZNSt6vectorIiSaIiEEC1Ev, symObjAddr: 0x1B0C, symBinAddr: 0x100002C84, symSize: 0x20 }
  - { offset: 0x301E0, size: 0x8, addend: 0x0, symName: __ZNSt12_Vector_baseIiSaIiEEC2Ev, symObjAddr: 0x1AEC, symBinAddr: 0x100002C64, symSize: 0x20 }
  - { offset: 0x3022D, size: 0x8, addend: 0x0, symName: __ZNSt12_Vector_baseIiSaIiEE12_Vector_implD1Ev, symObjAddr: 0x1AC0, symBinAddr: 0x100002C38, symSize: 0x2C }
  - { offset: 0x3027E, size: 0x8, addend: 0x0, symName: __Z9preToPostRNSt7__cxx1112basic_stringIcSt11char_traitsIcESaIcEEE, symObjAddr: 0x1810, symBinAddr: 0x100002988, symSize: 0x2B0 }
  - { offset: 0x303C2, size: 0x8, addend: 0x0, symName: __Z9postToPreRNSt7__cxx1112basic_stringIcSt11char_traitsIcESaIcEEE, symObjAddr: 0x1554, symBinAddr: 0x1000026CC, symSize: 0x2BC }
  - { offset: 0x304FF, size: 0x8, addend: 0x0, symName: __Z13preToInfixTufRNSt7__cxx1112basic_stringIcSt11char_traitsIcESaIcEEE, symObjAddr: 0x1248, symBinAddr: 0x1000023C0, symSize: 0x30C }
  - { offset: 0x3063C, size: 0x8, addend: 0x0, symName: __Z10preToInfixRNSt7__cxx1112basic_stringIcSt11char_traitsIcESaIcEEE, symObjAddr: 0xE1C, symBinAddr: 0x100001F94, symSize: 0x42C }
  - { offset: 0x307AE, size: 0x8, addend: 0x0, symName: __Z14postfixToInfixRNSt7__cxx1112basic_stringIcSt11char_traitsIcESaIcEEE, symObjAddr: 0xB04, symBinAddr: 0x100001C7C, symSize: 0x318 }
  - { offset: 0x3090A, size: 0x8, addend: 0x0, symName: __ZNSt5stackINSt7__cxx1112basic_stringIcSt11char_traitsIcESaIcEEESt5dequeIS5_SaIS5_EEED1Ev, symObjAddr: 0xAE4, symBinAddr: 0x100001C5C, symSize: 0x20 }
  - { offset: 0x30938, size: 0x8, addend: 0x0, symName: __Z13infixToPrefixRNSt7__cxx1112basic_stringIcSt11char_traitsIcESaIcEEE, symObjAddr: 0x6C4, symBinAddr: 0x10000183C, symSize: 0x420 }
  - { offset: 0x309FF, size: 0x8, addend: 0x0, symName: __Z26precedenceForInfixToPrefixc, symObjAddr: 0x65C, symBinAddr: 0x1000017D4, symSize: 0x68 }
  - { offset: 0x30A35, size: 0x8, addend: 0x0, symName: __Z14infixToPostfixRNSt7__cxx1112basic_stringIcSt11char_traitsIcESaIcEEE, symObjAddr: 0x3EC, symBinAddr: 0x100001564, symSize: 0x270 }
  - { offset: 0x30AD8, size: 0x8, addend: 0x0, symName: __Z10precedencec, symObjAddr: 0x384, symBinAddr: 0x1000014FC, symSize: 0x68 }
  - { offset: 0x30B0D, size: 0x8, addend: 0x0, symName: __Z7isValidNSt7__cxx1112basic_stringIcSt11char_traitsIcESaIcEEE, symObjAddr: 0x1B4, symBinAddr: 0x10000132C, symSize: 0x1D0 }
  - { offset: 0x30BC1, size: 0x8, addend: 0x0, symName: __ZNSt5stackIcSt5dequeIcSaIcEEED1Ev, symObjAddr: 0x194, symBinAddr: 0x10000130C, symSize: 0x20 }
  - { offset: 0x30BE3, size: 0x8, addend: 0x0, symName: __ZSt16__deque_buf_sizem, symObjAddr: 0x164, symBinAddr: 0x1000012DC, symSize: 0x30 }
  - { offset: 0x30C0C, size: 0x8, addend: 0x0, symName: __ZSt3minImERKT_S2_S2_, symObjAddr: 0x12C, symBinAddr: 0x1000012A4, symSize: 0x38 }
  - { offset: 0x30C52, size: 0x8, addend: 0x0, symName: __ZNSt8__detail20_Prime_rehash_policy8_M_resetEm, symObjAddr: 0x108, symBinAddr: 0x100001280, symSize: 0x24 }
  - { offset: 0x30C8D, size: 0x8, addend: 0x0, symName: __ZNKSt8__detail20_Prime_rehash_policy8_M_stateEv, symObjAddr: 0xF0, symBinAddr: 0x100001268, symSize: 0x18 }
  - { offset: 0x30CDF, size: 0x8, addend: 0x0, symName: __ZNSt8__detail20_Prime_rehash_policyC1Ef, symObjAddr: 0xC4, symBinAddr: 0x10000123C, symSize: 0x2C }
  - { offset: 0x30D0E, size: 0x8, addend: 0x0, symName: __ZNKSt8__detail18_Mod_range_hashingclEmm, symObjAddr: 0x94, symBinAddr: 0x10000120C, symSize: 0x30 }
  - { offset: 0x30D74, size: 0x8, addend: 0x0, symName: __ZNSt8__detail15_Hash_node_baseC1Ev, symObjAddr: 0x78, symBinAddr: 0x1000011F0, symSize: 0x1C }
  - { offset: 0x30D9E, size: 0x8, addend: 0x0, symName: __ZNSt8__detail15_Hash_node_baseC2Ev, symObjAddr: 0x5C, symBinAddr: 0x1000011D4, symSize: 0x1C }
  - { offset: 0x30DC4, size: 0x8, addend: 0x0, symName: __ZNKSt4hashIiEclEi, symObjAddr: 0x44, symBinAddr: 0x1000011BC, symSize: 0x18 }
  - { offset: 0x30E01, size: 0x8, addend: 0x0, symName: __ZdlPvS_, symObjAddr: 0x2C, symBinAddr: 0x1000011A4, symSize: 0x18 }
  - { offset: 0x30E37, size: 0x8, addend: 0x0, symName: __ZnwmPv, symObjAddr: 0x14, symBinAddr: 0x10000118C, symSize: 0x18 }
  - { offset: 0x30E69, size: 0x8, addend: 0x0, symName: __ZSt17__size_to_integerm, symObjAddr: 0x0, symBinAddr: 0x100001178, symSize: 0x14 }
...
