---
triple:          'arm64-apple-darwin'
binary-path:     '/Users/lalitsiraswa/Documents/Daily-Practice/WalmartPreparation'
relocations:
  - { offset: 0x25C3C, size: 0x8, addend: 0x0, symName: __ZStL8__ioinit, symObjAddr: 0xC5288, symBinAddr: 0x100014000, symSize: 0x0 }
  - { offset: 0x26E16, size: 0x8, addend: 0x0, symName: __ZNSt10_Head_baseILm0ERKiLb0EE7_M_headERS2_, symObjAddr: 0x7F8C, symBinAddr: 0x1000087E8, symSize: 0x18 }
  - { offset: 0x26E3F, size: 0x8, addend: 0x0, symName: __ZNSt11_Tuple_implILm0EJRKiEE7_M_headERS2_, symObjAddr: 0x7F70, symBinAddr: 0x1000087CC, symSize: 0x1C }
  - { offset: 0x26E69, size: 0x8, addend: 0x0, symName: __ZNSt11__copy_moveILb0ELb0ESt26random_access_iterator_tagE12__assign_oneIPSt4pairIP4NodeiES7_EEvPT_PT0_, symObjAddr: 0x7F48, symBinAddr: 0x1000087A4, symSize: 0x28 }
  - { offset: 0x26EB6, size: 0x8, addend: 0x0, symName: __ZNSt10_Head_baseILm0ERKP8ListNodeLb0EE7_M_headERS4_, symObjAddr: 0x7F30, symBinAddr: 0x10000878C, symSize: 0x18 }
  - { offset: 0x26EDF, size: 0x8, addend: 0x0, symName: __ZSt12__get_helperILm0ERKiJEERT0_RSt11_Tuple_implIXT_EJS2_DpT1_EE, symObjAddr: 0x7F14, symBinAddr: 0x100008770, symSize: 0x1C }
  - { offset: 0x26F21, size: 0x8, addend: 0x0, symName: __ZNSt20__copy_move_backwardILb0ELb1ESt26random_access_iterator_tagE13__copy_move_bIPSt4pairIP4NodeiES7_EEPT0_PT_SB_S9_, symObjAddr: 0x7E68, symBinAddr: 0x1000086C4, symSize: 0xAC }
  - { offset: 0x26F90, size: 0x8, addend: 0x0, symName: __ZNSt11__copy_moveILb0ELb1ESt26random_access_iterator_tagE8__copy_mIPSt4pairIP4NodeiES7_EEPT0_PT_SB_S9_, symObjAddr: 0x7DD8, symBinAddr: 0x100008634, symSize: 0x90 }
  - { offset: 0x26FFF, size: 0x8, addend: 0x0, symName: __ZNSt11_Tuple_implILm0EJRKP8ListNodeEE7_M_headERS4_, symObjAddr: 0x7DBC, symBinAddr: 0x100008618, symSize: 0x1C }
  - { offset: 0x27029, size: 0x8, addend: 0x0, symName: __ZNSt11__copy_moveILb0ELb0ESt26random_access_iterator_tagE12__assign_oneIPcS3_EEvPT_PT0_, symObjAddr: 0x7D94, symBinAddr: 0x1000085F0, symSize: 0x28 }
  - { offset: 0x27076, size: 0x8, addend: 0x0, symName: __ZSt3getILm0EJRKiEERNSt13tuple_elementIXT_ESt5tupleIJDpT0_EEE4typeERS6_, symObjAddr: 0x7D78, symBinAddr: 0x1000085D4, symSize: 0x1C }
  - { offset: 0x270B5, size: 0x8, addend: 0x0, symName: __ZSt23__copy_move_backward_a2ILb0EPPSt4pairIP4NodeiES5_ET1_T0_S7_S6_, symObjAddr: 0x7D4C, symBinAddr: 0x1000085A8, symSize: 0x2C }
  - { offset: 0x2711D, size: 0x8, addend: 0x0, symName: __ZSt14__copy_move_a2ILb0EPPSt4pairIP4NodeiES5_ET1_T0_S7_S6_, symObjAddr: 0x7D20, symBinAddr: 0x10000857C, symSize: 0x2C }
  - { offset: 0x27185, size: 0x8, addend: 0x0, symName: __ZSt12__get_helperILm0ERKP8ListNodeJEERT0_RSt11_Tuple_implIXT_EJS4_DpT1_EE, symObjAddr: 0x7D04, symBinAddr: 0x100008560, symSize: 0x1C }
  - { offset: 0x271C7, size: 0x8, addend: 0x0, symName: __ZNSt20__copy_move_backwardILb0ELb1ESt26random_access_iterator_tagE13__copy_move_bIPcS3_EEPT0_PT_S7_S5_, symObjAddr: 0x7C58, symBinAddr: 0x1000084B4, symSize: 0xAC }
  - { offset: 0x27236, size: 0x8, addend: 0x0, symName: __ZNSt11__copy_moveILb0ELb1ESt26random_access_iterator_tagE8__copy_mIPcS3_EEPT0_PT_S7_S5_, symObjAddr: 0x7BC8, symBinAddr: 0x100008424, symSize: 0x90 }
  - { offset: 0x27312, size: 0x8, addend: 0x0, symName: __ZNSt4pairIKiiEC1IJRS0_EJLm0EEJEJEEERSt5tupleIJDpT_EERS4_IJDpT1_EESt12_Index_tupleIJXspT0_EEESD_IJXspT2_EEE, symObjAddr: 0x7B80, symBinAddr: 0x1000083DC, symSize: 0x48 }
  - { offset: 0x27381, size: 0x8, addend: 0x0, symName: __ZSt23__copy_move_backward_a1ILb0EPPSt4pairIP4NodeiES5_ET1_T0_S7_S6_, symObjAddr: 0x7B54, symBinAddr: 0x1000083B0, symSize: 0x2C }
  - { offset: 0x273E9, size: 0x8, addend: 0x0, symName: __ZSt12__niter_wrapIPPSt4pairIP4NodeiEET_RKS6_S6_, symObjAddr: 0x7B3C, symBinAddr: 0x100008398, symSize: 0x18 }
  - { offset: 0x27425, size: 0x8, addend: 0x0, symName: __ZSt14__copy_move_a1ILb0EPPSt4pairIP4NodeiES5_ET1_T0_S7_S6_, symObjAddr: 0x7B10, symBinAddr: 0x10000836C, symSize: 0x2C }
  - { offset: 0x2748D, size: 0x8, addend: 0x0, symName: __ZSt12__niter_baseIPPSt4pairIP4NodeiEET_S6_, symObjAddr: 0x7AFC, symBinAddr: 0x100008358, symSize: 0x14 }
  - { offset: 0x274C7, size: 0x8, addend: 0x0, symName: __ZSt7forwardIRKP8ListNodeEOT_RNSt16remove_referenceIS4_E4typeE, symObjAddr: 0x7AE8, symBinAddr: 0x100008344, symSize: 0x14 }
  - { offset: 0x274F9, size: 0x8, addend: 0x0, symName: __ZSt3getILm0EJRKP8ListNodeEERNSt13tuple_elementIXT_ESt5tupleIJDpT0_EEE4typeERS8_, symObjAddr: 0x7ACC, symBinAddr: 0x100008328, symSize: 0x1C }
  - { offset: 0x27538, size: 0x8, addend: 0x0, symName: __ZSt23__copy_move_backward_a2ILb0EPPcS1_ET1_T0_S3_S2_, symObjAddr: 0x7AA0, symBinAddr: 0x1000082FC, symSize: 0x2C }
  - { offset: 0x275A0, size: 0x8, addend: 0x0, symName: __ZSt14__copy_move_a2ILb0EPPcS1_ET1_T0_S3_S2_, symObjAddr: 0x7A74, symBinAddr: 0x1000082D0, symSize: 0x2C }
  - { offset: 0x27608, size: 0x8, addend: 0x0, symName: __ZSt9__fill_a1IPiiEN9__gnu_cxx11__enable_ifIXsrSt11__is_scalarIT0_E7__valueEvE6__typeET_S8_RKS4_, symObjAddr: 0x7A1C, symBinAddr: 0x100008278, symSize: 0x58 }
  - { offset: 0x276C6, size: 0x8, addend: 0x0, symName: __ZNSt4pairIKiiEC1IJRS0_EJEEESt21piecewise_construct_tSt5tupleIJDpT_EES5_IJDpT0_EE, symObjAddr: 0x79E0, symBinAddr: 0x10000823C, symSize: 0x3C }
  - { offset: 0x27740, size: 0x8, addend: 0x0, symName: __ZNSt11_Tuple_implILm0EJRKiEEC2EOS2_, symObjAddr: 0x79B8, symBinAddr: 0x100008214, symSize: 0x28 }
  - { offset: 0x2776B, size: 0x8, addend: 0x0, symName: __ZSt22__copy_move_backward_aILb0EPPSt4pairIP4NodeiES5_ET1_T0_S7_S6_, symObjAddr: 0x7958, symBinAddr: 0x1000081B4, symSize: 0x60 }
  - { offset: 0x277D3, size: 0x8, addend: 0x0, symName: __ZSt13__copy_move_aILb0EPPSt4pairIP4NodeiES5_ET1_T0_S7_S6_, symObjAddr: 0x78F8, symBinAddr: 0x100008154, symSize: 0x60 }
  - { offset: 0x2783B, size: 0x8, addend: 0x0, symName: __ZSt12__miter_baseIPPSt4pairIP4NodeiEET_S6_, symObjAddr: 0x78E4, symBinAddr: 0x100008140, symSize: 0x14 }
  - { offset: 0x27888, size: 0x8, addend: 0x0, symName: __ZNSt15__new_allocatorIPNSt8__detail15_Hash_node_baseEE8allocateEmPKv, symObjAddr: 0x7868, symBinAddr: 0x1000080C4, symSize: 0x7C }
  - { offset: 0x2797D, size: 0x8, addend: 0x0, symName: __ZNSt4pairIKP8ListNodeiEC1IJRS2_EJLm0EEJEJEEERSt5tupleIJDpT_EERS6_IJDpT1_EESt12_Index_tupleIJXspT0_EEESF_IJXspT2_EEE, symObjAddr: 0x7820, symBinAddr: 0x10000807C, symSize: 0x48 }
  - { offset: 0x279EC, size: 0x8, addend: 0x0, symName: __ZSt11__addressofINSt8__detail10_Hash_nodeISt4pairIKP8ListNodeiELb0EEEEPT_RS8_, symObjAddr: 0x780C, symBinAddr: 0x100008068, symSize: 0x14 }
  - { offset: 0x27A1E, size: 0x8, addend: 0x0, symName: __ZSt23__copy_move_backward_a1ILb0EPPcS1_ET1_T0_S3_S2_, symObjAddr: 0x77E0, symBinAddr: 0x10000803C, symSize: 0x2C }
  - { offset: 0x27A86, size: 0x8, addend: 0x0, symName: __ZSt12__niter_wrapIPPcET_RKS2_S2_, symObjAddr: 0x77C8, symBinAddr: 0x100008024, symSize: 0x18 }
  - { offset: 0x27AC2, size: 0x8, addend: 0x0, symName: __ZSt14__copy_move_a1ILb0EPPcS1_ET1_T0_S3_S2_, symObjAddr: 0x779C, symBinAddr: 0x100007FF8, symSize: 0x2C }
  - { offset: 0x27B2A, size: 0x8, addend: 0x0, symName: __ZSt12__niter_baseIPPcET_S2_, symObjAddr: 0x7788, symBinAddr: 0x100007FE4, symSize: 0x14 }
  - { offset: 0x27B5D, size: 0x8, addend: 0x0, symName: __ZSt8__fill_aIPiiEvT_S1_RKT0_, symObjAddr: 0x7758, symBinAddr: 0x100007FB4, symSize: 0x30 }
  - { offset: 0x27C42, size: 0x8, addend: 0x0, symName: __ZNSt5tupleIJRKiEEC1EOS2_, symObjAddr: 0x7730, symBinAddr: 0x100007F8C, symSize: 0x28 }
  - { offset: 0x27C71, size: 0x8, addend: 0x0, symName: __ZNSt15__new_allocatorISt13_Rb_tree_nodeISt4pairIKiiEEE8allocateEmPKv, symObjAddr: 0x76A0, symBinAddr: 0x100007EFC, symSize: 0x90 }
  - { offset: 0x27D01, size: 0x8, addend: 0x0, symName: __ZNK9__gnu_cxx16__aligned_membufISt4pairIKiiEE7_M_addrEv, symObjAddr: 0x768C, symBinAddr: 0x100007EE8, symSize: 0x14 }
  - { offset: 0x27D27, size: 0x8, addend: 0x0, symName: __ZSt13copy_backwardIPPSt4pairIP4NodeiES5_ET0_T_S7_S6_, symObjAddr: 0x7644, symBinAddr: 0x100007EA0, symSize: 0x48 }
  - { offset: 0x27D85, size: 0x8, addend: 0x0, symName: __ZSt4copyIPPSt4pairIP4NodeiES5_ET0_T_S7_S6_, symObjAddr: 0x75FC, symBinAddr: 0x100007E58, symSize: 0x48 }
  - { offset: 0x27DFD, size: 0x8, addend: 0x0, symName: __ZNSt15__new_allocatorISt4pairIP4NodeiEE8allocateEmPKv, symObjAddr: 0x7580, symBinAddr: 0x100007DDC, symSize: 0x7C }
  - { offset: 0x27E85, size: 0x8, addend: 0x0, symName: __ZSt12__to_addressIPNSt8__detail15_Hash_node_baseEEPT_S4_, symObjAddr: 0x756C, symBinAddr: 0x100007DC8, symSize: 0x14 }
  - { offset: 0x27F2A, size: 0x8, addend: 0x0, symName: __ZNSt4pairIKP8ListNodeiEC1IJRS2_EJEEESt21piecewise_construct_tSt5tupleIJDpT_EES7_IJDpT0_EE, symObjAddr: 0x7530, symBinAddr: 0x100007D8C, symSize: 0x3C }
  - { offset: 0x27FA4, size: 0x8, addend: 0x0, symName: __ZNSt11_Tuple_implILm0EJRKP8ListNodeEEC2EOS4_, symObjAddr: 0x7508, symBinAddr: 0x100007D64, symSize: 0x28 }
  - { offset: 0x27FD7, size: 0x8, addend: 0x0, symName: __ZNK9__gnu_cxx16__aligned_bufferISt4pairIKP8ListNodeiEE7_M_addrEv, symObjAddr: 0x74F4, symBinAddr: 0x100007D50, symSize: 0x14 }
  - { offset: 0x27FFD, size: 0x8, addend: 0x0, symName: __ZSt11__addressofIPNSt8__detail15_Hash_node_baseEEPT_RS3_, symObjAddr: 0x74E0, symBinAddr: 0x100007D3C, symSize: 0x14 }
  - { offset: 0x2802F, size: 0x8, addend: 0x0, symName: __ZSt9addressofINSt8__detail10_Hash_nodeISt4pairIKP8ListNodeiELb0EEEEPT_RS8_, symObjAddr: 0x74C4, symBinAddr: 0x100007D20, symSize: 0x1C }
  - { offset: 0x28061, size: 0x8, addend: 0x0, symName: __ZSt22__copy_move_backward_aILb0EPPcS1_ET1_T0_S3_S2_, symObjAddr: 0x7464, symBinAddr: 0x100007CC0, symSize: 0x60 }
  - { offset: 0x280C9, size: 0x8, addend: 0x0, symName: __ZSt13__copy_move_aILb0EPPcS1_ET1_T0_S3_S2_, symObjAddr: 0x7404, symBinAddr: 0x100007C60, symSize: 0x60 }
  - { offset: 0x28131, size: 0x8, addend: 0x0, symName: __ZSt12__miter_baseIPPcET_S2_, symObjAddr: 0x73F0, symBinAddr: 0x100007C4C, symSize: 0x14 }
  - { offset: 0x2817A, size: 0x8, addend: 0x0, symName: __ZSt10__fill_n_aIPimiET_S1_T0_RKT1_St26random_access_iterator_tag, symObjAddr: 0x738C, symBinAddr: 0x100007BE8, symSize: 0x64 }
  - { offset: 0x2820E, size: 0x8, addend: 0x0, symName: __ZSt7forwardIRPSt13_Rb_tree_nodeISt4pairIKiiEEEOT_RNSt16remove_referenceIS7_E4typeE, symObjAddr: 0x7378, symBinAddr: 0x100007BD4, symSize: 0x14 }
  - { offset: 0x282C0, size: 0x8, addend: 0x0, symName: __ZNK9__gnu_cxx16__aligned_membufISt4pairIKiiEE6_M_ptrEv, symObjAddr: 0x735C, symBinAddr: 0x100007BB8, symSize: 0x1C }
  - { offset: 0x282EA, size: 0x8, addend: 0x0, symName: __ZNSt5dequeISt4pairIP4NodeiESaIS3_EE17_M_reallocate_mapEmb, symObjAddr: 0x7118, symBinAddr: 0x100007974, symSize: 0x244 }
  - { offset: 0x2839B, size: 0x8, addend: 0x0, symName: __ZNSt5dequeISt4pairIP4NodeiESaIS3_EE11_S_max_sizeERKS4_, symObjAddr: 0x70C4, symBinAddr: 0x100007920, symSize: 0x54 }
  - { offset: 0x28459, size: 0x8, addend: 0x0, symName: __ZStmiRKSt15_Deque_iteratorISt4pairIP4NodeiERS3_PS3_ES8_, symObjAddr: 0x7030, symBinAddr: 0x10000788C, symSize: 0x94 }
  - { offset: 0x284AE, size: 0x8, addend: 0x0, symName: __ZNSt15__new_allocatorISt4pairIP4NodeiEE10deallocateEPS3_m, symObjAddr: 0x7000, symBinAddr: 0x10000785C, symSize: 0x30 }
  - { offset: 0x2851C, size: 0x8, addend: 0x0, symName: __ZNSt15__new_allocatorIPSt4pairIP4NodeiEE8allocateEmPKv, symObjAddr: 0x6F84, symBinAddr: 0x1000077E0, symSize: 0x7C }
  - { offset: 0x285A8, size: 0x8, addend: 0x0, symName: __ZNSt15__new_allocatorISt13_Rb_tree_nodeISt4pairIKiiEEE10deallocateEPS4_m, symObjAddr: 0x6F48, symBinAddr: 0x1000077A4, symSize: 0x3C }
  - { offset: 0x2861E, size: 0x8, addend: 0x0, symName: __ZNSt8__detail16_Hashtable_allocISaINS_10_Hash_nodeISt4pairIKP8ListNodeiELb0EEEEE19_M_allocate_bucketsEm, symObjAddr: 0x6E98, symBinAddr: 0x1000076F4, symSize: 0xB0 }
  - { offset: 0x28745, size: 0x8, addend: 0x0, symName: __ZNSt15__new_allocatorINSt8__detail10_Hash_nodeISt4pairIKP8ListNodeiELb0EEEE10deallocateEPS7_m, symObjAddr: 0x6E5C, symBinAddr: 0x1000076B8, symSize: 0x3C }
  - { offset: 0x28804, size: 0x8, addend: 0x0, symName: __ZNSt5tupleIJRKP8ListNodeEEC1EOS4_, symObjAddr: 0x6E34, symBinAddr: 0x100007690, symSize: 0x28 }
  - { offset: 0x28833, size: 0x8, addend: 0x0, symName: __ZNSt15__new_allocatorINSt8__detail10_Hash_nodeISt4pairIKP8ListNodeiELb0EEEE8allocateEmPKv, symObjAddr: 0x6DA4, symBinAddr: 0x100007600, symSize: 0x90 }
  - { offset: 0x288C3, size: 0x8, addend: 0x0, symName: __ZN9__gnu_cxx16__aligned_bufferISt4pairIKP8ListNodeiEE7_M_addrEv, symObjAddr: 0x6D90, symBinAddr: 0x1000075EC, symSize: 0x14 }
  - { offset: 0x288E9, size: 0x8, addend: 0x0, symName: __ZNSt8__detail15_Hashtable_baseIP8ListNodeSt4pairIKS2_iENS_10_Select1stESt8equal_toIS2_ESt4hashIS2_ENS_18_Mod_range_hashingENS_20_Default_ranged_hashENS_17_Hashtable_traitsILb0ELb0ELb1EEEE9_S_equalsEmRKNS_21_Hash_node_code_cacheILb0EEE, symObjAddr: 0x6D78, symBinAddr: 0x1000075D4, symSize: 0x18 }
  - { offset: 0x28918, size: 0x8, addend: 0x0, symName: __ZNK9__gnu_cxx16__aligned_bufferISt4pairIKP8ListNodeiEE6_M_ptrEv, symObjAddr: 0x6D5C, symBinAddr: 0x1000075B8, symSize: 0x1C }
  - { offset: 0x28942, size: 0x8, addend: 0x0, symName: __ZNKSt8__detail21_Hashtable_ebo_helperILi0ESt8equal_toIP8ListNodeELb1EE7_M_cgetEv, symObjAddr: 0x6D48, symBinAddr: 0x1000075A4, symSize: 0x14 }
  - { offset: 0x2896C, size: 0x8, addend: 0x0, symName: __ZNSt15__new_allocatorIPNSt8__detail15_Hash_node_baseEE10deallocateEPS2_m, symObjAddr: 0x6D18, symBinAddr: 0x100007574, symSize: 0x30 }
  - { offset: 0x289DA, size: 0x8, addend: 0x0, symName: __ZNSt15__new_allocatorIPNSt8__detail15_Hash_node_baseEED2Ev, symObjAddr: 0x6D04, symBinAddr: 0x100007560, symSize: 0x14 }
  - { offset: 0x28A12, size: 0x8, addend: 0x0, symName: __ZSt9addressofIPNSt8__detail15_Hash_node_baseEEPT_RS3_, symObjAddr: 0x6CE8, symBinAddr: 0x100007544, symSize: 0x1C }
  - { offset: 0x28A44, size: 0x8, addend: 0x0, symName: __ZNSt19__ptr_traits_ptr_toIPNSt8__detail10_Hash_nodeISt4pairIKP8ListNodeiELb0EEES7_Lb0EE10pointer_toERS7_, symObjAddr: 0x6CCC, symBinAddr: 0x100007528, symSize: 0x1C }
  - { offset: 0x28A9D, size: 0x8, addend: 0x0, symName: __ZNSt8__detail21_Hashtable_ebo_helperILi0ESaINS_10_Hash_nodeISt4pairIKP8ListNodeiELb0EEEELb1EE6_M_getEv, symObjAddr: 0x6CB8, symBinAddr: 0x100007514, symSize: 0x14 }
  - { offset: 0x28AC3, size: 0x8, addend: 0x0, symName: __ZSt13copy_backwardIPPcS1_ET0_T_S3_S2_, symObjAddr: 0x6C70, symBinAddr: 0x1000074CC, symSize: 0x48 }
  - { offset: 0x28B21, size: 0x8, addend: 0x0, symName: __ZSt4copyIPPcS1_ET0_T_S3_S2_, symObjAddr: 0x6C28, symBinAddr: 0x100007484, symSize: 0x48 }
  - { offset: 0x28BAF, size: 0x8, addend: 0x0, symName: __ZNSt15__new_allocatorIPcE8allocateEmPKv, symObjAddr: 0x6BAC, symBinAddr: 0x100007408, symSize: 0x7C }
  - { offset: 0x28C37, size: 0x8, addend: 0x0, symName: __ZSt6fill_nIPimiET_S1_T0_RKT1_, symObjAddr: 0x6B64, symBinAddr: 0x1000073C0, symSize: 0x48 }
  - { offset: 0x28CBF, size: 0x8, addend: 0x0, symName: __ZSt14__relocate_a_1IiiENSt9enable_ifIXsrSt24__is_bitwise_relocatableIT_vE5valueEPS2_E4typeES4_S4_S4_RSaIT0_E, symObjAddr: 0x6B00, symBinAddr: 0x10000735C, symSize: 0x64 }
  - { offset: 0x28D3F, size: 0x8, addend: 0x0, symName: __ZSt12__niter_baseIPiET_S1_, symObjAddr: 0x6AEC, symBinAddr: 0x100007348, symSize: 0x14 }
  - { offset: 0x28D76, size: 0x8, addend: 0x0, symName: __ZNSt15__new_allocatorIiE8allocateEmPKv, symObjAddr: 0x6A70, symBinAddr: 0x1000072CC, symSize: 0x7C }
  - { offset: 0x28E02, size: 0x8, addend: 0x0, symName: __ZNKSt12_Vector_baseIiSaIiEE19_M_get_Tp_allocatorEv, symObjAddr: 0x6A5C, symBinAddr: 0x1000072B8, symSize: 0x14 }
  - { offset: 0x28E2F, size: 0x8, addend: 0x0, symName: __ZSt7forwardIRPSt18_Rb_tree_node_baseEOT_RNSt16remove_referenceIS3_E4typeE, symObjAddr: 0x6A48, symBinAddr: 0x1000072A4, symSize: 0x14 }
  - { offset: 0x28EAD, size: 0x8, addend: 0x0, symName: __ZNSt4pairIPSt18_Rb_tree_node_baseS1_EC1IRPSt13_Rb_tree_nodeIS_IKiiEERS1_Lb1EEEOT_OT0_, symObjAddr: 0x6A00, symBinAddr: 0x10000725C, symSize: 0x48 }
  - { offset: 0x28EF7, size: 0x8, addend: 0x0, symName: __ZNSt8_Rb_treeIiSt4pairIKiiESt10_Select1stIS2_ESt4lessIiESaIS2_EE17_M_construct_nodeIJRKSt21piecewise_construct_tSt5tupleIJRS1_EESD_IJEEEEEvPSt13_Rb_tree_nodeIS2_EDpOT_, symObjAddr: 0x6884, symBinAddr: 0x1000070E0, symSize: 0x17C }
  - { offset: 0x28FF8, size: 0x8, addend: 0x0, symName: __ZNSt8_Rb_treeIiSt4pairIKiiESt10_Select1stIS2_ESt4lessIiESaIS2_EE11_M_get_nodeEv, symObjAddr: 0x6848, symBinAddr: 0x1000070A4, symSize: 0x3C }
  - { offset: 0x2904F, size: 0x8, addend: 0x0, symName: __ZNKSt10_Select1stISt4pairIKiiEEclERKS2_, symObjAddr: 0x6830, symBinAddr: 0x10000708C, symSize: 0x18 }
  - { offset: 0x2908A, size: 0x8, addend: 0x0, symName: __ZNKSt13_Rb_tree_nodeISt4pairIKiiEE9_M_valptrEv, symObjAddr: 0x6810, symBinAddr: 0x10000706C, symSize: 0x20 }
  - { offset: 0x290B4, size: 0x8, addend: 0x0, symName: __ZNSt15_Deque_iteratorISt4pairIP4NodeiERS3_PS3_EmmEv, symObjAddr: 0x67A4, symBinAddr: 0x100007000, symSize: 0x6C }
  - { offset: 0x290DE, size: 0x8, addend: 0x0, symName: __ZNSt5dequeISt4pairIP4NodeiESaIS3_EE22_M_reserve_map_at_backEm, symObjAddr: 0x6744, symBinAddr: 0x100006FA0, symSize: 0x60 }
  - { offset: 0x29119, size: 0x8, addend: 0x0, symName: __ZNKSt5dequeISt4pairIP4NodeiESaIS3_EE8max_sizeEv, symObjAddr: 0x6724, symBinAddr: 0x100006F80, symSize: 0x20 }
  - { offset: 0x29143, size: 0x8, addend: 0x0, symName: __ZNKSt5dequeISt4pairIP4NodeiESaIS3_EE4sizeEv, symObjAddr: 0x66F4, symBinAddr: 0x100006F50, symSize: 0x30 }
  - { offset: 0x291AF, size: 0x8, addend: 0x0, symName: __ZNSt15__new_allocatorIPSt4pairIP4NodeiEE10deallocateEPS4_m, symObjAddr: 0x66C4, symBinAddr: 0x100006F20, symSize: 0x30 }
  - { offset: 0x2921D, size: 0x8, addend: 0x0, symName: __ZNSt15__new_allocatorIPSt4pairIP4NodeiEED2Ev, symObjAddr: 0x66B0, symBinAddr: 0x100006F0C, symSize: 0x14 }
  - { offset: 0x29267, size: 0x8, addend: 0x0, symName: __ZNKSt11_Deque_baseISt4pairIP4NodeiESaIS3_EE19_M_get_Tp_allocatorEv, symObjAddr: 0x669C, symBinAddr: 0x100006EF8, symSize: 0x14 }
  - { offset: 0x292BF, size: 0x8, addend: 0x0, symName: __ZNSt15_Deque_iteratorISt4pairIP4NodeiERS3_PS3_E14_S_buffer_sizeEv, symObjAddr: 0x6684, symBinAddr: 0x100006EE0, symSize: 0x18 }
  - { offset: 0x292DB, size: 0x8, addend: 0x0, symName: __ZNSt11_Deque_baseISt4pairIP4NodeiESaIS3_EE16_M_allocate_nodeEv, symObjAddr: 0x6640, symBinAddr: 0x100006E9C, symSize: 0x44 }
  - { offset: 0x29370, size: 0x8, addend: 0x0, symName: __ZNSt15_Deque_iteratorISt4pairIP4NodeiERS3_PS3_EC1Ev, symObjAddr: 0x660C, symBinAddr: 0x100006E68, symSize: 0x34 }
  - { offset: 0x2940B, size: 0x8, addend: 0x0, symName: __ZNSt8_Rb_treeIiSt4pairIKiiESt10_Select1stIS2_ESt4lessIiESaIS2_EE21_M_get_Node_allocatorEv, symObjAddr: 0x65F8, symBinAddr: 0x100006E54, symSize: 0x14 }
  - { offset: 0x29435, size: 0x8, addend: 0x0, symName: __ZNKSt8__detail15_Hash_code_baseIP8ListNodeSt4pairIKS2_iENS_10_Select1stESt4hashIS2_ENS_18_Mod_range_hashingENS_20_Default_ranged_hashELb0EE15_M_bucket_indexERKNS_16_Hash_node_valueIS5_Lb0EEEm, symObjAddr: 0x6594, symBinAddr: 0x100006DF0, symSize: 0x64 }
  - { offset: 0x294C9, size: 0x8, addend: 0x0, symName: __ZNSt10_HashtableIP8ListNodeSt4pairIKS1_iESaIS4_ENSt8__detail10_Select1stESt8equal_toIS1_ESt4hashIS1_ENS6_18_Mod_range_hashingENS6_20_Default_ranged_hashENS6_20_Prime_rehash_policyENS6_17_Hashtable_traitsILb0ELb0ELb1EEEE19_M_allocate_bucketsEm, symObjAddr: 0x653C, symBinAddr: 0x100006D98, symSize: 0x58 }
  - { offset: 0x29500, size: 0x8, addend: 0x0, symName: __ZSt11__addressofINSt8__detail20_Prime_rehash_policyEEPT_RS2_, symObjAddr: 0x6528, symBinAddr: 0x100006D84, symSize: 0x14 }
  - { offset: 0x295BC, size: 0x8, addend: 0x0, symName: __ZSt12__to_addressINSt8__detail10_Hash_nodeISt4pairIKP8ListNodeiELb0EEEEPT_S9_, symObjAddr: 0x6514, symBinAddr: 0x100006D70, symSize: 0x14 }
  - { offset: 0x2963D, size: 0x8, addend: 0x0, symName: __ZNSt10_Head_baseILm0ERKP8ListNodeLb0EEC2ES3_, symObjAddr: 0x64F0, symBinAddr: 0x100006D4C, symSize: 0x24 }
  - { offset: 0x2966C, size: 0x8, addend: 0x0, symName: __ZN9__gnu_cxx16__aligned_bufferISt4pairIKP8ListNodeiEE6_M_ptrEv, symObjAddr: 0x64D4, symBinAddr: 0x100006D30, symSize: 0x1C }
  - { offset: 0x29696, size: 0x8, addend: 0x0, symName: __ZNKSt10_HashtableIP8ListNodeSt4pairIKS1_iESaIS4_ENSt8__detail10_Select1stESt8equal_toIS1_ESt4hashIS1_ENS6_18_Mod_range_hashingENS6_20_Default_ranged_hashENS6_20_Prime_rehash_policyENS6_17_Hashtable_traitsILb0ELb0ELb1EEEE15_M_bucket_indexERKNS6_16_Hash_node_valueIS4_Lb0EEE, symObjAddr: 0x64A4, symBinAddr: 0x100006D00, symSize: 0x30 }
  - { offset: 0x296D1, size: 0x8, addend: 0x0, symName: __ZNKSt8__detail15_Hashtable_baseIP8ListNodeSt4pairIKS2_iENS_10_Select1stESt8equal_toIS2_ESt4hashIS2_ENS_18_Mod_range_hashingENS_20_Default_ranged_hashENS_17_Hashtable_traitsILb0ELb0ELb1EEEE9_M_equalsERS4_mRKNS_16_Hash_node_valueIS5_Lb0EEE, symObjAddr: 0x6444, symBinAddr: 0x100006CA0, symSize: 0x60 }
  - { offset: 0x2972E, size: 0x8, addend: 0x0, symName: __ZNKSt8__detail21_Hashtable_ebo_helperILi1ESt4hashIP8ListNodeELb1EE7_M_cgetEv, symObjAddr: 0x6430, symBinAddr: 0x100006C8C, symSize: 0x14 }
  - { offset: 0x2975B, size: 0x8, addend: 0x0, symName: __ZSt7forwardIRKSt4pairIKP8ListNodeiEEOT_RNSt16remove_referenceIS7_E4typeE, symObjAddr: 0x641C, symBinAddr: 0x100006C78, symSize: 0x14 }
  - { offset: 0x297CF, size: 0x8, addend: 0x0, symName: __ZNSt8__detail19_Node_iterator_baseISt4pairIKP8ListNodeiELb0EEC2EPNS_10_Hash_nodeIS5_Lb0EEE, symObjAddr: 0x63F8, symBinAddr: 0x100006C54, symSize: 0x24 }
  - { offset: 0x297FE, size: 0x8, addend: 0x0, symName: __ZNKSt8equal_toIP8ListNodeEclERKS1_S4_, symObjAddr: 0x63C4, symBinAddr: 0x100006C20, symSize: 0x34 }
  - { offset: 0x2984A, size: 0x8, addend: 0x0, symName: __ZNKSt8__detail15_Hashtable_baseIP8ListNodeSt4pairIKS2_iENS_10_Select1stESt8equal_toIS2_ESt4hashIS2_ENS_18_Mod_range_hashingENS_20_Default_ranged_hashENS_17_Hashtable_traitsILb0ELb0ELb1EEEE5_M_eqEv, symObjAddr: 0x63A8, symBinAddr: 0x100006C04, symSize: 0x1C }
  - { offset: 0x29870, size: 0x8, addend: 0x0, symName: __ZNSt8__detail22_Hashtable_hash_traitsISt4hashIP8ListNodeEE22__small_size_thresholdEv, symObjAddr: 0x63A0, symBinAddr: 0x100006BFC, symSize: 0x8 }
  - { offset: 0x298FE, size: 0x8, addend: 0x0, symName: __ZNSt19__ptr_traits_ptr_toIPPNSt8__detail15_Hash_node_baseES2_Lb0EE10pointer_toERS2_, symObjAddr: 0x6384, symBinAddr: 0x100006BE0, symSize: 0x1C }
  - { offset: 0x2992B, size: 0x8, addend: 0x0, symName: __ZNSt8__detail16_Hashtable_allocISaINS_10_Hash_nodeISt4pairIKP8ListNodeiELb0EEEEE22_M_deallocate_node_ptrEPS7_, symObjAddr: 0x632C, symBinAddr: 0x100006B88, symSize: 0x58 }
  - { offset: 0x299DA, size: 0x8, addend: 0x0, symName: __ZNSt8__detail16_Hashtable_allocISaINS_10_Hash_nodeISt4pairIKP8ListNodeiELb0EEEEE17_M_node_allocatorEv, symObjAddr: 0x6310, symBinAddr: 0x100006B6C, symSize: 0x1C }
  - { offset: 0x29A04, size: 0x8, addend: 0x0, symName: __ZNSt5dequeIcSaIcEE17_M_reallocate_mapEmb, symObjAddr: 0x60CC, symBinAddr: 0x100006928, symSize: 0x244 }
  - { offset: 0x29AB5, size: 0x8, addend: 0x0, symName: __ZNSt5dequeIcSaIcEE11_S_max_sizeERKS0_, symObjAddr: 0x6078, symBinAddr: 0x1000068D4, symSize: 0x54 }
  - { offset: 0x29B73, size: 0x8, addend: 0x0, symName: __ZStmiRKSt15_Deque_iteratorIcRcPcES4_, symObjAddr: 0x5FEC, symBinAddr: 0x100006848, symSize: 0x8C }
  - { offset: 0x29BB2, size: 0x8, addend: 0x0, symName: __ZNSt15__new_allocatorIPcE10deallocateEPS0_m, symObjAddr: 0x5FBC, symBinAddr: 0x100006818, symSize: 0x30 }
  - { offset: 0x29C20, size: 0x8, addend: 0x0, symName: __ZNSt15__new_allocatorIPcED2Ev, symObjAddr: 0x5FA8, symBinAddr: 0x100006804, symSize: 0x14 }
  - { offset: 0x29C6A, size: 0x8, addend: 0x0, symName: __ZNKSt11_Deque_baseIcSaIcEE19_M_get_Tp_allocatorEv, symObjAddr: 0x5F94, symBinAddr: 0x1000067F0, symSize: 0x14 }
  - { offset: 0x29C90, size: 0x8, addend: 0x0, symName: __ZNSt15_Deque_iteratorIcRcPcE14_S_buffer_sizeEv, symObjAddr: 0x5F7C, symBinAddr: 0x1000067D8, symSize: 0x18 }
  - { offset: 0x29CEA, size: 0x8, addend: 0x0, symName: __ZNSt15_Deque_iteratorIcRcPcEC1Ev, symObjAddr: 0x5F48, symBinAddr: 0x1000067A4, symSize: 0x34 }
  - { offset: 0x29D0C, size: 0x8, addend: 0x0, symName: __ZNSt22__uninitialized_fill_nILb1EE15__uninit_fill_nIPimiEET_S3_T0_RKT1_, symObjAddr: 0x5F1C, symBinAddr: 0x100006778, symSize: 0x2C }
  - { offset: 0x29D8D, size: 0x8, addend: 0x0, symName: __ZNSt15__new_allocatorIcE8allocateEmPKv, symObjAddr: 0x5EB8, symBinAddr: 0x100006714, symSize: 0x64 }
  - { offset: 0x29E15, size: 0x8, addend: 0x0, symName: __ZSt12__relocate_aIPiS0_SaIiEET0_T_S3_S2_RT1_, symObjAddr: 0x5E5C, symBinAddr: 0x1000066B8, symSize: 0x5C }
  - { offset: 0x29EB5, size: 0x8, addend: 0x0, symName: __ZNKSt6vectorIiSaIiEE8max_sizeEv, symObjAddr: 0x5E3C, symBinAddr: 0x100006698, symSize: 0x20 }
  - { offset: 0x29EE3, size: 0x8, addend: 0x0, symName: __ZN9__gnu_cxx16__aligned_membufISt4pairIKiiEE7_M_addrEv, symObjAddr: 0x5E28, symBinAddr: 0x100006684, symSize: 0x14 }
  - { offset: 0x29F0D, size: 0x8, addend: 0x0, symName: __ZNSt15__new_allocatorIiE10deallocateEPim, symObjAddr: 0x5DF8, symBinAddr: 0x100006654, symSize: 0x30 }
  - { offset: 0x29F57, size: 0x8, addend: 0x0, symName: __ZNSt8_Rb_treeIiSt4pairIKiiESt10_Select1stIS2_ESt4lessIiESaIS2_EE14_M_insert_nodeEPSt18_Rb_tree_node_baseSA_PSt13_Rb_tree_nodeIS2_E, symObjAddr: 0x5D28, symBinAddr: 0x100006584, symSize: 0xD0 }
  - { offset: 0x29FC5, size: 0x8, addend: 0x0, symName: __ZNSt17_Rb_tree_iteratorISt4pairIKiiEEmmEv, symObjAddr: 0x5CF8, symBinAddr: 0x100006554, symSize: 0x30 }
  - { offset: 0x2A037, size: 0x8, addend: 0x0, symName: __ZNSt4pairIPSt18_Rb_tree_node_baseS1_EC1IRS1_S4_Lb1EEEOT_OT0_, symObjAddr: 0x5CB0, symBinAddr: 0x10000650C, symSize: 0x48 }
  - { offset: 0x2A081, size: 0x8, addend: 0x0, symName: __ZNSt8_Rb_treeIiSt4pairIKiiESt10_Select1stIS2_ESt4lessIiESaIS2_EE11_M_leftmostEv, symObjAddr: 0x5C98, symBinAddr: 0x1000064F4, symSize: 0x18 }
  - { offset: 0x2A0AB, size: 0x8, addend: 0x0, symName: __ZNSt8_Rb_treeIiSt4pairIKiiESt10_Select1stIS2_ESt4lessIiESaIS2_EE24_M_get_insert_unique_posERS1_, symObjAddr: 0x5B40, symBinAddr: 0x10000639C, symSize: 0x158 }
  - { offset: 0x2A177, size: 0x8, addend: 0x0, symName: __ZNSt4pairIPSt18_Rb_tree_node_baseS1_EC1IS1_S1_Lb1EEERKS1_S5_, symObjAddr: 0x5B04, symBinAddr: 0x100006360, symSize: 0x3C }
  - { offset: 0x2A1C1, size: 0x8, addend: 0x0, symName: __ZNSt8_Rb_treeIiSt4pairIKiiESt10_Select1stIS2_ESt4lessIiESaIS2_EE12_M_rightmostEv, symObjAddr: 0x5AEC, symBinAddr: 0x100006348, symSize: 0x18 }
  - { offset: 0x2A1EB, size: 0x8, addend: 0x0, symName: __ZNKSt8_Rb_treeIiSt4pairIKiiESt10_Select1stIS2_ESt4lessIiESaIS2_EE4sizeEv, symObjAddr: 0x5AD4, symBinAddr: 0x100006330, symSize: 0x18 }
  - { offset: 0x2A215, size: 0x8, addend: 0x0, symName: __ZNKSt23_Rb_tree_const_iteratorISt4pairIKiiEE13_M_const_castEv, symObjAddr: 0x5AAC, symBinAddr: 0x100006308, symSize: 0x28 }
  - { offset: 0x2A23F, size: 0x8, addend: 0x0, symName: __ZNSt8_Rb_treeIiSt4pairIKiiESt10_Select1stIS2_ESt4lessIiESaIS2_EE14_M_create_nodeIJRKSt21piecewise_construct_tSt5tupleIJRS1_EESD_IJEEEEEPSt13_Rb_tree_nodeIS2_EDpOT_, symObjAddr: 0x5A3C, symBinAddr: 0x100006298, symSize: 0x70 }
  - { offset: 0x2A2D8, size: 0x8, addend: 0x0, symName: __ZNSt10_Head_baseILm0ERKiLb0EEC2ES1_, symObjAddr: 0x5A18, symBinAddr: 0x100006274, symSize: 0x24 }
  - { offset: 0x2A303, size: 0x8, addend: 0x0, symName: __ZNSt8_Rb_treeIiSt4pairIKiiESt10_Select1stIS2_ESt4lessIiESaIS2_EE6_S_keyEPKSt13_Rb_tree_nodeIS2_E, symObjAddr: 0x59F0, symBinAddr: 0x10000624C, symSize: 0x28 }
  - { offset: 0x2A35D, size: 0x8, addend: 0x0, symName: __ZNSt5dequeISt4pairIP4NodeiESaIS3_EE4backEv, symObjAddr: 0x59BC, symBinAddr: 0x100006218, symSize: 0x34 }
  - { offset: 0x2A398, size: 0x8, addend: 0x0, symName: __ZNSt5dequeISt4pairIP4NodeiESaIS3_EE16_M_push_back_auxIJS3_EEEvDpOT_, symObjAddr: 0x589C, symBinAddr: 0x1000060F8, symSize: 0x120 }
  - { offset: 0x2A490, size: 0x8, addend: 0x0, symName: __ZSt7forwardISt4pairIP4NodeiEEOT_RNSt16remove_referenceIS4_E4typeE, symObjAddr: 0x5888, symBinAddr: 0x1000060E4, symSize: 0x14 }
  - { offset: 0x2A518, size: 0x8, addend: 0x0, symName: __ZNKSt11_Deque_baseISt4pairIP4NodeiESaIS3_EE20_M_get_map_allocatorEv, symObjAddr: 0x5840, symBinAddr: 0x10000609C, symSize: 0x48 }
  - { offset: 0x2A592, size: 0x8, addend: 0x0, symName: __ZNSt11_Deque_baseISt4pairIP4NodeiESaIS3_EE18_M_deallocate_nodeEPS3_, symObjAddr: 0x57E8, symBinAddr: 0x100006044, symSize: 0x58 }
  - { offset: 0x2A603, size: 0x8, addend: 0x0, symName: __ZNSt15_Deque_iteratorISt4pairIP4NodeiERS3_PS3_E11_M_set_nodeEPS5_, symObjAddr: 0x578C, symBinAddr: 0x100005FE8, symSize: 0x5C }
  - { offset: 0x2A63E, size: 0x8, addend: 0x0, symName: __ZNSt11_Deque_baseISt4pairIP4NodeiESaIS3_EE15_M_create_nodesEPPS3_S7_, symObjAddr: 0x5700, symBinAddr: 0x100005F5C, symSize: 0x8C }
  - { offset: 0x2A69B, size: 0x8, addend: 0x0, symName: __ZNSt11_Deque_baseISt4pairIP4NodeiESaIS3_EE15_M_allocate_mapEm, symObjAddr: 0x5680, symBinAddr: 0x100005EDC, symSize: 0x80 }
  - { offset: 0x2A777, size: 0x8, addend: 0x0, symName: __ZNSt15__new_allocatorISt4pairIP4NodeiEED2Ev, symObjAddr: 0x566C, symBinAddr: 0x100005EC8, symSize: 0x14 }
  - { offset: 0x2A7B7, size: 0x8, addend: 0x0, symName: __ZNSt11_Deque_baseISt4pairIP4NodeiESaIS3_EE16_Deque_impl_dataC2Ev, symObjAddr: 0x562C, symBinAddr: 0x100005E88, symSize: 0x40 }
  - { offset: 0x2A7F3, size: 0x8, addend: 0x0, symName: __ZNSt8_Rb_treeIiSt4pairIKiiESt10_Select1stIS2_ESt4lessIiESaIS2_EE11_M_put_nodeEPSt13_Rb_tree_nodeIS2_E, symObjAddr: 0x55E0, symBinAddr: 0x100005E3C, symSize: 0x4C }
  - { offset: 0x2A864, size: 0x8, addend: 0x0, symName: __ZNSt8_Rb_treeIiSt4pairIKiiESt10_Select1stIS2_ESt4lessIiESaIS2_EE15_M_destroy_nodeEPSt13_Rb_tree_nodeIS2_E, symObjAddr: 0x5588, symBinAddr: 0x100005DE4, symSize: 0x58 }
  - { offset: 0x2A921, size: 0x8, addend: 0x0, symName: __ZNSt8__detail14_Node_iteratorISt4pairIKP8ListNodeiELb0ELb0EEC1EPNS_10_Hash_nodeIS5_Lb0EEE, symObjAddr: 0x5560, symBinAddr: 0x100005DBC, symSize: 0x28 }
  - { offset: 0x2A950, size: 0x8, addend: 0x0, symName: __ZNSt10_HashtableIP8ListNodeSt4pairIKS1_iESaIS4_ENSt8__detail10_Select1stESt8equal_toIS1_ESt4hashIS1_ENS6_18_Mod_range_hashingENS6_20_Default_ranged_hashENS6_20_Prime_rehash_policyENS6_17_Hashtable_traitsILb0ELb0ELb1EEEE22_M_insert_bucket_beginEmPNS6_10_Hash_nodeIS4_Lb0EEE, symObjAddr: 0x5454, symBinAddr: 0x100005CB0, symSize: 0x10C }
  - { offset: 0x2A99C, size: 0x8, addend: 0x0, symName: __ZNKSt8__detail15_Hash_code_baseIP8ListNodeSt4pairIKS2_iENS_10_Select1stESt4hashIS2_ENS_18_Mod_range_hashingENS_20_Default_ranged_hashELb0EE13_M_store_codeERNS_21_Hash_node_code_cacheILb0EEEm, symObjAddr: 0x5438, symBinAddr: 0x100005C94, symSize: 0x1C }
  - { offset: 0x2A9D8, size: 0x8, addend: 0x0, symName: __ZNSt10_HashtableIP8ListNodeSt4pairIKS1_iESaIS4_ENSt8__detail10_Select1stESt8equal_toIS1_ESt4hashIS1_ENS6_18_Mod_range_hashingENS6_20_Default_ranged_hashENS6_20_Prime_rehash_policyENS6_17_Hashtable_traitsILb0ELb0ELb1EEEE9_M_rehashEmSt17integral_constantIbLb1EE, symObjAddr: 0x52CC, symBinAddr: 0x100005B28, symSize: 0x16C }
  - { offset: 0x2AAA9, size: 0x8, addend: 0x0, symName: __ZNSt8__detail17_RehashStateGuardINS_20_Prime_rehash_policyEED1Ev, symObjAddr: 0x5288, symBinAddr: 0x100005AE4, symSize: 0x44 }
  - { offset: 0x2AAF7, size: 0x8, addend: 0x0, symName: __ZNSt8__detail17_RehashStateGuardINS_20_Prime_rehash_policyEEC1ERS1_, symObjAddr: 0x5244, symBinAddr: 0x100005AA0, symSize: 0x44 }
  - { offset: 0x2AB26, size: 0x8, addend: 0x0, symName: __ZNSt8__detail16_Hashtable_allocISaINS_10_Hash_nodeISt4pairIKP8ListNodeiELb0EEEEE16_M_allocate_nodeIJRKSt21piecewise_construct_tSt5tupleIJRS5_EESE_IJEEEEEPS7_DpOT_, symObjAddr: 0x5058, symBinAddr: 0x1000058B4, symSize: 0x1EC }
  - { offset: 0x2ACF6, size: 0x8, addend: 0x0, symName: __ZNSt8__detail10_Hash_nodeISt4pairIKP8ListNodeiELb0EEC1Ev, symObjAddr: 0x5038, symBinAddr: 0x100005894, symSize: 0x20 }
  - { offset: 0x2AD1F, size: 0x8, addend: 0x0, symName: __ZSt7forwardISt5tupleIJRKP8ListNodeEEEOT_RNSt16remove_referenceIS6_E4typeE, symObjAddr: 0x5024, symBinAddr: 0x100005880, symSize: 0x14 }
  - { offset: 0x2AD7D, size: 0x8, addend: 0x0, symName: __ZNSt11_Tuple_implILm0EJRKP8ListNodeEEC2ES3_, symObjAddr: 0x4FFC, symBinAddr: 0x100005858, symSize: 0x28 }
  - { offset: 0x2ADC2, size: 0x8, addend: 0x0, symName: __ZNKSt10_HashtableIP8ListNodeSt4pairIKS1_iESaIS4_ENSt8__detail10_Select1stESt8equal_toIS1_ESt4hashIS1_ENS6_18_Mod_range_hashingENS6_20_Default_ranged_hashENS6_20_Prime_rehash_policyENS6_17_Hashtable_traitsILb0ELb0ELb1EEEE19_M_find_before_nodeEmRS3_m, symObjAddr: 0x4F00, symBinAddr: 0x10000575C, symSize: 0xFC }
  - { offset: 0x2AE54, size: 0x8, addend: 0x0, symName: __ZNKSt8__detail15_Hash_code_baseIP8ListNodeSt4pairIKS2_iENS_10_Select1stESt4hashIS2_ENS_18_Mod_range_hashingENS_20_Default_ranged_hashELb0EE15_M_bucket_indexEmm, symObjAddr: 0x4ED4, symBinAddr: 0x100005730, symSize: 0x2C }
  - { offset: 0x2AEA0, size: 0x8, addend: 0x0, symName: __ZNKSt4hashIP8ListNodeEclES1_, symObjAddr: 0x4EBC, symBinAddr: 0x100005718, symSize: 0x18 }
  - { offset: 0x2AEDA, size: 0x8, addend: 0x0, symName: __ZNKSt8__detail15_Hash_code_baseIP8ListNodeSt4pairIKS2_iENS_10_Select1stESt4hashIS2_ENS_18_Mod_range_hashingENS_20_Default_ranged_hashELb0EE7_M_hashEv, symObjAddr: 0x4EA0, symBinAddr: 0x1000056FC, symSize: 0x1C }
  - { offset: 0x2AF0F, size: 0x8, addend: 0x0, symName: __ZNKSt8__detail10_Select1stclIRKSt4pairIKP8ListNodeiEEEONS0_10__1st_typeIT_E4typeEOSA_, symObjAddr: 0x4E80, symBinAddr: 0x1000056DC, symSize: 0x20 }
  - { offset: 0x2AF68, size: 0x8, addend: 0x0, symName: __ZNKSt10_HashtableIP8ListNodeSt4pairIKS1_iESaIS4_ENSt8__detail10_Select1stESt8equal_toIS1_ESt4hashIS1_ENS6_18_Mod_range_hashingENS6_20_Default_ranged_hashENS6_20_Prime_rehash_policyENS6_17_Hashtable_traitsILb0ELb0ELb1EEEE3endEv, symObjAddr: 0x4E5C, symBinAddr: 0x1000056B8, symSize: 0x24 }
  - { offset: 0x2AFBA, size: 0x8, addend: 0x0, symName: __ZNSt8__detail20_Node_const_iteratorISt4pairIKP8ListNodeiELb0ELb0EEC1EPNS_10_Hash_nodeIS5_Lb0EEE, symObjAddr: 0x4E34, symBinAddr: 0x100005690, symSize: 0x28 }
  - { offset: 0x2AFE9, size: 0x8, addend: 0x0, symName: __ZNKSt8__detail15_Hashtable_baseIP8ListNodeSt4pairIKS2_iENS_10_Select1stESt8equal_toIS2_ESt4hashIS2_ENS_18_Mod_range_hashingENS_20_Default_ranged_hashENS_17_Hashtable_traitsILb0ELb0ELb1EEEE13_M_key_equalsERS4_RKNS_16_Hash_node_valueIS5_Lb0EEE, symObjAddr: 0x4DC8, symBinAddr: 0x100005624, symSize: 0x6C }
  - { offset: 0x2B079, size: 0x8, addend: 0x0, symName: __ZNSt10_HashtableIP8ListNodeSt4pairIKS1_iESaIS4_ENSt8__detail10_Select1stESt8equal_toIS1_ESt4hashIS1_ENS6_18_Mod_range_hashingENS6_20_Default_ranged_hashENS6_20_Prime_rehash_policyENS6_17_Hashtable_traitsILb0ELb0ELb1EEEE22__small_size_thresholdEv, symObjAddr: 0x4DB4, symBinAddr: 0x100005610, symSize: 0x14 }
  - { offset: 0x2B095, size: 0x8, addend: 0x0, symName: __ZNKSt10_HashtableIP8ListNodeSt4pairIKS1_iESaIS4_ENSt8__detail10_Select1stESt8equal_toIS1_ESt4hashIS1_ENS6_18_Mod_range_hashingENS6_20_Default_ranged_hashENS6_20_Prime_rehash_policyENS6_17_Hashtable_traitsILb0ELb0ELb1EEEE4sizeEv, symObjAddr: 0x4D9C, symBinAddr: 0x1000055F8, symSize: 0x18 }
  - { offset: 0x2B0BF, size: 0x8, addend: 0x0, symName: __ZNSt8__detail16_Hashtable_allocISaINS_10_Hash_nodeISt4pairIKP8ListNodeiELb0EEEEE21_M_deallocate_bucketsEPPNS_15_Hash_node_baseEm, symObjAddr: 0x4D24, symBinAddr: 0x100005580, symSize: 0x78 }
  - { offset: 0x2B1CF, size: 0x8, addend: 0x0, symName: __ZNKSt10_HashtableIP8ListNodeSt4pairIKS1_iESaIS4_ENSt8__detail10_Select1stESt8equal_toIS1_ESt4hashIS1_ENS6_18_Mod_range_hashingENS6_20_Default_ranged_hashENS6_20_Prime_rehash_policyENS6_17_Hashtable_traitsILb0ELb0ELb1EEEE21_M_uses_single_bucketEPPNS6_15_Hash_node_baseE, symObjAddr: 0x4CE8, symBinAddr: 0x100005544, symSize: 0x3C }
  - { offset: 0x2B20A, size: 0x8, addend: 0x0, symName: __ZNSt8__detail16_Hashtable_allocISaINS_10_Hash_nodeISt4pairIKP8ListNodeiELb0EEEEE18_M_deallocate_nodeEPS7_, symObjAddr: 0x4C74, symBinAddr: 0x1000054D0, symSize: 0x74 }
  - { offset: 0x2B2C3, size: 0x8, addend: 0x0, symName: __ZNKSt8__detail10_Hash_nodeISt4pairIKP8ListNodeiELb0EE7_M_nextEv, symObjAddr: 0x4C5C, symBinAddr: 0x1000054B8, symSize: 0x18 }
  - { offset: 0x2B319, size: 0x8, addend: 0x0, symName: __ZNSt11_Deque_baseIcSaIcEE16_M_allocate_nodeEv, symObjAddr: 0x4C18, symBinAddr: 0x100005474, symSize: 0x44 }
  - { offset: 0x2B370, size: 0x8, addend: 0x0, symName: __ZNSt5dequeIcSaIcEE22_M_reserve_map_at_backEm, symObjAddr: 0x4BB8, symBinAddr: 0x100005414, symSize: 0x60 }
  - { offset: 0x2B3AB, size: 0x8, addend: 0x0, symName: __ZNKSt5dequeIcSaIcEE8max_sizeEv, symObjAddr: 0x4B98, symBinAddr: 0x1000053F4, symSize: 0x20 }
  - { offset: 0x2B3D5, size: 0x8, addend: 0x0, symName: __ZNKSt5dequeIcSaIcEE4sizeEv, symObjAddr: 0x4B68, symBinAddr: 0x1000053C4, symSize: 0x30 }
  - { offset: 0x2B444, size: 0x8, addend: 0x0, symName: __ZSt7forwardIRKcEOT_RNSt16remove_referenceIS2_E4typeE, symObjAddr: 0x4B54, symBinAddr: 0x1000053B0, symSize: 0x14 }
  - { offset: 0x2B4CC, size: 0x8, addend: 0x0, symName: __ZNKSt11_Deque_baseIcSaIcEE20_M_get_map_allocatorEv, symObjAddr: 0x4B0C, symBinAddr: 0x100005368, symSize: 0x48 }
  - { offset: 0x2B546, size: 0x8, addend: 0x0, symName: __ZNSt11_Deque_baseIcSaIcEE18_M_deallocate_nodeEPc, symObjAddr: 0x4AB4, symBinAddr: 0x100005310, symSize: 0x58 }
  - { offset: 0x2B5B7, size: 0x8, addend: 0x0, symName: __ZNSt15_Deque_iteratorIcRcPcE11_M_set_nodeEPS1_, symObjAddr: 0x4A5C, symBinAddr: 0x1000052B8, symSize: 0x58 }
  - { offset: 0x2B5F2, size: 0x8, addend: 0x0, symName: __ZNSt11_Deque_baseIcSaIcEE15_M_create_nodesEPPcS3_, symObjAddr: 0x49D0, symBinAddr: 0x10000522C, symSize: 0x8C }
  - { offset: 0x2B64F, size: 0x8, addend: 0x0, symName: __ZNSt11_Deque_baseIcSaIcEE15_M_allocate_mapEm, symObjAddr: 0x4950, symBinAddr: 0x1000051AC, symSize: 0x80 }
  - { offset: 0x2B721, size: 0x8, addend: 0x0, symName: __ZNSt11_Deque_baseIcSaIcEE16_Deque_impl_dataC2Ev, symObjAddr: 0x4910, symBinAddr: 0x10000516C, symSize: 0x40 }
  - { offset: 0x2B743, size: 0x8, addend: 0x0, symName: __ZNSt12_Destroy_auxILb1EE9__destroyIPiEEvT_S3_, symObjAddr: 0x48F8, symBinAddr: 0x100005154, symSize: 0x18 }
  - { offset: 0x2B777, size: 0x8, addend: 0x0, symName: __ZSt20uninitialized_fill_nIPimiET_S1_T0_RKT1_, symObjAddr: 0x48C4, symBinAddr: 0x100005120, symSize: 0x34 }
  - { offset: 0x2B82D, size: 0x8, addend: 0x0, symName: __ZNSt15__new_allocatorIcE10deallocateEPcm, symObjAddr: 0x489C, symBinAddr: 0x1000050F8, symSize: 0x28 }
  - { offset: 0x2B88E, size: 0x8, addend: 0x0, symName: __ZNSt6vectorIiSaIiEE11_S_relocateEPiS2_S2_RS0_, symObjAddr: 0x4868, symBinAddr: 0x1000050C4, symSize: 0x34 }
  - { offset: 0x2B8EB, size: 0x8, addend: 0x0, symName: __ZSt12__to_addressIiEPT_S1_, symObjAddr: 0x4854, symBinAddr: 0x1000050B0, symSize: 0x14 }
  - { offset: 0x2B921, size: 0x8, addend: 0x0, symName: __ZNSt12_Vector_baseIiSaIiEE11_M_allocateEm, symObjAddr: 0x4804, symBinAddr: 0x100005060, symSize: 0x50 }
  - { offset: 0x2B98C, size: 0x8, addend: 0x0, symName: __ZN9__gnu_cxxmiIPiSt6vectorIiSaIiEEEENS_17__normal_iteratorIT_T0_E15difference_typeERKS8_SB_, symObjAddr: 0x47C4, symBinAddr: 0x100005020, symSize: 0x40 }
  - { offset: 0x2B9DD, size: 0x8, addend: 0x0, symName: __ZNKSt6vectorIiSaIiEE12_M_check_lenEmPKc, symObjAddr: 0x46F4, symBinAddr: 0x100004F50, symSize: 0xD0 }
  - { offset: 0x2BA7F, size: 0x8, addend: 0x0, symName: __ZSt7forwardIRKiEOT_RNSt16remove_referenceIS2_E4typeE, symObjAddr: 0x46E0, symBinAddr: 0x100004F3C, symSize: 0x14 }
  - { offset: 0x2BAB5, size: 0x8, addend: 0x0, symName: __ZN9__gnu_cxx16__aligned_membufISt4pairIKiiEE6_M_ptrEv, symObjAddr: 0x46C4, symBinAddr: 0x100004F20, symSize: 0x1C }
  - { offset: 0x2BB11, size: 0x8, addend: 0x0, symName: __ZNSt8_Rb_treeIiSt4pairIKiiESt10_Select1stIS2_ESt4lessIiESaIS2_EE10_Auto_node9_M_insertES0_IPSt18_Rb_tree_node_baseSB_E, symObjAddr: 0x4678, symBinAddr: 0x100004ED4, symSize: 0x4C }
  - { offset: 0x2BB5D, size: 0x8, addend: 0x0, symName: __ZNKSt8_Rb_treeIiSt4pairIKiiESt10_Select1stIS2_ESt4lessIiESaIS2_EE10_Auto_node6_M_keyEv, symObjAddr: 0x4658, symBinAddr: 0x100004EB4, symSize: 0x20 }
  - { offset: 0x2BB87, size: 0x8, addend: 0x0, symName: __ZNSt8_Rb_treeIiSt4pairIKiiESt10_Select1stIS2_ESt4lessIiESaIS2_EE29_M_get_insert_hint_unique_posESt23_Rb_tree_const_iteratorIS2_ERS1_, symObjAddr: 0x4334, symBinAddr: 0x100004B90, symSize: 0x324 }
  - { offset: 0x2BC56, size: 0x8, addend: 0x0, symName: __ZNSt8_Rb_treeIiSt4pairIKiiESt10_Select1stIS2_ESt4lessIiESaIS2_EE10_Auto_nodeD1Ev, symObjAddr: 0x42F0, symBinAddr: 0x100004B4C, symSize: 0x44 }
  - { offset: 0x2BCCF, size: 0x8, addend: 0x0, symName: __ZNSt8_Rb_treeIiSt4pairIKiiESt10_Select1stIS2_ESt4lessIiESaIS2_EE10_Auto_nodeC1IJRKSt21piecewise_construct_tSt5tupleIJRS1_EESE_IJEEEEERS8_DpOT_, symObjAddr: 0x4274, symBinAddr: 0x100004AD0, symSize: 0x7C }
  - { offset: 0x2BD38, size: 0x8, addend: 0x0, symName: __ZSt7forwardISt5tupleIJEEEOT_RNSt16remove_referenceIS2_E4typeE, symObjAddr: 0x4260, symBinAddr: 0x100004ABC, symSize: 0x14 }
  - { offset: 0x2BD71, size: 0x8, addend: 0x0, symName: __ZSt7forwardISt5tupleIJRKiEEEOT_RNSt16remove_referenceIS4_E4typeE, symObjAddr: 0x424C, symBinAddr: 0x100004AA8, symSize: 0x14 }
  - { offset: 0x2BDAA, size: 0x8, addend: 0x0, symName: __ZSt7forwardIRKSt21piecewise_construct_tEOT_RNSt16remove_referenceIS3_E4typeE, symObjAddr: 0x4238, symBinAddr: 0x100004A94, symSize: 0x14 }
  - { offset: 0x2BE08, size: 0x8, addend: 0x0, symName: __ZNSt11_Tuple_implILm0EJRKiEEC2ES1_, symObjAddr: 0x4210, symBinAddr: 0x100004A6C, symSize: 0x28 }
  - { offset: 0x2BE37, size: 0x8, addend: 0x0, symName: __ZNKSt8_Rb_treeIiSt4pairIKiiESt10_Select1stIS2_ESt4lessIiESaIS2_EE8key_compEv, symObjAddr: 0x41F8, symBinAddr: 0x100004A54, symSize: 0x18 }
  - { offset: 0x2BE61, size: 0x8, addend: 0x0, symName: __ZNSt8_Rb_treeIiSt4pairIKiiESt10_Select1stIS2_ESt4lessIiESaIS2_EE11lower_boundERS1_, symObjAddr: 0x41B0, symBinAddr: 0x100004A0C, symSize: 0x48 }
  - { offset: 0x2BEC4, size: 0x8, addend: 0x0, symName: __ZNSt17_Rb_tree_iteratorISt4pairIKiiEEC1EPSt18_Rb_tree_node_base, symObjAddr: 0x418C, symBinAddr: 0x1000049E8, symSize: 0x24 }
  - { offset: 0x2BEEF, size: 0x8, addend: 0x0, symName: __ZNSt8_Rb_treeIiSt4pairIKiiESt10_Select1stIS2_ESt4lessIiESaIS2_EE6_S_keyEPKSt18_Rb_tree_node_base, symObjAddr: 0x4170, symBinAddr: 0x1000049CC, symSize: 0x1C }
  - { offset: 0x2BF1D, size: 0x8, addend: 0x0, symName: __ZNSt8_Rb_treeIiSt4pairIKiiESt10_Select1stIS2_ESt4lessIiESaIS2_EE14_M_lower_boundEPSt13_Rb_tree_nodeIS2_EPSt18_Rb_tree_node_baseRS1_, symObjAddr: 0x40D4, symBinAddr: 0x100004930, symSize: 0x9C }
  - { offset: 0x2BF7A, size: 0x8, addend: 0x0, symName: __ZNSt8_Rb_treeIiSt4pairIKiiESt10_Select1stIS2_ESt4lessIiESaIS2_EE6_M_endEv, symObjAddr: 0x40BC, symBinAddr: 0x100004918, symSize: 0x18 }
  - { offset: 0x2BFA4, size: 0x8, addend: 0x0, symName: __ZNSt5dequeISt4pairIP4NodeiESaIS3_EE16_M_pop_front_auxEv, symObjAddr: 0x4028, symBinAddr: 0x100004884, symSize: 0x94 }
  - { offset: 0x2C055, size: 0x8, addend: 0x0, symName: __ZNKSt15_Deque_iteratorISt4pairIP4NodeiERS3_PS3_EdeEv, symObjAddr: 0x4010, symBinAddr: 0x10000486C, symSize: 0x18 }
  - { offset: 0x2C07B, size: 0x8, addend: 0x0, symName: __ZSteqRKSt15_Deque_iteratorISt4pairIP4NodeiERS3_PS3_ES8_, symObjAddr: 0x3FE0, symBinAddr: 0x10000483C, symSize: 0x30 }
  - { offset: 0x2C0BA, size: 0x8, addend: 0x0, symName: __ZNSt5dequeISt4pairIP4NodeiESaIS3_EE12emplace_backIJS3_EEERS3_DpOT_, symObjAddr: 0x3F04, symBinAddr: 0x100004760, symSize: 0xDC }
  - { offset: 0x2C190, size: 0x8, addend: 0x0, symName: __ZNSt15_Deque_iteratorISt4pairIP4NodeiERS3_PS3_EC1ERKS6_, symObjAddr: 0x3EAC, symBinAddr: 0x100004708, symSize: 0x58 }
  - { offset: 0x2C1BF, size: 0x8, addend: 0x0, symName: __ZNSt11_Deque_baseISt4pairIP4NodeiESaIS3_EE17_M_deallocate_mapEPPS3_m, symObjAddr: 0x3E4C, symBinAddr: 0x1000046A8, symSize: 0x60 }
  - { offset: 0x2C270, size: 0x8, addend: 0x0, symName: __ZNSt11_Deque_baseISt4pairIP4NodeiESaIS3_EE16_M_destroy_nodesEPPS3_S7_, symObjAddr: 0x3DEC, symBinAddr: 0x100004648, symSize: 0x60 }
  - { offset: 0x2C2E0, size: 0x8, addend: 0x0, symName: __ZNSt11_Deque_baseISt4pairIP4NodeiESaIS3_EE17_M_initialize_mapEm, symObjAddr: 0x3C60, symBinAddr: 0x1000044BC, symSize: 0x18C }
  - { offset: 0x2C388, size: 0x8, addend: 0x0, symName: __ZNSt11_Deque_baseISt4pairIP4NodeiESaIS3_EE11_Deque_implC1Ev, symObjAddr: 0x3C28, symBinAddr: 0x100004484, symSize: 0x38 }
  - { offset: 0x2C3F5, size: 0x8, addend: 0x0, symName: __ZNKSt8_Rb_treeIiSt4pairIKiiESt10_Select1stIS2_ESt4lessIiESaIS2_EE9_M_mbeginEv, symObjAddr: 0x3C10, symBinAddr: 0x10000446C, symSize: 0x18 }
  - { offset: 0x2C41F, size: 0x8, addend: 0x0, symName: __ZNSt8_Rb_treeIiSt4pairIKiiESt10_Select1stIS2_ESt4lessIiESaIS2_EE12_M_drop_nodeEPSt13_Rb_tree_nodeIS2_E, symObjAddr: 0x3BDC, symBinAddr: 0x100004438, symSize: 0x34 }
  - { offset: 0x2C456, size: 0x8, addend: 0x0, symName: __ZNSt8_Rb_treeIiSt4pairIKiiESt10_Select1stIS2_ESt4lessIiESaIS2_EE7_S_leftEPSt18_Rb_tree_node_base, symObjAddr: 0x3BC4, symBinAddr: 0x100004420, symSize: 0x18 }
  - { offset: 0x2C480, size: 0x8, addend: 0x0, symName: __ZNSt8_Rb_treeIiSt4pairIKiiESt10_Select1stIS2_ESt4lessIiESaIS2_EE8_S_rightEPSt18_Rb_tree_node_base, symObjAddr: 0x3BAC, symBinAddr: 0x100004408, symSize: 0x18 }
  - { offset: 0x2C4C4, size: 0x8, addend: 0x0, symName: __ZNKSt8__detail14_Node_iteratorISt4pairIKP8ListNodeiELb0ELb0EEptEv, symObjAddr: 0x3B7C, symBinAddr: 0x1000043D8, symSize: 0x30 }
  - { offset: 0x2C512, size: 0x8, addend: 0x0, symName: __ZNSt10_HashtableIP8ListNodeSt4pairIKS1_iESaIS4_ENSt8__detail10_Select1stESt8equal_toIS1_ESt4hashIS1_ENS6_18_Mod_range_hashingENS6_20_Default_ranged_hashENS6_20_Prime_rehash_policyENS6_17_Hashtable_traitsILb0ELb0ELb1EEEE21_M_insert_unique_nodeEmmPNS6_10_Hash_nodeIS4_Lb0EEEm, symObjAddr: 0x3A6C, symBinAddr: 0x1000042C8, symSize: 0x110 }
  - { offset: 0x2C5C9, size: 0x8, addend: 0x0, symName: __ZNSt10_HashtableIP8ListNodeSt4pairIKS1_iESaIS4_ENSt8__detail10_Select1stESt8equal_toIS1_ESt4hashIS1_ENS6_18_Mod_range_hashingENS6_20_Default_ranged_hashENS6_20_Prime_rehash_policyENS6_17_Hashtable_traitsILb0ELb0ELb1EEEE12_Scoped_nodeD1Ev, symObjAddr: 0x3A28, symBinAddr: 0x100004284, symSize: 0x44 }
  - { offset: 0x2C642, size: 0x8, addend: 0x0, symName: __ZNSt10_HashtableIP8ListNodeSt4pairIKS1_iESaIS4_ENSt8__detail10_Select1stESt8equal_toIS1_ESt4hashIS1_ENS6_18_Mod_range_hashingENS6_20_Default_ranged_hashENS6_20_Prime_rehash_policyENS6_17_Hashtable_traitsILb0ELb0ELb1EEEE12_Scoped_nodeC1IJRKSt21piecewise_construct_tSt5tupleIJRS3_EESN_IJEEEEEPNS6_16_Hashtable_allocISaINS6_10_Hash_nodeIS4_Lb0EEEEEEDpOT_, symObjAddr: 0x39A0, symBinAddr: 0x1000041FC, symSize: 0x88 }
  - { offset: 0x2C6DA, size: 0x8, addend: 0x0, symName: __ZNSt5tupleIJRKP8ListNodeEEC1ILb1ELb1EEES3_, symObjAddr: 0x3978, symBinAddr: 0x1000041D4, symSize: 0x28 }
  - { offset: 0x2C729, size: 0x8, addend: 0x0, symName: __ZNKSt10_HashtableIP8ListNodeSt4pairIKS1_iESaIS4_ENSt8__detail10_Select1stESt8equal_toIS1_ESt4hashIS1_ENS6_18_Mod_range_hashingENS6_20_Default_ranged_hashENS6_20_Prime_rehash_policyENS6_17_Hashtable_traitsILb0ELb0ELb1EEEE12_M_find_nodeEmRS3_m, symObjAddr: 0x3924, symBinAddr: 0x100004180, symSize: 0x54 }
  - { offset: 0x2C797, size: 0x8, addend: 0x0, symName: __ZNKSt10_HashtableIP8ListNodeSt4pairIKS1_iESaIS4_ENSt8__detail10_Select1stESt8equal_toIS1_ESt4hashIS1_ENS6_18_Mod_range_hashingENS6_20_Default_ranged_hashENS6_20_Prime_rehash_policyENS6_17_Hashtable_traitsILb0ELb0ELb1EEEE15_M_bucket_indexEm, symObjAddr: 0x38F4, symBinAddr: 0x100004150, symSize: 0x30 }
  - { offset: 0x2C7D2, size: 0x8, addend: 0x0, symName: __ZNKSt8__detail15_Hash_code_baseIP8ListNodeSt4pairIKS2_iENS_10_Select1stESt4hashIS2_ENS_18_Mod_range_hashingENS_20_Default_ranged_hashELb0EE12_M_hash_codeERS4_, symObjAddr: 0x38BC, symBinAddr: 0x100004118, symSize: 0x38 }
  - { offset: 0x2C80D, size: 0x8, addend: 0x0, symName: __ZNKSt10_HashtableIP8ListNodeSt4pairIKS1_iESaIS4_ENSt8__detail10_Select1stESt8equal_toIS1_ESt4hashIS1_ENS6_18_Mod_range_hashingENS6_20_Default_ranged_hashENS6_20_Prime_rehash_policyENS6_17_Hashtable_traitsILb0ELb0ELb1EEEE4findERS3_, symObjAddr: 0x37C4, symBinAddr: 0x100004020, symSize: 0xF8 }
  - { offset: 0x2C88E, size: 0x8, addend: 0x0, symName: __ZNSt10_HashtableIP8ListNodeSt4pairIKS1_iESaIS4_ENSt8__detail10_Select1stESt8equal_toIS1_ESt4hashIS1_ENS6_18_Mod_range_hashingENS6_20_Default_ranged_hashENS6_20_Prime_rehash_policyENS6_17_Hashtable_traitsILb0ELb0ELb1EEEE21_M_deallocate_bucketsEPPNS6_15_Hash_node_baseEm, symObjAddr: 0x3778, symBinAddr: 0x100003FD4, symSize: 0x4C }
  - { offset: 0x2C8DA, size: 0x8, addend: 0x0, symName: __ZNSt8__detail16_Hashtable_allocISaINS_10_Hash_nodeISt4pairIKP8ListNodeiELb0EEEEE19_M_deallocate_nodesEPS7_, symObjAddr: 0x3728, symBinAddr: 0x100003F84, symSize: 0x50 }
  - { offset: 0x2C939, size: 0x8, addend: 0x0, symName: __ZNKSt10_HashtableIP8ListNodeSt4pairIKS1_iESaIS4_ENSt8__detail10_Select1stESt8equal_toIS1_ESt4hashIS1_ENS6_18_Mod_range_hashingENS6_20_Default_ranged_hashENS6_20_Prime_rehash_policyENS6_17_Hashtable_traitsILb0ELb0ELb1EEEE8_M_beginEv, symObjAddr: 0x3710, symBinAddr: 0x100003F6C, symSize: 0x18 }
  - { offset: 0x2C979, size: 0x8, addend: 0x0, symName: __ZNSt5dequeIcSaIcEE15_M_pop_back_auxEv, symObjAddr: 0x3678, symBinAddr: 0x100003ED4, symSize: 0x98 }
  - { offset: 0x2CA2A, size: 0x8, addend: 0x0, symName: __ZNKSt15_Deque_iteratorIcRcPcEdeEv, symObjAddr: 0x3660, symBinAddr: 0x100003EBC, symSize: 0x18 }
  - { offset: 0x2CA54, size: 0x8, addend: 0x0, symName: __ZNSt15_Deque_iteratorIcRcPcEmmEv, symObjAddr: 0x35F4, symBinAddr: 0x100003E50, symSize: 0x6C }
  - { offset: 0x2CA7A, size: 0x8, addend: 0x0, symName: __ZSteqRKSt15_Deque_iteratorIcRcPcES4_, symObjAddr: 0x35C4, symBinAddr: 0x100003E20, symSize: 0x30 }
  - { offset: 0x2CAB9, size: 0x8, addend: 0x0, symName: __ZNSt5dequeIcSaIcEE16_M_push_back_auxIJRKcEEEvDpOT_, symObjAddr: 0x34A4, symBinAddr: 0x100003D00, symSize: 0x120 }
  - { offset: 0x2CBD5, size: 0x8, addend: 0x0, symName: __ZNSt15_Deque_iteratorIcRcPcEC1ERKS2_, symObjAddr: 0x344C, symBinAddr: 0x100003CA8, symSize: 0x58 }
  - { offset: 0x2CC04, size: 0x8, addend: 0x0, symName: __ZNSt11_Deque_baseIcSaIcEE17_M_deallocate_mapEPPcm, symObjAddr: 0x33EC, symBinAddr: 0x100003C48, symSize: 0x60 }
  - { offset: 0x2CCB5, size: 0x8, addend: 0x0, symName: __ZNSt11_Deque_baseIcSaIcEE16_M_destroy_nodesEPPcS3_, symObjAddr: 0x338C, symBinAddr: 0x100003BE8, symSize: 0x60 }
  - { offset: 0x2CD25, size: 0x8, addend: 0x0, symName: __ZNSt11_Deque_baseIcSaIcEE17_M_initialize_mapEm, symObjAddr: 0x3204, symBinAddr: 0x100003A60, symSize: 0x188 }
  - { offset: 0x2CDAD, size: 0x8, addend: 0x0, symName: __ZNSt11_Deque_baseIcSaIcEE11_Deque_implC1Ev, symObjAddr: 0x31CC, symBinAddr: 0x100003A28, symSize: 0x38 }
  - { offset: 0x2CE16, size: 0x8, addend: 0x0, symName: __ZSt8_DestroyIPiEvT_S1_, symObjAddr: 0x31A4, symBinAddr: 0x100003A00, symSize: 0x28 }
  - { offset: 0x2CE58, size: 0x8, addend: 0x0, symName: __ZSt24__uninitialized_fill_n_aIPimiiET_S1_T0_RKT1_RSaIT2_E, symObjAddr: 0x3174, symBinAddr: 0x1000039D0, symSize: 0x30 }
  - { offset: 0x2CED5, size: 0x8, addend: 0x0, symName: __ZNSt12_Vector_baseIiSaIiEE17_M_create_storageEm, symObjAddr: 0x3114, symBinAddr: 0x100003970, symSize: 0x60 }
  - { offset: 0x2CF37, size: 0x8, addend: 0x0, symName: __ZNSt12_Vector_baseIiSaIiEE12_Vector_implC1ERKS0_, symObjAddr: 0x30C8, symBinAddr: 0x100003924, symSize: 0x4C }
  - { offset: 0x2CFBA, size: 0x8, addend: 0x0, symName: __ZNSt6vectorIiSaIiEE11_S_max_sizeERKS0_, symObjAddr: 0x3074, symBinAddr: 0x1000038D0, symSize: 0x54 }
  - { offset: 0x2D0A7, size: 0x8, addend: 0x0, symName: __ZNK9__gnu_cxx17__normal_iteratorIPiSt6vectorIiSaIiEEE4baseEv, symObjAddr: 0x3060, symBinAddr: 0x1000038BC, symSize: 0x14 }
  - { offset: 0x2D0F9, size: 0x8, addend: 0x0, symName: __ZN9__gnu_cxx17__normal_iteratorIPiSt6vectorIiSaIiEEEC1ERKS1_, symObjAddr: 0x3038, symBinAddr: 0x100003894, symSize: 0x28 }
  - { offset: 0x2D14B, size: 0x8, addend: 0x0, symName: __ZNSt6vectorIiSaIiEE17_M_realloc_appendIJRKiEEEvDpOT_, symObjAddr: 0x2E7C, symBinAddr: 0x1000036D8, symSize: 0x1BC }
  - { offset: 0x2D2D0, size: 0x8, addend: 0x0, symName: __ZZNSt6vectorIiSaIiEE17_M_realloc_appendIJRKiEEEvDpOT_EN6_GuardC1EPimRS0_, symObjAddr: 0x2DD8, symBinAddr: 0x100003634, symSize: 0x44 }
  - { offset: 0x2D315, size: 0x8, addend: 0x0, symName: __ZZNSt6vectorIiSaIiEE17_M_realloc_appendIJRKiEEEvDpOT_EN6_GuardD1Ev, symObjAddr: 0x2E1C, symBinAddr: 0x100003678, symSize: 0x60 }
  - { offset: 0x2D44C, size: 0x8, addend: 0x0, symName: __ZNSt13_Rb_tree_nodeISt4pairIKiiEE9_M_valptrEv, symObjAddr: 0x2DB8, symBinAddr: 0x100003614, symSize: 0x20 }
  - { offset: 0x2D476, size: 0x8, addend: 0x0, symName: __ZNSt8_Rb_treeIiSt4pairIKiiESt10_Select1stIS2_ESt4lessIiESaIS2_EE5beginEv, symObjAddr: 0x2D90, symBinAddr: 0x1000035EC, symSize: 0x28 }
  - { offset: 0x2D4A0, size: 0x8, addend: 0x0, symName: __ZNSt12_Vector_baseIiSaIiEE13_M_deallocateEPim, symObjAddr: 0x2D38, symBinAddr: 0x100003594, symSize: 0x58 }
  - { offset: 0x2D53C, size: 0x8, addend: 0x0, symName: __ZNSt12_Vector_baseIiSaIiEE17_Vector_impl_dataC2Ev, symObjAddr: 0x2D0C, symBinAddr: 0x100003568, symSize: 0x2C }
  - { offset: 0x2D562, size: 0x8, addend: 0x0, symName: __ZNSt8_Rb_treeIiSt4pairIKiiESt10_Select1stIS2_ESt4lessIiESaIS2_EE22_M_emplace_hint_uniqueIJRKSt21piecewise_construct_tSt5tupleIJRS1_EESD_IJEEEEESt17_Rb_tree_iteratorIS2_ESt23_Rb_tree_const_iteratorIS2_EDpOT_, symObjAddr: 0x2C34, symBinAddr: 0x100003490, symSize: 0xD8 }
  - { offset: 0x2D621, size: 0x8, addend: 0x0, symName: __ZNSt23_Rb_tree_const_iteratorISt4pairIKiiEEC1ERKSt17_Rb_tree_iteratorIS2_E, symObjAddr: 0x2C0C, symBinAddr: 0x100003468, symSize: 0x28 }
  - { offset: 0x2D682, size: 0x8, addend: 0x0, symName: __ZNSt5tupleIJRKiEEC1ILb1ELb1EEES1_, symObjAddr: 0x2BE4, symBinAddr: 0x100003440, symSize: 0x28 }
  - { offset: 0x2D6BB, size: 0x8, addend: 0x0, symName: __ZNKSt4lessIiEclERKiS2_, symObjAddr: 0x2BB0, symBinAddr: 0x10000340C, symSize: 0x34 }
  - { offset: 0x2D707, size: 0x8, addend: 0x0, symName: __ZNKSt3mapIiiSt4lessIiESaISt4pairIKiiEEE8key_compEv, symObjAddr: 0x2B84, symBinAddr: 0x1000033E0, symSize: 0x2C }
  - { offset: 0x2D731, size: 0x8, addend: 0x0, symName: __ZNSt3mapIiiSt4lessIiESaISt4pairIKiiEEE11lower_boundERS3_, symObjAddr: 0x2B60, symBinAddr: 0x1000033BC, symSize: 0x24 }
  - { offset: 0x2D76C, size: 0x8, addend: 0x0, symName: __ZNSt8_Rb_treeIiSt4pairIKiiESt10_Select1stIS2_ESt4lessIiESaIS2_EE3endEv, symObjAddr: 0x2B38, symBinAddr: 0x100003394, symSize: 0x28 }
  - { offset: 0x2D796, size: 0x8, addend: 0x0, symName: __ZNSt8_Rb_treeIiSt4pairIKiiESt10_Select1stIS2_ESt4lessIiESaIS2_EE4findERS1_, symObjAddr: 0x2A90, symBinAddr: 0x1000032EC, symSize: 0xA8 }
  - { offset: 0x2D7E2, size: 0x8, addend: 0x0, symName: __ZNSt5dequeISt4pairIP4NodeiESaIS3_EE9pop_frontEv, symObjAddr: 0x2A08, symBinAddr: 0x100003264, symSize: 0x88 }
  - { offset: 0x2D866, size: 0x8, addend: 0x0, symName: __ZNSt5dequeISt4pairIP4NodeiESaIS3_EE5frontEv, symObjAddr: 0x29DC, symBinAddr: 0x100003238, symSize: 0x2C }
  - { offset: 0x2D890, size: 0x8, addend: 0x0, symName: __ZNKSt5dequeISt4pairIP4NodeiESaIS3_EE5emptyEv, symObjAddr: 0x29AC, symBinAddr: 0x100003208, symSize: 0x30 }
  - { offset: 0x2D8BA, size: 0x8, addend: 0x0, symName: __ZNSt5dequeISt4pairIP4NodeiESaIS3_EE9push_backEOS3_, symObjAddr: 0x297C, symBinAddr: 0x1000031D8, symSize: 0x30 }
  - { offset: 0x2D8F8, size: 0x8, addend: 0x0, symName: __ZSt4moveIRSt4pairIP4NodeiEEONSt16remove_referenceIT_E4typeEOS6_, symObjAddr: 0x2968, symBinAddr: 0x1000031C4, symSize: 0x14 }
  - { offset: 0x2D931, size: 0x8, addend: 0x0, symName: __ZSt7forwardIRP4NodeEOT_RNSt16remove_referenceIS3_E4typeE, symObjAddr: 0x2954, symBinAddr: 0x1000031B0, symSize: 0x14 }
  - { offset: 0x2D967, size: 0x8, addend: 0x0, symName: __ZNSt5dequeISt4pairIP4NodeiESaIS3_EE15_M_destroy_dataESt15_Deque_iteratorIS3_RS3_PS3_ES9_RKS4_, symObjAddr: 0x2934, symBinAddr: 0x100003190, symSize: 0x20 }
  - { offset: 0x2D9C2, size: 0x8, addend: 0x0, symName: __ZNSt11_Deque_baseISt4pairIP4NodeiESaIS3_EE19_M_get_Tp_allocatorEv, symObjAddr: 0x2920, symBinAddr: 0x10000317C, symSize: 0x14 }
  - { offset: 0x2D9EC, size: 0x8, addend: 0x0, symName: __ZNSt5dequeISt4pairIP4NodeiESaIS3_EE3endEv, symObjAddr: 0x28E8, symBinAddr: 0x100003144, symSize: 0x38 }
  - { offset: 0x2DA16, size: 0x8, addend: 0x0, symName: __ZNSt5dequeISt4pairIP4NodeiESaIS3_EE5beginEv, symObjAddr: 0x28B0, symBinAddr: 0x10000310C, symSize: 0x38 }
  - { offset: 0x2DA64, size: 0x8, addend: 0x0, symName: __ZNSt11_Deque_baseISt4pairIP4NodeiESaIS3_EED2Ev, symObjAddr: 0x2844, symBinAddr: 0x1000030A0, symSize: 0x6C }
  - { offset: 0x2DAA4, size: 0x8, addend: 0x0, symName: __ZNSt11_Deque_baseISt4pairIP4NodeiESaIS3_EEC2Ev, symObjAddr: 0x27FC, symBinAddr: 0x100003058, symSize: 0x48 }
  - { offset: 0x2DAF2, size: 0x8, addend: 0x0, symName: __ZNSt11_Deque_baseISt4pairIP4NodeiESaIS3_EE11_Deque_implD1Ev, symObjAddr: 0x27D0, symBinAddr: 0x10000302C, symSize: 0x2C }
  - { offset: 0x2DB3C, size: 0x8, addend: 0x0, symName: __ZNSt8_Rb_treeIiSt4pairIKiiESt10_Select1stIS2_ESt4lessIiESaIS2_EE8_M_beginEv, symObjAddr: 0x27B4, symBinAddr: 0x100003010, symSize: 0x1C }
  - { offset: 0x2DB66, size: 0x8, addend: 0x0, symName: __ZNSt8_Rb_treeIiSt4pairIKiiESt10_Select1stIS2_ESt4lessIiESaIS2_EE8_M_eraseEPSt13_Rb_tree_nodeIS2_E, symObjAddr: 0x2750, symBinAddr: 0x100002FAC, symSize: 0x64 }
  - { offset: 0x2DBE9, size: 0x8, addend: 0x0, symName: __ZNSt15__new_allocatorISt13_Rb_tree_nodeISt4pairIKiiEEED2Ev, symObjAddr: 0x273C, symBinAddr: 0x100002F98, symSize: 0x14 }
  - { offset: 0x2DC29, size: 0x8, addend: 0x0, symName: __ZNSt20_Rb_tree_key_compareISt4lessIiEEC2Ev, symObjAddr: 0x2728, symBinAddr: 0x100002F84, symSize: 0x14 }
  - { offset: 0x2DC65, size: 0x8, addend: 0x0, symName: __ZNSt8__detail9_Map_baseIP8ListNodeSt4pairIKS2_iESaIS5_ENS_10_Select1stESt8equal_toIS2_ESt4hashIS2_ENS_18_Mod_range_hashingENS_20_Default_ranged_hashENS_20_Prime_rehash_policyENS_17_Hashtable_traitsILb0ELb0ELb1EEELb1EEixERS4_, symObjAddr: 0x2608, symBinAddr: 0x100002E64, symSize: 0x120 }
  - { offset: 0x2DD6B, size: 0x8, addend: 0x0, symName: __ZNKSt10_HashtableIP8ListNodeSt4pairIKS1_iESaIS4_ENSt8__detail10_Select1stESt8equal_toIS1_ESt4hashIS1_ENS6_18_Mod_range_hashingENS6_20_Default_ranged_hashENS6_20_Prime_rehash_policyENS6_17_Hashtable_traitsILb0ELb0ELb1EEEE5countERS3_, symObjAddr: 0x25C8, symBinAddr: 0x100002E24, symSize: 0x40 }
  - { offset: 0x2DDD6, size: 0x8, addend: 0x0, symName: __ZNSt10_HashtableIP8ListNodeSt4pairIKS1_iESaIS4_ENSt8__detail10_Select1stESt8equal_toIS1_ESt4hashIS1_ENS6_18_Mod_range_hashingENS6_20_Default_ranged_hashENS6_20_Prime_rehash_policyENS6_17_Hashtable_traitsILb0ELb0ELb1EEEE21_M_deallocate_bucketsEv, symObjAddr: 0x2594, symBinAddr: 0x100002DF0, symSize: 0x34 }
  - { offset: 0x2DE00, size: 0x8, addend: 0x0, symName: __ZNSt10_HashtableIP8ListNodeSt4pairIKS1_iESaIS4_ENSt8__detail10_Select1stESt8equal_toIS1_ESt4hashIS1_ENS6_18_Mod_range_hashingENS6_20_Default_ranged_hashENS6_20_Prime_rehash_policyENS6_17_Hashtable_traitsILb0ELb0ELb1EEEE5clearEv, symObjAddr: 0x2534, symBinAddr: 0x100002D90, symSize: 0x60 }
  - { offset: 0x2DE4E, size: 0x8, addend: 0x0, symName: __ZNSt15__new_allocatorINSt8__detail10_Hash_nodeISt4pairIKP8ListNodeiELb0EEEED2Ev, symObjAddr: 0x2520, symBinAddr: 0x100002D7C, symSize: 0x14 }
  - { offset: 0x2DE8A, size: 0x8, addend: 0x0, symName: __ZNSt5dequeIcSaIcEE8pop_backEv, symObjAddr: 0x249C, symBinAddr: 0x100002CF8, symSize: 0x84 }
  - { offset: 0x2DF0E, size: 0x8, addend: 0x0, symName: __ZNSt5dequeIcSaIcEE4backEv, symObjAddr: 0x2468, symBinAddr: 0x100002CC4, symSize: 0x34 }
  - { offset: 0x2DF49, size: 0x8, addend: 0x0, symName: __ZNKSt5dequeIcSaIcEE5emptyEv, symObjAddr: 0x2438, symBinAddr: 0x100002C94, symSize: 0x30 }
  - { offset: 0x2DF73, size: 0x8, addend: 0x0, symName: __ZNSt5dequeIcSaIcEE9push_backERKc, symObjAddr: 0x236C, symBinAddr: 0x100002BC8, symSize: 0xCC }
  - { offset: 0x2E01A, size: 0x8, addend: 0x0, symName: __ZNSt5dequeIcSaIcEE15_M_destroy_dataESt15_Deque_iteratorIcRcPcES5_RKS0_, symObjAddr: 0x234C, symBinAddr: 0x100002BA8, symSize: 0x20 }
  - { offset: 0x2E075, size: 0x8, addend: 0x0, symName: __ZNSt11_Deque_baseIcSaIcEE19_M_get_Tp_allocatorEv, symObjAddr: 0x2338, symBinAddr: 0x100002B94, symSize: 0x14 }
  - { offset: 0x2E09F, size: 0x8, addend: 0x0, symName: __ZNSt5dequeIcSaIcEE3endEv, symObjAddr: 0x2300, symBinAddr: 0x100002B5C, symSize: 0x38 }
  - { offset: 0x2E0C9, size: 0x8, addend: 0x0, symName: __ZNSt5dequeIcSaIcEE5beginEv, symObjAddr: 0x22C8, symBinAddr: 0x100002B24, symSize: 0x38 }
  - { offset: 0x2E117, size: 0x8, addend: 0x0, symName: __ZNSt11_Deque_baseIcSaIcEED2Ev, symObjAddr: 0x225C, symBinAddr: 0x100002AB8, symSize: 0x6C }
  - { offset: 0x2E157, size: 0x8, addend: 0x0, symName: __ZNSt11_Deque_baseIcSaIcEEC2Ev, symObjAddr: 0x2214, symBinAddr: 0x100002A70, symSize: 0x48 }
  - { offset: 0x2E1A5, size: 0x8, addend: 0x0, symName: __ZNSt11_Deque_baseIcSaIcEE11_Deque_implD1Ev, symObjAddr: 0x21E8, symBinAddr: 0x100002A44, symSize: 0x2C }
  - { offset: 0x2E22A, size: 0x8, addend: 0x0, symName: __ZNSt12_Vector_baseIiSaIiEE19_M_get_Tp_allocatorEv, symObjAddr: 0x21D4, symBinAddr: 0x100002A30, symSize: 0x14 }
  - { offset: 0x2E254, size: 0x8, addend: 0x0, symName: __ZNSt6vectorIiSaIiEE18_M_fill_initializeEmRKi, symObjAddr: 0x217C, symBinAddr: 0x1000029D8, symSize: 0x58 }
  - { offset: 0x2E2D6, size: 0x8, addend: 0x0, symName: __ZNSt12_Vector_baseIiSaIiEEC2EmRKS0_, symObjAddr: 0x2128, symBinAddr: 0x100002984, symSize: 0x54 }
  - { offset: 0x2E30A, size: 0x8, addend: 0x0, symName: __ZNSt6vectorIiSaIiEE17_S_check_init_lenEmRKS0_, symObjAddr: 0x20A4, symBinAddr: 0x100002900, symSize: 0x84 }
  - { offset: 0x2E3E4, size: 0x8, addend: 0x0, symName: __ZNSt15__new_allocatorIiED2Ev, symObjAddr: 0x2090, symBinAddr: 0x1000028EC, symSize: 0x14 }
  - { offset: 0x2E444, size: 0x8, addend: 0x0, symName: __ZNSt15__new_allocatorIcED2Ev, symObjAddr: 0x207C, symBinAddr: 0x1000028D8, symSize: 0x14 }
  - { offset: 0x2E480, size: 0x8, addend: 0x0, symName: __ZNK9__gnu_cxx17__normal_iteratorIPiSt6vectorIiSaIiEEEdeEv, symObjAddr: 0x2064, symBinAddr: 0x1000028C0, symSize: 0x18 }
  - { offset: 0x2E4AA, size: 0x8, addend: 0x0, symName: __ZN9__gnu_cxx17__normal_iteratorIPiSt6vectorIiSaIiEEEppEv, symObjAddr: 0x203C, symBinAddr: 0x100002898, symSize: 0x28 }
  - { offset: 0x2E4D0, size: 0x8, addend: 0x0, symName: __ZN9__gnu_cxxneIPiSt6vectorIiSaIiEEEEbRKNS_17__normal_iteratorIT_T0_EESA_, symObjAddr: 0x1FF8, symBinAddr: 0x100002854, symSize: 0x44 }
  - { offset: 0x2E521, size: 0x8, addend: 0x0, symName: __ZNSt6vectorIiSaIiEE3endEv, symObjAddr: 0x1FD0, symBinAddr: 0x10000282C, symSize: 0x28 }
  - { offset: 0x2E54B, size: 0x8, addend: 0x0, symName: __ZNSt6vectorIiSaIiEE5beginEv, symObjAddr: 0x1FAC, symBinAddr: 0x100002808, symSize: 0x24 }
  - { offset: 0x2E5B9, size: 0x8, addend: 0x0, symName: __ZNSt7__cxx1112basic_stringIcSt11char_traitsIcESaIcEEC1IS3_EEmcRKS3_, symObjAddr: 0x1F38, symBinAddr: 0x100002794, symSize: 0x74 }
  - { offset: 0x2E5FA, size: 0x8, addend: 0x0, symName: __ZNSt6vectorIiSaIiEE9push_backERKi, symObjAddr: 0x1E70, symBinAddr: 0x1000026CC, symSize: 0xC8 }
  - { offset: 0x2E6A1, size: 0x8, addend: 0x0, symName: __ZNKSt17_Rb_tree_iteratorISt4pairIKiiEEdeEv, symObjAddr: 0x1E50, symBinAddr: 0x1000026AC, symSize: 0x20 }
  - { offset: 0x2E6CB, size: 0x8, addend: 0x0, symName: __ZNSt17_Rb_tree_iteratorISt4pairIKiiEEppEv, symObjAddr: 0x1E20, symBinAddr: 0x10000267C, symSize: 0x30 }
  - { offset: 0x2E6F8, size: 0x8, addend: 0x0, symName: __ZStneRKSt17_Rb_tree_iteratorISt4pairIKiiEES5_, symObjAddr: 0x1DF0, symBinAddr: 0x10000264C, symSize: 0x30 }
  - { offset: 0x2E737, size: 0x8, addend: 0x0, symName: __ZNSt3mapIiiSt4lessIiESaISt4pairIKiiEEE5beginEv, symObjAddr: 0x1DD4, symBinAddr: 0x100002630, symSize: 0x1C }
  - { offset: 0x2E785, size: 0x8, addend: 0x0, symName: __ZNSt12_Vector_baseIiSaIiEED2Ev, symObjAddr: 0x1D84, symBinAddr: 0x1000025E0, symSize: 0x50 }
  - { offset: 0x2E7C5, size: 0x8, addend: 0x0, symName: __ZNSt12_Vector_baseIiSaIiEE12_Vector_implC1Ev, symObjAddr: 0x1D4C, symBinAddr: 0x1000025A8, symSize: 0x38 }
  - { offset: 0x2E831, size: 0x8, addend: 0x0, symName: __ZNSt3mapIiiSt4lessIiESaISt4pairIKiiEEEixERS3_, symObjAddr: 0x1C60, symBinAddr: 0x1000024BC, symSize: 0xEC }
  - { offset: 0x2E879, size: 0x8, addend: 0x0, symName: __ZSteqRKSt17_Rb_tree_iteratorISt4pairIKiiEES5_, symObjAddr: 0x1C30, symBinAddr: 0x10000248C, symSize: 0x30 }
  - { offset: 0x2E8B8, size: 0x8, addend: 0x0, symName: __ZNSt3mapIiiSt4lessIiESaISt4pairIKiiEEE3endEv, symObjAddr: 0x1C14, symBinAddr: 0x100002470, symSize: 0x1C }
  - { offset: 0x2E8E2, size: 0x8, addend: 0x0, symName: __ZNSt3mapIiiSt4lessIiESaISt4pairIKiiEEE4findERS3_, symObjAddr: 0x1BF0, symBinAddr: 0x10000244C, symSize: 0x24 }
  - { offset: 0x2E91D, size: 0x8, addend: 0x0, symName: __ZNSt5queueISt4pairIP4NodeiESt5dequeIS3_SaIS3_EEE3popEv, symObjAddr: 0x1BD0, symBinAddr: 0x10000242C, symSize: 0x20 }
  - { offset: 0x2E947, size: 0x8, addend: 0x0, symName: __ZNSt5queueISt4pairIP4NodeiESt5dequeIS3_SaIS3_EEE5frontEv, symObjAddr: 0x1BB4, symBinAddr: 0x100002410, symSize: 0x1C }
  - { offset: 0x2E971, size: 0x8, addend: 0x0, symName: __ZNKSt5queueISt4pairIP4NodeiESt5dequeIS3_SaIS3_EEE5emptyEv, symObjAddr: 0x1B98, symBinAddr: 0x1000023F4, symSize: 0x1C }
  - { offset: 0x2E99B, size: 0x8, addend: 0x0, symName: __ZNSt5queueISt4pairIP4NodeiESt5dequeIS3_SaIS3_EEE4pushEOS3_, symObjAddr: 0x1B5C, symBinAddr: 0x1000023B8, symSize: 0x3C }
  - { offset: 0x2EA1E, size: 0x8, addend: 0x0, symName: __ZNSt4pairIP4NodeiEC1IRS1_iLb1EEEOT_OT0_, symObjAddr: 0x1B14, symBinAddr: 0x100002370, symSize: 0x48 }
  - { offset: 0x2EA8C, size: 0x8, addend: 0x0, symName: __ZNSt5dequeISt4pairIP4NodeiESaIS3_EED1Ev, symObjAddr: 0x1AAC, symBinAddr: 0x100002308, symSize: 0x68 }
  - { offset: 0x2EADB, size: 0x8, addend: 0x0, symName: __ZNSt5queueISt4pairIP4NodeiESt5dequeIS3_SaIS3_EEEC1IS6_vEEv, symObjAddr: 0x1A70, symBinAddr: 0x1000022CC, symSize: 0x3C }
  - { offset: 0x2EB29, size: 0x8, addend: 0x0, symName: __ZNSt5dequeISt4pairIP4NodeiESaIS3_EEC1Ev, symObjAddr: 0x1A50, symBinAddr: 0x1000022AC, symSize: 0x20 }
  - { offset: 0x2EB73, size: 0x8, addend: 0x0, symName: __ZNSt8_Rb_treeIiSt4pairIKiiESt10_Select1stIS2_ESt4lessIiESaIS2_EED1Ev, symObjAddr: 0x1A1C, symBinAddr: 0x100002278, symSize: 0x34 }
  - { offset: 0x2EBD3, size: 0x8, addend: 0x0, symName: __ZNSt8_Rb_treeIiSt4pairIKiiESt10_Select1stIS2_ESt4lessIiESaIS2_EE13_Rb_tree_implIS6_Lb1EEC1Ev, symObjAddr: 0x19D8, symBinAddr: 0x100002234, symSize: 0x44 }
  - { offset: 0x2EC40, size: 0x8, addend: 0x0, symName: __ZNSt13unordered_mapIP8ListNodeiSt4hashIS1_ESt8equal_toIS1_ESaISt4pairIKS1_iEEEixERS7_, symObjAddr: 0x19B4, symBinAddr: 0x100002210, symSize: 0x24 }
  - { offset: 0x2EC7B, size: 0x8, addend: 0x0, symName: __ZNKSt13unordered_mapIP8ListNodeiSt4hashIS1_ESt8equal_toIS1_ESaISt4pairIKS1_iEEE5countERS7_, symObjAddr: 0x1990, symBinAddr: 0x1000021EC, symSize: 0x24 }
  - { offset: 0x2ECDA, size: 0x8, addend: 0x0, symName: __ZNSt10_HashtableIP8ListNodeSt4pairIKS1_iESaIS4_ENSt8__detail10_Select1stESt8equal_toIS1_ESt4hashIS1_ENS6_18_Mod_range_hashingENS6_20_Default_ranged_hashENS6_20_Prime_rehash_policyENS6_17_Hashtable_traitsILb0ELb0ELb1EEEED1Ev, symObjAddr: 0x1960, symBinAddr: 0x1000021BC, symSize: 0x30 }
  - { offset: 0x2ED3A, size: 0x8, addend: 0x0, symName: __ZNSt8__detail21_Hashtable_ebo_helperILi0ESaINS_10_Hash_nodeISt4pairIKP8ListNodeiELb0EEEELb1EEC2Ev, symObjAddr: 0x1934, symBinAddr: 0x100002190, symSize: 0x2C }
  - { offset: 0x2EDC1, size: 0x8, addend: 0x0, symName: __ZNSt8__detail21_Hashtable_ebo_helperILi0ESt8equal_toIP8ListNodeELb1EEC2Ev, symObjAddr: 0x1920, symBinAddr: 0x10000217C, symSize: 0x14 }
  - { offset: 0x2EE01, size: 0x8, addend: 0x0, symName: __ZNSt8__detail21_Hashtable_ebo_helperILi1ESt4hashIP8ListNodeELb1EEC2Ev, symObjAddr: 0x190C, symBinAddr: 0x100002168, symSize: 0x14 }
  - { offset: 0x2EE27, size: 0x8, addend: 0x0, symName: __ZNSt5stackIcSt5dequeIcSaIcEEE3popEv, symObjAddr: 0x18EC, symBinAddr: 0x100002148, symSize: 0x20 }
  - { offset: 0x2EE51, size: 0x8, addend: 0x0, symName: __ZNSt5stackIcSt5dequeIcSaIcEEE3topEv, symObjAddr: 0x18D0, symBinAddr: 0x10000212C, symSize: 0x1C }
  - { offset: 0x2EE7B, size: 0x8, addend: 0x0, symName: __ZNKSt5stackIcSt5dequeIcSaIcEEE5emptyEv, symObjAddr: 0x18B4, symBinAddr: 0x100002110, symSize: 0x1C }
  - { offset: 0x2EEA5, size: 0x8, addend: 0x0, symName: __ZNSt5stackIcSt5dequeIcSaIcEEE4pushERKc, symObjAddr: 0x188C, symBinAddr: 0x1000020E8, symSize: 0x28 }
  - { offset: 0x2EF04, size: 0x8, addend: 0x0, symName: __ZNSt5dequeIcSaIcEED1Ev, symObjAddr: 0x1824, symBinAddr: 0x100002080, symSize: 0x68 }
  - { offset: 0x2EF53, size: 0x8, addend: 0x0, symName: __ZNSt5stackIcSt5dequeIcSaIcEEEC1IS2_vEEv, symObjAddr: 0x17E8, symBinAddr: 0x100002044, symSize: 0x3C }
  - { offset: 0x2EFA1, size: 0x8, addend: 0x0, symName: __ZNSt5dequeIcSaIcEEC1Ev, symObjAddr: 0x17C8, symBinAddr: 0x100002024, symSize: 0x20 }
  - { offset: 0x2EFC3, size: 0x8, addend: 0x0, symName: __ZSt4swapIiENSt9enable_ifIXsrSt6__and_IJSt6__not_ISt15__is_tuple_likeIT_EESt21is_move_constructibleIS4_ESt18is_move_assignableIS4_EEE5valueEvE4typeERS4_SE_, symObjAddr: 0x1774, symBinAddr: 0x100001FD0, symSize: 0x54 }
  - { offset: 0x2F01C, size: 0x8, addend: 0x0, symName: __ZSt4moveIRiEONSt16remove_referenceIT_E4typeEOS2_, symObjAddr: 0x1760, symBinAddr: 0x100001FBC, symSize: 0x14 }
  - { offset: 0x2F076, size: 0x8, addend: 0x0, symName: __ZNSt6vectorIiSaIiEED1Ev, symObjAddr: 0x1704, symBinAddr: 0x100001F60, symSize: 0x5C }
  - { offset: 0x2F116, size: 0x8, addend: 0x0, symName: __ZNSt6vectorIiSaIiEEC1EmRKiRKS0_, symObjAddr: 0x1694, symBinAddr: 0x100001EF0, symSize: 0x70 }
  - { offset: 0x2F189, size: 0x8, addend: 0x0, symName: __ZSt3minIiERKT_S2_S2_, symObjAddr: 0x165C, symBinAddr: 0x100001EB8, symSize: 0x38 }
  - { offset: 0x2F1CB, size: 0x8, addend: 0x0, symName: __ZSt3maxIiERKT_S2_S2_, symObjAddr: 0x1624, symBinAddr: 0x100001E80, symSize: 0x38 }
  - { offset: 0x2F213, size: 0x8, addend: 0x0, symName: __ZNKSt6vectorIiSaIiEE4sizeEv, symObjAddr: 0x15FC, symBinAddr: 0x100001E58, symSize: 0x28 }
  - { offset: 0x2F23D, size: 0x8, addend: 0x0, symName: __ZNSt6vectorIiSaIiEEixEm, symObjAddr: 0x15D4, symBinAddr: 0x100001E30, symSize: 0x28 }
  - { offset: 0x2F27B, size: 0x8, addend: 0x0, symName: __ZSt7forwardIiEOT_RNSt16remove_referenceIS0_E4typeE, symObjAddr: 0x15C0, symBinAddr: 0x100001E1C, symSize: 0x14 }
  - { offset: 0x2F2AD, size: 0x8, addend: 0x0, symName: __ZSt3maxImERKT_S2_S2_, symObjAddr: 0x1588, symBinAddr: 0x100001DE4, symSize: 0x38 }
  - { offset: 0x2F352, size: 0x8, addend: 0x0, symName: __ZNSt7__cxx1112basic_stringIcSt11char_traitsIcESaIcEE12_Alloc_hiderD1Ev, symObjAddr: 0x155C, symBinAddr: 0x100001DB8, symSize: 0x2C }
  - { offset: 0x2F39F, size: 0x8, addend: 0x0, symName: _main, symObjAddr: 0x1290, symBinAddr: 0x100001AEC, symSize: 0x2CC }
  - { offset: 0x2F540, size: 0x8, addend: 0x0, symName: __Z7topViewP4Node, symObjAddr: 0x1074, symBinAddr: 0x1000018D0, symSize: 0x21C }
  - { offset: 0x2F654, size: 0x8, addend: 0x0, symName: __ZNSt6vectorIiSaIiEEC1Ev, symObjAddr: 0x1054, symBinAddr: 0x1000018B0, symSize: 0x20 }
  - { offset: 0x2F694, size: 0x8, addend: 0x0, symName: __ZNSt12_Vector_baseIiSaIiEEC2Ev, symObjAddr: 0x1034, symBinAddr: 0x100001890, symSize: 0x20 }
  - { offset: 0x2F6E1, size: 0x8, addend: 0x0, symName: __ZNSt12_Vector_baseIiSaIiEE12_Vector_implD1Ev, symObjAddr: 0x1008, symBinAddr: 0x100001864, symSize: 0x2C }
  - { offset: 0x2F751, size: 0x8, addend: 0x0, symName: __ZNSt5queueISt4pairIP4NodeiESt5dequeIS3_SaIS3_EEED1Ev, symObjAddr: 0xFE8, symBinAddr: 0x100001844, symSize: 0x20 }
  - { offset: 0x2F79B, size: 0x8, addend: 0x0, symName: __ZNSt3mapIiiSt4lessIiESaISt4pairIKiiEEED1Ev, symObjAddr: 0xFC8, symBinAddr: 0x100001824, symSize: 0x20 }
  - { offset: 0x2F7DB, size: 0x8, addend: 0x0, symName: __ZNSt3mapIiiSt4lessIiESaISt4pairIKiiEEEC1Ev, symObjAddr: 0xFA8, symBinAddr: 0x100001804, symSize: 0x20 }
  - { offset: 0x2F81B, size: 0x8, addend: 0x0, symName: __ZNSt8_Rb_treeIiSt4pairIKiiESt10_Select1stIS2_ESt4lessIiESaIS2_EEC1Ev, symObjAddr: 0xF88, symBinAddr: 0x1000017E4, symSize: 0x20 }
  - { offset: 0x2F869, size: 0x8, addend: 0x0, symName: __ZNSt8_Rb_treeIiSt4pairIKiiESt10_Select1stIS2_ESt4lessIiESaIS2_EE13_Rb_tree_implIS6_Lb1EED1Ev, symObjAddr: 0xF5C, symBinAddr: 0x1000017B8, symSize: 0x2C }
  - { offset: 0x2F8BB, size: 0x8, addend: 0x0, symName: __Z10detectLoopP8ListNode, symObjAddr: 0xEE4, symBinAddr: 0x100001740, symSize: 0x78 }
  - { offset: 0x2F90E, size: 0x8, addend: 0x0, symName: __Z18removeLoopOptimizeP8ListNode, symObjAddr: 0xE24, symBinAddr: 0x100001680, symSize: 0xC0 }
  - { offset: 0x2F994, size: 0x8, addend: 0x0, symName: __Z10removeLoopP8ListNode, symObjAddr: 0xD60, symBinAddr: 0x1000015BC, symSize: 0xC4 }
  - { offset: 0x2FA1A, size: 0x8, addend: 0x0, symName: __ZNSt13unordered_mapIP8ListNodeiSt4hashIS1_ESt8equal_toIS1_ESaISt4pairIKS1_iEEED1Ev, symObjAddr: 0xD40, symBinAddr: 0x10000159C, symSize: 0x20 }
  - { offset: 0x2FA5A, size: 0x8, addend: 0x0, symName: __ZNSt13unordered_mapIP8ListNodeiSt4hashIS1_ESt8equal_toIS1_ESaISt4pairIKS1_iEEEC1Ev, symObjAddr: 0xD20, symBinAddr: 0x10000157C, symSize: 0x20 }
  - { offset: 0x2FA9A, size: 0x8, addend: 0x0, symName: __ZNSt10_HashtableIP8ListNodeSt4pairIKS1_iESaIS4_ENSt8__detail10_Select1stESt8equal_toIS1_ESt4hashIS1_ENS6_18_Mod_range_hashingENS6_20_Default_ranged_hashENS6_20_Prime_rehash_policyENS6_17_Hashtable_traitsILb0ELb0ELb1EEEEC1Ev, symObjAddr: 0xCB0, symBinAddr: 0x10000150C, symSize: 0x70 }
  - { offset: 0x2FAE8, size: 0x8, addend: 0x0, symName: __ZNSt8__detail16_Hashtable_allocISaINS_10_Hash_nodeISt4pairIKP8ListNodeiELb0EEEEED2Ev, symObjAddr: 0xC90, symBinAddr: 0x1000014EC, symSize: 0x20 }
  - { offset: 0x2FB28, size: 0x8, addend: 0x0, symName: __ZNSt8__detail16_Hashtable_allocISaINS_10_Hash_nodeISt4pairIKP8ListNodeiELb0EEEEEC2Ev, symObjAddr: 0xC70, symBinAddr: 0x1000014CC, symSize: 0x20 }
  - { offset: 0x2FB76, size: 0x8, addend: 0x0, symName: __ZNSt8__detail21_Hashtable_ebo_helperILi0ESaINS_10_Hash_nodeISt4pairIKP8ListNodeiELb0EEEELb1EED2Ev, symObjAddr: 0xC44, symBinAddr: 0x1000014A0, symSize: 0x2C }
  - { offset: 0x2FBDA, size: 0x8, addend: 0x0, symName: __ZNSt8__detail15_Hashtable_baseIP8ListNodeSt4pairIKS2_iENS_10_Select1stESt8equal_toIS2_ESt4hashIS2_ENS_18_Mod_range_hashingENS_20_Default_ranged_hashENS_17_Hashtable_traitsILb0ELb0ELb1EEEEC2Ev, symObjAddr: 0xC1C, symBinAddr: 0x100001478, symSize: 0x28 }
  - { offset: 0x2FC1A, size: 0x8, addend: 0x0, symName: __ZNSt8__detail15_Hash_code_baseIP8ListNodeSt4pairIKS2_iENS_10_Select1stESt4hashIS2_ENS_18_Mod_range_hashingENS_20_Default_ranged_hashELb0EEC2Ev, symObjAddr: 0xBFC, symBinAddr: 0x100001458, symSize: 0x20 }
  - { offset: 0x2FC47, size: 0x8, addend: 0x0, symName: __Z5isBSTP4Node, symObjAddr: 0xBD8, symBinAddr: 0x100001434, symSize: 0x24 }
  - { offset: 0x2FC7B, size: 0x8, addend: 0x0, symName: __Z5isBSTP4NodeS0_S0_, symObjAddr: 0xB08, symBinAddr: 0x100001364, symSize: 0xD0 }
  - { offset: 0x2FCCF, size: 0x8, addend: 0x0, symName: __Z21isParenthesisBalancedRNSt7__cxx1112basic_stringIcSt11char_traitsIcESaIcEEE, symObjAddr: 0x988, symBinAddr: 0x1000011E4, symSize: 0x180 }
  - { offset: 0x2FD92, size: 0x8, addend: 0x0, symName: __ZNSt5stackIcSt5dequeIcSaIcEEED1Ev, symObjAddr: 0x968, symBinAddr: 0x1000011C4, symSize: 0x20 }
  - { offset: 0x2FDBB, size: 0x8, addend: 0x0, symName: __Z7sort012RSt6vectorIiSaIiEE, symObjAddr: 0x814, symBinAddr: 0x100001070, symSize: 0x154 }
  - { offset: 0x2FE2F, size: 0x8, addend: 0x0, symName: __Z14minJumpsGreedyRSt6vectorIiSaIiEE, symObjAddr: 0x710, symBinAddr: 0x100000F6C, symSize: 0x104 }
  - { offset: 0x2FEC6, size: 0x8, addend: 0x0, symName: __Z18minJumpsTabulationRSt6vectorIiSaIiEE, symObjAddr: 0x538, symBinAddr: 0x100000D94, symSize: 0x1D8 }
  - { offset: 0x30019, size: 0x8, addend: 0x0, symName: __Z8minJumpsRSt6vectorIiSaIiEE, symObjAddr: 0x454, symBinAddr: 0x100000CB0, symSize: 0xE4 }
  - { offset: 0x300F1, size: 0x8, addend: 0x0, symName: __Z8minJumpsRSt6vectorIiSaIiEEiS2_, symObjAddr: 0x2F0, symBinAddr: 0x100000B4C, symSize: 0x164 }
  - { offset: 0x30188, size: 0x8, addend: 0x0, symName: __Z14maxSubarraySumRSt6vectorIiSaIiEE, symObjAddr: 0x214, symBinAddr: 0x100000A70, symSize: 0xDC }
  - { offset: 0x3021F, size: 0x8, addend: 0x0, symName: __ZN4NodeC1Ei, symObjAddr: 0x1E0, symBinAddr: 0x100000A3C, symSize: 0x34 }
  - { offset: 0x3024E, size: 0x8, addend: 0x0, symName: __ZNSt15_Rb_tree_header8_M_resetEv, symObjAddr: 0x1A4, symBinAddr: 0x100000A00, symSize: 0x3C }
  - { offset: 0x30292, size: 0x8, addend: 0x0, symName: __ZNSt15_Rb_tree_headerC2Ev, symObjAddr: 0x17C, symBinAddr: 0x1000009D8, symSize: 0x28 }
  - { offset: 0x302B4, size: 0x8, addend: 0x0, symName: __ZSt16__deque_buf_sizem, symObjAddr: 0x14C, symBinAddr: 0x1000009A8, symSize: 0x30 }
  - { offset: 0x302DD, size: 0x8, addend: 0x0, symName: __ZSt3minImERKT_S2_S2_, symObjAddr: 0x114, symBinAddr: 0x100000970, symSize: 0x38 }
  - { offset: 0x30323, size: 0x8, addend: 0x0, symName: __ZNSt8__detail20_Prime_rehash_policy8_M_resetEm, symObjAddr: 0xF0, symBinAddr: 0x10000094C, symSize: 0x24 }
  - { offset: 0x3035E, size: 0x8, addend: 0x0, symName: __ZNKSt8__detail20_Prime_rehash_policy8_M_stateEv, symObjAddr: 0xD8, symBinAddr: 0x100000934, symSize: 0x18 }
  - { offset: 0x303B0, size: 0x8, addend: 0x0, symName: __ZNSt8__detail20_Prime_rehash_policyC1Ef, symObjAddr: 0xAC, symBinAddr: 0x100000908, symSize: 0x2C }
  - { offset: 0x303DF, size: 0x8, addend: 0x0, symName: __ZNKSt8__detail18_Mod_range_hashingclEmm, symObjAddr: 0x7C, symBinAddr: 0x1000008D8, symSize: 0x30 }
  - { offset: 0x30445, size: 0x8, addend: 0x0, symName: __ZNSt8__detail15_Hash_node_baseC1Ev, symObjAddr: 0x60, symBinAddr: 0x1000008BC, symSize: 0x1C }
  - { offset: 0x3046F, size: 0x8, addend: 0x0, symName: __ZNSt8__detail15_Hash_node_baseC2Ev, symObjAddr: 0x44, symBinAddr: 0x1000008A0, symSize: 0x1C }
  - { offset: 0x30498, size: 0x8, addend: 0x0, symName: __ZdlPvS_, symObjAddr: 0x2C, symBinAddr: 0x100000888, symSize: 0x18 }
  - { offset: 0x304CE, size: 0x8, addend: 0x0, symName: __ZnwmPv, symObjAddr: 0x14, symBinAddr: 0x100000870, symSize: 0x18 }
  - { offset: 0x30500, size: 0x8, addend: 0x0, symName: __ZSt17__size_to_integerm, symObjAddr: 0x0, symBinAddr: 0x10000085C, symSize: 0x14 }
...
