---
triple:          'arm64-apple-darwin'
binary-path:     '/Users/lalitsiraswa/Documents/Daily-Practice/Arrays'
relocations:
  - { offset: 0x31299, size: 0x8, addend: 0x0, symName: __ZStL8__ioinit, symObjAddr: 0x140D42, symBinAddr: 0x100030000, symSize: 0x0 }
  - { offset: 0x32A64, size: 0x8, addend: 0x0, symName: __ZNSt10_Head_baseILm0EOxLb0EE7_M_headERS1_, symObjAddr: 0x18A90, symBinAddr: 0x10001AD1C, symSize: 0x18 }
  - { offset: 0x32A8D, size: 0x8, addend: 0x0, symName: __ZNSt10_Head_baseILm0EOiLb0EE7_M_headERS1_, symObjAddr: 0x18A78, symBinAddr: 0x10001AD04, symSize: 0x18 }
  - { offset: 0x32AB6, size: 0x8, addend: 0x0, symName: __ZNSt10_Head_baseILm0ERKxLb0EE7_M_headERS2_, symObjAddr: 0x18A60, symBinAddr: 0x10001ACEC, symSize: 0x18 }
  - { offset: 0x32ADF, size: 0x8, addend: 0x0, symName: __ZNSt11_Tuple_implILm0EJOxEE7_M_headERS1_, symObjAddr: 0x18A44, symBinAddr: 0x10001ACD0, symSize: 0x1C }
  - { offset: 0x32B09, size: 0x8, addend: 0x0, symName: __ZNSt11_Tuple_implILm0EJOiEE7_M_headERS1_, symObjAddr: 0x18A28, symBinAddr: 0x10001ACB4, symSize: 0x1C }
  - { offset: 0x32B33, size: 0x8, addend: 0x0, symName: __ZNSt11_Tuple_implILm0EJRKxEE7_M_headERS2_, symObjAddr: 0x18A0C, symBinAddr: 0x10001AC98, symSize: 0x1C }
  - { offset: 0x32B5D, size: 0x8, addend: 0x0, symName: __ZNSt10_Head_baseILm0ERKiLb0EE7_M_headERS2_, symObjAddr: 0x189F4, symBinAddr: 0x10001AC80, symSize: 0x18 }
  - { offset: 0x32B95, size: 0x8, addend: 0x0, symName: __ZNK9__gnu_cxx5__ops15_Iter_less_iterclIPKiS4_EEbT_T0_, symObjAddr: 0x189C0, symBinAddr: 0x10001AC4C, symSize: 0x34 }
  - { offset: 0x32BED, size: 0x8, addend: 0x0, symName: __ZNSt8__lc_raiISt26random_access_iterator_tagS0_E6__cnd2IPKiEEbT_S5_, symObjAddr: 0x189A8, symBinAddr: 0x10001AC34, symSize: 0x18 }
  - { offset: 0x32C21, size: 0x8, addend: 0x0, symName: __ZNSt8__lc_raiISt26random_access_iterator_tagS0_E10__newlast1IPKiS4_EET_S5_S5_T0_S6_, symObjAddr: 0x1893C, symBinAddr: 0x10001ABC8, symSize: 0x6C }
  - { offset: 0x32CB6, size: 0x8, addend: 0x0, symName: __ZNKSt23_Rb_tree_const_iteratorIiEdeEv, symObjAddr: 0x1891C, symBinAddr: 0x10001ABA8, symSize: 0x20 }
  - { offset: 0x32CDC, size: 0x8, addend: 0x0, symName: __ZSt12__get_helperILm0EOxJEERT0_RSt11_Tuple_implIXT_EJS1_DpT1_EE, symObjAddr: 0x18900, symBinAddr: 0x10001AB8C, symSize: 0x1C }
  - { offset: 0x32D1E, size: 0x8, addend: 0x0, symName: __ZSt12__get_helperILm0EOiJEERT0_RSt11_Tuple_implIXT_EJS1_DpT1_EE, symObjAddr: 0x188E4, symBinAddr: 0x10001AB70, symSize: 0x1C }
  - { offset: 0x32D60, size: 0x8, addend: 0x0, symName: __ZSt12__get_helperILm0ERKxJEERT0_RSt11_Tuple_implIXT_EJS2_DpT1_EE, symObjAddr: 0x188C8, symBinAddr: 0x10001AB54, symSize: 0x1C }
  - { offset: 0x32DA2, size: 0x8, addend: 0x0, symName: __ZNSt11_Tuple_implILm0EJRKiEE7_M_headERS2_, symObjAddr: 0x188AC, symBinAddr: 0x10001AB38, symSize: 0x1C }
  - { offset: 0x32DF9, size: 0x8, addend: 0x0, symName: __ZSt30__lexicographical_compare_implIPKiS1_N9__gnu_cxx5__ops15_Iter_less_iterEEbT_S5_T0_S6_T1_, symObjAddr: 0x1879C, symBinAddr: 0x10001AA28, symSize: 0x110 }
  - { offset: 0x32E82, size: 0x8, addend: 0x0, symName: __ZNSt11__copy_moveILb0ELb0ESt26bidirectional_iterator_tagE8__copy_mISt23_Rb_tree_const_iteratorIiEPiEET0_T_S7_S6_, symObjAddr: 0x18738, symBinAddr: 0x10001A9C4, symSize: 0x64 }
  - { offset: 0x32EE7, size: 0x8, addend: 0x0, symName: __ZSt7forwardIOxEOT_RNSt16remove_referenceIS1_E4typeE, symObjAddr: 0x18724, symBinAddr: 0x10001A9B0, symSize: 0x14 }
  - { offset: 0x32F19, size: 0x8, addend: 0x0, symName: __ZSt3getILm0EJOxEERNSt13tuple_elementIXT_ESt5tupleIJDpT0_EEE4typeERS5_, symObjAddr: 0x18708, symBinAddr: 0x10001A994, symSize: 0x1C }
  - { offset: 0x32F9E, size: 0x8, addend: 0x0, symName: __ZNSt15__new_allocatorINSt8__detail10_Hash_nodeIiLb0EEEE8allocateEmPKv, symObjAddr: 0x1868C, symBinAddr: 0x10001A918, symSize: 0x7C }
  - { offset: 0x3302D, size: 0x8, addend: 0x0, symName: __ZSt7forwardIOiEOT_RNSt16remove_referenceIS1_E4typeE, symObjAddr: 0x18678, symBinAddr: 0x10001A904, symSize: 0x14 }
  - { offset: 0x3305F, size: 0x8, addend: 0x0, symName: __ZSt3getILm0EJOiEERNSt13tuple_elementIXT_ESt5tupleIJDpT0_EEE4typeERS5_, symObjAddr: 0x1865C, symBinAddr: 0x10001A8E8, symSize: 0x1C }
  - { offset: 0x330A5, size: 0x8, addend: 0x0, symName: __ZSt7forwardIRKxEOT_RNSt16remove_referenceIS2_E4typeE, symObjAddr: 0x18648, symBinAddr: 0x10001A8D4, symSize: 0x14 }
  - { offset: 0x330D7, size: 0x8, addend: 0x0, symName: __ZSt3getILm0EJRKxEERNSt13tuple_elementIXT_ESt5tupleIJDpT0_EEE4typeERS6_, symObjAddr: 0x1862C, symBinAddr: 0x10001A8B8, symSize: 0x1C }
  - { offset: 0x33116, size: 0x8, addend: 0x0, symName: __ZNSt11__copy_moveILb1ELb0ESt26random_access_iterator_tagE12__assign_oneIiiEEvPT_PT0_, symObjAddr: 0x185FC, symBinAddr: 0x10001A888, symSize: 0x30 }
  - { offset: 0x33163, size: 0x8, addend: 0x0, symName: __ZSt12__get_helperILm0ERKiJEERT0_RSt11_Tuple_implIXT_EJS2_DpT1_EE, symObjAddr: 0x185E0, symBinAddr: 0x10001A86C, symSize: 0x1C }
  - { offset: 0x331A5, size: 0x8, addend: 0x0, symName: __ZNSt20__copy_move_backwardILb1ELb0ESt26random_access_iterator_tagE13__copy_move_bIPSt6vectorIiSaIiEES6_EET0_T_S8_S7_, symObjAddr: 0x18558, symBinAddr: 0x10001A7E4, symSize: 0x88 }
  - { offset: 0x33257, size: 0x8, addend: 0x0, symName: __ZNK9__gnu_cxx5__ops14_Iter_less_valclINS_17__normal_iteratorIPSt6vectorIiSaIiEES4_IS6_SaIS6_EEEES6_EEbT_RT0_, symObjAddr: 0x1852C, symBinAddr: 0x10001A7B8, symSize: 0x2C }
  - { offset: 0x332AF, size: 0x8, addend: 0x0, symName: __ZNSt25__lexicographical_compareILb0EE4__lcIPKiS3_EEbT_S4_T0_S5_, symObjAddr: 0x184E8, symBinAddr: 0x10001A774, symSize: 0x44 }
  - { offset: 0x3331E, size: 0x8, addend: 0x0, symName: __ZSt14__copy_move_a2ILb0ESt23_Rb_tree_const_iteratorIiEPiET1_T0_S4_S3_, symObjAddr: 0x184BC, symBinAddr: 0x10001A748, symSize: 0x2C }
  - { offset: 0x333F3, size: 0x8, addend: 0x0, symName: __ZNSt4pairIKxiEC1IJOxEJLm0EEJEJEEERSt5tupleIJDpT_EERS4_IJDpT1_EESt12_Index_tupleIJXspT0_EEESD_IJXspT2_EEE, symObjAddr: 0x18474, symBinAddr: 0x10001A700, symSize: 0x48 }
  - { offset: 0x33466, size: 0x8, addend: 0x0, symName: __ZNSt8__detail16_Hashtable_allocISaINS_10_Hash_nodeIiLb0EEEEE19_M_allocate_bucketsEm, symObjAddr: 0x183C4, symBinAddr: 0x10001A650, symSize: 0xB0 }
  - { offset: 0x335CD, size: 0x8, addend: 0x0, symName: __ZSt12__to_addressINSt8__detail10_Hash_nodeIiLb0EEEEPT_S4_, symObjAddr: 0x183B0, symBinAddr: 0x10001A63C, symSize: 0x14 }
  - { offset: 0x33690, size: 0x8, addend: 0x0, symName: __ZNSt4pairIKiiEC1IJOiEJLm0EEJEJEEERSt5tupleIJDpT_EERS4_IJDpT1_EESt12_Index_tupleIJXspT0_EEESD_IJXspT2_EEE, symObjAddr: 0x18368, symBinAddr: 0x10001A5F4, symSize: 0x48 }
  - { offset: 0x3376C, size: 0x8, addend: 0x0, symName: __ZNSt4pairIKxiEC1IJRS0_EJLm0EEJEJEEERSt5tupleIJDpT_EERS4_IJDpT1_EESt12_Index_tupleIJXspT0_EEESD_IJXspT2_EEE, symObjAddr: 0x18320, symBinAddr: 0x10001A5AC, symSize: 0x48 }
  - { offset: 0x337DB, size: 0x8, addend: 0x0, symName: __ZSt9__fill_a1IPiiEN9__gnu_cxx11__enable_ifIXsrSt11__is_scalarIT0_E7__valueEvE6__typeET_S8_RKS4_, symObjAddr: 0x182C8, symBinAddr: 0x10001A554, symSize: 0x58 }
  - { offset: 0x3384A, size: 0x8, addend: 0x0, symName: __ZNSt20__copy_move_backwardILb1ELb1ESt26random_access_iterator_tagE13__copy_move_bIiiEEPT0_PT_S6_S4_, symObjAddr: 0x1821C, symBinAddr: 0x10001A4A8, symSize: 0xAC }
  - { offset: 0x338BD, size: 0x8, addend: 0x0, symName: __ZNK9__gnu_cxx5__ops14_Iter_less_valclINS_17__normal_iteratorIPiSt6vectorIiSaIiEEEEiEEbT_RT0_, symObjAddr: 0x181E0, symBinAddr: 0x10001A46C, symSize: 0x3C }
  - { offset: 0x33915, size: 0x8, addend: 0x0, symName: __ZSt3getILm0EJRKiEERNSt13tuple_elementIXT_ESt5tupleIJDpT0_EEE4typeERS6_, symObjAddr: 0x181C4, symBinAddr: 0x10001A450, symSize: 0x1C }
  - { offset: 0x33980, size: 0x8, addend: 0x0, symName: __ZSt23__copy_move_backward_a2ILb1EPSt6vectorIiSaIiEES3_ET1_T0_S5_S4_, symObjAddr: 0x18198, symBinAddr: 0x10001A424, symSize: 0x2C }
  - { offset: 0x339EC, size: 0x8, addend: 0x0, symName: __ZNSt6vectorIiSaIiEE4swapERS1_, symObjAddr: 0x180E4, symBinAddr: 0x10001A370, symSize: 0xB4 }
  - { offset: 0x33ACA, size: 0x8, addend: 0x0, symName: __ZSt11__push_heapIN9__gnu_cxx17__normal_iteratorIPSt6vectorIiSaIiEES2_IS4_SaIS4_EEEElS4_NS0_5__ops14_Iter_less_valEEvT_T0_SC_T1_RT2_, symObjAddr: 0x17FBC, symBinAddr: 0x10001A248, symSize: 0x128 }
  - { offset: 0x33BAF, size: 0x8, addend: 0x0, symName: __ZNSt15__new_allocatorISt13_Rb_tree_nodeISt6vectorIiSaIiEEEE8allocateEmPKv, symObjAddr: 0x17F24, symBinAddr: 0x10001A1B0, symSize: 0x98 }
  - { offset: 0x33C37, size: 0x8, addend: 0x0, symName: __ZSt30__lexicographical_compare_aux1IPKiS1_EbT_S2_T0_S3_, symObjAddr: 0x17EEC, symBinAddr: 0x10001A178, symSize: 0x38 }
  - { offset: 0x33CB7, size: 0x8, addend: 0x0, symName: __ZSt14__copy_move_a1ILb0ESt23_Rb_tree_const_iteratorIiEPiET1_T0_S4_S3_, symObjAddr: 0x17EC0, symBinAddr: 0x10001A14C, symSize: 0x2C }
  - { offset: 0x33D1F, size: 0x8, addend: 0x0, symName: __ZSt12__niter_baseISt23_Rb_tree_const_iteratorIiEET_S2_, symObjAddr: 0x17EAC, symBinAddr: 0x10001A138, symSize: 0x14 }
  - { offset: 0x33D98, size: 0x8, addend: 0x0, symName: __ZNSt15__new_allocatorISt13_Rb_tree_nodeIiEE8allocateEmPKv, symObjAddr: 0x17E1C, symBinAddr: 0x10001A0A8, symSize: 0x90 }
  - { offset: 0x33E6F, size: 0x8, addend: 0x0, symName: __ZNSt4pairIKxiEC1IJOxEJEEESt21piecewise_construct_tSt5tupleIJDpT_EES5_IJDpT0_EE, symObjAddr: 0x17DE0, symBinAddr: 0x10001A06C, symSize: 0x3C }
  - { offset: 0x33EE9, size: 0x8, addend: 0x0, symName: __ZNSt11_Tuple_implILm0EJOxEEC2EOS1_, symObjAddr: 0x17DB8, symBinAddr: 0x10001A044, symSize: 0x28 }
  - { offset: 0x33F18, size: 0x8, addend: 0x0, symName: __ZNSt10_HashtableIiiSaIiENSt8__detail9_IdentityESt8equal_toIiESt4hashIiENS1_18_Mod_range_hashingENS1_20_Default_ranged_hashENS1_20_Prime_rehash_policyENS1_17_Hashtable_traitsILb0ELb1ELb1EEEE19_M_allocate_bucketsEm, symObjAddr: 0x17D60, symBinAddr: 0x100019FEC, symSize: 0x58 }
  - { offset: 0x33F53, size: 0x8, addend: 0x0, symName: __ZNSt8__detail16_Hashtable_allocISaINS_10_Hash_nodeIiLb0EEEEE16_M_allocate_nodeIJRKiEEEPS2_DpOT_, symObjAddr: 0x17C64, symBinAddr: 0x100019EF0, symSize: 0xFC }
  - { offset: 0x340AC, size: 0x8, addend: 0x0, symName: __ZNSt8__detail10_Hash_nodeIiLb0EEC1Ev, symObjAddr: 0x17C44, symBinAddr: 0x100019ED0, symSize: 0x20 }
  - { offset: 0x340D2, size: 0x8, addend: 0x0, symName: __ZNKSt8__detail15_Hashtable_baseIiiNS_9_IdentityESt8equal_toIiESt4hashIiENS_18_Mod_range_hashingENS_20_Default_ranged_hashENS_17_Hashtable_traitsILb0ELb1ELb1EEEE12_M_equals_trIiEEbRKT_mRKNS_16_Hash_node_valueIiLb0EEE, symObjAddr: 0x17BE4, symBinAddr: 0x100019E70, symSize: 0x60 }
  - { offset: 0x34134, size: 0x8, addend: 0x0, symName: __ZSt11__addressofINSt8__detail10_Hash_nodeIiLb0EEEEPT_RS3_, symObjAddr: 0x17BD0, symBinAddr: 0x100019E5C, symSize: 0x14 }
  - { offset: 0x341B5, size: 0x8, addend: 0x0, symName: __ZNSt4pairIKiiEC1IJOiEJEEESt21piecewise_construct_tSt5tupleIJDpT_EES5_IJDpT0_EE, symObjAddr: 0x17B94, symBinAddr: 0x100019E20, symSize: 0x3C }
  - { offset: 0x3422F, size: 0x8, addend: 0x0, symName: __ZNSt11_Tuple_implILm0EJOiEEC2EOS1_, symObjAddr: 0x17B6C, symBinAddr: 0x100019DF8, symSize: 0x28 }
  - { offset: 0x342A9, size: 0x8, addend: 0x0, symName: __ZNSt4pairIKxiEC1IJRS0_EJEEESt21piecewise_construct_tSt5tupleIJDpT_EES5_IJDpT0_EE, symObjAddr: 0x17B30, symBinAddr: 0x100019DBC, symSize: 0x3C }
  - { offset: 0x34323, size: 0x8, addend: 0x0, symName: __ZNSt11_Tuple_implILm0EJRKxEEC2EOS2_, symObjAddr: 0x17B08, symBinAddr: 0x100019D94, symSize: 0x28 }
  - { offset: 0x3434E, size: 0x8, addend: 0x0, symName: __ZSt8__fill_aIPiiEvT_S1_RKT0_, symObjAddr: 0x17AD8, symBinAddr: 0x100019D64, symSize: 0x30 }
  - { offset: 0x343AC, size: 0x8, addend: 0x0, symName: __ZSt23__copy_move_backward_a2ILb1EPiS0_ET1_T0_S2_S1_, symObjAddr: 0x17AAC, symBinAddr: 0x100019D38, symSize: 0x2C }
  - { offset: 0x34414, size: 0x8, addend: 0x0, symName: __ZSt11__push_heapIN9__gnu_cxx17__normal_iteratorIPiSt6vectorIiSaIiEEEEliNS0_5__ops14_Iter_less_valEEvT_T0_SA_T1_RT2_, symObjAddr: 0x17988, symBinAddr: 0x100019C14, symSize: 0x124 }
  - { offset: 0x344C0, size: 0x8, addend: 0x0, symName: __ZSt4moveIRN9__gnu_cxx5__ops15_Iter_less_iterEEONSt16remove_referenceIT_E4typeEOS5_, symObjAddr: 0x17974, symBinAddr: 0x100019C00, symSize: 0x14 }
  - { offset: 0x344F6, size: 0x8, addend: 0x0, symName: __ZNSt15__new_allocatorIPNSt8__detail15_Hash_node_baseEE8allocateEmPKv, symObjAddr: 0x178F8, symBinAddr: 0x100019B84, symSize: 0x7C }
  - { offset: 0x345EB, size: 0x8, addend: 0x0, symName: __ZNSt4pairIKiiEC1IJRS0_EJLm0EEJEJEEERSt5tupleIJDpT_EERS4_IJDpT1_EESt12_Index_tupleIJXspT0_EEESD_IJXspT2_EEE, symObjAddr: 0x178B0, symBinAddr: 0x100019B3C, symSize: 0x48 }
  - { offset: 0x3465A, size: 0x8, addend: 0x0, symName: __ZSt11__addressofINSt8__detail10_Hash_nodeISt4pairIKiiELb0EEEEPT_RS6_, symObjAddr: 0x1789C, symBinAddr: 0x100019B28, symSize: 0x14 }
  - { offset: 0x3468C, size: 0x8, addend: 0x0, symName: __ZSt12__niter_baseIPKiET_S2_, symObjAddr: 0x17888, symBinAddr: 0x100019B14, symSize: 0x14 }
  - { offset: 0x346BF, size: 0x8, addend: 0x0, symName: __ZNSt11__copy_moveILb0ELb0ESt26random_access_iterator_tagE12__assign_oneIiiEEvPT_PT0_, symObjAddr: 0x17860, symBinAddr: 0x100019AEC, symSize: 0x28 }
  - { offset: 0x3470C, size: 0x8, addend: 0x0, symName: __ZNSt11__copy_moveILb0ELb0ESt26random_access_iterator_tagE12__assign_oneIiKiEEvPT_PT0_, symObjAddr: 0x17838, symBinAddr: 0x100019AC4, symSize: 0x28 }
  - { offset: 0x34786, size: 0x8, addend: 0x0, symName: __ZSt12__niter_wrapIN9__gnu_cxx17__normal_iteratorIPSt6vectorIiSaIiEES2_IS4_SaIS4_EEEES5_ET_S9_T0_, symObjAddr: 0x177E4, symBinAddr: 0x100019A70, symSize: 0x54 }
  - { offset: 0x347D3, size: 0x8, addend: 0x0, symName: __ZSt23__copy_move_backward_a1ILb1EPSt6vectorIiSaIiEES3_ET1_T0_S5_S4_, symObjAddr: 0x177B8, symBinAddr: 0x100019A44, symSize: 0x2C }
  - { offset: 0x3483B, size: 0x8, addend: 0x0, symName: __ZSt12__niter_baseIPSt6vectorIiSaIiEES0_IS2_SaIS2_EEET_N9__gnu_cxx17__normal_iteratorIS6_T0_EE, symObjAddr: 0x17798, symBinAddr: 0x100019A24, symSize: 0x20 }
  - { offset: 0x34877, size: 0x8, addend: 0x0, symName: __ZSt4swapIiSaIiEEvRSt6vectorIT_T0_ES5_, symObjAddr: 0x17770, symBinAddr: 0x1000199FC, symSize: 0x28 }
  - { offset: 0x348C4, size: 0x8, addend: 0x0, symName: __ZSt13__adjust_heapIN9__gnu_cxx17__normal_iteratorIPSt6vectorIiSaIiEES2_IS4_SaIS4_EEEElS4_NS0_5__ops15_Iter_less_iterEEvT_T0_SC_T1_T2_, symObjAddr: 0x1756C, symBinAddr: 0x1000197F8, symSize: 0x204 }
  - { offset: 0x3498C, size: 0x8, addend: 0x0, symName: __ZNKSt23_Rb_tree_const_iteratorISt6vectorIiSaIiEEEdeEv, symObjAddr: 0x1754C, symBinAddr: 0x1000197D8, symSize: 0x20 }
  - { offset: 0x34A1A, size: 0x8, addend: 0x0, symName: __ZSt29__lexicographical_compare_auxIN9__gnu_cxx17__normal_iteratorIPKiSt6vectorIiSaIiEEEES7_EbT_S8_T0_S9_, symObjAddr: 0x174DC, symBinAddr: 0x100019768, symSize: 0x70 }
  - { offset: 0x34A91, size: 0x8, addend: 0x0, symName: __ZNK9__gnu_cxx16__aligned_membufISt6vectorIiSaIiEEE7_M_addrEv, symObjAddr: 0x174C8, symBinAddr: 0x100019754, symSize: 0x14 }
  - { offset: 0x34ABF, size: 0x8, addend: 0x0, symName: __ZN9__gnu_cxx16__aligned_membufISt6vectorIiSaIiEEE7_M_addrEv, symObjAddr: 0x174B4, symBinAddr: 0x100019740, symSize: 0x14 }
  - { offset: 0x34AE5, size: 0x8, addend: 0x0, symName: __ZSt10_ConstructISt6vectorIiSaIiEEJRKS2_EEvPT_DpOT0_, symObjAddr: 0x17438, symBinAddr: 0x1000196C4, symSize: 0x7C }
  - { offset: 0x34B31, size: 0x8, addend: 0x0, symName: __ZSt13__copy_move_aILb0ESt23_Rb_tree_const_iteratorIiEPiET1_T0_S4_S3_, symObjAddr: 0x173D8, symBinAddr: 0x100019664, symSize: 0x60 }
  - { offset: 0x34B99, size: 0x8, addend: 0x0, symName: __ZSt12__miter_baseISt23_Rb_tree_const_iteratorIiEET_S2_, symObjAddr: 0x173C4, symBinAddr: 0x100019650, symSize: 0x14 }
  - { offset: 0x34C3C, size: 0x8, addend: 0x0, symName: __ZNK9__gnu_cxx16__aligned_membufIiE7_M_addrEv, symObjAddr: 0x173B0, symBinAddr: 0x10001963C, symSize: 0x14 }
  - { offset: 0x34C6A, size: 0x8, addend: 0x0, symName: __ZN9__gnu_cxx16__aligned_membufIiE7_M_addrEv, symObjAddr: 0x1739C, symBinAddr: 0x100019628, symSize: 0x14 }
  - { offset: 0x34D17, size: 0x8, addend: 0x0, symName: __ZNSt5tupleIJOxEEC1EOS1_, symObjAddr: 0x17374, symBinAddr: 0x100019600, symSize: 0x28 }
  - { offset: 0x34D4A, size: 0x8, addend: 0x0, symName: __ZNK9__gnu_cxx16__aligned_bufferISt4pairIKiiEE7_M_addrEv, symObjAddr: 0x17360, symBinAddr: 0x1000195EC, symSize: 0x14 }
  - { offset: 0x34D78, size: 0x8, addend: 0x0, symName: __ZNK9__gnu_cxx16__aligned_bufferIiE7_M_addrEv, symObjAddr: 0x1734C, symBinAddr: 0x1000195D8, symSize: 0x14 }
  - { offset: 0x34DA5, size: 0x8, addend: 0x0, symName: __ZSt7forwardIRNSt8__detail14_Node_iteratorIiLb1ELb0EEEEOT_RNSt16remove_referenceIS4_E4typeE, symObjAddr: 0x17338, symBinAddr: 0x1000195C4, symSize: 0x14 }
  - { offset: 0x34DDB, size: 0x8, addend: 0x0, symName: __ZNSt10_HashtableIiiSaIiENSt8__detail9_IdentityESt8equal_toIiESt4hashIiENS1_18_Mod_range_hashingENS1_20_Default_ranged_hashENS1_20_Prime_rehash_policyENS1_17_Hashtable_traitsILb0ELb1ELb1EEEE22_M_insert_bucket_beginEmPNS1_10_Hash_nodeIiLb0EEE, symObjAddr: 0x1722C, symBinAddr: 0x1000194B8, symSize: 0x10C }
  - { offset: 0x34E27, size: 0x8, addend: 0x0, symName: __ZNKSt8__detail15_Hash_code_baseIiiNS_9_IdentityESt4hashIiENS_18_Mod_range_hashingENS_20_Default_ranged_hashELb0EE13_M_store_codeERNS_21_Hash_node_code_cacheILb0EEEm, symObjAddr: 0x17210, symBinAddr: 0x10001949C, symSize: 0x1C }
  - { offset: 0x34E63, size: 0x8, addend: 0x0, symName: __ZNSt10_HashtableIiiSaIiENSt8__detail9_IdentityESt8equal_toIiESt4hashIiENS1_18_Mod_range_hashingENS1_20_Default_ranged_hashENS1_20_Prime_rehash_policyENS1_17_Hashtable_traitsILb0ELb1ELb1EEEE9_M_rehashEmSt17integral_constantIbLb1EE, symObjAddr: 0x170A4, symBinAddr: 0x100019330, symSize: 0x16C }
  - { offset: 0x34F1B, size: 0x8, addend: 0x0, symName: __ZNKSt8__detail10_AllocNodeISaINS_10_Hash_nodeIiLb0EEEEEclIJRKiEEEPS2_DpOT_, symObjAddr: 0x17068, symBinAddr: 0x1000192F4, symSize: 0x3C }
  - { offset: 0x34F5F, size: 0x8, addend: 0x0, symName: __ZNKSt10_HashtableIiiSaIiENSt8__detail9_IdentityESt8equal_toIiESt4hashIiENS1_18_Mod_range_hashingENS1_20_Default_ranged_hashENS1_20_Prime_rehash_policyENS1_17_Hashtable_traitsILb0ELb1ELb1EEEE22_M_find_before_node_trIiEEPNS1_15_Hash_node_baseEmRKT_m, symObjAddr: 0x16F6C, symBinAddr: 0x1000191F8, symSize: 0xFC }
  - { offset: 0x34FFD, size: 0x8, addend: 0x0, symName: __ZSt7forwardINSt8__detail14_Node_iteratorIiLb1ELb0EEEEOT_RNSt16remove_referenceIS3_E4typeE, symObjAddr: 0x16F58, symBinAddr: 0x1000191E4, symSize: 0x14 }
  - { offset: 0x35033, size: 0x8, addend: 0x0, symName: __ZNSt15__new_allocatorINSt8__detail10_Hash_nodeIiLb0EEEE10deallocateEPS2_m, symObjAddr: 0x16F28, symBinAddr: 0x1000191B4, symSize: 0x30 }
  - { offset: 0x35079, size: 0x8, addend: 0x0, symName: __ZSt9addressofINSt8__detail10_Hash_nodeIiLb0EEEEPT_RS3_, symObjAddr: 0x16F0C, symBinAddr: 0x100019198, symSize: 0x1C }
  - { offset: 0x35124, size: 0x8, addend: 0x0, symName: __ZNSt5tupleIJOiEEC1EOS1_, symObjAddr: 0x16EE4, symBinAddr: 0x100019170, symSize: 0x28 }
  - { offset: 0x351A9, size: 0x8, addend: 0x0, symName: __ZNSt15__new_allocatorISt13_Rb_tree_nodeISt4pairIKiiEEE8allocateEmPKv, symObjAddr: 0x16E54, symBinAddr: 0x1000190E0, symSize: 0x90 }
  - { offset: 0x35239, size: 0x8, addend: 0x0, symName: __ZNK9__gnu_cxx16__aligned_membufISt4pairIKiiEE7_M_addrEv, symObjAddr: 0x16E40, symBinAddr: 0x1000190CC, symSize: 0x14 }
  - { offset: 0x352D8, size: 0x8, addend: 0x0, symName: __ZNSt5tupleIJRKxEEC1EOS2_, symObjAddr: 0x16E18, symBinAddr: 0x1000190A4, symSize: 0x28 }
  - { offset: 0x35307, size: 0x8, addend: 0x0, symName: __ZNSt15__new_allocatorISt13_Rb_tree_nodeISt4pairIKxiEEE8allocateEmPKv, symObjAddr: 0x16D88, symBinAddr: 0x100019014, symSize: 0x90 }
  - { offset: 0x35397, size: 0x8, addend: 0x0, symName: __ZNK9__gnu_cxx16__aligned_membufISt4pairIKxiEE7_M_addrEv, symObjAddr: 0x16D74, symBinAddr: 0x100019000, symSize: 0x14 }
  - { offset: 0x353BD, size: 0x8, addend: 0x0, symName: __ZSt10__fill_n_aIPimiET_S1_T0_RKT1_St26random_access_iterator_tag, symObjAddr: 0x16D10, symBinAddr: 0x100018F9C, symSize: 0x64 }
  - { offset: 0x35443, size: 0x8, addend: 0x0, symName: __ZSt23__copy_move_backward_a1ILb1EPiS0_ET1_T0_S2_S1_, symObjAddr: 0x16CE4, symBinAddr: 0x100018F70, symSize: 0x2C }
  - { offset: 0x354AB, size: 0x8, addend: 0x0, symName: __ZSt13__adjust_heapIN9__gnu_cxx17__normal_iteratorIPiSt6vectorIiSaIiEEEEliNS0_5__ops15_Iter_less_iterEEvT_T0_SA_T1_T2_, symObjAddr: 0x16B10, symBinAddr: 0x100018D9C, symSize: 0x1D4 }
  - { offset: 0x3556D, size: 0x8, addend: 0x0, symName: __ZSt12__to_addressIPNSt8__detail15_Hash_node_baseEEPT_S4_, symObjAddr: 0x16AFC, symBinAddr: 0x100018D88, symSize: 0x14 }
  - { offset: 0x35612, size: 0x8, addend: 0x0, symName: __ZNSt4pairIKiiEC1IJRS0_EJEEESt21piecewise_construct_tSt5tupleIJDpT_EES5_IJDpT0_EE, symObjAddr: 0x16AC0, symBinAddr: 0x100018D4C, symSize: 0x3C }
  - { offset: 0x3568C, size: 0x8, addend: 0x0, symName: __ZNSt11_Tuple_implILm0EJRKiEEC2EOS2_, symObjAddr: 0x16A98, symBinAddr: 0x100018D24, symSize: 0x28 }
  - { offset: 0x356B7, size: 0x8, addend: 0x0, symName: __ZSt11__addressofIPNSt8__detail15_Hash_node_baseEEPT_RS3_, symObjAddr: 0x16A84, symBinAddr: 0x100018D10, symSize: 0x14 }
  - { offset: 0x356E9, size: 0x8, addend: 0x0, symName: __ZSt9addressofINSt8__detail10_Hash_nodeISt4pairIKiiELb0EEEEPT_RS6_, symObjAddr: 0x16A68, symBinAddr: 0x100018CF4, symSize: 0x1C }
  - { offset: 0x3571B, size: 0x8, addend: 0x0, symName: __ZSt13__copy_move_aILb0EPKiPiET1_T0_S4_S3_, symObjAddr: 0x16A08, symBinAddr: 0x100018C94, symSize: 0x60 }
  - { offset: 0x35783, size: 0x8, addend: 0x0, symName: __ZSt12__miter_baseIPKiET_S2_, symObjAddr: 0x169F4, symBinAddr: 0x100018C80, symSize: 0x14 }
  - { offset: 0x357B6, size: 0x8, addend: 0x0, symName: __ZNSt11__copy_moveILb0ELb1ESt26random_access_iterator_tagE8__copy_mIiiEEPT0_PT_S6_S4_, symObjAddr: 0x16964, symBinAddr: 0x100018BF0, symSize: 0x90 }
  - { offset: 0x35825, size: 0x8, addend: 0x0, symName: __ZNSt11__copy_moveILb0ELb1ESt26random_access_iterator_tagE8__copy_mIKiiEEPT0_PT_S7_S5_, symObjAddr: 0x168D4, symBinAddr: 0x100018B60, symSize: 0x90 }
  - { offset: 0x35894, size: 0x8, addend: 0x0, symName: __ZSt19__relocate_object_aISt6vectorIiSaIiEES2_SaIS2_EEvPT_PT0_RT1_, symObjAddr: 0x16804, symBinAddr: 0x100018A90, symSize: 0xD0 }
  - { offset: 0x359C6, size: 0x8, addend: 0x0, symName: __ZSt13__copy_move_aILb0EN9__gnu_cxx17__normal_iteratorIPKiSt6vectorIiSaIiEEEEPiET1_T0_SA_S9_, symObjAddr: 0x167A4, symBinAddr: 0x100018A30, symSize: 0x60 }
  - { offset: 0x35A3D, size: 0x8, addend: 0x0, symName: __ZNK9__gnu_cxx5__ops14_Val_less_iterclISt6vectorIiSaIiEENS_17__normal_iteratorIPS5_S3_IS5_SaIS5_EEEEEEbRT_T0_, symObjAddr: 0x16774, symBinAddr: 0x100018A00, symSize: 0x30 }
  - { offset: 0x35A95, size: 0x8, addend: 0x0, symName: __ZSt22__copy_move_backward_aILb1EN9__gnu_cxx17__normal_iteratorIPSt6vectorIiSaIiEES2_IS4_SaIS4_EEEES8_ET1_T0_SA_S9_, symObjAddr: 0x16714, symBinAddr: 0x1000189A0, symSize: 0x60 }
  - { offset: 0x35AFD, size: 0x8, addend: 0x0, symName: __ZSt12__miter_baseIN9__gnu_cxx17__normal_iteratorIPSt6vectorIiSaIiEES2_IS4_SaIS4_EEEEET_S9_, symObjAddr: 0x16700, symBinAddr: 0x10001898C, symSize: 0x14 }
  - { offset: 0x35B30, size: 0x8, addend: 0x0, symName: __ZSt9iter_swapIN9__gnu_cxx17__normal_iteratorIPSt6vectorIiSaIiEES2_IS4_SaIS4_EEEES8_EvT_T0_, symObjAddr: 0x166BC, symBinAddr: 0x100018948, symSize: 0x44 }
  - { offset: 0x35B7F, size: 0x8, addend: 0x0, symName: __ZN9__gnu_cxx17__normal_iteratorIPSt6vectorIiSaIiEES1_IS3_SaIS3_EEEmmEv, symObjAddr: 0x16694, symBinAddr: 0x100018920, symSize: 0x28 }
  - { offset: 0x35BA5, size: 0x8, addend: 0x0, symName: __ZSt10__pop_heapIN9__gnu_cxx17__normal_iteratorIPSt6vectorIiSaIiEES2_IS4_SaIS4_EEEENS0_5__ops15_Iter_less_iterEEvT_SB_SB_RT0_, symObjAddr: 0x165C4, symBinAddr: 0x100018850, symSize: 0xD0 }
  - { offset: 0x35C44, size: 0x8, addend: 0x0, symName: __ZN9__gnu_cxxltIPSt6vectorIiSaIiEES1_IS3_SaIS3_EEEEbRKNS_17__normal_iteratorIT_T0_EESC_, symObjAddr: 0x16580, symBinAddr: 0x10001880C, symSize: 0x44 }
  - { offset: 0x35C91, size: 0x8, addend: 0x0, symName: __ZSt11__make_heapIN9__gnu_cxx17__normal_iteratorIPSt6vectorIiSaIiEES2_IS4_SaIS4_EEEENS0_5__ops15_Iter_less_iterEEvT_SB_RT0_, symObjAddr: 0x16450, symBinAddr: 0x1000186DC, symSize: 0x130 }
  - { offset: 0x35D4C, size: 0x8, addend: 0x0, symName: __ZSt16__do_uninit_copyISt23_Rb_tree_const_iteratorISt6vectorIiSaIiEEEPS3_ET0_T_S7_S6_, symObjAddr: 0x163A8, symBinAddr: 0x100018634, symSize: 0xA8 }
  - { offset: 0x35DBB, size: 0x8, addend: 0x0, symName: __ZNSt8_Rb_treeISt6vectorIiSaIiEES2_St9_IdentityIS2_ESt4lessIS2_ESaIS2_EE17_M_construct_nodeIJS2_EEEvPSt13_Rb_tree_nodeIS2_EDpOT_, symObjAddr: 0x162F4, symBinAddr: 0x100018580, symSize: 0xB4 }
  - { offset: 0x35E7E, size: 0x8, addend: 0x0, symName: __ZNSt8_Rb_treeISt6vectorIiSaIiEES2_St9_IdentityIS2_ESt4lessIS2_ESaIS2_EE11_M_get_nodeEv, symObjAddr: 0x162B8, symBinAddr: 0x100018544, symSize: 0x3C }
  - { offset: 0x35ED1, size: 0x8, addend: 0x0, symName: __ZSt23lexicographical_compareIN9__gnu_cxx17__normal_iteratorIPKiSt6vectorIiSaIiEEEES7_EbT_S8_T0_S9_, symObjAddr: 0x16284, symBinAddr: 0x100018510, symSize: 0x34 }
  - { offset: 0x35F44, size: 0x8, addend: 0x0, symName: __ZNK9__gnu_cxx16__aligned_membufISt6vectorIiSaIiEEE6_M_ptrEv, symObjAddr: 0x16268, symBinAddr: 0x1000184F4, symSize: 0x1C }
  - { offset: 0x35F6E, size: 0x8, addend: 0x0, symName: __ZNSt15__new_allocatorISt13_Rb_tree_nodeISt6vectorIiSaIiEEEE10deallocateEPS4_m, symObjAddr: 0x1622C, symBinAddr: 0x1000184B8, symSize: 0x3C }
  - { offset: 0x35FE4, size: 0x8, addend: 0x0, symName: __ZN9__gnu_cxx16__aligned_membufISt6vectorIiSaIiEEE6_M_ptrEv, symObjAddr: 0x16210, symBinAddr: 0x10001849C, symSize: 0x1C }
  - { offset: 0x3600A, size: 0x8, addend: 0x0, symName: __ZSt16__do_uninit_copyIPKSt6vectorIiSaIiEEPS2_ET0_T_S7_S6_, symObjAddr: 0x1617C, symBinAddr: 0x100018408, symSize: 0x94 }
  - { offset: 0x3608B, size: 0x8, addend: 0x0, symName: __ZSt4copyISt23_Rb_tree_const_iteratorIiEPiET0_T_S4_S3_, symObjAddr: 0x16134, symBinAddr: 0x1000183C0, symSize: 0x48 }
  - { offset: 0x360ED, size: 0x8, addend: 0x0, symName: __ZNSt8_Rb_treeIiiSt9_IdentityIiESt4lessIiESaIiEE17_M_construct_nodeIJRKiEEEvPSt13_Rb_tree_nodeIiEDpOT_, symObjAddr: 0x16084, symBinAddr: 0x100018310, symSize: 0xB0 }
  - { offset: 0x361B0, size: 0x8, addend: 0x0, symName: __ZNSt8_Rb_treeIiiSt9_IdentityIiESt4lessIiESaIiEE11_M_get_nodeEv, symObjAddr: 0x16048, symBinAddr: 0x1000182D4, symSize: 0x3C }
  - { offset: 0x36207, size: 0x8, addend: 0x0, symName: __ZNK9__gnu_cxx16__aligned_membufIiE6_M_ptrEv, symObjAddr: 0x1602C, symBinAddr: 0x1000182B8, symSize: 0x1C }
  - { offset: 0x36231, size: 0x8, addend: 0x0, symName: __ZNSt15__new_allocatorISt13_Rb_tree_nodeIiEE10deallocateEPS1_m, symObjAddr: 0x15FF0, symBinAddr: 0x10001827C, symSize: 0x3C }
  - { offset: 0x362A7, size: 0x8, addend: 0x0, symName: __ZN9__gnu_cxx16__aligned_membufIiE6_M_ptrEv, symObjAddr: 0x15FD4, symBinAddr: 0x100018260, symSize: 0x1C }
  - { offset: 0x36329, size: 0x8, addend: 0x0, symName: __ZNK9__gnu_cxx16__aligned_bufferISt4pairIKiiEE6_M_ptrEv, symObjAddr: 0x15FB8, symBinAddr: 0x100018244, symSize: 0x1C }
  - { offset: 0x36353, size: 0x8, addend: 0x0, symName: __ZNKSt8__detail15_Hash_code_baseIiiNS_9_IdentityESt4hashIiENS_18_Mod_range_hashingENS_20_Default_ranged_hashELb0EE15_M_bucket_indexERKNS_16_Hash_node_valueIiLb0EEEm, symObjAddr: 0x15F54, symBinAddr: 0x1000181E0, symSize: 0x64 }
  - { offset: 0x363E3, size: 0x8, addend: 0x0, symName: __ZNSt8__detail15_Hashtable_baseIiiNS_9_IdentityESt8equal_toIiESt4hashIiENS_18_Mod_range_hashingENS_20_Default_ranged_hashENS_17_Hashtable_traitsILb0ELb1ELb1EEEE9_S_equalsEmRKNS_21_Hash_node_code_cacheILb0EEE, symObjAddr: 0x15F3C, symBinAddr: 0x1000181C8, symSize: 0x18 }
  - { offset: 0x36412, size: 0x8, addend: 0x0, symName: __ZNK9__gnu_cxx16__aligned_bufferIiE6_M_ptrEv, symObjAddr: 0x15F20, symBinAddr: 0x1000181AC, symSize: 0x1C }
  - { offset: 0x36484, size: 0x8, addend: 0x0, symName: __ZNSt4pairINSt8__detail14_Node_iteratorIiLb1ELb0EEEbEC1IRS2_bLb1EEEOT_OT0_, symObjAddr: 0x15ED4, symBinAddr: 0x100018160, symSize: 0x4C }
  - { offset: 0x364CE, size: 0x8, addend: 0x0, symName: __ZNSt10_HashtableIiiSaIiENSt8__detail9_IdentityESt8equal_toIiESt4hashIiENS1_18_Mod_range_hashingENS1_20_Default_ranged_hashENS1_20_Prime_rehash_policyENS1_17_Hashtable_traitsILb0ELb1ELb1EEEE21_M_insert_unique_nodeEmmPNS1_10_Hash_nodeIiLb0EEEm, symObjAddr: 0x15DC4, symBinAddr: 0x100018050, symSize: 0x110 }
  - { offset: 0x36585, size: 0x8, addend: 0x0, symName: __ZNSt10_HashtableIiiSaIiENSt8__detail9_IdentityESt8equal_toIiESt4hashIiENS1_18_Mod_range_hashingENS1_20_Default_ranged_hashENS1_20_Prime_rehash_policyENS1_17_Hashtable_traitsILb0ELb1ELb1EEEE12_Scoped_nodeD1Ev, symObjAddr: 0x15D80, symBinAddr: 0x10001800C, symSize: 0x44 }
  - { offset: 0x365E1, size: 0x8, addend: 0x0, symName: __ZNSt10_HashtableIiiSaIiENSt8__detail9_IdentityESt8equal_toIiESt4hashIiENS1_18_Mod_range_hashingENS1_20_Default_ranged_hashENS1_20_Prime_rehash_policyENS1_17_Hashtable_traitsILb0ELb1ELb1EEEE12_Scoped_nodeC1EPNS1_10_Hash_nodeIiLb0EEEPNS1_16_Hashtable_allocISaISF_EEE, symObjAddr: 0x15D4C, symBinAddr: 0x100017FD8, symSize: 0x34 }
  - { offset: 0x3661C, size: 0x8, addend: 0x0, symName: __ZNSt8__detail12_NodeBuilderINS_9_IdentityEE8_S_buildIRKiS5_NS_10_AllocNodeISaINS_10_Hash_nodeIiLb0EEEEEEEENT1_10__node_ptrEOT_OT0_RKSB_, symObjAddr: 0x15D1C, symBinAddr: 0x100017FA8, symSize: 0x30 }
  - { offset: 0x3667D, size: 0x8, addend: 0x0, symName: __ZNKSt10_HashtableIiiSaIiENSt8__detail9_IdentityESt8equal_toIiESt4hashIiENS1_18_Mod_range_hashingENS1_20_Default_ranged_hashENS1_20_Prime_rehash_policyENS1_17_Hashtable_traitsILb0ELb1ELb1EEEE15_M_find_node_trIiEEPNS1_10_Hash_nodeIiLb0EEEmRKT_m, symObjAddr: 0x15CC8, symBinAddr: 0x100017F54, symSize: 0x54 }
  - { offset: 0x366F4, size: 0x8, addend: 0x0, symName: __ZNKSt8__detail15_Hash_code_baseIiiNS_9_IdentityESt4hashIiENS_18_Mod_range_hashingENS_20_Default_ranged_hashELb0EE15_M_hash_code_trIiEEmRKT_, symObjAddr: 0x15C90, symBinAddr: 0x100017F1C, symSize: 0x38 }
  - { offset: 0x36780, size: 0x8, addend: 0x0, symName: __ZNSt4pairINSt8__detail14_Node_iteratorIiLb1ELb0EEEbEC1IS2_bLb1EEEOT_OT0_, symObjAddr: 0x15C44, symBinAddr: 0x100017ED0, symSize: 0x4C }
  - { offset: 0x367CA, size: 0x8, addend: 0x0, symName: __ZNKSt8__detail15_Hashtable_baseIiiNS_9_IdentityESt8equal_toIiESt4hashIiENS_18_Mod_range_hashingENS_20_Default_ranged_hashENS_17_Hashtable_traitsILb0ELb1ELb1EEEE16_M_key_equals_trIiEEbRKT_RKNS_16_Hash_node_valueIiLb0EEE, symObjAddr: 0x15BD8, symBinAddr: 0x100017E64, symSize: 0x6C }
  - { offset: 0x36895, size: 0x8, addend: 0x0, symName: __ZNSt19__ptr_traits_ptr_toIPNSt8__detail10_Hash_nodeIiLb0EEES2_Lb0EE10pointer_toERS2_, symObjAddr: 0x15BBC, symBinAddr: 0x100017E48, symSize: 0x1C }
  - { offset: 0x368EE, size: 0x8, addend: 0x0, symName: __ZNSt8__detail21_Hashtable_ebo_helperILi0ESaINS_10_Hash_nodeIiLb0EEEELb1EE6_M_getEv, symObjAddr: 0x15BA8, symBinAddr: 0x100017E34, symSize: 0x14 }
  - { offset: 0x3696C, size: 0x8, addend: 0x0, symName: __ZSt10_ConstructIiJEEvPT_DpOT0_, symObjAddr: 0x15B7C, symBinAddr: 0x100017E08, symSize: 0x2C }
  - { offset: 0x369A8, size: 0x8, addend: 0x0, symName: __ZSt11__addressofIiEPT_RS0_, symObjAddr: 0x15B68, symBinAddr: 0x100017DF4, symSize: 0x14 }
  - { offset: 0x369E8, size: 0x8, addend: 0x0, symName: __ZSt7forwardIRPSt13_Rb_tree_nodeISt4pairIKiiEEEOT_RNSt16remove_referenceIS7_E4typeE, symObjAddr: 0x15B54, symBinAddr: 0x100017DE0, symSize: 0x14 }
  - { offset: 0x36A9A, size: 0x8, addend: 0x0, symName: __ZNK9__gnu_cxx16__aligned_membufISt4pairIKiiEE6_M_ptrEv, symObjAddr: 0x15B38, symBinAddr: 0x100017DC4, symSize: 0x1C }
  - { offset: 0x36AC4, size: 0x8, addend: 0x0, symName: __ZNSt15__new_allocatorISt13_Rb_tree_nodeISt4pairIKiiEEE10deallocateEPS4_m, symObjAddr: 0x15AFC, symBinAddr: 0x100017D88, symSize: 0x3C }
  - { offset: 0x36B44, size: 0x8, addend: 0x0, symName: __ZSt7forwardIRPSt13_Rb_tree_nodeISt4pairIKxiEEEOT_RNSt16remove_referenceIS7_E4typeE, symObjAddr: 0x15AE8, symBinAddr: 0x100017D74, symSize: 0x14 }
  - { offset: 0x36BF6, size: 0x8, addend: 0x0, symName: __ZNK9__gnu_cxx16__aligned_membufISt4pairIKxiEE6_M_ptrEv, symObjAddr: 0x15ACC, symBinAddr: 0x100017D58, symSize: 0x1C }
  - { offset: 0x36C20, size: 0x8, addend: 0x0, symName: __ZNSt15__new_allocatorISt13_Rb_tree_nodeISt4pairIKxiEEE10deallocateEPS4_m, symObjAddr: 0x15A90, symBinAddr: 0x100017D1C, symSize: 0x3C }
  - { offset: 0x36C92, size: 0x8, addend: 0x0, symName: __ZSt6fill_nIPimiET_S1_T0_RKT1_, symObjAddr: 0x15A48, symBinAddr: 0x100017CD4, symSize: 0x48 }
  - { offset: 0x36D1E, size: 0x8, addend: 0x0, symName: __ZNK9__gnu_cxx5__ops14_Val_less_iterclIiNS_17__normal_iteratorIPiSt6vectorIiSaIiEEEEEEbRT_T0_, symObjAddr: 0x15A04, symBinAddr: 0x100017C90, symSize: 0x44 }
  - { offset: 0x36D76, size: 0x8, addend: 0x0, symName: __ZSt22__copy_move_backward_aILb1EN9__gnu_cxx17__normal_iteratorIPiSt6vectorIiSaIiEEEES6_ET1_T0_S8_S7_, symObjAddr: 0x159A4, symBinAddr: 0x100017C30, symSize: 0x60 }
  - { offset: 0x36DDE, size: 0x8, addend: 0x0, symName: __ZSt12__miter_baseIN9__gnu_cxx17__normal_iteratorIPiSt6vectorIiSaIiEEEEET_S7_, symObjAddr: 0x15990, symBinAddr: 0x100017C1C, symSize: 0x14 }
  - { offset: 0x36E11, size: 0x8, addend: 0x0, symName: __ZSt10__pop_heapIN9__gnu_cxx17__normal_iteratorIPiSt6vectorIiSaIiEEEENS0_5__ops15_Iter_less_iterEEvT_S9_S9_RT0_, symObjAddr: 0x15900, symBinAddr: 0x100017B8C, symSize: 0x90 }
  - { offset: 0x36EA7, size: 0x8, addend: 0x0, symName: __ZSt11__make_heapIN9__gnu_cxx17__normal_iteratorIPiSt6vectorIiSaIiEEEENS0_5__ops15_Iter_less_iterEEvT_S9_RT0_, symObjAddr: 0x15820, symBinAddr: 0x100017AAC, symSize: 0xE0 }
  - { offset: 0x36F62, size: 0x8, addend: 0x0, symName: __ZNSt8__detail16_Hashtable_allocISaINS_10_Hash_nodeISt4pairIKiiELb0EEEEE19_M_allocate_bucketsEm, symObjAddr: 0x15770, symBinAddr: 0x1000179FC, symSize: 0xB0 }
  - { offset: 0x37089, size: 0x8, addend: 0x0, symName: __ZNSt15__new_allocatorINSt8__detail10_Hash_nodeISt4pairIKiiELb0EEEE10deallocateEPS5_m, symObjAddr: 0x15740, symBinAddr: 0x1000179CC, symSize: 0x30 }
  - { offset: 0x37148, size: 0x8, addend: 0x0, symName: __ZNSt5tupleIJRKiEEC1EOS2_, symObjAddr: 0x15718, symBinAddr: 0x1000179A4, symSize: 0x28 }
  - { offset: 0x37177, size: 0x8, addend: 0x0, symName: __ZNSt15__new_allocatorINSt8__detail10_Hash_nodeISt4pairIKiiELb0EEEE8allocateEmPKv, symObjAddr: 0x1569C, symBinAddr: 0x100017928, symSize: 0x7C }
  - { offset: 0x371FF, size: 0x8, addend: 0x0, symName: __ZNSt8__detail15_Hashtable_baseIiSt4pairIKiiENS_10_Select1stESt8equal_toIiESt4hashIiENS_18_Mod_range_hashingENS_20_Default_ranged_hashENS_17_Hashtable_traitsILb0ELb0ELb1EEEE9_S_equalsEmRKNS_21_Hash_node_code_cacheILb0EEE, symObjAddr: 0x15684, symBinAddr: 0x100017910, symSize: 0x18 }
  - { offset: 0x3722E, size: 0x8, addend: 0x0, symName: __ZNSt15__new_allocatorIPNSt8__detail15_Hash_node_baseEE10deallocateEPS2_m, symObjAddr: 0x15654, symBinAddr: 0x1000178E0, symSize: 0x30 }
  - { offset: 0x3729C, size: 0x8, addend: 0x0, symName: __ZNSt15__new_allocatorIPNSt8__detail15_Hash_node_baseEED2Ev, symObjAddr: 0x15640, symBinAddr: 0x1000178CC, symSize: 0x14 }
  - { offset: 0x372D4, size: 0x8, addend: 0x0, symName: __ZSt9addressofIPNSt8__detail15_Hash_node_baseEEPT_RS3_, symObjAddr: 0x15624, symBinAddr: 0x1000178B0, symSize: 0x1C }
  - { offset: 0x37306, size: 0x8, addend: 0x0, symName: __ZNSt19__ptr_traits_ptr_toIPNSt8__detail10_Hash_nodeISt4pairIKiiELb0EEES5_Lb0EE10pointer_toERS5_, symObjAddr: 0x15608, symBinAddr: 0x100017894, symSize: 0x1C }
  - { offset: 0x3735F, size: 0x8, addend: 0x0, symName: __ZNSt8__detail21_Hashtable_ebo_helperILi0ESaINS_10_Hash_nodeISt4pairIKiiELb0EEEELb1EE6_M_getEv, symObjAddr: 0x155F4, symBinAddr: 0x100017880, symSize: 0x14 }
  - { offset: 0x37385, size: 0x8, addend: 0x0, symName: __ZSt4copyIPKiPiET0_T_S4_S3_, symObjAddr: 0x155AC, symBinAddr: 0x100017838, symSize: 0x48 }
  - { offset: 0x373E3, size: 0x8, addend: 0x0, symName: __ZSt14__copy_move_a2ILb0EPiS0_ET1_T0_S2_S1_, symObjAddr: 0x15580, symBinAddr: 0x10001780C, symSize: 0x2C }
  - { offset: 0x3744B, size: 0x8, addend: 0x0, symName: __ZSt14__copy_move_a2ILb0EPKiPiET1_T0_S4_S3_, symObjAddr: 0x15554, symBinAddr: 0x1000177E0, symSize: 0x2C }
  - { offset: 0x374B3, size: 0x8, addend: 0x0, symName: __ZSt14__relocate_a_1IPSt6vectorIiSaIiEES3_SaIS2_EET0_T_S6_S5_RT1_, symObjAddr: 0x154D0, symBinAddr: 0x10001775C, symSize: 0x84 }
  - { offset: 0x3753C, size: 0x8, addend: 0x0, symName: __ZSt12__niter_baseIPSt6vectorIiSaIiEEET_S4_, symObjAddr: 0x154BC, symBinAddr: 0x100017748, symSize: 0x14 }
  - { offset: 0x37573, size: 0x8, addend: 0x0, symName: __ZNKSt12_Vector_baseISt6vectorIiSaIiEESaIS2_EE19_M_get_Tp_allocatorEv, symObjAddr: 0x154A8, symBinAddr: 0x100017734, symSize: 0x14 }
  - { offset: 0x37599, size: 0x8, addend: 0x0, symName: __ZSt4copyIN9__gnu_cxx17__normal_iteratorIPKiSt6vectorIiSaIiEEEEPiET0_T_SA_S9_, symObjAddr: 0x15460, symBinAddr: 0x1000176EC, symSize: 0x48 }
  - { offset: 0x375F7, size: 0x8, addend: 0x0, symName: __ZSt25__unguarded_linear_insertIN9__gnu_cxx17__normal_iteratorIPSt6vectorIiSaIiEES2_IS4_SaIS4_EEEENS0_5__ops14_Val_less_iterEEvT_T0_, symObjAddr: 0x1538C, symBinAddr: 0x100017618, symSize: 0xD4 }
  - { offset: 0x37666, size: 0x8, addend: 0x0, symName: __ZSt13move_backwardIN9__gnu_cxx17__normal_iteratorIPSt6vectorIiSaIiEES2_IS4_SaIS4_EEEES8_ET0_T_SA_S9_, symObjAddr: 0x15344, symBinAddr: 0x1000175D0, symSize: 0x48 }
  - { offset: 0x376C8, size: 0x8, addend: 0x0, symName: __ZNK9__gnu_cxx5__ops15_Iter_less_iterclINS_17__normal_iteratorIPSt6vectorIiSaIiEES4_IS6_SaIS6_EEEESA_EEbT_T0_, symObjAddr: 0x15300, symBinAddr: 0x10001758C, symSize: 0x44 }
  - { offset: 0x37720, size: 0x8, addend: 0x0, symName: __ZN9__gnu_cxxeqIPSt6vectorIiSaIiEES1_IS3_SaIS3_EEEEbRKNS_17__normal_iteratorIT_T0_EESC_, symObjAddr: 0x152BC, symBinAddr: 0x100017548, symSize: 0x44 }
  - { offset: 0x3776D, size: 0x8, addend: 0x0, symName: __ZSt21__unguarded_partitionIN9__gnu_cxx17__normal_iteratorIPSt6vectorIiSaIiEES2_IS4_SaIS4_EEEENS0_5__ops15_Iter_less_iterEET_SB_SB_SB_T0_, symObjAddr: 0x15204, symBinAddr: 0x100017490, symSize: 0xB8 }
  - { offset: 0x377DC, size: 0x8, addend: 0x0, symName: __ZSt22__move_median_to_firstIN9__gnu_cxx17__normal_iteratorIPSt6vectorIiSaIiEES2_IS4_SaIS4_EEEENS0_5__ops15_Iter_less_iterEEvT_SB_SB_SB_T0_, symObjAddr: 0x150F4, symBinAddr: 0x100017380, symSize: 0x110 }
  - { offset: 0x37857, size: 0x8, addend: 0x0, symName: __ZSt11__sort_heapIN9__gnu_cxx17__normal_iteratorIPSt6vectorIiSaIiEES2_IS4_SaIS4_EEEENS0_5__ops15_Iter_less_iterEEvT_SB_RT0_, symObjAddr: 0x1508C, symBinAddr: 0x100017318, symSize: 0x68 }
  - { offset: 0x378B5, size: 0x8, addend: 0x0, symName: __ZSt13__heap_selectIN9__gnu_cxx17__normal_iteratorIPSt6vectorIiSaIiEES2_IS4_SaIS4_EEEENS0_5__ops15_Iter_less_iterEEvT_SB_SB_T0_, symObjAddr: 0x14FF0, symBinAddr: 0x10001727C, symSize: 0x9C }
  - { offset: 0x37948, size: 0x8, addend: 0x0, symName: __ZNSt20__uninitialized_copyILb0EE13__uninit_copyISt23_Rb_tree_const_iteratorISt6vectorIiSaIiEEEPS5_EET0_T_S9_S8_, symObjAddr: 0x14FC4, symBinAddr: 0x100017250, symSize: 0x2C }
  - { offset: 0x379A7, size: 0x8, addend: 0x0, symName: __ZNSt23_Rb_tree_const_iteratorISt6vectorIiSaIiEEEppEv, symObjAddr: 0x14F94, symBinAddr: 0x100017220, symSize: 0x30 }
  - { offset: 0x379D4, size: 0x8, addend: 0x0, symName: __ZStneRKSt23_Rb_tree_const_iteratorISt6vectorIiSaIiEEES5_, symObjAddr: 0x14F64, symBinAddr: 0x1000171F0, symSize: 0x30 }
  - { offset: 0x37A13, size: 0x8, addend: 0x0, symName: __ZNSt8_Rb_treeISt6vectorIiSaIiEES2_St9_IdentityIS2_ESt4lessIS2_ESaIS2_EE14_M_create_nodeIJS2_EEEPSt13_Rb_tree_nodeIS2_EDpOT_, symObjAddr: 0x14F24, symBinAddr: 0x1000171B0, symSize: 0x40 }
  - { offset: 0x37A73, size: 0x8, addend: 0x0, symName: __ZSt7forwardIRPSt13_Rb_tree_nodeISt6vectorIiSaIiEEEEOT_RNSt16remove_referenceIS7_E4typeE, symObjAddr: 0x14F10, symBinAddr: 0x10001719C, symSize: 0x14 }
  - { offset: 0x37AA5, size: 0x8, addend: 0x0, symName: __ZStltIiSaIiEEbRKSt6vectorIT_T0_ES6_, symObjAddr: 0x14EA8, symBinAddr: 0x100017134, symSize: 0x68 }
  - { offset: 0x37AF6, size: 0x8, addend: 0x0, symName: __ZNKSt9_IdentityISt6vectorIiSaIiEEEclERKS2_, symObjAddr: 0x14E90, symBinAddr: 0x10001711C, symSize: 0x18 }
  - { offset: 0x37B31, size: 0x8, addend: 0x0, symName: __ZNKSt13_Rb_tree_nodeISt6vectorIiSaIiEEE9_M_valptrEv, symObjAddr: 0x14E70, symBinAddr: 0x1000170FC, symSize: 0x20 }
  - { offset: 0x37BBA, size: 0x8, addend: 0x0, symName: __ZNSt13_Rb_tree_nodeISt6vectorIiSaIiEEE9_M_valptrEv, symObjAddr: 0x14E50, symBinAddr: 0x1000170DC, symSize: 0x20 }
  - { offset: 0x37BE4, size: 0x8, addend: 0x0, symName: __ZNSt8_Rb_treeISt6vectorIiSaIiEES2_St9_IdentityIS2_ESt4lessIS2_ESaIS2_EE21_M_get_Node_allocatorEv, symObjAddr: 0x14E3C, symBinAddr: 0x1000170C8, symSize: 0x14 }
  - { offset: 0x37C0A, size: 0x8, addend: 0x0, symName: __ZNSt20__uninitialized_copyILb0EE13__uninit_copyIPKSt6vectorIiSaIiEEPS4_EET0_T_S9_S8_, symObjAddr: 0x14E10, symBinAddr: 0x10001709C, symSize: 0x2C }
  - { offset: 0x37C69, size: 0x8, addend: 0x0, symName: __ZNSt15__new_allocatorISt6vectorIiSaIiEEE8allocateEmPKv, symObjAddr: 0x14D80, symBinAddr: 0x10001700C, symSize: 0x90 }
  - { offset: 0x37D07, size: 0x8, addend: 0x0, symName: __ZNSt20__uninitialized_copyILb1EE13__uninit_copyISt23_Rb_tree_const_iteratorIiEPiEET0_T_S6_S5_, symObjAddr: 0x14D54, symBinAddr: 0x100016FE0, symSize: 0x2C }
  - { offset: 0x37D66, size: 0x8, addend: 0x0, symName: __ZNSt23_Rb_tree_const_iteratorIiEppEv, symObjAddr: 0x14D24, symBinAddr: 0x100016FB0, symSize: 0x30 }
  - { offset: 0x37D93, size: 0x8, addend: 0x0, symName: __ZStneRKSt23_Rb_tree_const_iteratorIiES2_, symObjAddr: 0x14CF4, symBinAddr: 0x100016F80, symSize: 0x30 }
  - { offset: 0x37DD2, size: 0x8, addend: 0x0, symName: __ZNSt8_Rb_treeIiiSt9_IdentityIiESt4lessIiESaIiEE14_M_create_nodeIJRKiEEEPSt13_Rb_tree_nodeIiEDpOT_, symObjAddr: 0x14CB4, symBinAddr: 0x100016F40, symSize: 0x40 }
  - { offset: 0x37E32, size: 0x8, addend: 0x0, symName: __ZSt7forwardIRPSt13_Rb_tree_nodeIiEEOT_RNSt16remove_referenceIS4_E4typeE, symObjAddr: 0x14CA0, symBinAddr: 0x100016F2C, symSize: 0x14 }
  - { offset: 0x37E68, size: 0x8, addend: 0x0, symName: __ZNKSt13_Rb_tree_nodeIiE9_M_valptrEv, symObjAddr: 0x14C80, symBinAddr: 0x100016F0C, symSize: 0x20 }
  - { offset: 0x37EF1, size: 0x8, addend: 0x0, symName: __ZNSt13_Rb_tree_nodeIiE9_M_valptrEv, symObjAddr: 0x14C60, symBinAddr: 0x100016EEC, symSize: 0x20 }
  - { offset: 0x37F1B, size: 0x8, addend: 0x0, symName: __ZNSt8_Rb_treeIiiSt9_IdentityIiESt4lessIiESaIiEE21_M_get_Node_allocatorEv, symObjAddr: 0x14C4C, symBinAddr: 0x100016ED8, symSize: 0x14 }
  - { offset: 0x37F41, size: 0x8, addend: 0x0, symName: __ZSt8_DestroyISt6vectorIiSaIiEEEvPT_, symObjAddr: 0x14C2C, symBinAddr: 0x100016EB8, symSize: 0x20 }
  - { offset: 0x37F73, size: 0x8, addend: 0x0, symName: __ZSt11__addressofISt6vectorIiSaIiEEEPT_RS3_, symObjAddr: 0x14C18, symBinAddr: 0x100016EA4, symSize: 0x14 }
  - { offset: 0x37FA9, size: 0x8, addend: 0x0, symName: __ZNSt8_Rb_treeIxSt4pairIKxiESt10_Select1stIS2_ESt4lessIxESaIS2_EE17_M_construct_nodeIJRKSt21piecewise_construct_tSt5tupleIJOxEESD_IJEEEEEvPSt13_Rb_tree_nodeIS2_EDpOT_, symObjAddr: 0x14A9C, symBinAddr: 0x100016D28, symSize: 0x17C }
  - { offset: 0x380DA, size: 0x8, addend: 0x0, symName: __ZNSt10_Head_baseILm0EOxLb0EEC2IxEEOT_, symObjAddr: 0x14A6C, symBinAddr: 0x100016CF8, symSize: 0x30 }
  - { offset: 0x38115, size: 0x8, addend: 0x0, symName: __ZSt7forwardIRKSt4pairIKiiEEOT_RNSt16remove_referenceIS5_E4typeE, symObjAddr: 0x14A58, symBinAddr: 0x100016CE4, symSize: 0x14 }
  - { offset: 0x38161, size: 0x8, addend: 0x0, symName: __ZNKSt10_HashtableIiiSaIiENSt8__detail9_IdentityESt8equal_toIiESt4hashIiENS1_18_Mod_range_hashingENS1_20_Default_ranged_hashENS1_20_Prime_rehash_policyENS1_17_Hashtable_traitsILb0ELb1ELb1EEEE15_M_bucket_indexERKNS1_16_Hash_node_valueIiLb0EEE, symObjAddr: 0x14A28, symBinAddr: 0x100016CB4, symSize: 0x30 }
  - { offset: 0x3819C, size: 0x8, addend: 0x0, symName: __ZNKSt8__detail15_Hashtable_baseIiiNS_9_IdentityESt8equal_toIiESt4hashIiENS_18_Mod_range_hashingENS_20_Default_ranged_hashENS_17_Hashtable_traitsILb0ELb1ELb1EEEE9_M_equalsERKimRKNS_16_Hash_node_valueIiLb0EEE, symObjAddr: 0x149C8, symBinAddr: 0x100016C54, symSize: 0x60 }
  - { offset: 0x3820F, size: 0x8, addend: 0x0, symName: __ZNKSt8__detail21_Hashtable_ebo_helperILi0ESt8equal_toIiELb1EE7_M_cgetEv, symObjAddr: 0x149B4, symBinAddr: 0x100016C40, symSize: 0x14 }
  - { offset: 0x3823D, size: 0x8, addend: 0x0, symName: __ZN9__gnu_cxx16__aligned_bufferIiE7_M_addrEv, symObjAddr: 0x149A0, symBinAddr: 0x100016C2C, symSize: 0x14 }
  - { offset: 0x38267, size: 0x8, addend: 0x0, symName: __ZNSt10_HashtableIiiSaIiENSt8__detail9_IdentityESt8equal_toIiESt4hashIiENS1_18_Mod_range_hashingENS1_20_Default_ranged_hashENS1_20_Prime_rehash_policyENS1_17_Hashtable_traitsILb0ELb1ELb1EEEE16_M_insert_uniqueIRKiSF_NS1_10_AllocNodeISaINS1_10_Hash_nodeIiLb0EEEEEEEESt4pairINS1_14_Node_iteratorIiLb1ELb0EEEbEOT_OT0_RKT1_, symObjAddr: 0x147A0, symBinAddr: 0x100016A2C, symSize: 0x200 }
  - { offset: 0x3837E, size: 0x8, addend: 0x0, symName: __ZNSt10_HashtableIiiSaIiENSt8__detail9_IdentityESt8equal_toIiESt4hashIiENS1_18_Mod_range_hashingENS1_20_Default_ranged_hashENS1_20_Prime_rehash_policyENS1_17_Hashtable_traitsILb0ELb1ELb1EEEE14_S_forward_keyERKi, symObjAddr: 0x1478C, symBinAddr: 0x100016A18, symSize: 0x14 }
  - { offset: 0x383D0, size: 0x8, addend: 0x0, symName: __ZNSt8__detail16_Hashtable_allocISaINS_10_Hash_nodeIiLb0EEEEE22_M_deallocate_node_ptrEPS2_, symObjAddr: 0x14734, symBinAddr: 0x1000169C0, symSize: 0x58 }
  - { offset: 0x3847F, size: 0x8, addend: 0x0, symName: __ZNSt8__detail16_Hashtable_allocISaINS_10_Hash_nodeIiLb0EEEEE17_M_node_allocatorEv, symObjAddr: 0x14718, symBinAddr: 0x1000169A4, symSize: 0x1C }
  - { offset: 0x384A9, size: 0x8, addend: 0x0, symName: __ZNSt8_Rb_treeIiSt4pairIKiiESt10_Select1stIS2_ESt4lessIiESaIS2_EE17_M_construct_nodeIJRKSt21piecewise_construct_tSt5tupleIJOiEESD_IJEEEEEvPSt13_Rb_tree_nodeIS2_EDpOT_, symObjAddr: 0x1459C, symBinAddr: 0x100016828, symSize: 0x17C }
  - { offset: 0x385DA, size: 0x8, addend: 0x0, symName: __ZNSt10_Head_baseILm0EOiLb0EEC2IiEEOT_, symObjAddr: 0x1456C, symBinAddr: 0x1000167F8, symSize: 0x30 }
  - { offset: 0x3860E, size: 0x8, addend: 0x0, symName: __ZNSt27__uninitialized_default_n_1ILb1EE18__uninit_default_nIPimEET_S3_T0_, symObjAddr: 0x14508, symBinAddr: 0x100016794, symSize: 0x64 }
  - { offset: 0x386D1, size: 0x8, addend: 0x0, symName: __ZNSt4pairIPSt18_Rb_tree_node_baseS1_EC1IRPSt13_Rb_tree_nodeIS_IKiiEERS1_Lb1EEEOT_OT0_, symObjAddr: 0x144C0, symBinAddr: 0x10001674C, symSize: 0x48 }
  - { offset: 0x3871B, size: 0x8, addend: 0x0, symName: __ZNSt8_Rb_treeIiSt4pairIKiiESt10_Select1stIS2_ESt4lessIiESaIS2_EE5beginEv, symObjAddr: 0x14498, symBinAddr: 0x100016724, symSize: 0x28 }
  - { offset: 0x38745, size: 0x8, addend: 0x0, symName: __ZNSt8_Rb_treeIiSt4pairIKiiESt10_Select1stIS2_ESt4lessIiESaIS2_EE17_M_construct_nodeIJRKSt21piecewise_construct_tSt5tupleIJRS1_EESD_IJEEEEEvPSt13_Rb_tree_nodeIS2_EDpOT_, symObjAddr: 0x1431C, symBinAddr: 0x1000165A8, symSize: 0x17C }
  - { offset: 0x38846, size: 0x8, addend: 0x0, symName: __ZNSt8_Rb_treeIiSt4pairIKiiESt10_Select1stIS2_ESt4lessIiESaIS2_EE11_M_get_nodeEv, symObjAddr: 0x142E0, symBinAddr: 0x10001656C, symSize: 0x3C }
  - { offset: 0x388A1, size: 0x8, addend: 0x0, symName: __ZN9__gnu_cxx16__aligned_membufISt4pairIKiiEE7_M_addrEv, symObjAddr: 0x142CC, symBinAddr: 0x100016558, symSize: 0x14 }
  - { offset: 0x388CB, size: 0x8, addend: 0x0, symName: __ZNKSt10_Select1stISt4pairIKiiEEclERKS2_, symObjAddr: 0x142B4, symBinAddr: 0x100016540, symSize: 0x18 }
  - { offset: 0x38906, size: 0x8, addend: 0x0, symName: __ZNKSt13_Rb_tree_nodeISt4pairIKiiEE9_M_valptrEv, symObjAddr: 0x14294, symBinAddr: 0x100016520, symSize: 0x20 }
  - { offset: 0x3898F, size: 0x8, addend: 0x0, symName: __ZNSt8_Rb_treeIiSt4pairIKiiESt10_Select1stIS2_ESt4lessIiESaIS2_EE21_M_get_Node_allocatorEv, symObjAddr: 0x14280, symBinAddr: 0x10001650C, symSize: 0x14 }
  - { offset: 0x389BC, size: 0x8, addend: 0x0, symName: __ZSt7forwardIRPSt18_Rb_tree_node_baseEOT_RNSt16remove_referenceIS3_E4typeE, symObjAddr: 0x1426C, symBinAddr: 0x1000164F8, symSize: 0x14 }
  - { offset: 0x38A3A, size: 0x8, addend: 0x0, symName: __ZNSt4pairIPSt18_Rb_tree_node_baseS1_EC1IRPSt13_Rb_tree_nodeIS_IKxiEERS1_Lb1EEEOT_OT0_, symObjAddr: 0x14224, symBinAddr: 0x1000164B0, symSize: 0x48 }
  - { offset: 0x38A84, size: 0x8, addend: 0x0, symName: __ZNSt8_Rb_treeIxSt4pairIKxiESt10_Select1stIS2_ESt4lessIxESaIS2_EE5beginEv, symObjAddr: 0x141FC, symBinAddr: 0x100016488, symSize: 0x28 }
  - { offset: 0x38AAE, size: 0x8, addend: 0x0, symName: __ZNSt8_Rb_treeIxSt4pairIKxiESt10_Select1stIS2_ESt4lessIxESaIS2_EE17_M_construct_nodeIJRKSt21piecewise_construct_tSt5tupleIJRS1_EESD_IJEEEEEvPSt13_Rb_tree_nodeIS2_EDpOT_, symObjAddr: 0x14080, symBinAddr: 0x10001630C, symSize: 0x17C }
  - { offset: 0x38BAF, size: 0x8, addend: 0x0, symName: __ZNSt8_Rb_treeIxSt4pairIKxiESt10_Select1stIS2_ESt4lessIxESaIS2_EE11_M_get_nodeEv, symObjAddr: 0x14044, symBinAddr: 0x1000162D0, symSize: 0x3C }
  - { offset: 0x38C0A, size: 0x8, addend: 0x0, symName: __ZN9__gnu_cxx16__aligned_membufISt4pairIKxiEE7_M_addrEv, symObjAddr: 0x14030, symBinAddr: 0x1000162BC, symSize: 0x14 }
  - { offset: 0x38C34, size: 0x8, addend: 0x0, symName: __ZNKSt10_Select1stISt4pairIKxiEEclERKS2_, symObjAddr: 0x14018, symBinAddr: 0x1000162A4, symSize: 0x18 }
  - { offset: 0x38C6F, size: 0x8, addend: 0x0, symName: __ZNKSt13_Rb_tree_nodeISt4pairIKxiEE9_M_valptrEv, symObjAddr: 0x13FF8, symBinAddr: 0x100016284, symSize: 0x20 }
  - { offset: 0x38CF8, size: 0x8, addend: 0x0, symName: __ZNSt8_Rb_treeIxSt4pairIKxiESt10_Select1stIS2_ESt4lessIxESaIS2_EE21_M_get_Node_allocatorEv, symObjAddr: 0x13FE4, symBinAddr: 0x100016270, symSize: 0x14 }
  - { offset: 0x38D1E, size: 0x8, addend: 0x0, symName: __ZNSt22__uninitialized_fill_nILb1EE15__uninit_fill_nIPimiEET_S3_T0_RKT1_, symObjAddr: 0x13FB8, symBinAddr: 0x100016244, symSize: 0x2C }
  - { offset: 0x38D9B, size: 0x8, addend: 0x0, symName: __ZSt25__unguarded_linear_insertIN9__gnu_cxx17__normal_iteratorIPiSt6vectorIiSaIiEEEENS0_5__ops14_Val_less_iterEEvT_T0_, symObjAddr: 0x13F0C, symBinAddr: 0x100016198, symSize: 0xAC }
  - { offset: 0x38E0A, size: 0x8, addend: 0x0, symName: __ZSt13move_backwardIN9__gnu_cxx17__normal_iteratorIPiSt6vectorIiSaIiEEEES6_ET0_T_S8_S7_, symObjAddr: 0x13EC4, symBinAddr: 0x100016150, symSize: 0x48 }
  - { offset: 0x38E6C, size: 0x8, addend: 0x0, symName: __ZNK9__gnu_cxx5__ops15_Iter_less_iterclINS_17__normal_iteratorIPiSt6vectorIiSaIiEEEES8_EEbT_T0_, symObjAddr: 0x13E7C, symBinAddr: 0x100016108, symSize: 0x48 }
  - { offset: 0x38EC4, size: 0x8, addend: 0x0, symName: __ZSt21__unguarded_partitionIN9__gnu_cxx17__normal_iteratorIPiSt6vectorIiSaIiEEEENS0_5__ops15_Iter_less_iterEET_S9_S9_S9_T0_, symObjAddr: 0x13DC4, symBinAddr: 0x100016050, symSize: 0xB8 }
  - { offset: 0x38F33, size: 0x8, addend: 0x0, symName: __ZSt22__move_median_to_firstIN9__gnu_cxx17__normal_iteratorIPiSt6vectorIiSaIiEEEENS0_5__ops15_Iter_less_iterEEvT_S9_S9_S9_T0_, symObjAddr: 0x13CB4, symBinAddr: 0x100015F40, symSize: 0x110 }
  - { offset: 0x38FAE, size: 0x8, addend: 0x0, symName: __ZSt11__sort_heapIN9__gnu_cxx17__normal_iteratorIPiSt6vectorIiSaIiEEEENS0_5__ops15_Iter_less_iterEEvT_S9_RT0_, symObjAddr: 0x13C4C, symBinAddr: 0x100015ED8, symSize: 0x68 }
  - { offset: 0x3900C, size: 0x8, addend: 0x0, symName: __ZSt13__heap_selectIN9__gnu_cxx17__normal_iteratorIPiSt6vectorIiSaIiEEEENS0_5__ops15_Iter_less_iterEEvT_S9_S9_T0_, symObjAddr: 0x13BB0, symBinAddr: 0x100015E3C, symSize: 0x9C }
  - { offset: 0x390A3, size: 0x8, addend: 0x0, symName: __ZNKSt8__detail15_Hash_code_baseIiSt4pairIKiiENS_10_Select1stESt4hashIiENS_18_Mod_range_hashingENS_20_Default_ranged_hashELb0EE15_M_bucket_indexERKNS_16_Hash_node_valueIS3_Lb0EEEm, symObjAddr: 0x13B4C, symBinAddr: 0x100015DD8, symSize: 0x64 }
  - { offset: 0x39137, size: 0x8, addend: 0x0, symName: __ZNSt10_HashtableIiSt4pairIKiiESaIS2_ENSt8__detail10_Select1stESt8equal_toIiESt4hashIiENS4_18_Mod_range_hashingENS4_20_Default_ranged_hashENS4_20_Prime_rehash_policyENS4_17_Hashtable_traitsILb0ELb0ELb1EEEE19_M_allocate_bucketsEm, symObjAddr: 0x13AF4, symBinAddr: 0x100015D80, symSize: 0x58 }
  - { offset: 0x3916E, size: 0x8, addend: 0x0, symName: __ZSt11__addressofINSt8__detail20_Prime_rehash_policyEEPT_RS2_, symObjAddr: 0x13AE0, symBinAddr: 0x100015D6C, symSize: 0x14 }
  - { offset: 0x3922A, size: 0x8, addend: 0x0, symName: __ZSt12__to_addressINSt8__detail10_Hash_nodeISt4pairIKiiELb0EEEEPT_S7_, symObjAddr: 0x13ACC, symBinAddr: 0x100015D58, symSize: 0x14 }
  - { offset: 0x39284, size: 0x8, addend: 0x0, symName: __ZNKSt10_HashtableIiSt4pairIKiiESaIS2_ENSt8__detail10_Select1stESt8equal_toIiESt4hashIiENS4_18_Mod_range_hashingENS4_20_Default_ranged_hashENS4_20_Prime_rehash_policyENS4_17_Hashtable_traitsILb0ELb0ELb1EEEE15_M_bucket_indexERKNS4_16_Hash_node_valueIS2_Lb0EEE, symObjAddr: 0x13A9C, symBinAddr: 0x100015D28, symSize: 0x30 }
  - { offset: 0x392BF, size: 0x8, addend: 0x0, symName: __ZNKSt8__detail15_Hashtable_baseIiSt4pairIKiiENS_10_Select1stESt8equal_toIiESt4hashIiENS_18_Mod_range_hashingENS_20_Default_ranged_hashENS_17_Hashtable_traitsILb0ELb0ELb1EEEE9_M_equalsERS2_mRKNS_16_Hash_node_valueIS3_Lb0EEE, symObjAddr: 0x13A3C, symBinAddr: 0x100015CC8, symSize: 0x60 }
  - { offset: 0x3931C, size: 0x8, addend: 0x0, symName: __ZNKSt8__detail21_Hashtable_ebo_helperILi1ESt4hashIiELb1EE7_M_cgetEv, symObjAddr: 0x13A28, symBinAddr: 0x100015CB4, symSize: 0x14 }
  - { offset: 0x393B8, size: 0x8, addend: 0x0, symName: __ZNSt19__ptr_traits_ptr_toIPPNSt8__detail15_Hash_node_baseES2_Lb0EE10pointer_toERS2_, symObjAddr: 0x13A0C, symBinAddr: 0x100015C98, symSize: 0x1C }
  - { offset: 0x393E5, size: 0x8, addend: 0x0, symName: __ZNSt8__detail16_Hashtable_allocISaINS_10_Hash_nodeISt4pairIKiiELb0EEEEE22_M_deallocate_node_ptrEPS5_, symObjAddr: 0x139B4, symBinAddr: 0x100015C40, symSize: 0x58 }
  - { offset: 0x39494, size: 0x8, addend: 0x0, symName: __ZNSt8__detail16_Hashtable_allocISaINS_10_Hash_nodeISt4pairIKiiELb0EEEEE17_M_node_allocatorEv, symObjAddr: 0x13998, symBinAddr: 0x100015C24, symSize: 0x1C }
  - { offset: 0x394BA, size: 0x8, addend: 0x0, symName: __ZSt14__relocate_a_1IiiENSt9enable_ifIXsrSt24__is_bitwise_relocatableIT_vE5valueEPS2_E4typeES4_S4_S4_RSaIT0_E, symObjAddr: 0x13934, symBinAddr: 0x100015BC0, symSize: 0x64 }
  - { offset: 0x3953A, size: 0x8, addend: 0x0, symName: __ZNSt20__uninitialized_copyILb1EE13__uninit_copyIPKiPiEET0_T_S6_S5_, symObjAddr: 0x13908, symBinAddr: 0x100015B94, symSize: 0x2C }
  - { offset: 0x39599, size: 0x8, addend: 0x0, symName: __ZNSt15__new_allocatorIiE8allocateEmPKv, symObjAddr: 0x1388C, symBinAddr: 0x100015B18, symSize: 0x7C }
  - { offset: 0x39621, size: 0x8, addend: 0x0, symName: __ZNSt20__uninitialized_copyILb1EE13__uninit_copyIPiS2_EET0_T_S4_S3_, symObjAddr: 0x13860, symBinAddr: 0x100015AEC, symSize: 0x2C }
  - { offset: 0x3967C, size: 0x8, addend: 0x0, symName: __ZSt12__niter_wrapIPiET_RKS1_S1_, symObjAddr: 0x13848, symBinAddr: 0x100015AD4, symSize: 0x18 }
  - { offset: 0x396B8, size: 0x8, addend: 0x0, symName: __ZSt14__copy_move_a1ILb0EPiS0_ET1_T0_S2_S1_, symObjAddr: 0x1381C, symBinAddr: 0x100015AA8, symSize: 0x2C }
  - { offset: 0x39720, size: 0x8, addend: 0x0, symName: __ZSt12__niter_baseIPiET_S1_, symObjAddr: 0x13808, symBinAddr: 0x100015A94, symSize: 0x14 }
  - { offset: 0x39753, size: 0x8, addend: 0x0, symName: __ZNSt12_Destroy_auxILb1EE9__destroyIN9__gnu_cxx17__normal_iteratorIPiSt6vectorIiSaIiEEEEEEvT_S9_, symObjAddr: 0x137F0, symBinAddr: 0x100015A7C, symSize: 0x18 }
  - { offset: 0x39787, size: 0x8, addend: 0x0, symName: __ZSt12__niter_wrapIN9__gnu_cxx17__normal_iteratorIPiSt6vectorIiSaIiEEEES2_ET_S7_T0_, symObjAddr: 0x137A8, symBinAddr: 0x100015A34, symSize: 0x48 }
  - { offset: 0x397D4, size: 0x8, addend: 0x0, symName: __ZSt14__copy_move_a1ILb0EPKiPiET1_T0_S4_S3_, symObjAddr: 0x1377C, symBinAddr: 0x100015A08, symSize: 0x2C }
  - { offset: 0x3983C, size: 0x8, addend: 0x0, symName: __ZSt12__niter_baseIPiSt6vectorIiSaIiEEET_N9__gnu_cxx17__normal_iteratorIS4_T0_EE, symObjAddr: 0x1375C, symBinAddr: 0x1000159E8, symSize: 0x20 }
  - { offset: 0x39878, size: 0x8, addend: 0x0, symName: __ZSt12__niter_baseIPKiSt6vectorIiSaIiEEET_N9__gnu_cxx17__normal_iteratorIS5_T0_EE, symObjAddr: 0x1373C, symBinAddr: 0x1000159C8, symSize: 0x20 }
  - { offset: 0x398B4, size: 0x8, addend: 0x0, symName: __ZSt12__relocate_aIPSt6vectorIiSaIiEES3_SaIS2_EET0_T_S6_S5_RT1_, symObjAddr: 0x136E0, symBinAddr: 0x10001596C, symSize: 0x5C }
  - { offset: 0x39930, size: 0x8, addend: 0x0, symName: __ZNKSt6vectorIS_IiSaIiEESaIS1_EE8max_sizeEv, symObjAddr: 0x136C0, symBinAddr: 0x10001594C, symSize: 0x20 }
  - { offset: 0x39956, size: 0x8, addend: 0x0, symName: __ZNSt20__uninitialized_copyILb1EE13__uninit_copyIN9__gnu_cxx17__normal_iteratorIPKiSt6vectorIiSaIiEEEEPiEET0_T_SC_SB_, symObjAddr: 0x13694, symBinAddr: 0x100015920, symSize: 0x2C }
  - { offset: 0x399B1, size: 0x8, addend: 0x0, symName: __ZSt26__unguarded_insertion_sortIN9__gnu_cxx17__normal_iteratorIPSt6vectorIiSaIiEES2_IS4_SaIS4_EEEENS0_5__ops15_Iter_less_iterEEvT_SB_T0_, symObjAddr: 0x13628, symBinAddr: 0x1000158B4, symSize: 0x6C }
  - { offset: 0x39A33, size: 0x8, addend: 0x0, symName: __ZSt16__insertion_sortIN9__gnu_cxx17__normal_iteratorIPSt6vectorIiSaIiEES2_IS4_SaIS4_EEEENS0_5__ops15_Iter_less_iterEEvT_SB_T0_, symObjAddr: 0x13508, symBinAddr: 0x100015794, symSize: 0x120 }
  - { offset: 0x39AC5, size: 0x8, addend: 0x0, symName: __ZNK9__gnu_cxx17__normal_iteratorIPSt6vectorIiSaIiEES1_IS3_SaIS3_EEEplEl, symObjAddr: 0x134BC, symBinAddr: 0x100015748, symSize: 0x4C }
  - { offset: 0x39AFC, size: 0x8, addend: 0x0, symName: __ZSt27__unguarded_partition_pivotIN9__gnu_cxx17__normal_iteratorIPSt6vectorIiSaIiEES2_IS4_SaIS4_EEEENS0_5__ops15_Iter_less_iterEET_SB_SB_T0_, symObjAddr: 0x13418, symBinAddr: 0x1000156A4, symSize: 0xA4 }
  - { offset: 0x39B6B, size: 0x8, addend: 0x0, symName: __ZSt14__partial_sortIN9__gnu_cxx17__normal_iteratorIPSt6vectorIiSaIiEES2_IS4_SaIS4_EEEENS0_5__ops15_Iter_less_iterEEvT_SB_SB_T0_, symObjAddr: 0x133CC, symBinAddr: 0x100015658, symSize: 0x4C }
  - { offset: 0x39BDE, size: 0x8, addend: 0x0, symName: __ZNKSt8__detail15_Hashtable_baseIiSt4pairIKiiENS_10_Select1stESt8equal_toIiESt4hashIiENS_18_Mod_range_hashingENS_20_Default_ranged_hashENS_17_Hashtable_traitsILb0ELb0ELb1EEEE5_M_eqEv, symObjAddr: 0x133B0, symBinAddr: 0x10001563C, symSize: 0x1C }
  - { offset: 0x39C04, size: 0x8, addend: 0x0, symName: __ZSt18uninitialized_copyISt23_Rb_tree_const_iteratorISt6vectorIiSaIiEEEPS3_ET0_T_S7_S6_, symObjAddr: 0x1337C, symBinAddr: 0x100015608, symSize: 0x34 }
  - { offset: 0x39C7F, size: 0x8, addend: 0x0, symName: __ZSt10__distanceISt23_Rb_tree_const_iteratorISt6vectorIiSaIiEEEENSt15iterator_traitsIT_E15difference_typeES6_S6_St18input_iterator_tag, symObjAddr: 0x13328, symBinAddr: 0x1000155B4, symSize: 0x54 }
  - { offset: 0x39CE1, size: 0x8, addend: 0x0, symName: __ZSt7forwardISt17_Rb_tree_iteratorISt6vectorIiSaIiEEEEOT_RNSt16remove_referenceIS5_E4typeE, symObjAddr: 0x13314, symBinAddr: 0x1000155A0, symSize: 0x14 }
  - { offset: 0x39D22, size: 0x8, addend: 0x0, symName: __ZNKSt8_Rb_treeISt6vectorIiSaIiEES2_St9_IdentityIS2_ESt4lessIS2_ESaIS2_EE11_Alloc_nodeclIS2_EEPSt13_Rb_tree_nodeIS2_EOT_, symObjAddr: 0x132D8, symBinAddr: 0x100015564, symSize: 0x3C }
  - { offset: 0x39D62, size: 0x8, addend: 0x0, symName: __ZNSt8_Rb_treeISt6vectorIiSaIiEES2_St9_IdentityIS2_ESt4lessIS2_ESaIS2_EE6_S_keyEPKSt18_Rb_tree_node_base, symObjAddr: 0x132BC, symBinAddr: 0x100015548, symSize: 0x1C }
  - { offset: 0x39D90, size: 0x8, addend: 0x0, symName: __ZNSt17_Rb_tree_iteratorISt6vectorIiSaIiEEEmmEv, symObjAddr: 0x1328C, symBinAddr: 0x100015518, symSize: 0x30 }
  - { offset: 0x39E02, size: 0x8, addend: 0x0, symName: __ZNSt4pairIPSt18_Rb_tree_node_baseS1_EC1IRPSt13_Rb_tree_nodeISt6vectorIiSaIiEEERS1_Lb1EEEOT_OT0_, symObjAddr: 0x13244, symBinAddr: 0x1000154D0, symSize: 0x48 }
  - { offset: 0x39E4F, size: 0x8, addend: 0x0, symName: __ZSteqRKSt17_Rb_tree_iteratorISt6vectorIiSaIiEEES5_, symObjAddr: 0x13214, symBinAddr: 0x1000154A0, symSize: 0x30 }
  - { offset: 0x39E8E, size: 0x8, addend: 0x0, symName: __ZNSt8_Rb_treeISt6vectorIiSaIiEES2_St9_IdentityIS2_ESt4lessIS2_ESaIS2_EE5beginEv, symObjAddr: 0x131EC, symBinAddr: 0x100015478, symSize: 0x28 }
  - { offset: 0x39EB8, size: 0x8, addend: 0x0, symName: __ZNKSt4lessISt6vectorIiSaIiEEEclERKS2_S5_, symObjAddr: 0x131C4, symBinAddr: 0x100015450, symSize: 0x28 }
  - { offset: 0x39F00, size: 0x8, addend: 0x0, symName: __ZNSt8_Rb_treeISt6vectorIiSaIiEES2_St9_IdentityIS2_ESt4lessIS2_ESaIS2_EE6_S_keyEPKSt13_Rb_tree_nodeIS2_E, symObjAddr: 0x1319C, symBinAddr: 0x100015428, symSize: 0x28 }
  - { offset: 0x39F2E, size: 0x8, addend: 0x0, symName: __ZNSt8_Rb_treeISt6vectorIiSaIiEES2_St9_IdentityIS2_ESt4lessIS2_ESaIS2_EE6_M_endEv, symObjAddr: 0x13184, symBinAddr: 0x100015410, symSize: 0x18 }
  - { offset: 0x39F58, size: 0x8, addend: 0x0, symName: __ZNSt8_Rb_treeISt6vectorIiSaIiEES2_St9_IdentityIS2_ESt4lessIS2_ESaIS2_EE11_M_put_nodeEPSt13_Rb_tree_nodeIS2_E, symObjAddr: 0x13138, symBinAddr: 0x1000153C4, symSize: 0x4C }
  - { offset: 0x39FC9, size: 0x8, addend: 0x0, symName: __ZNSt8_Rb_treeISt6vectorIiSaIiEES2_St9_IdentityIS2_ESt4lessIS2_ESaIS2_EE15_M_destroy_nodeEPSt13_Rb_tree_nodeIS2_E, symObjAddr: 0x130D8, symBinAddr: 0x100015364, symSize: 0x60 }
  - { offset: 0x3A05A, size: 0x8, addend: 0x0, symName: __ZSt18uninitialized_copyIPKSt6vectorIiSaIiEEPS2_ET0_T_S7_S6_, symObjAddr: 0x130A4, symBinAddr: 0x100015330, symSize: 0x34 }
  - { offset: 0x3A0F9, size: 0x8, addend: 0x0, symName: __ZNSt6vectorIS_IiSaIiEESaIS1_EE11_S_max_sizeERKS2_, symObjAddr: 0x13048, symBinAddr: 0x1000152D4, symSize: 0x5C }
  - { offset: 0x3A1B7, size: 0x8, addend: 0x0, symName: __ZSt4moveIRSaIiEEONSt16remove_referenceIT_E4typeEOS3_, symObjAddr: 0x13034, symBinAddr: 0x1000152C0, symSize: 0x14 }
  - { offset: 0x3A1ED, size: 0x8, addend: 0x0, symName: __ZNSt12_Vector_baseIiSaIiEE17_Vector_impl_data12_M_copy_dataERKS2_, symObjAddr: 0x12FEC, symBinAddr: 0x100015278, symSize: 0x48 }
  - { offset: 0x3A223, size: 0x8, addend: 0x0, symName: __ZSt18uninitialized_copyISt23_Rb_tree_const_iteratorIiEPiET0_T_S4_S3_, symObjAddr: 0x12FB0, symBinAddr: 0x10001523C, symSize: 0x3C }
  - { offset: 0x3A29E, size: 0x8, addend: 0x0, symName: __ZSt10__distanceISt23_Rb_tree_const_iteratorIiEENSt15iterator_traitsIT_E15difference_typeES3_S3_St18input_iterator_tag, symObjAddr: 0x12F5C, symBinAddr: 0x1000151E8, symSize: 0x54 }
  - { offset: 0x3A300, size: 0x8, addend: 0x0, symName: __ZSt7forwardISt17_Rb_tree_iteratorIiEEOT_RNSt16remove_referenceIS2_E4typeE, symObjAddr: 0x12F48, symBinAddr: 0x1000151D4, symSize: 0x14 }
  - { offset: 0x3A341, size: 0x8, addend: 0x0, symName: __ZNKSt8_Rb_treeIiiSt9_IdentityIiESt4lessIiESaIiEE11_Alloc_nodeclIRKiEEPSt13_Rb_tree_nodeIiEOT_, symObjAddr: 0x12F0C, symBinAddr: 0x100015198, symSize: 0x3C }
  - { offset: 0x3A381, size: 0x8, addend: 0x0, symName: __ZNSt8_Rb_treeIiiSt9_IdentityIiESt4lessIiESaIiEE6_S_keyEPKSt18_Rb_tree_node_base, symObjAddr: 0x12EF0, symBinAddr: 0x10001517C, symSize: 0x1C }
  - { offset: 0x3A3AF, size: 0x8, addend: 0x0, symName: __ZNSt17_Rb_tree_iteratorIiEmmEv, symObjAddr: 0x12EC0, symBinAddr: 0x10001514C, symSize: 0x30 }
  - { offset: 0x3A421, size: 0x8, addend: 0x0, symName: __ZNSt4pairIPSt18_Rb_tree_node_baseS1_EC1IRPSt13_Rb_tree_nodeIiERS1_Lb1EEEOT_OT0_, symObjAddr: 0x12E78, symBinAddr: 0x100015104, symSize: 0x48 }
  - { offset: 0x3A46E, size: 0x8, addend: 0x0, symName: __ZSteqRKSt17_Rb_tree_iteratorIiES2_, symObjAddr: 0x12E48, symBinAddr: 0x1000150D4, symSize: 0x30 }
  - { offset: 0x3A4AD, size: 0x8, addend: 0x0, symName: __ZNSt8_Rb_treeIiiSt9_IdentityIiESt4lessIiESaIiEE5beginEv, symObjAddr: 0x12E20, symBinAddr: 0x1000150AC, symSize: 0x28 }
  - { offset: 0x3A4D3, size: 0x8, addend: 0x0, symName: __ZNSt8_Rb_treeIiiSt9_IdentityIiESt4lessIiESaIiEE6_S_keyEPKSt13_Rb_tree_nodeIiE, symObjAddr: 0x12DF8, symBinAddr: 0x100015084, symSize: 0x28 }
  - { offset: 0x3A501, size: 0x8, addend: 0x0, symName: __ZNSt8_Rb_treeIiiSt9_IdentityIiESt4lessIiESaIiEE6_M_endEv, symObjAddr: 0x12DE0, symBinAddr: 0x10001506C, symSize: 0x18 }
  - { offset: 0x3A52B, size: 0x8, addend: 0x0, symName: __ZNSt8_Rb_treeIiiSt9_IdentityIiESt4lessIiESaIiEE11_M_put_nodeEPSt13_Rb_tree_nodeIiE, symObjAddr: 0x12D94, symBinAddr: 0x100015020, symSize: 0x4C }
  - { offset: 0x3A59C, size: 0x8, addend: 0x0, symName: __ZNSt8_Rb_treeIiiSt9_IdentityIiESt4lessIiESaIiEE15_M_destroy_nodeEPSt13_Rb_tree_nodeIiE, symObjAddr: 0x12D3C, symBinAddr: 0x100014FC8, symSize: 0x58 }
  - { offset: 0x3A66F, size: 0x8, addend: 0x0, symName: __ZNSt12_Destroy_auxILb0EE9__destroyIPSt6vectorIiSaIiEEEEvT_S6_, symObjAddr: 0x12CF0, symBinAddr: 0x100014F7C, symSize: 0x4C }
  - { offset: 0x3A6B5, size: 0x8, addend: 0x0, symName: __ZNSt15__new_allocatorISt6vectorIiSaIiEEE10deallocateEPS2_m, symObjAddr: 0x12CB4, symBinAddr: 0x100014F40, symSize: 0x3C }
  - { offset: 0x3A741, size: 0x8, addend: 0x0, symName: __ZNSt8_Rb_treeIxSt4pairIKxiESt10_Select1stIS2_ESt4lessIxESaIS2_EE14_M_create_nodeIJRKSt21piecewise_construct_tSt5tupleIJOxEESD_IJEEEEEPSt13_Rb_tree_nodeIS2_EDpOT_, symObjAddr: 0x12C44, symBinAddr: 0x100014ED0, symSize: 0x70 }
  - { offset: 0x3A7E4, size: 0x8, addend: 0x0, symName: __ZNSt11_Tuple_implILm0EJOxEEC2IxEEOT_, symObjAddr: 0x12C08, symBinAddr: 0x100014E94, symSize: 0x3C }
  - { offset: 0x3A827, size: 0x8, addend: 0x0, symName: __ZNKSt8__detail10_Select1stclIRKSt4pairIKiiEEEONS0_10__1st_typeIT_E4typeEOS8_, symObjAddr: 0x12BE8, symBinAddr: 0x100014E74, symSize: 0x20 }
  - { offset: 0x3A880, size: 0x8, addend: 0x0, symName: __ZNKSt10_HashtableIiSt4pairIKiiESaIS2_ENSt8__detail10_Select1stESt8equal_toIiESt4hashIiENS4_18_Mod_range_hashingENS4_20_Default_ranged_hashENS4_20_Prime_rehash_policyENS4_17_Hashtable_traitsILb0ELb0ELb1EEEE3endEv, symObjAddr: 0x12BC4, symBinAddr: 0x100014E50, symSize: 0x24 }
  - { offset: 0x3A8D2, size: 0x8, addend: 0x0, symName: __ZNSt8__detail20_Node_const_iteratorISt4pairIKiiELb0ELb0EEC1EPNS_10_Hash_nodeIS3_Lb0EEE, symObjAddr: 0x12B9C, symBinAddr: 0x100014E28, symSize: 0x28 }
  - { offset: 0x3A901, size: 0x8, addend: 0x0, symName: __ZNKSt10_HashtableIiiSaIiENSt8__detail9_IdentityESt8equal_toIiESt4hashIiENS1_18_Mod_range_hashingENS1_20_Default_ranged_hashENS1_20_Prime_rehash_policyENS1_17_Hashtable_traitsILb0ELb1ELb1EEEE19_M_find_before_nodeEmRKim, symObjAddr: 0x12AA0, symBinAddr: 0x100014D2C, symSize: 0xFC }
  - { offset: 0x3A993, size: 0x8, addend: 0x0, symName: __ZNKSt8__detail15_Hash_code_baseIiiNS_9_IdentityESt4hashIiENS_18_Mod_range_hashingENS_20_Default_ranged_hashELb0EE15_M_bucket_indexEmm, symObjAddr: 0x12A74, symBinAddr: 0x100014D00, symSize: 0x2C }
  - { offset: 0x3A9DF, size: 0x8, addend: 0x0, symName: __ZNKSt8__detail15_Hash_code_baseIiiNS_9_IdentityESt4hashIiENS_18_Mod_range_hashingENS_20_Default_ranged_hashELb0EE7_M_hashEv, symObjAddr: 0x12A58, symBinAddr: 0x100014CE4, symSize: 0x1C }
  - { offset: 0x3AA09, size: 0x8, addend: 0x0, symName: __ZNKSt8equal_toIiEclERKiS2_, symObjAddr: 0x12A24, symBinAddr: 0x100014CB0, symSize: 0x34 }
  - { offset: 0x3AA60, size: 0x8, addend: 0x0, symName: __ZNKSt8__detail9_IdentityclIRKiEEOT_S5_, symObjAddr: 0x12A04, symBinAddr: 0x100014C90, symSize: 0x20 }
  - { offset: 0x3AAB9, size: 0x8, addend: 0x0, symName: __ZNKSt8__detail15_Hashtable_baseIiiNS_9_IdentityESt8equal_toIiESt4hashIiENS_18_Mod_range_hashingENS_20_Default_ranged_hashENS_17_Hashtable_traitsILb0ELb1ELb1EEEE5_M_eqEv, symObjAddr: 0x129E8, symBinAddr: 0x100014C74, symSize: 0x1C }
  - { offset: 0x3AADF, size: 0x8, addend: 0x0, symName: __ZNSt8__detail22_Hashtable_hash_traitsISt4hashIiEE22__small_size_thresholdEv, symObjAddr: 0x129E0, symBinAddr: 0x100014C6C, symSize: 0x8 }
  - { offset: 0x3AAFB, size: 0x8, addend: 0x0, symName: __ZN9__gnu_cxx16__aligned_bufferIiE6_M_ptrEv, symObjAddr: 0x129C4, symBinAddr: 0x100014C50, symSize: 0x1C }
  - { offset: 0x3AB4D, size: 0x8, addend: 0x0, symName: __ZNSt8__detail19_Node_iterator_baseIiLb0EEC2EPNS_10_Hash_nodeIiLb0EEE, symObjAddr: 0x129A0, symBinAddr: 0x100014C2C, symSize: 0x24 }
  - { offset: 0x3AB7C, size: 0x8, addend: 0x0, symName: __ZNSt10_HashtableIiiSaIiENSt8__detail9_IdentityESt8equal_toIiESt4hashIiENS1_18_Mod_range_hashingENS1_20_Default_ranged_hashENS1_20_Prime_rehash_policyENS1_17_Hashtable_traitsILb0ELb1ELb1EEEE20_M_insert_unique_auxIRKiNS1_10_AllocNodeISaINS1_10_Hash_nodeIiLb0EEEEEEEESt4pairINS1_14_Node_iteratorIiLb1ELb0EEEbEOT_RKT0_, symObjAddr: 0x12944, symBinAddr: 0x100014BD0, symSize: 0x5C }
  - { offset: 0x3ABE5, size: 0x8, addend: 0x0, symName: __ZNKSt8__detail19_ConvertToValueTypeINS_9_IdentityEiEclIRKiEEOT_S7_, symObjAddr: 0x12924, symBinAddr: 0x100014BB0, symSize: 0x20 }
  - { offset: 0x3AC28, size: 0x8, addend: 0x0, symName: __ZNSt8__detail16_Hashtable_allocISaINS_10_Hash_nodeIiLb0EEEEE21_M_deallocate_bucketsEPPNS_15_Hash_node_baseEm, symObjAddr: 0x128AC, symBinAddr: 0x100014B38, symSize: 0x78 }
  - { offset: 0x3AD38, size: 0x8, addend: 0x0, symName: __ZNKSt10_HashtableIiiSaIiENSt8__detail9_IdentityESt8equal_toIiESt4hashIiENS1_18_Mod_range_hashingENS1_20_Default_ranged_hashENS1_20_Prime_rehash_policyENS1_17_Hashtable_traitsILb0ELb1ELb1EEEE21_M_uses_single_bucketEPPNS1_15_Hash_node_baseE, symObjAddr: 0x12870, symBinAddr: 0x100014AFC, symSize: 0x3C }
  - { offset: 0x3AD73, size: 0x8, addend: 0x0, symName: __ZNSt8__detail16_Hashtable_allocISaINS_10_Hash_nodeIiLb0EEEEE18_M_deallocate_nodeEPS2_, symObjAddr: 0x127FC, symBinAddr: 0x100014A88, symSize: 0x74 }
  - { offset: 0x3AE2C, size: 0x8, addend: 0x0, symName: __ZNSt8_Rb_treeIiSt4pairIKiiESt10_Select1stIS2_ESt4lessIiESaIS2_EE14_M_create_nodeIJRKSt21piecewise_construct_tSt5tupleIJOiEESD_IJEEEEEPSt13_Rb_tree_nodeIS2_EDpOT_, symObjAddr: 0x1278C, symBinAddr: 0x100014A18, symSize: 0x70 }
  - { offset: 0x3AECF, size: 0x8, addend: 0x0, symName: __ZNSt11_Tuple_implILm0EJOiEEC2IiEEOT_, symObjAddr: 0x12750, symBinAddr: 0x1000149DC, symSize: 0x3C }
  - { offset: 0x3AF03, size: 0x8, addend: 0x0, symName: __ZSt25__uninitialized_default_nIPimET_S1_T0_, symObjAddr: 0x12724, symBinAddr: 0x1000149B0, symSize: 0x2C }
  - { offset: 0x3AF65, size: 0x8, addend: 0x0, symName: __ZNSt8_Rb_treeIiSt4pairIKiiESt10_Select1stIS2_ESt4lessIiESaIS2_EE14_M_insert_nodeEPSt18_Rb_tree_node_baseSA_PSt13_Rb_tree_nodeIS2_E, symObjAddr: 0x12654, symBinAddr: 0x1000148E0, symSize: 0xD0 }
  - { offset: 0x3AFD3, size: 0x8, addend: 0x0, symName: __ZNSt17_Rb_tree_iteratorISt4pairIKiiEEppEv, symObjAddr: 0x12624, symBinAddr: 0x1000148B0, symSize: 0x30 }
  - { offset: 0x3AFFD, size: 0x8, addend: 0x0, symName: __ZNSt17_Rb_tree_iteratorISt4pairIKiiEEmmEv, symObjAddr: 0x125F4, symBinAddr: 0x100014880, symSize: 0x30 }
  - { offset: 0x3B027, size: 0x8, addend: 0x0, symName: __ZNSt8_Rb_treeIiSt4pairIKiiESt10_Select1stIS2_ESt4lessIiESaIS2_EE11_M_leftmostEv, symObjAddr: 0x125DC, symBinAddr: 0x100014868, symSize: 0x18 }
  - { offset: 0x3B051, size: 0x8, addend: 0x0, symName: __ZNSt8_Rb_treeIiSt4pairIKiiESt10_Select1stIS2_ESt4lessIiESaIS2_EE24_M_get_insert_unique_posERS1_, symObjAddr: 0x12484, symBinAddr: 0x100014710, symSize: 0x158 }
  - { offset: 0x3B0D5, size: 0x8, addend: 0x0, symName: __ZNSt8_Rb_treeIiSt4pairIKiiESt10_Select1stIS2_ESt4lessIiESaIS2_EE12_M_rightmostEv, symObjAddr: 0x1246C, symBinAddr: 0x1000146F8, symSize: 0x18 }
  - { offset: 0x3B0FF, size: 0x8, addend: 0x0, symName: __ZNKSt8_Rb_treeIiSt4pairIKiiESt10_Select1stIS2_ESt4lessIiESaIS2_EE4sizeEv, symObjAddr: 0x12454, symBinAddr: 0x1000146E0, symSize: 0x18 }
  - { offset: 0x3B129, size: 0x8, addend: 0x0, symName: __ZNKSt23_Rb_tree_const_iteratorISt4pairIKiiEE13_M_const_castEv, symObjAddr: 0x1242C, symBinAddr: 0x1000146B8, symSize: 0x28 }
  - { offset: 0x3B153, size: 0x8, addend: 0x0, symName: __ZNSt8_Rb_treeIiSt4pairIKiiESt10_Select1stIS2_ESt4lessIiESaIS2_EE14_M_create_nodeIJRKSt21piecewise_construct_tSt5tupleIJRS1_EESD_IJEEEEEPSt13_Rb_tree_nodeIS2_EDpOT_, symObjAddr: 0x123BC, symBinAddr: 0x100014648, symSize: 0x70 }
  - { offset: 0x3B1EC, size: 0x8, addend: 0x0, symName: __ZNSt10_Head_baseILm0ERKiLb0EEC2ES1_, symObjAddr: 0x12398, symBinAddr: 0x100014624, symSize: 0x24 }
  - { offset: 0x3B21B, size: 0x8, addend: 0x0, symName: __ZN9__gnu_cxx16__aligned_membufISt4pairIKiiEE6_M_ptrEv, symObjAddr: 0x1237C, symBinAddr: 0x100014608, symSize: 0x1C }
  - { offset: 0x3B241, size: 0x8, addend: 0x0, symName: __ZNSt8_Rb_treeIiSt4pairIKiiESt10_Select1stIS2_ESt4lessIiESaIS2_EE6_S_keyEPKSt13_Rb_tree_nodeIS2_E, symObjAddr: 0x12354, symBinAddr: 0x1000145E0, symSize: 0x28 }
  - { offset: 0x3B26F, size: 0x8, addend: 0x0, symName: __ZNSt8_Rb_treeIiSt4pairIKiiESt10_Select1stIS2_ESt4lessIiESaIS2_EE11_M_put_nodeEPSt13_Rb_tree_nodeIS2_E, symObjAddr: 0x12308, symBinAddr: 0x100014594, symSize: 0x4C }
  - { offset: 0x3B2E0, size: 0x8, addend: 0x0, symName: __ZNSt8_Rb_treeIiSt4pairIKiiESt10_Select1stIS2_ESt4lessIiESaIS2_EE15_M_destroy_nodeEPSt13_Rb_tree_nodeIS2_E, symObjAddr: 0x122B0, symBinAddr: 0x10001453C, symSize: 0x58 }
  - { offset: 0x3B375, size: 0x8, addend: 0x0, symName: __ZNSt8_Rb_treeIxSt4pairIKxiESt10_Select1stIS2_ESt4lessIxESaIS2_EE14_M_insert_nodeEPSt18_Rb_tree_node_baseSA_PSt13_Rb_tree_nodeIS2_E, symObjAddr: 0x121E0, symBinAddr: 0x10001446C, symSize: 0xD0 }
  - { offset: 0x3B3E3, size: 0x8, addend: 0x0, symName: __ZNSt17_Rb_tree_iteratorISt4pairIKxiEEppEv, symObjAddr: 0x121B0, symBinAddr: 0x10001443C, symSize: 0x30 }
  - { offset: 0x3B40D, size: 0x8, addend: 0x0, symName: __ZNSt17_Rb_tree_iteratorISt4pairIKxiEEmmEv, symObjAddr: 0x12180, symBinAddr: 0x10001440C, symSize: 0x30 }
  - { offset: 0x3B47F, size: 0x8, addend: 0x0, symName: __ZNSt4pairIPSt18_Rb_tree_node_baseS1_EC1IRS1_S4_Lb1EEEOT_OT0_, symObjAddr: 0x12138, symBinAddr: 0x1000143C4, symSize: 0x48 }
  - { offset: 0x3B4C9, size: 0x8, addend: 0x0, symName: __ZNSt8_Rb_treeIxSt4pairIKxiESt10_Select1stIS2_ESt4lessIxESaIS2_EE11_M_leftmostEv, symObjAddr: 0x12120, symBinAddr: 0x1000143AC, symSize: 0x18 }
  - { offset: 0x3B4F3, size: 0x8, addend: 0x0, symName: __ZNSt8_Rb_treeIxSt4pairIKxiESt10_Select1stIS2_ESt4lessIxESaIS2_EE24_M_get_insert_unique_posERS1_, symObjAddr: 0x11FC8, symBinAddr: 0x100014254, symSize: 0x158 }
  - { offset: 0x3B5BF, size: 0x8, addend: 0x0, symName: __ZNSt4pairIPSt18_Rb_tree_node_baseS1_EC1IS1_S1_Lb1EEERKS1_S5_, symObjAddr: 0x11F8C, symBinAddr: 0x100014218, symSize: 0x3C }
  - { offset: 0x3B609, size: 0x8, addend: 0x0, symName: __ZNSt8_Rb_treeIxSt4pairIKxiESt10_Select1stIS2_ESt4lessIxESaIS2_EE12_M_rightmostEv, symObjAddr: 0x11F74, symBinAddr: 0x100014200, symSize: 0x18 }
  - { offset: 0x3B633, size: 0x8, addend: 0x0, symName: __ZNKSt8_Rb_treeIxSt4pairIKxiESt10_Select1stIS2_ESt4lessIxESaIS2_EE4sizeEv, symObjAddr: 0x11F5C, symBinAddr: 0x1000141E8, symSize: 0x18 }
  - { offset: 0x3B65D, size: 0x8, addend: 0x0, symName: __ZNKSt23_Rb_tree_const_iteratorISt4pairIKxiEE13_M_const_castEv, symObjAddr: 0x11F34, symBinAddr: 0x1000141C0, symSize: 0x28 }
  - { offset: 0x3B687, size: 0x8, addend: 0x0, symName: __ZNSt8_Rb_treeIxSt4pairIKxiESt10_Select1stIS2_ESt4lessIxESaIS2_EE14_M_create_nodeIJRKSt21piecewise_construct_tSt5tupleIJRS1_EESD_IJEEEEEPSt13_Rb_tree_nodeIS2_EDpOT_, symObjAddr: 0x11EC4, symBinAddr: 0x100014150, symSize: 0x70 }
  - { offset: 0x3B720, size: 0x8, addend: 0x0, symName: __ZNSt10_Head_baseILm0ERKxLb0EEC2ES1_, symObjAddr: 0x11EA0, symBinAddr: 0x10001412C, symSize: 0x24 }
  - { offset: 0x3B74F, size: 0x8, addend: 0x0, symName: __ZN9__gnu_cxx16__aligned_membufISt4pairIKxiEE6_M_ptrEv, symObjAddr: 0x11E84, symBinAddr: 0x100014110, symSize: 0x1C }
  - { offset: 0x3B775, size: 0x8, addend: 0x0, symName: __ZNSt8_Rb_treeIxSt4pairIKxiESt10_Select1stIS2_ESt4lessIxESaIS2_EE6_S_keyEPKSt13_Rb_tree_nodeIS2_E, symObjAddr: 0x11E5C, symBinAddr: 0x1000140E8, symSize: 0x28 }
  - { offset: 0x3B7A3, size: 0x8, addend: 0x0, symName: __ZNSt8_Rb_treeIxSt4pairIKxiESt10_Select1stIS2_ESt4lessIxESaIS2_EE11_M_put_nodeEPSt13_Rb_tree_nodeIS2_E, symObjAddr: 0x11E10, symBinAddr: 0x10001409C, symSize: 0x4C }
  - { offset: 0x3B814, size: 0x8, addend: 0x0, symName: __ZNSt8_Rb_treeIxSt4pairIKxiESt10_Select1stIS2_ESt4lessIxESaIS2_EE15_M_destroy_nodeEPSt13_Rb_tree_nodeIS2_E, symObjAddr: 0x11DB8, symBinAddr: 0x100014044, symSize: 0x58 }
  - { offset: 0x3B8A5, size: 0x8, addend: 0x0, symName: __ZSt20uninitialized_fill_nIPimiET_S1_T0_RKT1_, symObjAddr: 0x11D84, symBinAddr: 0x100014010, symSize: 0x34 }
  - { offset: 0x3B933, size: 0x8, addend: 0x0, symName: __ZSt26__unguarded_insertion_sortIN9__gnu_cxx17__normal_iteratorIPiSt6vectorIiSaIiEEEENS0_5__ops15_Iter_less_iterEEvT_S9_T0_, symObjAddr: 0x11D18, symBinAddr: 0x100013FA4, symSize: 0x6C }
  - { offset: 0x3B9B5, size: 0x8, addend: 0x0, symName: __ZSt16__insertion_sortIN9__gnu_cxx17__normal_iteratorIPiSt6vectorIiSaIiEEEENS0_5__ops15_Iter_less_iterEEvT_S9_T0_, symObjAddr: 0x11C1C, symBinAddr: 0x100013EA8, symSize: 0xFC }
  - { offset: 0x3BA5B, size: 0x8, addend: 0x0, symName: __ZSt27__unguarded_partition_pivotIN9__gnu_cxx17__normal_iteratorIPiSt6vectorIiSaIiEEEENS0_5__ops15_Iter_less_iterEET_S9_S9_T0_, symObjAddr: 0x11B78, symBinAddr: 0x100013E04, symSize: 0xA4 }
  - { offset: 0x3BACA, size: 0x8, addend: 0x0, symName: __ZSt14__partial_sortIN9__gnu_cxx17__normal_iteratorIPiSt6vectorIiSaIiEEEENS0_5__ops15_Iter_less_iterEEvT_S9_S9_T0_, symObjAddr: 0x11B2C, symBinAddr: 0x100013DB8, symSize: 0x4C }
  - { offset: 0x3BB41, size: 0x8, addend: 0x0, symName: __ZN9__gnu_cxx16__aligned_bufferISt4pairIKiiEE7_M_addrEv, symObjAddr: 0x11B18, symBinAddr: 0x100013DA4, symSize: 0x14 }
  - { offset: 0x3BB93, size: 0x8, addend: 0x0, symName: __ZNSt8__detail19_Node_iterator_baseISt4pairIKiiELb0EEC2EPNS_10_Hash_nodeIS3_Lb0EEE, symObjAddr: 0x11AF4, symBinAddr: 0x100013D80, symSize: 0x24 }
  - { offset: 0x3BBC2, size: 0x8, addend: 0x0, symName: __ZNSt10_HashtableIiSt4pairIKiiESaIS2_ENSt8__detail10_Select1stESt8equal_toIiESt4hashIiENS4_18_Mod_range_hashingENS4_20_Default_ranged_hashENS4_20_Prime_rehash_policyENS4_17_Hashtable_traitsILb0ELb0ELb1EEEE22_M_insert_bucket_beginEmPNS4_10_Hash_nodeIS2_Lb0EEE, symObjAddr: 0x119E8, symBinAddr: 0x100013C74, symSize: 0x10C }
  - { offset: 0x3BC0E, size: 0x8, addend: 0x0, symName: __ZNKSt8__detail15_Hash_code_baseIiSt4pairIKiiENS_10_Select1stESt4hashIiENS_18_Mod_range_hashingENS_20_Default_ranged_hashELb0EE13_M_store_codeERNS_21_Hash_node_code_cacheILb0EEEm, symObjAddr: 0x119CC, symBinAddr: 0x100013C58, symSize: 0x1C }
  - { offset: 0x3BC4A, size: 0x8, addend: 0x0, symName: __ZNSt10_HashtableIiSt4pairIKiiESaIS2_ENSt8__detail10_Select1stESt8equal_toIiESt4hashIiENS4_18_Mod_range_hashingENS4_20_Default_ranged_hashENS4_20_Prime_rehash_policyENS4_17_Hashtable_traitsILb0ELb0ELb1EEEE9_M_rehashEmSt17integral_constantIbLb1EE, symObjAddr: 0x11860, symBinAddr: 0x100013AEC, symSize: 0x16C }
  - { offset: 0x3BD1B, size: 0x8, addend: 0x0, symName: __ZNSt8__detail17_RehashStateGuardINS_20_Prime_rehash_policyEED1Ev, symObjAddr: 0x1181C, symBinAddr: 0x100013AA8, symSize: 0x44 }
  - { offset: 0x3BD69, size: 0x8, addend: 0x0, symName: __ZNSt8__detail17_RehashStateGuardINS_20_Prime_rehash_policyEEC1ERS1_, symObjAddr: 0x117D8, symBinAddr: 0x100013A64, symSize: 0x44 }
  - { offset: 0x3BD98, size: 0x8, addend: 0x0, symName: __ZNSt8__detail16_Hashtable_allocISaINS_10_Hash_nodeISt4pairIKiiELb0EEEEE16_M_allocate_nodeIJRKSt21piecewise_construct_tSt5tupleIJRS3_EESC_IJEEEEEPS5_DpOT_, symObjAddr: 0x115EC, symBinAddr: 0x100013878, symSize: 0x1EC }
  - { offset: 0x3BF68, size: 0x8, addend: 0x0, symName: __ZNSt8__detail10_Hash_nodeISt4pairIKiiELb0EEC1Ev, symObjAddr: 0x115CC, symBinAddr: 0x100013858, symSize: 0x20 }
  - { offset: 0x3BF8E, size: 0x8, addend: 0x0, symName: __ZNKSt10_HashtableIiSt4pairIKiiESaIS2_ENSt8__detail10_Select1stESt8equal_toIiESt4hashIiENS4_18_Mod_range_hashingENS4_20_Default_ranged_hashENS4_20_Prime_rehash_policyENS4_17_Hashtable_traitsILb0ELb0ELb1EEEE19_M_find_before_nodeEmRS1_m, symObjAddr: 0x114D0, symBinAddr: 0x10001375C, symSize: 0xFC }
  - { offset: 0x3C020, size: 0x8, addend: 0x0, symName: __ZNKSt8__detail15_Hash_code_baseIiSt4pairIKiiENS_10_Select1stESt4hashIiENS_18_Mod_range_hashingENS_20_Default_ranged_hashELb0EE15_M_bucket_indexEmm, symObjAddr: 0x114A4, symBinAddr: 0x100013730, symSize: 0x2C }
  - { offset: 0x3C06C, size: 0x8, addend: 0x0, symName: __ZNKSt8__detail15_Hash_code_baseIiSt4pairIKiiENS_10_Select1stESt4hashIiENS_18_Mod_range_hashingENS_20_Default_ranged_hashELb0EE7_M_hashEv, symObjAddr: 0x11488, symBinAddr: 0x100013714, symSize: 0x1C }
  - { offset: 0x3C096, size: 0x8, addend: 0x0, symName: __ZNSt8__detail16_Hashtable_allocISaINS_10_Hash_nodeISt4pairIKiiELb0EEEEE21_M_deallocate_bucketsEPPNS_15_Hash_node_baseEm, symObjAddr: 0x11410, symBinAddr: 0x10001369C, symSize: 0x78 }
  - { offset: 0x3C1A6, size: 0x8, addend: 0x0, symName: __ZNKSt10_HashtableIiSt4pairIKiiESaIS2_ENSt8__detail10_Select1stESt8equal_toIiESt4hashIiENS4_18_Mod_range_hashingENS4_20_Default_ranged_hashENS4_20_Prime_rehash_policyENS4_17_Hashtable_traitsILb0ELb0ELb1EEEE21_M_uses_single_bucketEPPNS4_15_Hash_node_baseE, symObjAddr: 0x113D4, symBinAddr: 0x100013660, symSize: 0x3C }
  - { offset: 0x3C1E1, size: 0x8, addend: 0x0, symName: __ZNSt8__detail16_Hashtable_allocISaINS_10_Hash_nodeISt4pairIKiiELb0EEEEE18_M_deallocate_nodeEPS5_, symObjAddr: 0x11360, symBinAddr: 0x1000135EC, symSize: 0x74 }
  - { offset: 0x3C296, size: 0x8, addend: 0x0, symName: __ZSt12__relocate_aIPiS0_SaIiEET0_T_S3_S2_RT1_, symObjAddr: 0x11304, symBinAddr: 0x100013590, symSize: 0x5C }
  - { offset: 0x3C312, size: 0x8, addend: 0x0, symName: __ZNKSt6vectorIiSaIiEE8max_sizeEv, symObjAddr: 0x112E4, symBinAddr: 0x100013570, symSize: 0x20 }
  - { offset: 0x3C33C, size: 0x8, addend: 0x0, symName: __ZNSt15__new_allocatorIiE10deallocateEPim, symObjAddr: 0x112B4, symBinAddr: 0x100013540, symSize: 0x30 }
  - { offset: 0x3C382, size: 0x8, addend: 0x0, symName: __ZNSt12_Destroy_auxILb1EE9__destroyIPiEEvT_S3_, symObjAddr: 0x1129C, symBinAddr: 0x100013528, symSize: 0x18 }
  - { offset: 0x3C3B6, size: 0x8, addend: 0x0, symName: __ZSt18uninitialized_copyIPKiPiET0_T_S4_S3_, symObjAddr: 0x11260, symBinAddr: 0x1000134EC, symSize: 0x3C }
  - { offset: 0x3C455, size: 0x8, addend: 0x0, symName: __ZSt13__countl_zeroImEiT_, symObjAddr: 0x1120C, symBinAddr: 0x100013498, symSize: 0x54 }
  - { offset: 0x3C4EE, size: 0x8, addend: 0x0, symName: __ZNK9__gnu_cxx17__normal_iteratorIPKiSt6vectorIiSaIiEEE4baseEv, symObjAddr: 0x111F8, symBinAddr: 0x100013484, symSize: 0x14 }
  - { offset: 0x3C514, size: 0x8, addend: 0x0, symName: __ZSt18uninitialized_copyIPiS0_ET0_T_S2_S1_, symObjAddr: 0x111BC, symBinAddr: 0x100013448, symSize: 0x3C }
  - { offset: 0x3C58F, size: 0x8, addend: 0x0, symName: __ZSt13__copy_move_aILb0EPiS0_ET1_T0_S2_S1_, symObjAddr: 0x1115C, symBinAddr: 0x1000133E8, symSize: 0x60 }
  - { offset: 0x3C5F7, size: 0x8, addend: 0x0, symName: __ZSt12__miter_baseIPiET_S1_, symObjAddr: 0x11148, symBinAddr: 0x1000133D4, symSize: 0x14 }
  - { offset: 0x3C62A, size: 0x8, addend: 0x0, symName: __ZSt8_DestroyIN9__gnu_cxx17__normal_iteratorIPiSt6vectorIiSaIiEEEEEvT_S7_, symObjAddr: 0x11120, symBinAddr: 0x1000133AC, symSize: 0x28 }
  - { offset: 0x3C66C, size: 0x8, addend: 0x0, symName: __ZSt13__copy_move_aILb0EN9__gnu_cxx17__normal_iteratorIPKiSt6vectorIiSaIiEEEENS1_IPiS6_EEET1_T0_SB_SA_, symObjAddr: 0x110C0, symBinAddr: 0x10001334C, symSize: 0x60 }
  - { offset: 0x3C6D4, size: 0x8, addend: 0x0, symName: __ZSt12__miter_baseIN9__gnu_cxx17__normal_iteratorIPKiSt6vectorIiSaIiEEEEET_S8_, symObjAddr: 0x110AC, symBinAddr: 0x100013338, symSize: 0x14 }
  - { offset: 0x3C70B, size: 0x8, addend: 0x0, symName: __ZNSt6vectorIiSaIiEE15_M_erase_at_endEPi, symObjAddr: 0x11024, symBinAddr: 0x1000132B0, symSize: 0x88 }
  - { offset: 0x3C79C, size: 0x8, addend: 0x0, symName: __ZNSt6vectorIS_IiSaIiEESaIS1_EE11_S_relocateEPS1_S4_S4_RS2_, symObjAddr: 0x10FF0, symBinAddr: 0x10001327C, symSize: 0x34 }
  - { offset: 0x3C7F9, size: 0x8, addend: 0x0, symName: __ZSt12__to_addressISt6vectorIiSaIiEEEPT_S4_, symObjAddr: 0x10FDC, symBinAddr: 0x100013268, symSize: 0x14 }
  - { offset: 0x3C82F, size: 0x8, addend: 0x0, symName: __ZNKSt6vectorIS_IiSaIiEESaIS1_EE12_M_check_lenEmPKc, symObjAddr: 0x10F0C, symBinAddr: 0x100013198, symSize: 0xD0 }
  - { offset: 0x3C8D1, size: 0x8, addend: 0x0, symName: __ZSt7forwardIRKSt6vectorIiSaIiEEEOT_RNSt16remove_referenceIS5_E4typeE, symObjAddr: 0x10EF8, symBinAddr: 0x100013184, symSize: 0x14 }
  - { offset: 0x3C903, size: 0x8, addend: 0x0, symName: __ZSt18uninitialized_copyIN9__gnu_cxx17__normal_iteratorIPKiSt6vectorIiSaIiEEEEPiET0_T_SA_S9_, symObjAddr: 0x10EBC, symBinAddr: 0x100013148, symSize: 0x3C }
  - { offset: 0x3C9AA, size: 0x8, addend: 0x0, symName: __ZN9__gnu_cxx17__normal_iteratorIPKiSt6vectorIiSaIiEEEC1ERKS2_, symObjAddr: 0x10E94, symBinAddr: 0x100013120, symSize: 0x28 }
  - { offset: 0x3C9EB, size: 0x8, addend: 0x0, symName: __ZSt22__final_insertion_sortIN9__gnu_cxx17__normal_iteratorIPSt6vectorIiSaIiEES2_IS4_SaIS4_EEEENS0_5__ops15_Iter_less_iterEEvT_SB_T0_, symObjAddr: 0x10DF8, symBinAddr: 0x100013084, symSize: 0x9C }
  - { offset: 0x3CA49, size: 0x8, addend: 0x0, symName: __ZSt16__introsort_loopIN9__gnu_cxx17__normal_iteratorIPSt6vectorIiSaIiEES2_IS4_SaIS4_EEEElNS0_5__ops15_Iter_less_iterEEvT_SB_T0_T1_, symObjAddr: 0x10D40, symBinAddr: 0x100012FCC, symSize: 0xB8 }
  - { offset: 0x3CAE5, size: 0x8, addend: 0x0, symName: __ZN9__gnu_cxxmiIPSt6vectorIiSaIiEES1_IS3_SaIS3_EEEENS_17__normal_iteratorIT_T0_E15difference_typeERKSA_SD_, symObjAddr: 0x10CF4, symBinAddr: 0x100012F80, symSize: 0x4C }
  - { offset: 0x3CB36, size: 0x8, addend: 0x0, symName: __ZNKSt8__detail15_Hashtable_baseIiSt4pairIKiiENS_10_Select1stESt8equal_toIiESt4hashIiENS_18_Mod_range_hashingENS_20_Default_ranged_hashENS_17_Hashtable_traitsILb0ELb0ELb1EEEE13_M_key_equalsERS2_RKNS_16_Hash_node_valueIS3_Lb0EEE, symObjAddr: 0x10C88, symBinAddr: 0x100012F14, symSize: 0x6C }
  - { offset: 0x3CBC6, size: 0x8, addend: 0x0, symName: __ZNSt10_HashtableIiSt4pairIKiiESaIS2_ENSt8__detail10_Select1stESt8equal_toIiESt4hashIiENS4_18_Mod_range_hashingENS4_20_Default_ranged_hashENS4_20_Prime_rehash_policyENS4_17_Hashtable_traitsILb0ELb0ELb1EEEE22__small_size_thresholdEv, symObjAddr: 0x10C74, symBinAddr: 0x100012F00, symSize: 0x14 }
  - { offset: 0x3CBE2, size: 0x8, addend: 0x0, symName: __ZNKSt10_HashtableIiSt4pairIKiiESaIS2_ENSt8__detail10_Select1stESt8equal_toIiESt4hashIiENS4_18_Mod_range_hashingENS4_20_Default_ranged_hashENS4_20_Prime_rehash_policyENS4_17_Hashtable_traitsILb0ELb0ELb1EEEE4sizeEv, symObjAddr: 0x10C5C, symBinAddr: 0x100012EE8, symSize: 0x18 }
  - { offset: 0x3CC08, size: 0x8, addend: 0x0, symName: __ZSt22__uninitialized_copy_aISt23_Rb_tree_const_iteratorISt6vectorIiSaIiEEEPS3_S3_ET0_T_S7_S6_RSaIT1_E, symObjAddr: 0x10C2C, symBinAddr: 0x100012EB8, symSize: 0x30 }
  - { offset: 0x3CCCF, size: 0x8, addend: 0x0, symName: __ZNSt23_Rb_tree_const_iteratorISt6vectorIiSaIiEEEC1EPKSt18_Rb_tree_node_base, symObjAddr: 0x10C08, symBinAddr: 0x100012E94, symSize: 0x24 }
  - { offset: 0x3CD26, size: 0x8, addend: 0x0, symName: __ZNSt23_Rb_tree_const_iteratorISt6vectorIiSaIiEEEC1ERKSt17_Rb_tree_iteratorIS2_E, symObjAddr: 0x10BE0, symBinAddr: 0x100012E6C, symSize: 0x28 }
  - { offset: 0x3CD58, size: 0x8, addend: 0x0, symName: __ZSt7forwardIRSt17_Rb_tree_iteratorISt6vectorIiSaIiEEEEOT_RNSt16remove_referenceIS6_E4typeE, symObjAddr: 0x10BCC, symBinAddr: 0x100012E58, symSize: 0x14 }
  - { offset: 0x3CDB6, size: 0x8, addend: 0x0, symName: __ZNSt17_Rb_tree_iteratorISt6vectorIiSaIiEEEC1EPSt18_Rb_tree_node_base, symObjAddr: 0x10BA8, symBinAddr: 0x100012E34, symSize: 0x24 }
  - { offset: 0x3CE2D, size: 0x8, addend: 0x0, symName: __ZNSt4pairISt17_Rb_tree_iteratorISt6vectorIiSaIiEEEbEC1IS4_bLb1EEEOT_OT0_, symObjAddr: 0x10B5C, symBinAddr: 0x100012DE8, symSize: 0x4C }
  - { offset: 0x3CE7E, size: 0x8, addend: 0x0, symName: __ZNSt8_Rb_treeISt6vectorIiSaIiEES2_St9_IdentityIS2_ESt4lessIS2_ESaIS2_EE10_M_insert_IS2_NS8_11_Alloc_nodeEEESt17_Rb_tree_iteratorIS2_EPSt18_Rb_tree_node_baseSE_OT_RT0_, symObjAddr: 0x10A6C, symBinAddr: 0x100012CF8, symSize: 0xF0 }
  - { offset: 0x3CF49, size: 0x8, addend: 0x0, symName: __ZNSt8_Rb_treeISt6vectorIiSaIiEES2_St9_IdentityIS2_ESt4lessIS2_ESaIS2_EE11_Alloc_nodeC1ERS8_, symObjAddr: 0x10A48, symBinAddr: 0x100012CD4, symSize: 0x24 }
  - { offset: 0x3CF78, size: 0x8, addend: 0x0, symName: __ZNKSt9_IdentityISt6vectorIiSaIiEEEclERS2_, symObjAddr: 0x10A30, symBinAddr: 0x100012CBC, symSize: 0x18 }
  - { offset: 0x3CFB3, size: 0x8, addend: 0x0, symName: __ZNSt8_Rb_treeISt6vectorIiSaIiEES2_St9_IdentityIS2_ESt4lessIS2_ESaIS2_EE24_M_get_insert_unique_posERKS2_, symObjAddr: 0x108D8, symBinAddr: 0x100012B64, symSize: 0x158 }
  - { offset: 0x3D037, size: 0x8, addend: 0x0, symName: __ZNKSt8_Rb_treeISt6vectorIiSaIiEES2_St9_IdentityIS2_ESt4lessIS2_ESaIS2_EE9_M_mbeginEv, symObjAddr: 0x108C0, symBinAddr: 0x100012B4C, symSize: 0x18 }
  - { offset: 0x3D061, size: 0x8, addend: 0x0, symName: __ZNSt8_Rb_treeISt6vectorIiSaIiEES2_St9_IdentityIS2_ESt4lessIS2_ESaIS2_EE12_M_drop_nodeEPSt13_Rb_tree_nodeIS2_E, symObjAddr: 0x1088C, symBinAddr: 0x100012B18, symSize: 0x34 }
  - { offset: 0x3D098, size: 0x8, addend: 0x0, symName: __ZNSt8_Rb_treeISt6vectorIiSaIiEES2_St9_IdentityIS2_ESt4lessIS2_ESaIS2_EE7_S_leftEPSt18_Rb_tree_node_base, symObjAddr: 0x10874, symBinAddr: 0x100012B00, symSize: 0x18 }
  - { offset: 0x3D0C2, size: 0x8, addend: 0x0, symName: __ZNSt8_Rb_treeISt6vectorIiSaIiEES2_St9_IdentityIS2_ESt4lessIS2_ESaIS2_EE8_S_rightEPSt18_Rb_tree_node_base, symObjAddr: 0x1085C, symBinAddr: 0x100012AE8, symSize: 0x18 }
  - { offset: 0x3D102, size: 0x8, addend: 0x0, symName: __ZSt22__uninitialized_copy_aIPKSt6vectorIiSaIiEEPS2_S2_ET0_T_S7_S6_RSaIT1_E, symObjAddr: 0x1082C, symBinAddr: 0x100012AB8, symSize: 0x30 }
  - { offset: 0x3D176, size: 0x8, addend: 0x0, symName: __ZNSt12_Vector_baseISt6vectorIiSaIiEESaIS2_EE11_M_allocateEm, symObjAddr: 0x107DC, symBinAddr: 0x100012A68, symSize: 0x50 }
  - { offset: 0x3D1DA, size: 0x8, addend: 0x0, symName: __ZNSt6vectorIS_IiSaIiEESaIS1_EE17_S_check_init_lenEmRKS2_, symObjAddr: 0x10758, symBinAddr: 0x1000129E4, symSize: 0x84 }
  - { offset: 0x3D2DD, size: 0x8, addend: 0x0, symName: __ZNKSt16initializer_listISt6vectorIiSaIiEEE4sizeEv, symObjAddr: 0x10740, symBinAddr: 0x1000129CC, symSize: 0x18 }
  - { offset: 0x3D32E, size: 0x8, addend: 0x0, symName: __ZNSt12_Vector_baseISt6vectorIiSaIiEESaIS2_EE12_Vector_implC1ERKS3_, symObjAddr: 0x106F4, symBinAddr: 0x100012980, symSize: 0x4C }
  - { offset: 0x3D3E2, size: 0x8, addend: 0x0, symName: __ZNSt12_Vector_baseIiSaIiEE17_Vector_impl_data12_M_swap_dataERS2_, symObjAddr: 0x106A8, symBinAddr: 0x100012934, symSize: 0x4C }
  - { offset: 0x3D454, size: 0x8, addend: 0x0, symName: __ZNSt6vectorIiSaIiEEC1ERKS0_, symObjAddr: 0x10680, symBinAddr: 0x10001290C, symSize: 0x28 }
  - { offset: 0x3D483, size: 0x8, addend: 0x0, symName: __ZNKSt12_Vector_baseIiSaIiEE13get_allocatorEv, symObjAddr: 0x10630, symBinAddr: 0x1000128BC, symSize: 0x50 }
  - { offset: 0x3D502, size: 0x8, addend: 0x0, symName: __ZSt22__uninitialized_copy_aISt23_Rb_tree_const_iteratorIiEPiiET0_T_S4_S3_RSaIT1_E, symObjAddr: 0x10600, symBinAddr: 0x10001288C, symSize: 0x30 }
  - { offset: 0x3D5C9, size: 0x8, addend: 0x0, symName: __ZNSt23_Rb_tree_const_iteratorIiEC1EPKSt18_Rb_tree_node_base, symObjAddr: 0x105DC, symBinAddr: 0x100012868, symSize: 0x24 }
  - { offset: 0x3D620, size: 0x8, addend: 0x0, symName: __ZNSt23_Rb_tree_const_iteratorIiEC1ERKSt17_Rb_tree_iteratorIiE, symObjAddr: 0x105B4, symBinAddr: 0x100012840, symSize: 0x28 }
  - { offset: 0x3D652, size: 0x8, addend: 0x0, symName: __ZSt7forwardIRbEOT_RNSt16remove_referenceIS1_E4typeE, symObjAddr: 0x105A0, symBinAddr: 0x10001282C, symSize: 0x14 }
  - { offset: 0x3D68B, size: 0x8, addend: 0x0, symName: __ZSt7forwardIRSt17_Rb_tree_iteratorIiEEOT_RNSt16remove_referenceIS3_E4typeE, symObjAddr: 0x1058C, symBinAddr: 0x100012818, symSize: 0x14 }
  - { offset: 0x3D6E9, size: 0x8, addend: 0x0, symName: __ZNSt17_Rb_tree_iteratorIiEC1EPSt18_Rb_tree_node_base, symObjAddr: 0x10568, symBinAddr: 0x1000127F4, symSize: 0x24 }
  - { offset: 0x3D760, size: 0x8, addend: 0x0, symName: __ZNSt4pairISt17_Rb_tree_iteratorIiEbEC1IS1_bLb1EEEOT_OT0_, symObjAddr: 0x1051C, symBinAddr: 0x1000127A8, symSize: 0x4C }
  - { offset: 0x3D7B1, size: 0x8, addend: 0x0, symName: __ZNSt8_Rb_treeIiiSt9_IdentityIiESt4lessIiESaIiEE10_M_insert_IRKiNS5_11_Alloc_nodeEEESt17_Rb_tree_iteratorIiEPSt18_Rb_tree_node_baseSD_OT_RT0_, symObjAddr: 0x1042C, symBinAddr: 0x1000126B8, symSize: 0xF0 }
  - { offset: 0x3D87C, size: 0x8, addend: 0x0, symName: __ZNSt8_Rb_treeIiiSt9_IdentityIiESt4lessIiESaIiEE11_Alloc_nodeC1ERS5_, symObjAddr: 0x10408, symBinAddr: 0x100012694, symSize: 0x24 }
  - { offset: 0x3D8AB, size: 0x8, addend: 0x0, symName: __ZNKSt9_IdentityIiEclERKi, symObjAddr: 0x103F0, symBinAddr: 0x10001267C, symSize: 0x18 }
  - { offset: 0x3D8E6, size: 0x8, addend: 0x0, symName: __ZNSt8_Rb_treeIiiSt9_IdentityIiESt4lessIiESaIiEE24_M_get_insert_unique_posERKi, symObjAddr: 0x10298, symBinAddr: 0x100012524, symSize: 0x158 }
  - { offset: 0x3D96A, size: 0x8, addend: 0x0, symName: __ZNKSt8_Rb_treeIiiSt9_IdentityIiESt4lessIiESaIiEE9_M_mbeginEv, symObjAddr: 0x10280, symBinAddr: 0x10001250C, symSize: 0x18 }
  - { offset: 0x3D994, size: 0x8, addend: 0x0, symName: __ZNSt8_Rb_treeIiiSt9_IdentityIiESt4lessIiESaIiEE12_M_drop_nodeEPSt13_Rb_tree_nodeIiE, symObjAddr: 0x1024C, symBinAddr: 0x1000124D8, symSize: 0x34 }
  - { offset: 0x3D9CB, size: 0x8, addend: 0x0, symName: __ZNSt8_Rb_treeIiiSt9_IdentityIiESt4lessIiESaIiEE7_S_leftEPSt18_Rb_tree_node_base, symObjAddr: 0x10234, symBinAddr: 0x1000124C0, symSize: 0x18 }
  - { offset: 0x3D9F5, size: 0x8, addend: 0x0, symName: __ZNSt8_Rb_treeIiiSt9_IdentityIiESt4lessIiESaIiEE8_S_rightEPSt18_Rb_tree_node_base, symObjAddr: 0x1021C, symBinAddr: 0x1000124A8, symSize: 0x18 }
  - { offset: 0x3DA54, size: 0x8, addend: 0x0, symName: __ZNSt6vectorIS_IiSaIiEESaIS1_EE17_M_realloc_appendIJS1_EEEvDpOT_, symObjAddr: 0x10030, symBinAddr: 0x1000122BC, symSize: 0x1EC }
  - { offset: 0x3DBD9, size: 0x8, addend: 0x0, symName: __ZZNSt6vectorIS_IiSaIiEESaIS1_EE17_M_realloc_appendIJS1_EEEvDpOT_EN6_GuardC1EPS1_mRS2_, symObjAddr: 0xFF8C, symBinAddr: 0x100012218, symSize: 0x44 }
  - { offset: 0x3DC1E, size: 0x8, addend: 0x0, symName: __ZZNSt6vectorIS_IiSaIiEESaIS1_EE17_M_realloc_appendIJS1_EEEvDpOT_EN6_GuardD1Ev, symObjAddr: 0xFFD0, symBinAddr: 0x10001225C, symSize: 0x60 }
  - { offset: 0x3DD58, size: 0x8, addend: 0x0, symName: __ZSt7forwardISt6vectorIiSaIiEEEOT_RNSt16remove_referenceIS3_E4typeE, symObjAddr: 0xFF78, symBinAddr: 0x100012204, symSize: 0x14 }
  - { offset: 0x3DD8A, size: 0x8, addend: 0x0, symName: __ZSt8_DestroyIPSt6vectorIiSaIiEEEvT_S4_, symObjAddr: 0xFF50, symBinAddr: 0x1000121DC, symSize: 0x28 }
  - { offset: 0x3DE02, size: 0x8, addend: 0x0, symName: __ZNSt6vectorIiSaIiEE17_M_realloc_appendIJiEEEvDpOT_, symObjAddr: 0xFD94, symBinAddr: 0x100012020, symSize: 0x1BC }
  - { offset: 0x3DF87, size: 0x8, addend: 0x0, symName: __ZZNSt6vectorIiSaIiEE17_M_realloc_appendIJiEEEvDpOT_EN6_GuardC1EPimRS0_, symObjAddr: 0xFCF0, symBinAddr: 0x100011F7C, symSize: 0x44 }
  - { offset: 0x3DFCC, size: 0x8, addend: 0x0, symName: __ZZNSt6vectorIiSaIiEE17_M_realloc_appendIJiEEEvDpOT_EN6_GuardD1Ev, symObjAddr: 0xFD34, symBinAddr: 0x100011FC0, symSize: 0x60 }
  - { offset: 0x3E156, size: 0x8, addend: 0x0, symName: __ZNSt8_Rb_treeIxSt4pairIKxiESt10_Select1stIS2_ESt4lessIxESaIS2_EE10_Auto_nodeC1IJRKSt21piecewise_construct_tSt5tupleIJOxEESE_IJEEEEERS8_DpOT_, symObjAddr: 0xFC74, symBinAddr: 0x100011F00, symSize: 0x7C }
  - { offset: 0x3E1BF, size: 0x8, addend: 0x0, symName: __ZSt7forwardISt5tupleIJOxEEEOT_RNSt16remove_referenceIS3_E4typeE, symObjAddr: 0xFC60, symBinAddr: 0x100011EEC, symSize: 0x14 }
  - { offset: 0x3E230, size: 0x8, addend: 0x0, symName: __ZNSt5tupleIJOxEEC1IJxELb1ELb1EEEDpOT_, symObjAddr: 0xFC24, symBinAddr: 0x100011EB0, symSize: 0x3C }
  - { offset: 0x3E27E, size: 0x8, addend: 0x0, symName: __ZSt7forwardIxEOT_RNSt16remove_referenceIS0_E4typeE, symObjAddr: 0xFC10, symBinAddr: 0x100011E9C, symSize: 0x14 }
  - { offset: 0x3E2B4, size: 0x8, addend: 0x0, symName: __ZNKSt10_HashtableIiSt4pairIKiiESaIS2_ENSt8__detail10_Select1stESt8equal_toIiESt4hashIiENS4_18_Mod_range_hashingENS4_20_Default_ranged_hashENS4_20_Prime_rehash_policyENS4_17_Hashtable_traitsILb0ELb0ELb1EEEE4findERS1_, symObjAddr: 0xFB18, symBinAddr: 0x100011DA4, symSize: 0xF8 }
  - { offset: 0x3E335, size: 0x8, addend: 0x0, symName: __ZNKSt10_HashtableIiiSaIiENSt8__detail9_IdentityESt8equal_toIiESt4hashIiENS1_18_Mod_range_hashingENS1_20_Default_ranged_hashENS1_20_Prime_rehash_policyENS1_17_Hashtable_traitsILb0ELb1ELb1EEEE12_M_find_nodeEmRKim, symObjAddr: 0xFAC4, symBinAddr: 0x100011D50, symSize: 0x54 }
  - { offset: 0x3E3A3, size: 0x8, addend: 0x0, symName: __ZNKSt10_HashtableIiiSaIiENSt8__detail9_IdentityESt8equal_toIiESt4hashIiENS1_18_Mod_range_hashingENS1_20_Default_ranged_hashENS1_20_Prime_rehash_policyENS1_17_Hashtable_traitsILb0ELb1ELb1EEEE15_M_bucket_indexEm, symObjAddr: 0xFA94, symBinAddr: 0x100011D20, symSize: 0x30 }
  - { offset: 0x3E3DE, size: 0x8, addend: 0x0, symName: __ZNKSt8__detail15_Hash_code_baseIiiNS_9_IdentityESt4hashIiENS_18_Mod_range_hashingENS_20_Default_ranged_hashELb0EE12_M_hash_codeERKi, symObjAddr: 0xFA5C, symBinAddr: 0x100011CE8, symSize: 0x38 }
  - { offset: 0x3E419, size: 0x8, addend: 0x0, symName: __ZNKSt8__detail15_Hashtable_baseIiiNS_9_IdentityESt8equal_toIiESt4hashIiENS_18_Mod_range_hashingENS_20_Default_ranged_hashENS_17_Hashtable_traitsILb0ELb1ELb1EEEE13_M_key_equalsERKiRKNS_16_Hash_node_valueIiLb0EEE, symObjAddr: 0xF9F0, symBinAddr: 0x100011C7C, symSize: 0x6C }
  - { offset: 0x3E4A9, size: 0x8, addend: 0x0, symName: __ZNSt10_HashtableIiiSaIiENSt8__detail9_IdentityESt8equal_toIiESt4hashIiENS1_18_Mod_range_hashingENS1_20_Default_ranged_hashENS1_20_Prime_rehash_policyENS1_17_Hashtable_traitsILb0ELb1ELb1EEEE22__small_size_thresholdEv, symObjAddr: 0xF9DC, symBinAddr: 0x100011C68, symSize: 0x14 }
  - { offset: 0x3E4C5, size: 0x8, addend: 0x0, symName: __ZNKSt10_HashtableIiiSaIiENSt8__detail9_IdentityESt8equal_toIiESt4hashIiENS1_18_Mod_range_hashingENS1_20_Default_ranged_hashENS1_20_Prime_rehash_policyENS1_17_Hashtable_traitsILb0ELb1ELb1EEEE4sizeEv, symObjAddr: 0xF9C4, symBinAddr: 0x100011C50, symSize: 0x18 }
  - { offset: 0x3E505, size: 0x8, addend: 0x0, symName: __ZNKSt8__detail10_Hash_nodeIiLb0EE7_M_nextEv, symObjAddr: 0xF9AC, symBinAddr: 0x100011C38, symSize: 0x18 }
  - { offset: 0x3E557, size: 0x8, addend: 0x0, symName: __ZNSt8__detail14_Node_iteratorIiLb1ELb0EEC1EPNS_10_Hash_nodeIiLb0EEE, symObjAddr: 0xF984, symBinAddr: 0x100011C10, symSize: 0x28 }
  - { offset: 0x3E586, size: 0x8, addend: 0x0, symName: __ZNSt10_HashtableIiiSaIiENSt8__detail9_IdentityESt8equal_toIiESt4hashIiENS1_18_Mod_range_hashingENS1_20_Default_ranged_hashENS1_20_Prime_rehash_policyENS1_17_Hashtable_traitsILb0ELb1ELb1EEEE9_M_insertIRKiNS1_10_AllocNodeISaINS1_10_Hash_nodeIiLb0EEEEEEEESt4pairINS1_14_Node_iteratorIiLb1ELb0EEEbEOT_RKT0_St17integral_constantIbLb1EE, symObjAddr: 0xF940, symBinAddr: 0x100011BCC, symSize: 0x44 }
  - { offset: 0x3E614, size: 0x8, addend: 0x0, symName: __ZNSt8__detail10_AllocNodeISaINS_10_Hash_nodeIiLb0EEEEEC1ERNS_16_Hashtable_allocIS3_EE, symObjAddr: 0xF91C, symBinAddr: 0x100011BA8, symSize: 0x24 }
  - { offset: 0x3E643, size: 0x8, addend: 0x0, symName: __ZNSt8__detail12_Insert_baseIiiSaIiENS_9_IdentityESt8equal_toIiESt4hashIiENS_18_Mod_range_hashingENS_20_Default_ranged_hashENS_20_Prime_rehash_policyENS_17_Hashtable_traitsILb0ELb1ELb1EEEE20_M_conjure_hashtableEv, symObjAddr: 0xF908, symBinAddr: 0x100011B94, symSize: 0x14 }
  - { offset: 0x3E66D, size: 0x8, addend: 0x0, symName: __ZNSt10_HashtableIiiSaIiENSt8__detail9_IdentityESt8equal_toIiESt4hashIiENS1_18_Mod_range_hashingENS1_20_Default_ranged_hashENS1_20_Prime_rehash_policyENS1_17_Hashtable_traitsILb0ELb1ELb1EEEE21_M_deallocate_bucketsEPPNS1_15_Hash_node_baseEm, symObjAddr: 0xF8BC, symBinAddr: 0x100011B48, symSize: 0x4C }
  - { offset: 0x3E6B9, size: 0x8, addend: 0x0, symName: __ZNSt8__detail16_Hashtable_allocISaINS_10_Hash_nodeIiLb0EEEEE19_M_deallocate_nodesEPS2_, symObjAddr: 0xF86C, symBinAddr: 0x100011AF8, symSize: 0x50 }
  - { offset: 0x3E718, size: 0x8, addend: 0x0, symName: __ZNKSt10_HashtableIiiSaIiENSt8__detail9_IdentityESt8equal_toIiESt4hashIiENS1_18_Mod_range_hashingENS1_20_Default_ranged_hashENS1_20_Prime_rehash_policyENS1_17_Hashtable_traitsILb0ELb1ELb1EEEE8_M_beginEv, symObjAddr: 0xF854, symBinAddr: 0x100011AE0, symSize: 0x18 }
  - { offset: 0x3E754, size: 0x8, addend: 0x0, symName: __ZSt9iter_swapIN9__gnu_cxx17__normal_iteratorIPiSt6vectorIiSaIiEEEES6_EvT_T0_, symObjAddr: 0xF810, symBinAddr: 0x100011A9C, symSize: 0x44 }
  - { offset: 0x3E7A6, size: 0x8, addend: 0x0, symName: __ZN9__gnu_cxxltIPiSt6vectorIiSaIiEEEEbRKNS_17__normal_iteratorIT_T0_EESA_, symObjAddr: 0xF7CC, symBinAddr: 0x100011A58, symSize: 0x44 }
  - { offset: 0x3E7F7, size: 0x8, addend: 0x0, symName: __ZN9__gnu_cxx17__normal_iteratorIPiSt6vectorIiSaIiEEEmmEv, symObjAddr: 0xF7A4, symBinAddr: 0x100011A30, symSize: 0x28 }
  - { offset: 0x3E81D, size: 0x8, addend: 0x0, symName: __ZN9__gnu_cxxeqIPiSt6vectorIiSaIiEEEEbRKNS_17__normal_iteratorIT_T0_EESA_, symObjAddr: 0xF760, symBinAddr: 0x1000119EC, symSize: 0x44 }
  - { offset: 0x3E8C1, size: 0x8, addend: 0x0, symName: __ZNSt8_Rb_treeIiSt4pairIKiiESt10_Select1stIS2_ESt4lessIiESaIS2_EE10_Auto_nodeC1IJRKSt21piecewise_construct_tSt5tupleIJOiEESE_IJEEEEERS8_DpOT_, symObjAddr: 0xF6E4, symBinAddr: 0x100011970, symSize: 0x7C }
  - { offset: 0x3E92A, size: 0x8, addend: 0x0, symName: __ZSt7forwardISt5tupleIJOiEEEOT_RNSt16remove_referenceIS3_E4typeE, symObjAddr: 0xF6D0, symBinAddr: 0x10001195C, symSize: 0x14 }
  - { offset: 0x3E99B, size: 0x8, addend: 0x0, symName: __ZNSt5tupleIJOiEEC1IJiELb1ELb1EEEDpOT_, symObjAddr: 0xF694, symBinAddr: 0x100011920, symSize: 0x3C }
  - { offset: 0x3E9E2, size: 0x8, addend: 0x0, symName: __ZSt27__uninitialized_default_n_aIPimiET_S1_T0_RSaIT1_E, symObjAddr: 0xF66C, symBinAddr: 0x1000118F8, symSize: 0x28 }
  - { offset: 0x3EA45, size: 0x8, addend: 0x0, symName: __ZNSt8_Rb_treeIiSt4pairIKiiESt10_Select1stIS2_ESt4lessIiESaIS2_EE10_Auto_node9_M_insertES0_IPSt18_Rb_tree_node_baseSB_E, symObjAddr: 0xF620, symBinAddr: 0x1000118AC, symSize: 0x4C }
  - { offset: 0x3EA91, size: 0x8, addend: 0x0, symName: __ZNKSt8_Rb_treeIiSt4pairIKiiESt10_Select1stIS2_ESt4lessIiESaIS2_EE10_Auto_node6_M_keyEv, symObjAddr: 0xF600, symBinAddr: 0x10001188C, symSize: 0x20 }
  - { offset: 0x3EABB, size: 0x8, addend: 0x0, symName: __ZNSt8_Rb_treeIiSt4pairIKiiESt10_Select1stIS2_ESt4lessIiESaIS2_EE29_M_get_insert_hint_unique_posESt23_Rb_tree_const_iteratorIS2_ERS1_, symObjAddr: 0xF2DC, symBinAddr: 0x100011568, symSize: 0x324 }
  - { offset: 0x3EB8A, size: 0x8, addend: 0x0, symName: __ZNSt8_Rb_treeIiSt4pairIKiiESt10_Select1stIS2_ESt4lessIiESaIS2_EE10_Auto_nodeD1Ev, symObjAddr: 0xF298, symBinAddr: 0x100011524, symSize: 0x44 }
  - { offset: 0x3EC03, size: 0x8, addend: 0x0, symName: __ZNSt8_Rb_treeIiSt4pairIKiiESt10_Select1stIS2_ESt4lessIiESaIS2_EE10_Auto_nodeC1IJRKSt21piecewise_construct_tSt5tupleIJRS1_EESE_IJEEEEERS8_DpOT_, symObjAddr: 0xF21C, symBinAddr: 0x1000114A8, symSize: 0x7C }
  - { offset: 0x3EC6C, size: 0x8, addend: 0x0, symName: __ZSt7forwardISt5tupleIJRKiEEEOT_RNSt16remove_referenceIS4_E4typeE, symObjAddr: 0xF208, symBinAddr: 0x100011494, symSize: 0x14 }
  - { offset: 0x3ECCA, size: 0x8, addend: 0x0, symName: __ZNSt11_Tuple_implILm0EJRKiEEC2ES1_, symObjAddr: 0xF1E0, symBinAddr: 0x10001146C, symSize: 0x28 }
  - { offset: 0x3ECF9, size: 0x8, addend: 0x0, symName: __ZNSt13_Rb_tree_nodeISt4pairIKiiEE9_M_valptrEv, symObjAddr: 0xF1C0, symBinAddr: 0x10001144C, symSize: 0x20 }
  - { offset: 0x3ED23, size: 0x8, addend: 0x0, symName: __ZNKSt8_Rb_treeIiSt4pairIKiiESt10_Select1stIS2_ESt4lessIiESaIS2_EE8key_compEv, symObjAddr: 0xF1A8, symBinAddr: 0x100011434, symSize: 0x18 }
  - { offset: 0x3ED4D, size: 0x8, addend: 0x0, symName: __ZNSt8_Rb_treeIiSt4pairIKiiESt10_Select1stIS2_ESt4lessIiESaIS2_EE11lower_boundERS1_, symObjAddr: 0xF160, symBinAddr: 0x1000113EC, symSize: 0x48 }
  - { offset: 0x3EDB0, size: 0x8, addend: 0x0, symName: __ZNSt17_Rb_tree_iteratorISt4pairIKiiEEC1EPSt18_Rb_tree_node_base, symObjAddr: 0xF13C, symBinAddr: 0x1000113C8, symSize: 0x24 }
  - { offset: 0x3EDDB, size: 0x8, addend: 0x0, symName: __ZNSt8_Rb_treeIiSt4pairIKiiESt10_Select1stIS2_ESt4lessIiESaIS2_EE6_S_keyEPKSt18_Rb_tree_node_base, symObjAddr: 0xF120, symBinAddr: 0x1000113AC, symSize: 0x1C }
  - { offset: 0x3EE09, size: 0x8, addend: 0x0, symName: __ZNSt8_Rb_treeIiSt4pairIKiiESt10_Select1stIS2_ESt4lessIiESaIS2_EE14_M_lower_boundEPSt13_Rb_tree_nodeIS2_EPSt18_Rb_tree_node_baseRS1_, symObjAddr: 0xF084, symBinAddr: 0x100011310, symSize: 0x9C }
  - { offset: 0x3EE66, size: 0x8, addend: 0x0, symName: __ZNSt8_Rb_treeIiSt4pairIKiiESt10_Select1stIS2_ESt4lessIiESaIS2_EE6_M_endEv, symObjAddr: 0xF06C, symBinAddr: 0x1000112F8, symSize: 0x18 }
  - { offset: 0x3EE90, size: 0x8, addend: 0x0, symName: __ZNKSt8_Rb_treeIiSt4pairIKiiESt10_Select1stIS2_ESt4lessIiESaIS2_EE9_M_mbeginEv, symObjAddr: 0xF054, symBinAddr: 0x1000112E0, symSize: 0x18 }
  - { offset: 0x3EEBA, size: 0x8, addend: 0x0, symName: __ZNSt8_Rb_treeIiSt4pairIKiiESt10_Select1stIS2_ESt4lessIiESaIS2_EE12_M_drop_nodeEPSt13_Rb_tree_nodeIS2_E, symObjAddr: 0xF020, symBinAddr: 0x1000112AC, symSize: 0x34 }
  - { offset: 0x3EEF1, size: 0x8, addend: 0x0, symName: __ZNSt8_Rb_treeIiSt4pairIKiiESt10_Select1stIS2_ESt4lessIiESaIS2_EE7_S_leftEPSt18_Rb_tree_node_base, symObjAddr: 0xF008, symBinAddr: 0x100011294, symSize: 0x18 }
  - { offset: 0x3EF1B, size: 0x8, addend: 0x0, symName: __ZNSt8_Rb_treeIiSt4pairIKiiESt10_Select1stIS2_ESt4lessIiESaIS2_EE8_S_rightEPSt18_Rb_tree_node_base, symObjAddr: 0xEFF0, symBinAddr: 0x10001127C, symSize: 0x18 }
  - { offset: 0x3EF5F, size: 0x8, addend: 0x0, symName: __ZNSt8_Rb_treeIxSt4pairIKxiESt10_Select1stIS2_ESt4lessIxESaIS2_EE10_Auto_node9_M_insertES0_IPSt18_Rb_tree_node_baseSB_E, symObjAddr: 0xEFA4, symBinAddr: 0x100011230, symSize: 0x4C }
  - { offset: 0x3EFAB, size: 0x8, addend: 0x0, symName: __ZNKSt8_Rb_treeIxSt4pairIKxiESt10_Select1stIS2_ESt4lessIxESaIS2_EE10_Auto_node6_M_keyEv, symObjAddr: 0xEF84, symBinAddr: 0x100011210, symSize: 0x20 }
  - { offset: 0x3EFD5, size: 0x8, addend: 0x0, symName: __ZNSt8_Rb_treeIxSt4pairIKxiESt10_Select1stIS2_ESt4lessIxESaIS2_EE29_M_get_insert_hint_unique_posESt23_Rb_tree_const_iteratorIS2_ERS1_, symObjAddr: 0xEC60, symBinAddr: 0x100010EEC, symSize: 0x324 }
  - { offset: 0x3F0A4, size: 0x8, addend: 0x0, symName: __ZNSt8_Rb_treeIxSt4pairIKxiESt10_Select1stIS2_ESt4lessIxESaIS2_EE10_Auto_nodeD1Ev, symObjAddr: 0xEC1C, symBinAddr: 0x100010EA8, symSize: 0x44 }
  - { offset: 0x3F11D, size: 0x8, addend: 0x0, symName: __ZNSt8_Rb_treeIxSt4pairIKxiESt10_Select1stIS2_ESt4lessIxESaIS2_EE10_Auto_nodeC1IJRKSt21piecewise_construct_tSt5tupleIJRS1_EESE_IJEEEEERS8_DpOT_, symObjAddr: 0xEBA0, symBinAddr: 0x100010E2C, symSize: 0x7C }
  - { offset: 0x3F186, size: 0x8, addend: 0x0, symName: __ZSt7forwardISt5tupleIJEEEOT_RNSt16remove_referenceIS2_E4typeE, symObjAddr: 0xEB8C, symBinAddr: 0x100010E18, symSize: 0x14 }
  - { offset: 0x3F1BF, size: 0x8, addend: 0x0, symName: __ZSt7forwardISt5tupleIJRKxEEEOT_RNSt16remove_referenceIS4_E4typeE, symObjAddr: 0xEB78, symBinAddr: 0x100010E04, symSize: 0x14 }
  - { offset: 0x3F1F8, size: 0x8, addend: 0x0, symName: __ZSt7forwardIRKSt21piecewise_construct_tEOT_RNSt16remove_referenceIS3_E4typeE, symObjAddr: 0xEB64, symBinAddr: 0x100010DF0, symSize: 0x14 }
  - { offset: 0x3F256, size: 0x8, addend: 0x0, symName: __ZNSt11_Tuple_implILm0EJRKxEEC2ES1_, symObjAddr: 0xEB3C, symBinAddr: 0x100010DC8, symSize: 0x28 }
  - { offset: 0x3F285, size: 0x8, addend: 0x0, symName: __ZNSt13_Rb_tree_nodeISt4pairIKxiEE9_M_valptrEv, symObjAddr: 0xEB1C, symBinAddr: 0x100010DA8, symSize: 0x20 }
  - { offset: 0x3F2AF, size: 0x8, addend: 0x0, symName: __ZNKSt8_Rb_treeIxSt4pairIKxiESt10_Select1stIS2_ESt4lessIxESaIS2_EE8key_compEv, symObjAddr: 0xEB04, symBinAddr: 0x100010D90, symSize: 0x18 }
  - { offset: 0x3F2D9, size: 0x8, addend: 0x0, symName: __ZNSt8_Rb_treeIxSt4pairIKxiESt10_Select1stIS2_ESt4lessIxESaIS2_EE11lower_boundERS1_, symObjAddr: 0xEABC, symBinAddr: 0x100010D48, symSize: 0x48 }
  - { offset: 0x3F33C, size: 0x8, addend: 0x0, symName: __ZNSt17_Rb_tree_iteratorISt4pairIKxiEEC1EPSt18_Rb_tree_node_base, symObjAddr: 0xEA98, symBinAddr: 0x100010D24, symSize: 0x24 }
  - { offset: 0x3F367, size: 0x8, addend: 0x0, symName: __ZNSt8_Rb_treeIxSt4pairIKxiESt10_Select1stIS2_ESt4lessIxESaIS2_EE6_S_keyEPKSt18_Rb_tree_node_base, symObjAddr: 0xEA7C, symBinAddr: 0x100010D08, symSize: 0x1C }
  - { offset: 0x3F395, size: 0x8, addend: 0x0, symName: __ZNSt8_Rb_treeIxSt4pairIKxiESt10_Select1stIS2_ESt4lessIxESaIS2_EE14_M_lower_boundEPSt13_Rb_tree_nodeIS2_EPSt18_Rb_tree_node_baseRS1_, symObjAddr: 0xE9E0, symBinAddr: 0x100010C6C, symSize: 0x9C }
  - { offset: 0x3F3F2, size: 0x8, addend: 0x0, symName: __ZNSt8_Rb_treeIxSt4pairIKxiESt10_Select1stIS2_ESt4lessIxESaIS2_EE6_M_endEv, symObjAddr: 0xE9C8, symBinAddr: 0x100010C54, symSize: 0x18 }
  - { offset: 0x3F41C, size: 0x8, addend: 0x0, symName: __ZNKSt8_Rb_treeIxSt4pairIKxiESt10_Select1stIS2_ESt4lessIxESaIS2_EE9_M_mbeginEv, symObjAddr: 0xE9B0, symBinAddr: 0x100010C3C, symSize: 0x18 }
  - { offset: 0x3F446, size: 0x8, addend: 0x0, symName: __ZNSt8_Rb_treeIxSt4pairIKxiESt10_Select1stIS2_ESt4lessIxESaIS2_EE12_M_drop_nodeEPSt13_Rb_tree_nodeIS2_E, symObjAddr: 0xE97C, symBinAddr: 0x100010C08, symSize: 0x34 }
  - { offset: 0x3F47D, size: 0x8, addend: 0x0, symName: __ZNSt8_Rb_treeIxSt4pairIKxiESt10_Select1stIS2_ESt4lessIxESaIS2_EE7_S_leftEPSt18_Rb_tree_node_base, symObjAddr: 0xE964, symBinAddr: 0x100010BF0, symSize: 0x18 }
  - { offset: 0x3F4A7, size: 0x8, addend: 0x0, symName: __ZNSt8_Rb_treeIxSt4pairIKxiESt10_Select1stIS2_ESt4lessIxESaIS2_EE8_S_rightEPSt18_Rb_tree_node_base, symObjAddr: 0xE94C, symBinAddr: 0x100010BD8, symSize: 0x18 }
  - { offset: 0x3F4E7, size: 0x8, addend: 0x0, symName: __ZSt24__uninitialized_fill_n_aIPimiiET_S1_T0_RKT1_RSaIT2_E, symObjAddr: 0xE91C, symBinAddr: 0x100010BA8, symSize: 0x30 }
  - { offset: 0x3F564, size: 0x8, addend: 0x0, symName: __ZNSt12_Vector_baseIiSaIiEE17_M_create_storageEm, symObjAddr: 0xE8BC, symBinAddr: 0x100010B48, symSize: 0x60 }
  - { offset: 0x3F59B, size: 0x8, addend: 0x0, symName: __ZNSt6vectorIiSaIiEE11_S_max_sizeERKS0_, symObjAddr: 0xE868, symBinAddr: 0x100010AF4, symSize: 0x54 }
  - { offset: 0x3F652, size: 0x8, addend: 0x0, symName: __ZSt22__final_insertion_sortIN9__gnu_cxx17__normal_iteratorIPiSt6vectorIiSaIiEEEENS0_5__ops15_Iter_less_iterEEvT_S9_T0_, symObjAddr: 0xE7CC, symBinAddr: 0x100010A58, symSize: 0x9C }
  - { offset: 0x3F6B0, size: 0x8, addend: 0x0, symName: __ZSt16__introsort_loopIN9__gnu_cxx17__normal_iteratorIPiSt6vectorIiSaIiEEEElNS0_5__ops15_Iter_less_iterEEvT_S9_T0_T1_, symObjAddr: 0xE714, symBinAddr: 0x1000109A0, symSize: 0xB8 }
  - { offset: 0x3F74C, size: 0x8, addend: 0x0, symName: __ZSt4__lgIlET_S0_, symObjAddr: 0xE6F0, symBinAddr: 0x10001097C, symSize: 0x24 }
  - { offset: 0x3F783, size: 0x8, addend: 0x0, symName: __ZN9__gnu_cxx16__aligned_bufferISt4pairIKiiEE6_M_ptrEv, symObjAddr: 0xE6D4, symBinAddr: 0x100010960, symSize: 0x1C }
  - { offset: 0x3F7AD, size: 0x8, addend: 0x0, symName: __ZNKSt8__detail10_Hash_nodeISt4pairIKiiELb0EE7_M_nextEv, symObjAddr: 0xE6BC, symBinAddr: 0x100010948, symSize: 0x18 }
  - { offset: 0x3F7FF, size: 0x8, addend: 0x0, symName: __ZNSt8__detail14_Node_iteratorISt4pairIKiiELb0ELb0EEC1EPNS_10_Hash_nodeIS3_Lb0EEE, symObjAddr: 0xE694, symBinAddr: 0x100010920, symSize: 0x28 }
  - { offset: 0x3F82E, size: 0x8, addend: 0x0, symName: __ZNSt10_HashtableIiSt4pairIKiiESaIS2_ENSt8__detail10_Select1stESt8equal_toIiESt4hashIiENS4_18_Mod_range_hashingENS4_20_Default_ranged_hashENS4_20_Prime_rehash_policyENS4_17_Hashtable_traitsILb0ELb0ELb1EEEE21_M_insert_unique_nodeEmmPNS4_10_Hash_nodeIS2_Lb0EEEm, symObjAddr: 0xE584, symBinAddr: 0x100010810, symSize: 0x110 }
  - { offset: 0x3F8E5, size: 0x8, addend: 0x0, symName: __ZNSt10_HashtableIiSt4pairIKiiESaIS2_ENSt8__detail10_Select1stESt8equal_toIiESt4hashIiENS4_18_Mod_range_hashingENS4_20_Default_ranged_hashENS4_20_Prime_rehash_policyENS4_17_Hashtable_traitsILb0ELb0ELb1EEEE12_Scoped_nodeD1Ev, symObjAddr: 0xE540, symBinAddr: 0x1000107CC, symSize: 0x44 }
  - { offset: 0x3F95E, size: 0x8, addend: 0x0, symName: __ZNSt10_HashtableIiSt4pairIKiiESaIS2_ENSt8__detail10_Select1stESt8equal_toIiESt4hashIiENS4_18_Mod_range_hashingENS4_20_Default_ranged_hashENS4_20_Prime_rehash_policyENS4_17_Hashtable_traitsILb0ELb0ELb1EEEE12_Scoped_nodeC1IJRKSt21piecewise_construct_tSt5tupleIJRS1_EESL_IJEEEEEPNS4_16_Hashtable_allocISaINS4_10_Hash_nodeIS2_Lb0EEEEEEDpOT_, symObjAddr: 0xE4B8, symBinAddr: 0x100010744, symSize: 0x88 }
  - { offset: 0x3F9C4, size: 0x8, addend: 0x0, symName: __ZNKSt10_HashtableIiSt4pairIKiiESaIS2_ENSt8__detail10_Select1stESt8equal_toIiESt4hashIiENS4_18_Mod_range_hashingENS4_20_Default_ranged_hashENS4_20_Prime_rehash_policyENS4_17_Hashtable_traitsILb0ELb0ELb1EEEE12_M_find_nodeEmRS1_m, symObjAddr: 0xE464, symBinAddr: 0x1000106F0, symSize: 0x54 }
  - { offset: 0x3FA32, size: 0x8, addend: 0x0, symName: __ZNKSt10_HashtableIiSt4pairIKiiESaIS2_ENSt8__detail10_Select1stESt8equal_toIiESt4hashIiENS4_18_Mod_range_hashingENS4_20_Default_ranged_hashENS4_20_Prime_rehash_policyENS4_17_Hashtable_traitsILb0ELb0ELb1EEEE15_M_bucket_indexEm, symObjAddr: 0xE434, symBinAddr: 0x1000106C0, symSize: 0x30 }
  - { offset: 0x3FA6D, size: 0x8, addend: 0x0, symName: __ZNKSt8__detail15_Hash_code_baseIiSt4pairIKiiENS_10_Select1stESt4hashIiENS_18_Mod_range_hashingENS_20_Default_ranged_hashELb0EE12_M_hash_codeERS2_, symObjAddr: 0xE3FC, symBinAddr: 0x100010688, symSize: 0x38 }
  - { offset: 0x3FAA8, size: 0x8, addend: 0x0, symName: __ZNSt10_HashtableIiSt4pairIKiiESaIS2_ENSt8__detail10_Select1stESt8equal_toIiESt4hashIiENS4_18_Mod_range_hashingENS4_20_Default_ranged_hashENS4_20_Prime_rehash_policyENS4_17_Hashtable_traitsILb0ELb0ELb1EEEE21_M_deallocate_bucketsEPPNS4_15_Hash_node_baseEm, symObjAddr: 0xE3B0, symBinAddr: 0x10001063C, symSize: 0x4C }
  - { offset: 0x3FAF4, size: 0x8, addend: 0x0, symName: __ZNSt8__detail16_Hashtable_allocISaINS_10_Hash_nodeISt4pairIKiiELb0EEEEE19_M_deallocate_nodesEPS5_, symObjAddr: 0xE360, symBinAddr: 0x1000105EC, symSize: 0x50 }
  - { offset: 0x3FB53, size: 0x8, addend: 0x0, symName: __ZNKSt10_HashtableIiSt4pairIKiiESaIS2_ENSt8__detail10_Select1stESt8equal_toIiESt4hashIiENS4_18_Mod_range_hashingENS4_20_Default_ranged_hashENS4_20_Prime_rehash_policyENS4_17_Hashtable_traitsILb0ELb0ELb1EEEE8_M_beginEv, symObjAddr: 0xE348, symBinAddr: 0x1000105D4, symSize: 0x18 }
  - { offset: 0x3FBAA, size: 0x8, addend: 0x0, symName: __ZNSt6vectorIiSaIiEE11_S_relocateEPiS2_S2_RS0_, symObjAddr: 0xE314, symBinAddr: 0x1000105A0, symSize: 0x34 }
  - { offset: 0x3FC07, size: 0x8, addend: 0x0, symName: __ZSt12__to_addressIiEPT_S1_, symObjAddr: 0xE300, symBinAddr: 0x10001058C, symSize: 0x14 }
  - { offset: 0x3FC39, size: 0x8, addend: 0x0, symName: __ZN9__gnu_cxxmiIPiSt6vectorIiSaIiEEEENS_17__normal_iteratorIT_T0_E15difference_typeERKS8_SB_, symObjAddr: 0xE2C0, symBinAddr: 0x10001054C, symSize: 0x40 }
  - { offset: 0x3FC8A, size: 0x8, addend: 0x0, symName: __ZNKSt6vectorIiSaIiEE12_M_check_lenEmPKc, symObjAddr: 0xE1F0, symBinAddr: 0x10001047C, symSize: 0xD0 }
  - { offset: 0x3FD2C, size: 0x8, addend: 0x0, symName: __ZSt7forwardIRKiEOT_RNSt16remove_referenceIS2_E4typeE, symObjAddr: 0xE1DC, symBinAddr: 0x100010468, symSize: 0x14 }
  - { offset: 0x3FD90, size: 0x8, addend: 0x0, symName: __ZSt8_DestroyIPiEvT_S1_, symObjAddr: 0xE1B4, symBinAddr: 0x100010440, symSize: 0x28 }
  - { offset: 0x3FDD2, size: 0x8, addend: 0x0, symName: __ZSt22__uninitialized_copy_aIPKiPiiET0_T_S4_S3_RSaIT1_E, symObjAddr: 0xE184, symBinAddr: 0x100010410, symSize: 0x30 }
  - { offset: 0x3FE46, size: 0x8, addend: 0x0, symName: __ZNSt12_Vector_baseIiSaIiEE11_M_allocateEm, symObjAddr: 0xE134, symBinAddr: 0x1000103C0, symSize: 0x50 }
  - { offset: 0x3FEF4, size: 0x8, addend: 0x0, symName: __ZNKSt16initializer_listIiE4sizeEv, symObjAddr: 0xE11C, symBinAddr: 0x1000103A8, symSize: 0x18 }
  - { offset: 0x3FF45, size: 0x8, addend: 0x0, symName: __ZNSt12_Vector_baseIiSaIiEE12_Vector_implC1ERKS0_, symObjAddr: 0xE0D0, symBinAddr: 0x10001035C, symSize: 0x4C }
  - { offset: 0x3FFC8, size: 0x8, addend: 0x0, symName: __ZSt11__bit_widthImEiT_, symObjAddr: 0xE0A0, symBinAddr: 0x10001032C, symSize: 0x30 }
  - { offset: 0x40010, size: 0x8, addend: 0x0, symName: __ZNK9__gnu_cxx17__normal_iteratorIPSt6vectorIiSaIiEES1_IS3_SaIS3_EEE4baseEv, symObjAddr: 0xE08C, symBinAddr: 0x100010318, symSize: 0x14 }
  - { offset: 0x4003D, size: 0x8, addend: 0x0, symName: __ZN9__gnu_cxxeqIPKiSt6vectorIiSaIiEEEEbRKNS_17__normal_iteratorIT_T0_EESB_, symObjAddr: 0xE048, symBinAddr: 0x1000102D4, symSize: 0x44 }
  - { offset: 0x4008A, size: 0x8, addend: 0x0, symName: __ZSt22__uninitialized_copy_aIPiS0_iET0_T_S2_S1_RSaIT1_E, symObjAddr: 0xE018, symBinAddr: 0x1000102A4, symSize: 0x30 }
  - { offset: 0x400FA, size: 0x8, addend: 0x0, symName: __ZSt4copyIPiS0_ET0_T_S2_S1_, symObjAddr: 0xDFD0, symBinAddr: 0x10001025C, symSize: 0x48 }
  - { offset: 0x40193, size: 0x8, addend: 0x0, symName: __ZSt4copyIN9__gnu_cxx17__normal_iteratorIPKiSt6vectorIiSaIiEEEENS1_IPiS6_EEET0_T_SB_SA_, symObjAddr: 0xDF88, symBinAddr: 0x100010214, symSize: 0x48 }
  - { offset: 0x401F5, size: 0x8, addend: 0x0, symName: __ZNSt6vectorIiSaIiEE20_M_allocate_and_copyIN9__gnu_cxx17__normal_iteratorIPKiS1_EEEEPimT_S9_, symObjAddr: 0xDF04, symBinAddr: 0x100010190, symSize: 0x84 }
  - { offset: 0x4026C, size: 0x8, addend: 0x0, symName: __ZNKSt6vectorIiSaIiEE8capacityEv, symObjAddr: 0xDEDC, symBinAddr: 0x100010168, symSize: 0x28 }
  - { offset: 0x402C3, size: 0x8, addend: 0x0, symName: __ZNSt6vectorIiSaIiEE5clearEv, symObjAddr: 0xDEB0, symBinAddr: 0x10001013C, symSize: 0x2C }
  - { offset: 0x402FF, size: 0x8, addend: 0x0, symName: __ZNSt6vectorIS_IiSaIiEESaIS1_EE17_M_realloc_appendIJRKS1_EEEvDpOT_, symObjAddr: 0xDC88, symBinAddr: 0x10000FF14, symSize: 0x228 }
  - { offset: 0x40484, size: 0x8, addend: 0x0, symName: __ZZNSt6vectorIS_IiSaIiEESaIS1_EE17_M_realloc_appendIJRKS1_EEEvDpOT_EN6_GuardC1EPS1_mRS2_, symObjAddr: 0xDBE4, symBinAddr: 0x10000FE70, symSize: 0x44 }
  - { offset: 0x404C9, size: 0x8, addend: 0x0, symName: __ZZNSt6vectorIS_IiSaIiEESaIS1_EE17_M_realloc_appendIJRKS1_EEEvDpOT_EN6_GuardD1Ev, symObjAddr: 0xDC28, symBinAddr: 0x10000FEB4, symSize: 0x60 }
  - { offset: 0x405F8, size: 0x8, addend: 0x0, symName: __ZSt22__uninitialized_copy_aIN9__gnu_cxx17__normal_iteratorIPKiSt6vectorIiSaIiEEEEPiiET0_T_SA_S9_RSaIT1_E, symObjAddr: 0xDBB4, symBinAddr: 0x10000FE40, symSize: 0x30 }
  - { offset: 0x4066C, size: 0x8, addend: 0x0, symName: __ZNKSt6vectorIiSaIiEE3endEv, symObjAddr: 0xDB8C, symBinAddr: 0x10000FE18, symSize: 0x28 }
  - { offset: 0x40696, size: 0x8, addend: 0x0, symName: __ZNKSt6vectorIiSaIiEE5beginEv, symObjAddr: 0xDB68, symBinAddr: 0x10000FDF4, symSize: 0x24 }
  - { offset: 0x406D5, size: 0x8, addend: 0x0, symName: __ZNKSt12_Vector_baseIiSaIiEE19_M_get_Tp_allocatorEv, symObjAddr: 0xDB54, symBinAddr: 0x10000FDE0, symSize: 0x14 }
  - { offset: 0x406FF, size: 0x8, addend: 0x0, symName: __ZNKSt6vectorIS_IiSaIiEESaIS1_EE14_M_range_checkEm, symObjAddr: 0xDAE8, symBinAddr: 0x10000FD74, symSize: 0x6C }
  - { offset: 0x40736, size: 0x8, addend: 0x0, symName: __ZSt6__sortIN9__gnu_cxx17__normal_iteratorIPSt6vectorIiSaIiEES2_IS4_SaIS4_EEEENS0_5__ops15_Iter_less_iterEEvT_SB_T0_, symObjAddr: 0xDA70, symBinAddr: 0x10000FCFC, symSize: 0x78 }
  - { offset: 0x407C0, size: 0x8, addend: 0x0, symName: __ZN9__gnu_cxx17__normal_iteratorIPSt6vectorIiSaIiEES1_IS3_SaIS3_EEEC1ERKS4_, symObjAddr: 0xDA48, symBinAddr: 0x10000FCD4, symSize: 0x28 }
  - { offset: 0x407EF, size: 0x8, addend: 0x0, symName: __ZNSt10_HashtableIiSt4pairIKiiESaIS2_ENSt8__detail10_Select1stESt8equal_toIiESt4hashIiENS4_18_Mod_range_hashingENS4_20_Default_ranged_hashENS4_20_Prime_rehash_policyENS4_17_Hashtable_traitsILb0ELb0ELb1EEEE4findERS1_, symObjAddr: 0xD950, symBinAddr: 0x10000FBDC, symSize: 0xF8 }
  - { offset: 0x40870, size: 0x8, addend: 0x0, symName: __ZNSt6vectorIS_IiSaIiEESaIS1_EE19_M_range_initializeISt23_Rb_tree_const_iteratorIS1_EEEvT_S7_St20forward_iterator_tag, symObjAddr: 0xD870, symBinAddr: 0x10000FAFC, symSize: 0xE0 }
  - { offset: 0x40942, size: 0x8, addend: 0x0, symName: __ZNKSt8_Rb_treeISt6vectorIiSaIiEES2_St9_IdentityIS2_ESt4lessIS2_ESaIS2_EE3endEv, symObjAddr: 0xD848, symBinAddr: 0x10000FAD4, symSize: 0x28 }
  - { offset: 0x4096C, size: 0x8, addend: 0x0, symName: __ZNKSt8_Rb_treeISt6vectorIiSaIiEES2_St9_IdentityIS2_ESt4lessIS2_ESaIS2_EE5beginEv, symObjAddr: 0xD820, symBinAddr: 0x10000FAAC, symSize: 0x28 }
  - { offset: 0x409DE, size: 0x8, addend: 0x0, symName: __ZNSt4pairISt23_Rb_tree_const_iteratorISt6vectorIiSaIiEEEbEC1IRSt17_Rb_tree_iteratorIS3_ERbLb1EEEOT_OT0_, symObjAddr: 0xD7CC, symBinAddr: 0x10000FA58, symSize: 0x54 }
  - { offset: 0x40A28, size: 0x8, addend: 0x0, symName: __ZNSt8_Rb_treeISt6vectorIiSaIiEES2_St9_IdentityIS2_ESt4lessIS2_ESaIS2_EE16_M_insert_uniqueIS2_EESt4pairISt17_Rb_tree_iteratorIS2_EbEOT_, symObjAddr: 0xD700, symBinAddr: 0x10000F98C, symSize: 0xCC }
  - { offset: 0x40AA5, size: 0x8, addend: 0x0, symName: __ZNSt8_Rb_treeISt6vectorIiSaIiEES2_St9_IdentityIS2_ESt4lessIS2_ESaIS2_EE8_M_beginEv, symObjAddr: 0xD6E4, symBinAddr: 0x10000F970, symSize: 0x1C }
  - { offset: 0x40ACF, size: 0x8, addend: 0x0, symName: __ZNSt8_Rb_treeISt6vectorIiSaIiEES2_St9_IdentityIS2_ESt4lessIS2_ESaIS2_EE8_M_eraseEPSt13_Rb_tree_nodeIS2_E, symObjAddr: 0xD680, symBinAddr: 0x10000F90C, symSize: 0x64 }
  - { offset: 0x40B52, size: 0x8, addend: 0x0, symName: __ZNSt15__new_allocatorISt13_Rb_tree_nodeISt6vectorIiSaIiEEEED2Ev, symObjAddr: 0xD66C, symBinAddr: 0x10000F8F8, symSize: 0x14 }
  - { offset: 0x40B92, size: 0x8, addend: 0x0, symName: __ZNSt20_Rb_tree_key_compareISt4lessISt6vectorIiSaIiEEEEC2Ev, symObjAddr: 0xD658, symBinAddr: 0x10000F8E4, symSize: 0x14 }
  - { offset: 0x40BCE, size: 0x8, addend: 0x0, symName: __ZNSt6vectorIS_IiSaIiEESaIS1_EE19_M_range_initializeIPKS1_EEvT_S7_St20forward_iterator_tag, symObjAddr: 0xD55C, symBinAddr: 0x10000F7E8, symSize: 0xFC }
  - { offset: 0x40CEC, size: 0x8, addend: 0x0, symName: __ZNKSt16initializer_listISt6vectorIiSaIiEEE3endEv, symObjAddr: 0xD514, symBinAddr: 0x10000F7A0, symSize: 0x48 }
  - { offset: 0x40D16, size: 0x8, addend: 0x0, symName: __ZNKSt16initializer_listISt6vectorIiSaIiEEE5beginEv, symObjAddr: 0xD4FC, symBinAddr: 0x10000F788, symSize: 0x18 }
  - { offset: 0x40D68, size: 0x8, addend: 0x0, symName: __ZNSt12_Vector_baseISt6vectorIiSaIiEESaIS2_EEC2ERKS3_, symObjAddr: 0xD4D4, symBinAddr: 0x10000F760, symSize: 0x28 }
  - { offset: 0x40DAD, size: 0x8, addend: 0x0, symName: __ZNSt6vectorIiSaIiEE14_M_move_assignEOS1_St17integral_constantIbLb1EE, symObjAddr: 0xD440, symBinAddr: 0x10000F6CC, symSize: 0x94 }
  - { offset: 0x40E51, size: 0x8, addend: 0x0, symName: __ZNSt6vectorIiSaIiEE19_M_range_initializeISt23_Rb_tree_const_iteratorIiEEEvT_S5_St20forward_iterator_tag, symObjAddr: 0xD36C, symBinAddr: 0x10000F5F8, symSize: 0xD4 }
  - { offset: 0x40F23, size: 0x8, addend: 0x0, symName: __ZNKSt8_Rb_treeIiiSt9_IdentityIiESt4lessIiESaIiEE3endEv, symObjAddr: 0xD344, symBinAddr: 0x10000F5D0, symSize: 0x28 }
  - { offset: 0x40F4D, size: 0x8, addend: 0x0, symName: __ZNKSt8_Rb_treeIiiSt9_IdentityIiESt4lessIiESaIiEE5beginEv, symObjAddr: 0xD31C, symBinAddr: 0x10000F5A8, symSize: 0x28 }
  - { offset: 0x40FBF, size: 0x8, addend: 0x0, symName: __ZNSt4pairISt23_Rb_tree_const_iteratorIiEbEC1IRSt17_Rb_tree_iteratorIiERbLb1EEEOT_OT0_, symObjAddr: 0xD2C8, symBinAddr: 0x10000F554, symSize: 0x54 }
  - { offset: 0x41009, size: 0x8, addend: 0x0, symName: __ZNSt8_Rb_treeIiiSt9_IdentityIiESt4lessIiESaIiEE16_M_insert_uniqueIRKiEESt4pairISt17_Rb_tree_iteratorIiEbEOT_, symObjAddr: 0xD1FC, symBinAddr: 0x10000F488, symSize: 0xCC }
  - { offset: 0x41086, size: 0x8, addend: 0x0, symName: __ZNSt8_Rb_treeIiiSt9_IdentityIiESt4lessIiESaIiEE8_M_beginEv, symObjAddr: 0xD1E0, symBinAddr: 0x10000F46C, symSize: 0x1C }
  - { offset: 0x410B0, size: 0x8, addend: 0x0, symName: __ZNSt8_Rb_treeIiiSt9_IdentityIiESt4lessIiESaIiEE8_M_eraseEPSt13_Rb_tree_nodeIiE, symObjAddr: 0xD17C, symBinAddr: 0x10000F408, symSize: 0x64 }
  - { offset: 0x41133, size: 0x8, addend: 0x0, symName: __ZNSt15__new_allocatorISt13_Rb_tree_nodeIiEED2Ev, symObjAddr: 0xD168, symBinAddr: 0x10000F3F4, symSize: 0x14 }
  - { offset: 0x4116F, size: 0x8, addend: 0x0, symName: __ZNK9__gnu_cxx17__normal_iteratorIPSt6vectorIiSaIiEES1_IS3_SaIS3_EEEmiEl, symObjAddr: 0xD118, symBinAddr: 0x10000F3A4, symSize: 0x50 }
  - { offset: 0x411D1, size: 0x8, addend: 0x0, symName: __ZNSt12_Vector_baseISt6vectorIiSaIiEESaIS2_EE17_Vector_impl_dataC2EOS5_, symObjAddr: 0xD0A8, symBinAddr: 0x10000F334, symSize: 0x70 }
  - { offset: 0x4122D, size: 0x8, addend: 0x0, symName: __ZSt4moveIRNSt12_Vector_baseISt6vectorIiSaIiEESaIS3_EE12_Vector_implEEONSt16remove_referenceIT_E4typeEOS9_, symObjAddr: 0xD094, symBinAddr: 0x10000F320, symSize: 0x14 }
  - { offset: 0x41263, size: 0x8, addend: 0x0, symName: __ZNSt6vectorIS_IiSaIiEESaIS1_EE12emplace_backIJS1_EEERS1_DpOT_, symObjAddr: 0xCFB8, symBinAddr: 0x10000F244, symSize: 0xDC }
  - { offset: 0x41315, size: 0x8, addend: 0x0, symName: __ZSt4moveIRSt6vectorIiSaIiEEEONSt16remove_referenceIT_E4typeEOS5_, symObjAddr: 0xCFA4, symBinAddr: 0x10000F230, symSize: 0x14 }
  - { offset: 0x41386, size: 0x8, addend: 0x0, symName: __ZNSt12_Vector_baseISt6vectorIiSaIiEESaIS2_EE19_M_get_Tp_allocatorEv, symObjAddr: 0xCF90, symBinAddr: 0x10000F21C, symSize: 0x14 }
  - { offset: 0x413B0, size: 0x8, addend: 0x0, symName: __ZNSt12_Vector_baseISt6vectorIiSaIiEESaIS2_EE13_M_deallocateEPS2_m, symObjAddr: 0xCF38, symBinAddr: 0x10000F1C4, symSize: 0x58 }
  - { offset: 0x41456, size: 0x8, addend: 0x0, symName: __ZNSt15__new_allocatorISt6vectorIiSaIiEEED2Ev, symObjAddr: 0xCF24, symBinAddr: 0x10000F1B0, symSize: 0x14 }
  - { offset: 0x41496, size: 0x8, addend: 0x0, symName: __ZNSt12_Vector_baseISt6vectorIiSaIiEESaIS2_EE17_Vector_impl_dataC2Ev, symObjAddr: 0xCEF8, symBinAddr: 0x10000F184, symSize: 0x2C }
  - { offset: 0x414BC, size: 0x8, addend: 0x0, symName: __ZNSt6vectorIiSaIiEE12emplace_backIJiEEERiDpOT_, symObjAddr: 0xCE20, symBinAddr: 0x10000F0AC, symSize: 0xD8 }
  - { offset: 0x4156B, size: 0x8, addend: 0x0, symName: __ZNSt8_Rb_treeIxSt4pairIKxiESt10_Select1stIS2_ESt4lessIxESaIS2_EE22_M_emplace_hint_uniqueIJRKSt21piecewise_construct_tSt5tupleIJOxEESD_IJEEEEESt17_Rb_tree_iteratorIS2_ESt23_Rb_tree_const_iteratorIS2_EDpOT_, symObjAddr: 0xCD48, symBinAddr: 0x10000EFD4, symSize: 0xD8 }
  - { offset: 0x415FE, size: 0x8, addend: 0x0, symName: __ZSt16forward_as_tupleIJxEESt5tupleIJDpOT_EES3_, symObjAddr: 0xCD10, symBinAddr: 0x10000EF9C, symSize: 0x38 }
  - { offset: 0x41639, size: 0x8, addend: 0x0, symName: __ZSt4moveIRxEONSt16remove_referenceIT_E4typeEOS2_, symObjAddr: 0xCCFC, symBinAddr: 0x10000EF88, symSize: 0x14 }
  - { offset: 0x4166F, size: 0x8, addend: 0x0, symName: __ZNKSt10_HashtableIiSt4pairIKiiESaIS2_ENSt8__detail10_Select1stESt8equal_toIiESt4hashIiENS4_18_Mod_range_hashingENS4_20_Default_ranged_hashENS4_20_Prime_rehash_policyENS4_17_Hashtable_traitsILb0ELb0ELb1EEEE5countERS1_, symObjAddr: 0xCCBC, symBinAddr: 0x10000EF48, symSize: 0x40 }
  - { offset: 0x416F0, size: 0x8, addend: 0x0, symName: __ZNSt10_HashtableIiiSaIiENSt8__detail9_IdentityESt8equal_toIiESt4hashIiENS1_18_Mod_range_hashingENS1_20_Default_ranged_hashENS1_20_Prime_rehash_policyENS1_17_Hashtable_traitsILb0ELb1ELb1EEEE4findERKi, symObjAddr: 0xCBC4, symBinAddr: 0x10000EE50, symSize: 0xF8 }
  - { offset: 0x41787, size: 0x8, addend: 0x0, symName: __ZNSt8__detail19_Node_iterator_baseIiLb0EE7_M_incrEv, symObjAddr: 0xCB94, symBinAddr: 0x10000EE20, symSize: 0x30 }
  - { offset: 0x417B1, size: 0x8, addend: 0x0, symName: __ZNSt10_HashtableIiiSaIiENSt8__detail9_IdentityESt8equal_toIiESt4hashIiENS1_18_Mod_range_hashingENS1_20_Default_ranged_hashENS1_20_Prime_rehash_policyENS1_17_Hashtable_traitsILb0ELb1ELb1EEEE3endEv, symObjAddr: 0xCB70, symBinAddr: 0x10000EDFC, symSize: 0x24 }
  - { offset: 0x417DB, size: 0x8, addend: 0x0, symName: __ZNSt10_HashtableIiiSaIiENSt8__detail9_IdentityESt8equal_toIiESt4hashIiENS1_18_Mod_range_hashingENS1_20_Default_ranged_hashENS1_20_Prime_rehash_policyENS1_17_Hashtable_traitsILb0ELb1ELb1EEEE5beginEv, symObjAddr: 0xCB44, symBinAddr: 0x10000EDD0, symSize: 0x2C }
  - { offset: 0x41805, size: 0x8, addend: 0x0, symName: __ZNSt8__detail12_Insert_baseIiiSaIiENS_9_IdentityESt8equal_toIiESt4hashIiENS_18_Mod_range_hashingENS_20_Default_ranged_hashENS_20_Prime_rehash_policyENS_17_Hashtable_traitsILb0ELb1ELb1EEEE6insertERKi, symObjAddr: 0xCAF4, symBinAddr: 0x10000ED80, symSize: 0x50 }
  - { offset: 0x41862, size: 0x8, addend: 0x0, symName: __ZNSt10_HashtableIiiSaIiENSt8__detail9_IdentityESt8equal_toIiESt4hashIiENS1_18_Mod_range_hashingENS1_20_Default_ranged_hashENS1_20_Prime_rehash_policyENS1_17_Hashtable_traitsILb0ELb1ELb1EEEE21_M_deallocate_bucketsEv, symObjAddr: 0xCAC0, symBinAddr: 0x10000ED4C, symSize: 0x34 }
  - { offset: 0x4188C, size: 0x8, addend: 0x0, symName: __ZNSt10_HashtableIiiSaIiENSt8__detail9_IdentityESt8equal_toIiESt4hashIiENS1_18_Mod_range_hashingENS1_20_Default_ranged_hashENS1_20_Prime_rehash_policyENS1_17_Hashtable_traitsILb0ELb1ELb1EEEE5clearEv, symObjAddr: 0xCA60, symBinAddr: 0x10000ECEC, symSize: 0x60 }
  - { offset: 0x418DA, size: 0x8, addend: 0x0, symName: __ZNSt15__new_allocatorINSt8__detail10_Hash_nodeIiLb0EEEED2Ev, symObjAddr: 0xCA4C, symBinAddr: 0x10000ECD8, symSize: 0x14 }
  - { offset: 0x41912, size: 0x8, addend: 0x0, symName: __ZSt9__reverseIN9__gnu_cxx17__normal_iteratorIPiSt6vectorIiSaIiEEEEEvT_S7_St26random_access_iterator_tag, symObjAddr: 0xC9D0, symBinAddr: 0x10000EC5C, symSize: 0x7C }
  - { offset: 0x41979, size: 0x8, addend: 0x0, symName: __ZNSt8_Rb_treeIiSt4pairIKiiESt10_Select1stIS2_ESt4lessIiESaIS2_EE22_M_emplace_hint_uniqueIJRKSt21piecewise_construct_tSt5tupleIJOiEESD_IJEEEEESt17_Rb_tree_iteratorIS2_ESt23_Rb_tree_const_iteratorIS2_EDpOT_, symObjAddr: 0xC8F8, symBinAddr: 0x10000EB84, symSize: 0xD8 }
  - { offset: 0x41A0C, size: 0x8, addend: 0x0, symName: __ZSt16forward_as_tupleIJiEESt5tupleIJDpOT_EES3_, symObjAddr: 0xC8C0, symBinAddr: 0x10000EB4C, symSize: 0x38 }
  - { offset: 0x41A44, size: 0x8, addend: 0x0, symName: __ZNSt6vectorIiSaIiEE21_M_default_initializeEm, symObjAddr: 0xC870, symBinAddr: 0x10000EAFC, symSize: 0x50 }
  - { offset: 0x41A7F, size: 0x8, addend: 0x0, symName: __ZNSt8_Rb_treeIiSt4pairIKiiESt10_Select1stIS2_ESt4lessIiESaIS2_EE22_M_emplace_hint_uniqueIJRKSt21piecewise_construct_tSt5tupleIJRS1_EESD_IJEEEEESt17_Rb_tree_iteratorIS2_ESt23_Rb_tree_const_iteratorIS2_EDpOT_, symObjAddr: 0xC798, symBinAddr: 0x10000EA24, symSize: 0xD8 }
  - { offset: 0x41B3E, size: 0x8, addend: 0x0, symName: __ZNSt23_Rb_tree_const_iteratorISt4pairIKiiEEC1ERKSt17_Rb_tree_iteratorIS2_E, symObjAddr: 0xC770, symBinAddr: 0x10000E9FC, symSize: 0x28 }
  - { offset: 0x41B9F, size: 0x8, addend: 0x0, symName: __ZNSt5tupleIJRKiEEC1ILb1ELb1EEES1_, symObjAddr: 0xC748, symBinAddr: 0x10000E9D4, symSize: 0x28 }
  - { offset: 0x41BD8, size: 0x8, addend: 0x0, symName: __ZNKSt4lessIiEclERKiS2_, symObjAddr: 0xC714, symBinAddr: 0x10000E9A0, symSize: 0x34 }
  - { offset: 0x41C24, size: 0x8, addend: 0x0, symName: __ZNKSt17_Rb_tree_iteratorISt4pairIKiiEEdeEv, symObjAddr: 0xC6F4, symBinAddr: 0x10000E980, symSize: 0x20 }
  - { offset: 0x41C4E, size: 0x8, addend: 0x0, symName: __ZNKSt3mapIiiSt4lessIiESaISt4pairIKiiEEE8key_compEv, symObjAddr: 0xC6C8, symBinAddr: 0x10000E954, symSize: 0x2C }
  - { offset: 0x41C78, size: 0x8, addend: 0x0, symName: __ZNSt3mapIiiSt4lessIiESaISt4pairIKiiEEE11lower_boundERS3_, symObjAddr: 0xC6A4, symBinAddr: 0x10000E930, symSize: 0x24 }
  - { offset: 0x41CB3, size: 0x8, addend: 0x0, symName: __ZNSt8_Rb_treeIiSt4pairIKiiESt10_Select1stIS2_ESt4lessIiESaIS2_EE3endEv, symObjAddr: 0xC67C, symBinAddr: 0x10000E908, symSize: 0x28 }
  - { offset: 0x41CDD, size: 0x8, addend: 0x0, symName: __ZNSt8_Rb_treeIiSt4pairIKiiESt10_Select1stIS2_ESt4lessIiESaIS2_EE4findERS1_, symObjAddr: 0xC5D4, symBinAddr: 0x10000E860, symSize: 0xA8 }
  - { offset: 0x41D29, size: 0x8, addend: 0x0, symName: __ZNSt8_Rb_treeIiSt4pairIKiiESt10_Select1stIS2_ESt4lessIiESaIS2_EE8_M_beginEv, symObjAddr: 0xC5B8, symBinAddr: 0x10000E844, symSize: 0x1C }
  - { offset: 0x41D53, size: 0x8, addend: 0x0, symName: __ZNSt8_Rb_treeIiSt4pairIKiiESt10_Select1stIS2_ESt4lessIiESaIS2_EE8_M_eraseEPSt13_Rb_tree_nodeIS2_E, symObjAddr: 0xC554, symBinAddr: 0x10000E7E0, symSize: 0x64 }
  - { offset: 0x41DD6, size: 0x8, addend: 0x0, symName: __ZNSt15__new_allocatorISt13_Rb_tree_nodeISt4pairIKiiEEED2Ev, symObjAddr: 0xC540, symBinAddr: 0x10000E7CC, symSize: 0x14 }
  - { offset: 0x41E16, size: 0x8, addend: 0x0, symName: __ZNSt20_Rb_tree_key_compareISt4lessIiEEC2Ev, symObjAddr: 0xC52C, symBinAddr: 0x10000E7B8, symSize: 0x14 }
  - { offset: 0x41E52, size: 0x8, addend: 0x0, symName: __ZNSt8_Rb_treeIxSt4pairIKxiESt10_Select1stIS2_ESt4lessIxESaIS2_EE22_M_emplace_hint_uniqueIJRKSt21piecewise_construct_tSt5tupleIJRS1_EESD_IJEEEEESt17_Rb_tree_iteratorIS2_ESt23_Rb_tree_const_iteratorIS2_EDpOT_, symObjAddr: 0xC454, symBinAddr: 0x10000E6E0, symSize: 0xD8 }
  - { offset: 0x41F11, size: 0x8, addend: 0x0, symName: __ZNSt23_Rb_tree_const_iteratorISt4pairIKxiEEC1ERKSt17_Rb_tree_iteratorIS2_E, symObjAddr: 0xC42C, symBinAddr: 0x10000E6B8, symSize: 0x28 }
  - { offset: 0x41F72, size: 0x8, addend: 0x0, symName: __ZNSt5tupleIJRKxEEC1ILb1ELb1EEES1_, symObjAddr: 0xC404, symBinAddr: 0x10000E690, symSize: 0x28 }
  - { offset: 0x41FAB, size: 0x8, addend: 0x0, symName: __ZNKSt4lessIxEclERKxS2_, symObjAddr: 0xC3D0, symBinAddr: 0x10000E65C, symSize: 0x34 }
  - { offset: 0x41FF7, size: 0x8, addend: 0x0, symName: __ZNKSt17_Rb_tree_iteratorISt4pairIKxiEEdeEv, symObjAddr: 0xC3B0, symBinAddr: 0x10000E63C, symSize: 0x20 }
  - { offset: 0x42021, size: 0x8, addend: 0x0, symName: __ZNKSt3mapIxiSt4lessIxESaISt4pairIKxiEEE8key_compEv, symObjAddr: 0xC384, symBinAddr: 0x10000E610, symSize: 0x2C }
  - { offset: 0x4204B, size: 0x8, addend: 0x0, symName: __ZNSt3mapIxiSt4lessIxESaISt4pairIKxiEEE11lower_boundERS3_, symObjAddr: 0xC360, symBinAddr: 0x10000E5EC, symSize: 0x24 }
  - { offset: 0x42086, size: 0x8, addend: 0x0, symName: __ZNSt8_Rb_treeIxSt4pairIKxiESt10_Select1stIS2_ESt4lessIxESaIS2_EE3endEv, symObjAddr: 0xC338, symBinAddr: 0x10000E5C4, symSize: 0x28 }
  - { offset: 0x420B0, size: 0x8, addend: 0x0, symName: __ZNSt8_Rb_treeIxSt4pairIKxiESt10_Select1stIS2_ESt4lessIxESaIS2_EE4findERS1_, symObjAddr: 0xC290, symBinAddr: 0x10000E51C, symSize: 0xA8 }
  - { offset: 0x420FC, size: 0x8, addend: 0x0, symName: __ZNSt8_Rb_treeIxSt4pairIKxiESt10_Select1stIS2_ESt4lessIxESaIS2_EE8_M_beginEv, symObjAddr: 0xC274, symBinAddr: 0x10000E500, symSize: 0x1C }
  - { offset: 0x42126, size: 0x8, addend: 0x0, symName: __ZNSt8_Rb_treeIxSt4pairIKxiESt10_Select1stIS2_ESt4lessIxESaIS2_EE8_M_eraseEPSt13_Rb_tree_nodeIS2_E, symObjAddr: 0xC210, symBinAddr: 0x10000E49C, symSize: 0x64 }
  - { offset: 0x421A9, size: 0x8, addend: 0x0, symName: __ZNSt15__new_allocatorISt13_Rb_tree_nodeISt4pairIKxiEEED2Ev, symObjAddr: 0xC1FC, symBinAddr: 0x10000E488, symSize: 0x14 }
  - { offset: 0x421E9, size: 0x8, addend: 0x0, symName: __ZNSt20_Rb_tree_key_compareISt4lessIxEEC2Ev, symObjAddr: 0xC1E8, symBinAddr: 0x10000E474, symSize: 0x14 }
  - { offset: 0x42225, size: 0x8, addend: 0x0, symName: __ZNSt6vectorIiSaIiEE18_M_fill_initializeEmRKi, symObjAddr: 0xC190, symBinAddr: 0x10000E41C, symSize: 0x58 }
  - { offset: 0x422A7, size: 0x8, addend: 0x0, symName: __ZNSt12_Vector_baseIiSaIiEEC2EmRKS0_, symObjAddr: 0xC13C, symBinAddr: 0x10000E3C8, symSize: 0x54 }
  - { offset: 0x422DB, size: 0x8, addend: 0x0, symName: __ZNSt6vectorIiSaIiEE17_S_check_init_lenEmRKS0_, symObjAddr: 0xC0B8, symBinAddr: 0x10000E344, symSize: 0x84 }
  - { offset: 0x4238D, size: 0x8, addend: 0x0, symName: __ZSt6__sortIN9__gnu_cxx17__normal_iteratorIPiSt6vectorIiSaIiEEEENS0_5__ops15_Iter_less_iterEEvT_S9_T0_, symObjAddr: 0xC040, symBinAddr: 0x10000E2CC, symSize: 0x78 }
  - { offset: 0x42405, size: 0x8, addend: 0x0, symName: __ZNSt8__detail19_Node_iterator_baseISt4pairIKiiELb0EE7_M_incrEv, symObjAddr: 0xC010, symBinAddr: 0x10000E29C, symSize: 0x30 }
  - { offset: 0x4242F, size: 0x8, addend: 0x0, symName: __ZNSt10_HashtableIiSt4pairIKiiESaIS2_ENSt8__detail10_Select1stESt8equal_toIiESt4hashIiENS4_18_Mod_range_hashingENS4_20_Default_ranged_hashENS4_20_Prime_rehash_policyENS4_17_Hashtable_traitsILb0ELb0ELb1EEEE3endEv, symObjAddr: 0xBFEC, symBinAddr: 0x10000E278, symSize: 0x24 }
  - { offset: 0x42459, size: 0x8, addend: 0x0, symName: __ZNSt10_HashtableIiSt4pairIKiiESaIS2_ENSt8__detail10_Select1stESt8equal_toIiESt4hashIiENS4_18_Mod_range_hashingENS4_20_Default_ranged_hashENS4_20_Prime_rehash_policyENS4_17_Hashtable_traitsILb0ELb0ELb1EEEE5beginEv, symObjAddr: 0xBFC0, symBinAddr: 0x10000E24C, symSize: 0x2C }
  - { offset: 0x42483, size: 0x8, addend: 0x0, symName: __ZNSt8__detail9_Map_baseIiSt4pairIKiiESaIS3_ENS_10_Select1stESt8equal_toIiESt4hashIiENS_18_Mod_range_hashingENS_20_Default_ranged_hashENS_20_Prime_rehash_policyENS_17_Hashtable_traitsILb0ELb0ELb1EEELb1EEixERS2_, symObjAddr: 0xBEA0, symBinAddr: 0x10000E12C, symSize: 0x120 }
  - { offset: 0x42589, size: 0x8, addend: 0x0, symName: __ZNK9__gnu_cxx17__normal_iteratorIPiSt6vectorIiSaIiEEE4baseEv, symObjAddr: 0xBE8C, symBinAddr: 0x10000E118, symSize: 0x14 }
  - { offset: 0x425DB, size: 0x8, addend: 0x0, symName: __ZN9__gnu_cxx17__normal_iteratorIPiSt6vectorIiSaIiEEEC1ERKS1_, symObjAddr: 0xBE64, symBinAddr: 0x10000E0F0, symSize: 0x28 }
  - { offset: 0x4260A, size: 0x8, addend: 0x0, symName: __ZNSt10_HashtableIiSt4pairIKiiESaIS2_ENSt8__detail10_Select1stESt8equal_toIiESt4hashIiENS4_18_Mod_range_hashingENS4_20_Default_ranged_hashENS4_20_Prime_rehash_policyENS4_17_Hashtable_traitsILb0ELb0ELb1EEEE21_M_deallocate_bucketsEv, symObjAddr: 0xBE30, symBinAddr: 0x10000E0BC, symSize: 0x34 }
  - { offset: 0x42634, size: 0x8, addend: 0x0, symName: __ZNSt10_HashtableIiSt4pairIKiiESaIS2_ENSt8__detail10_Select1stESt8equal_toIiESt4hashIiENS4_18_Mod_range_hashingENS4_20_Default_ranged_hashENS4_20_Prime_rehash_policyENS4_17_Hashtable_traitsILb0ELb0ELb1EEEE5clearEv, symObjAddr: 0xBDD0, symBinAddr: 0x10000E05C, symSize: 0x60 }
  - { offset: 0x42682, size: 0x8, addend: 0x0, symName: __ZNSt15__new_allocatorINSt8__detail10_Hash_nodeISt4pairIKiiELb0EEEED2Ev, symObjAddr: 0xBDBC, symBinAddr: 0x10000E048, symSize: 0x14 }
  - { offset: 0x426BE, size: 0x8, addend: 0x0, symName: __ZNK9__gnu_cxx17__normal_iteratorIPiSt6vectorIiSaIiEEEmiEl, symObjAddr: 0xBD78, symBinAddr: 0x10000E004, symSize: 0x44 }
  - { offset: 0x42720, size: 0x8, addend: 0x0, symName: __ZNSt12_Vector_baseIiSaIiEE17_Vector_impl_dataC2EOS2_, symObjAddr: 0xBD08, symBinAddr: 0x10000DF94, symSize: 0x70 }
  - { offset: 0x4277C, size: 0x8, addend: 0x0, symName: __ZSt4moveIRNSt12_Vector_baseIiSaIiEE12_Vector_implEEONSt16remove_referenceIT_E4typeEOS6_, symObjAddr: 0xBCF4, symBinAddr: 0x10000DF80, symSize: 0x14 }
  - { offset: 0x427B2, size: 0x8, addend: 0x0, symName: __ZNSt6vectorIiSaIiEE17_M_realloc_appendIJRKiEEEvDpOT_, symObjAddr: 0xBB38, symBinAddr: 0x10000DDC4, symSize: 0x1BC }
  - { offset: 0x42937, size: 0x8, addend: 0x0, symName: __ZZNSt6vectorIiSaIiEE17_M_realloc_appendIJRKiEEEvDpOT_EN6_GuardC1EPimRS0_, symObjAddr: 0xBA94, symBinAddr: 0x10000DD20, symSize: 0x44 }
  - { offset: 0x4297C, size: 0x8, addend: 0x0, symName: __ZZNSt6vectorIiSaIiEE17_M_realloc_appendIJRKiEEEvDpOT_EN6_GuardD1Ev, symObjAddr: 0xBAD8, symBinAddr: 0x10000DD64, symSize: 0x60 }
  - { offset: 0x42AB3, size: 0x8, addend: 0x0, symName: __ZNSt12_Vector_baseIiSaIiEE13_M_deallocateEPim, symObjAddr: 0xBA3C, symBinAddr: 0x10000DCC8, symSize: 0x58 }
  - { offset: 0x42B4F, size: 0x8, addend: 0x0, symName: __ZNSt12_Vector_baseIiSaIiEE17_Vector_impl_dataC1Ev, symObjAddr: 0xBA10, symBinAddr: 0x10000DC9C, symSize: 0x2C }
  - { offset: 0x42B79, size: 0x8, addend: 0x0, symName: __ZNSt12_Vector_baseIiSaIiEE17_Vector_impl_dataC2Ev, symObjAddr: 0xB9E4, symBinAddr: 0x10000DC70, symSize: 0x2C }
  - { offset: 0x42BDA, size: 0x8, addend: 0x0, symName: __ZNSt12_Vector_baseIiSaIiEE19_M_get_Tp_allocatorEv, symObjAddr: 0xB9D0, symBinAddr: 0x10000DC5C, symSize: 0x14 }
  - { offset: 0x42C04, size: 0x8, addend: 0x0, symName: __ZNSt6vectorIiSaIiEE19_M_range_initializeIPKiEEvT_S5_St20forward_iterator_tag, symObjAddr: 0xB8EC, symBinAddr: 0x10000DB78, symSize: 0xE4 }
  - { offset: 0x42D22, size: 0x8, addend: 0x0, symName: __ZNKSt16initializer_listIiE3endEv, symObjAddr: 0xB8B4, symBinAddr: 0x10000DB40, symSize: 0x38 }
  - { offset: 0x42D4C, size: 0x8, addend: 0x0, symName: __ZNKSt16initializer_listIiE5beginEv, symObjAddr: 0xB89C, symBinAddr: 0x10000DB28, symSize: 0x18 }
  - { offset: 0x42D9E, size: 0x8, addend: 0x0, symName: __ZNSt12_Vector_baseIiSaIiEEC2ERKS0_, symObjAddr: 0xB874, symBinAddr: 0x10000DB00, symSize: 0x28 }
  - { offset: 0x42DF1, size: 0x8, addend: 0x0, symName: __ZNSt15__new_allocatorIiED2Ev, symObjAddr: 0xB860, symBinAddr: 0x10000DAEC, symSize: 0x14 }
  - { offset: 0x42E30, size: 0x8, addend: 0x0, symName: __ZSt7forwardIbEOT_RNSt16remove_referenceIS0_E4typeE, symObjAddr: 0xB84C, symBinAddr: 0x10000DAD8, symSize: 0x14 }
  - { offset: 0x42E8A, size: 0x8, addend: 0x0, symName: __ZNSt15__new_allocatorIcED2Ev, symObjAddr: 0xB838, symBinAddr: 0x10000DAC4, symSize: 0x14 }
  - { offset: 0x42EC6, size: 0x8, addend: 0x0, symName: __ZNK9__gnu_cxx17__normal_iteratorIPSt6vectorIiSaIiEES1_IS3_SaIS3_EEEdeEv, symObjAddr: 0xB820, symBinAddr: 0x10000DAAC, symSize: 0x18 }
  - { offset: 0x42EF0, size: 0x8, addend: 0x0, symName: __ZN9__gnu_cxx17__normal_iteratorIPSt6vectorIiSaIiEES1_IS3_SaIS3_EEEppEv, symObjAddr: 0xB7F8, symBinAddr: 0x10000DA84, symSize: 0x28 }
  - { offset: 0x42F16, size: 0x8, addend: 0x0, symName: __ZN9__gnu_cxxneIPSt6vectorIiSaIiEES1_IS3_SaIS3_EEEEbRKNS_17__normal_iteratorIT_T0_EESC_, symObjAddr: 0xB7B4, symBinAddr: 0x10000DA40, symSize: 0x44 }
  - { offset: 0x42FAB, size: 0x8, addend: 0x0, symName: __ZNSt7__cxx1112basic_stringIcSt11char_traitsIcESaIcEEC1IS3_EEmcRKS3_, symObjAddr: 0xB740, symBinAddr: 0x10000D9CC, symSize: 0x74 }
  - { offset: 0x42FE8, size: 0x8, addend: 0x0, symName: __ZSt3minIdERKT_S2_S2_, symObjAddr: 0xB704, symBinAddr: 0x10000D990, symSize: 0x3C }
  - { offset: 0x4302E, size: 0x8, addend: 0x0, symName: __ZNKSt6vectorIiSaIiEE5emptyEv, symObjAddr: 0xB6CC, symBinAddr: 0x10000D958, symSize: 0x38 }
  - { offset: 0x43054, size: 0x8, addend: 0x0, symName: __ZSt3maxIdERKT_S2_S2_, symObjAddr: 0xB690, symBinAddr: 0x10000D91C, symSize: 0x3C }
  - { offset: 0x4309C, size: 0x8, addend: 0x0, symName: __ZNSt6vectorIiSaIiEEaSERKS1_, symObjAddr: 0xB348, symBinAddr: 0x10000D5D4, symSize: 0x348 }
  - { offset: 0x43219, size: 0x8, addend: 0x0, symName: __ZSt11__addressofIKSt6vectorIiSaIiEEEPT_RS4_, symObjAddr: 0xB334, symBinAddr: 0x10000D5C0, symSize: 0x14 }
  - { offset: 0x4324F, size: 0x8, addend: 0x0, symName: __ZNSt6vectorIS_IiSaIiEESaIS1_EE9push_backERKS1_, symObjAddr: 0xB238, symBinAddr: 0x10000D4C4, symSize: 0xFC }
  - { offset: 0x43316, size: 0x8, addend: 0x0, symName: __ZNSt6vectorIiSaIiEEC1ERKS1_, symObjAddr: 0xB124, symBinAddr: 0x10000D3B0, symSize: 0x114 }
  - { offset: 0x43429, size: 0x8, addend: 0x0, symName: __ZNSt6vectorIS_IiSaIiEESaIS1_EE2atEm, symObjAddr: 0xB0F4, symBinAddr: 0x10000D380, symSize: 0x30 }
  - { offset: 0x43460, size: 0x8, addend: 0x0, symName: __ZSt4sortIN9__gnu_cxx17__normal_iteratorIPSt6vectorIiSaIiEES2_IS4_SaIS4_EEEEEvT_S9_, symObjAddr: 0xB0BC, symBinAddr: 0x10000D348, symSize: 0x38 }
  - { offset: 0x434A8, size: 0x8, addend: 0x0, symName: __ZNSt6vectorIS_IiSaIiEESaIS1_EE3endEv, symObjAddr: 0xB094, symBinAddr: 0x10000D320, symSize: 0x28 }
  - { offset: 0x434D2, size: 0x8, addend: 0x0, symName: __ZNSt6vectorIS_IiSaIiEESaIS1_EE5beginEv, symObjAddr: 0xB070, symBinAddr: 0x10000D2FC, symSize: 0x24 }
  - { offset: 0x434FC, size: 0x8, addend: 0x0, symName: __ZNSt13unordered_mapIiiSt4hashIiESt8equal_toIiESaISt4pairIKiiEEE4findERS5_, symObjAddr: 0xB04C, symBinAddr: 0x10000D2D8, symSize: 0x24 }
  - { offset: 0x43584, size: 0x8, addend: 0x0, symName: __ZNSt6vectorIS_IiSaIiEESaIS1_EEC1ISt23_Rb_tree_const_iteratorIS1_EvEET_S7_RKS2_, symObjAddr: 0xAFE8, symBinAddr: 0x10000D274, symSize: 0x64 }
  - { offset: 0x435EF, size: 0x8, addend: 0x0, symName: __ZNKSt3setISt6vectorIiSaIiEESt4lessIS2_ESaIS2_EE3endEv, symObjAddr: 0xAFCC, symBinAddr: 0x10000D258, symSize: 0x1C }
  - { offset: 0x43619, size: 0x8, addend: 0x0, symName: __ZNKSt3setISt6vectorIiSaIiEESt4lessIS2_ESaIS2_EE5beginEv, symObjAddr: 0xAFB0, symBinAddr: 0x10000D23C, symSize: 0x1C }
  - { offset: 0x43643, size: 0x8, addend: 0x0, symName: __ZNSt3setISt6vectorIiSaIiEESt4lessIS2_ESaIS2_EE6insertEOS2_, symObjAddr: 0xAF5C, symBinAddr: 0x10000D1E8, symSize: 0x54 }
  - { offset: 0x436B3, size: 0x8, addend: 0x0, symName: __ZNSt8_Rb_treeISt6vectorIiSaIiEES2_St9_IdentityIS2_ESt4lessIS2_ESaIS2_EED1Ev, symObjAddr: 0xAF28, symBinAddr: 0x10000D1B4, symSize: 0x34 }
  - { offset: 0x43713, size: 0x8, addend: 0x0, symName: __ZNSt8_Rb_treeISt6vectorIiSaIiEES2_St9_IdentityIS2_ESt4lessIS2_ESaIS2_EE13_Rb_tree_implIS6_Lb1EEC1Ev, symObjAddr: 0xAEE4, symBinAddr: 0x10000D170, symSize: 0x44 }
  - { offset: 0x437B6, size: 0x8, addend: 0x0, symName: __ZNSt6vectorIS_IiSaIiEESaIS1_EEC1ESt16initializer_listIS1_ERKS2_, symObjAddr: 0xAE74, symBinAddr: 0x10000D100, symSize: 0x70 }
  - { offset: 0x43804, size: 0x8, addend: 0x0, symName: __ZNSt6vectorIiSaIiEEaSEOS1_, symObjAddr: 0xAE30, symBinAddr: 0x10000D0BC, symSize: 0x44 }
  - { offset: 0x4389D, size: 0x8, addend: 0x0, symName: __ZNSt6vectorIiSaIiEEC1ISt23_Rb_tree_const_iteratorIiEvEET_S5_RKS0_, symObjAddr: 0xADCC, symBinAddr: 0x10000D058, symSize: 0x64 }
  - { offset: 0x43908, size: 0x8, addend: 0x0, symName: __ZNKSt3setIiSt4lessIiESaIiEE3endEv, symObjAddr: 0xADB0, symBinAddr: 0x10000D03C, symSize: 0x1C }
  - { offset: 0x43932, size: 0x8, addend: 0x0, symName: __ZNKSt3setIiSt4lessIiESaIiEE5beginEv, symObjAddr: 0xAD94, symBinAddr: 0x10000D020, symSize: 0x1C }
  - { offset: 0x4395C, size: 0x8, addend: 0x0, symName: __ZNSt3setIiSt4lessIiESaIiEE6insertERKi, symObjAddr: 0xAD54, symBinAddr: 0x10000CFE0, symSize: 0x40 }
  - { offset: 0x439CC, size: 0x8, addend: 0x0, symName: __ZNSt8_Rb_treeIiiSt9_IdentityIiESt4lessIiESaIiEED1Ev, symObjAddr: 0xAD20, symBinAddr: 0x10000CFAC, symSize: 0x34 }
  - { offset: 0x43A2C, size: 0x8, addend: 0x0, symName: __ZNSt8_Rb_treeIiiSt9_IdentityIiESt4lessIiESaIiEE13_Rb_tree_implIS3_Lb1EEC1Ev, symObjAddr: 0xACDC, symBinAddr: 0x10000CF68, symSize: 0x44 }
  - { offset: 0x43A99, size: 0x8, addend: 0x0, symName: __ZNSt6vectorIS_IiSaIiEESaIS1_EE4backEv, symObjAddr: 0xACA4, symBinAddr: 0x10000CF30, symSize: 0x38 }
  - { offset: 0x43AEA, size: 0x8, addend: 0x0, symName: __ZNSt12_Vector_baseISt6vectorIiSaIiEESaIS2_EE12_Vector_implC1EOS5_, symObjAddr: 0xAC38, symBinAddr: 0x10000CEC4, symSize: 0x6C }
  - { offset: 0x43B71, size: 0x8, addend: 0x0, symName: __ZNSt6vectorIS_IiSaIiEESaIS1_EE9push_backEOS1_, symObjAddr: 0xAC08, symBinAddr: 0x10000CE94, symSize: 0x30 }
  - { offset: 0x43BD0, size: 0x8, addend: 0x0, symName: __ZNSt6vectorIS_IiSaIiEESaIS1_EED1Ev, symObjAddr: 0xABAC, symBinAddr: 0x10000CE38, symSize: 0x5C }
  - { offset: 0x43C50, size: 0x8, addend: 0x0, symName: __ZNSt12_Vector_baseISt6vectorIiSaIiEESaIS2_EED2Ev, symObjAddr: 0xAB50, symBinAddr: 0x10000CDDC, symSize: 0x5C }
  - { offset: 0x43CB0, size: 0x8, addend: 0x0, symName: __ZNSt12_Vector_baseISt6vectorIiSaIiEESaIS2_EE12_Vector_implC1Ev, symObjAddr: 0xAB18, symBinAddr: 0x10000CDA4, symSize: 0x38 }
  - { offset: 0x43D1C, size: 0x8, addend: 0x0, symName: __ZNSt6vectorIiSaIiEE9push_backEOi, symObjAddr: 0xAAE8, symBinAddr: 0x10000CD74, symSize: 0x30 }
  - { offset: 0x43D57, size: 0x8, addend: 0x0, symName: __ZNSt3mapIxiSt4lessIxESaISt4pairIKxiEEEixEOx, symObjAddr: 0xA9EC, symBinAddr: 0x10000CC78, symSize: 0xFC }
  - { offset: 0x43DA3, size: 0x8, addend: 0x0, symName: __ZNSt6vectorIS_IiSaIiEESaIS1_EEixEm, symObjAddr: 0xA9B8, symBinAddr: 0x10000CC44, symSize: 0x34 }
  - { offset: 0x43DDE, size: 0x8, addend: 0x0, symName: __ZNKSt6vectorIS_IiSaIiEESaIS1_EE4sizeEv, symObjAddr: 0xA984, symBinAddr: 0x10000CC10, symSize: 0x34 }
  - { offset: 0x43E08, size: 0x8, addend: 0x0, symName: __ZNKSt13unordered_mapIiiSt4hashIiESt8equal_toIiESaISt4pairIKiiEEE5countERS5_, symObjAddr: 0xA960, symBinAddr: 0x10000CBEC, symSize: 0x24 }
  - { offset: 0x43E43, size: 0x8, addend: 0x0, symName: __ZNKSt8__detail14_Node_iteratorISt4pairIKiiELb0ELb0EEdeEv, symObjAddr: 0xA924, symBinAddr: 0x10000CBB0, symSize: 0x3C }
  - { offset: 0x43EB5, size: 0x8, addend: 0x0, symName: __ZNSt8__detail14_Node_iteratorISt4pairIKiiELb0ELb0EEppEv, symObjAddr: 0xA904, symBinAddr: 0x10000CB90, symSize: 0x20 }
  - { offset: 0x43EE2, size: 0x8, addend: 0x0, symName: __ZNSt8__detaileqERKNS_19_Node_iterator_baseIiLb0EEES3_, symObjAddr: 0xA8D4, symBinAddr: 0x10000CB60, symSize: 0x30 }
  - { offset: 0x43F21, size: 0x8, addend: 0x0, symName: __ZNSt13unordered_setIiSt4hashIiESt8equal_toIiESaIiEE4findERKi, symObjAddr: 0xA8B0, symBinAddr: 0x10000CB3C, symSize: 0x24 }
  - { offset: 0x43F5C, size: 0x8, addend: 0x0, symName: __ZNKSt8__detail14_Node_iteratorIiLb1ELb0EEdeEv, symObjAddr: 0xA874, symBinAddr: 0x10000CB00, symSize: 0x3C }
  - { offset: 0x43FCE, size: 0x8, addend: 0x0, symName: __ZNSt8__detail14_Node_iteratorIiLb1ELb0EEppEv, symObjAddr: 0xA854, symBinAddr: 0x10000CAE0, symSize: 0x20 }
  - { offset: 0x43FF4, size: 0x8, addend: 0x0, symName: __ZNSt8__detailneERKNS_19_Node_iterator_baseIiLb0EEES3_, symObjAddr: 0xA824, symBinAddr: 0x10000CAB0, symSize: 0x30 }
  - { offset: 0x44033, size: 0x8, addend: 0x0, symName: __ZNSt13unordered_setIiSt4hashIiESt8equal_toIiESaIiEE3endEv, symObjAddr: 0xA808, symBinAddr: 0x10000CA94, symSize: 0x1C }
  - { offset: 0x4405D, size: 0x8, addend: 0x0, symName: __ZNSt13unordered_setIiSt4hashIiESt8equal_toIiESaIiEE5beginEv, symObjAddr: 0xA7EC, symBinAddr: 0x10000CA78, symSize: 0x1C }
  - { offset: 0x44087, size: 0x8, addend: 0x0, symName: __ZNSt13unordered_setIiSt4hashIiESt8equal_toIiESaIiEE6insertERKi, symObjAddr: 0xA7C8, symBinAddr: 0x10000CA54, symSize: 0x24 }
  - { offset: 0x440E6, size: 0x8, addend: 0x0, symName: __ZNSt10_HashtableIiiSaIiENSt8__detail9_IdentityESt8equal_toIiESt4hashIiENS1_18_Mod_range_hashingENS1_20_Default_ranged_hashENS1_20_Prime_rehash_policyENS1_17_Hashtable_traitsILb0ELb1ELb1EEEED1Ev, symObjAddr: 0xA798, symBinAddr: 0x10000CA24, symSize: 0x30 }
  - { offset: 0x44146, size: 0x8, addend: 0x0, symName: __ZNSt8__detail21_Hashtable_ebo_helperILi0ESaINS_10_Hash_nodeIiLb0EEEELb1EEC2Ev, symObjAddr: 0xA76C, symBinAddr: 0x10000C9F8, symSize: 0x2C }
  - { offset: 0x441B3, size: 0x8, addend: 0x0, symName: __ZNK9__gnu_cxx17__normal_iteratorIPiSt6vectorIiSaIiEEEplEl, symObjAddr: 0xA72C, symBinAddr: 0x10000C9B8, symSize: 0x40 }
  - { offset: 0x441EA, size: 0x8, addend: 0x0, symName: __ZSt7reverseIN9__gnu_cxx17__normal_iteratorIPiSt6vectorIiSaIiEEEEEvT_S7_, symObjAddr: 0xA700, symBinAddr: 0x10000C98C, symSize: 0x2C }
  - { offset: 0x4424F, size: 0x8, addend: 0x0, symName: __ZSt3minIiERKT_S2_S2_, symObjAddr: 0xA6C8, symBinAddr: 0x10000C954, symSize: 0x38 }
  - { offset: 0x44295, size: 0x8, addend: 0x0, symName: __ZNSt3mapIiiSt4lessIiESaISt4pairIKiiEEEixEOi, symObjAddr: 0xA5CC, symBinAddr: 0x10000C858, symSize: 0xFC }
  - { offset: 0x44317, size: 0x8, addend: 0x0, symName: __ZNSt6vectorIiSaIiEEC1EmRKS0_, symObjAddr: 0xA564, symBinAddr: 0x10000C7F0, symSize: 0x68 }
  - { offset: 0x44352, size: 0x8, addend: 0x0, symName: __ZSteqRKSt17_Rb_tree_iteratorISt4pairIKiiEES5_, symObjAddr: 0xA534, symBinAddr: 0x10000C7C0, symSize: 0x30 }
  - { offset: 0x44391, size: 0x8, addend: 0x0, symName: __ZNSt3mapIiiSt4lessIiESaISt4pairIKiiEEEixERS3_, symObjAddr: 0xA448, symBinAddr: 0x10000C6D4, symSize: 0xEC }
  - { offset: 0x443D9, size: 0x8, addend: 0x0, symName: __ZStneRKSt17_Rb_tree_iteratorISt4pairIKiiEES5_, symObjAddr: 0xA418, symBinAddr: 0x10000C6A4, symSize: 0x30 }
  - { offset: 0x44418, size: 0x8, addend: 0x0, symName: __ZNSt3mapIiiSt4lessIiESaISt4pairIKiiEEE3endEv, symObjAddr: 0xA3FC, symBinAddr: 0x10000C688, symSize: 0x1C }
  - { offset: 0x44442, size: 0x8, addend: 0x0, symName: __ZNSt3mapIiiSt4lessIiESaISt4pairIKiiEEE4findERS3_, symObjAddr: 0xA3D8, symBinAddr: 0x10000C664, symSize: 0x24 }
  - { offset: 0x444A1, size: 0x8, addend: 0x0, symName: __ZNSt8_Rb_treeIiSt4pairIKiiESt10_Select1stIS2_ESt4lessIiESaIS2_EED1Ev, symObjAddr: 0xA3A4, symBinAddr: 0x10000C630, symSize: 0x34 }
  - { offset: 0x44501, size: 0x8, addend: 0x0, symName: __ZNSt8_Rb_treeIiSt4pairIKiiESt10_Select1stIS2_ESt4lessIiESaIS2_EE13_Rb_tree_implIS6_Lb1EEC1Ev, symObjAddr: 0xA360, symBinAddr: 0x10000C5EC, symSize: 0x44 }
  - { offset: 0x44571, size: 0x8, addend: 0x0, symName: __ZSteqRKSt17_Rb_tree_iteratorISt4pairIKxiEES5_, symObjAddr: 0xA330, symBinAddr: 0x10000C5BC, symSize: 0x30 }
  - { offset: 0x445B0, size: 0x8, addend: 0x0, symName: __ZNSt3mapIxiSt4lessIxESaISt4pairIKxiEEEixERS3_, symObjAddr: 0xA244, symBinAddr: 0x10000C4D0, symSize: 0xEC }
  - { offset: 0x445F8, size: 0x8, addend: 0x0, symName: __ZStneRKSt17_Rb_tree_iteratorISt4pairIKxiEES5_, symObjAddr: 0xA214, symBinAddr: 0x10000C4A0, symSize: 0x30 }
  - { offset: 0x44637, size: 0x8, addend: 0x0, symName: __ZNSt3mapIxiSt4lessIxESaISt4pairIKxiEEE3endEv, symObjAddr: 0xA1F8, symBinAddr: 0x10000C484, symSize: 0x1C }
  - { offset: 0x44661, size: 0x8, addend: 0x0, symName: __ZNSt3mapIxiSt4lessIxESaISt4pairIKxiEEE4findERS3_, symObjAddr: 0xA1D4, symBinAddr: 0x10000C460, symSize: 0x24 }
  - { offset: 0x446C0, size: 0x8, addend: 0x0, symName: __ZNSt8_Rb_treeIxSt4pairIKxiESt10_Select1stIS2_ESt4lessIxESaIS2_EED1Ev, symObjAddr: 0xA1A0, symBinAddr: 0x10000C42C, symSize: 0x34 }
  - { offset: 0x44720, size: 0x8, addend: 0x0, symName: __ZNSt8_Rb_treeIxSt4pairIKxiESt10_Select1stIS2_ESt4lessIxESaIS2_EE13_Rb_tree_implIS6_Lb1EEC1Ev, symObjAddr: 0xA15C, symBinAddr: 0x10000C3E8, symSize: 0x44 }
  - { offset: 0x447D1, size: 0x8, addend: 0x0, symName: __ZNSt6vectorIiSaIiEEC1EmRKiRKS0_, symObjAddr: 0xA0EC, symBinAddr: 0x10000C378, symSize: 0x70 }
  - { offset: 0x4480E, size: 0x8, addend: 0x0, symName: __ZSt4sortIN9__gnu_cxx17__normal_iteratorIPiSt6vectorIiSaIiEEEEEvT_S7_, symObjAddr: 0xA0B4, symBinAddr: 0x10000C340, symSize: 0x38 }
  - { offset: 0x44856, size: 0x8, addend: 0x0, symName: __ZNKSt8__detail14_Node_iteratorISt4pairIKiiELb0ELb0EEptEv, symObjAddr: 0xA084, symBinAddr: 0x10000C310, symSize: 0x30 }
  - { offset: 0x448A4, size: 0x8, addend: 0x0, symName: __ZNSt8__detail14_Node_iteratorISt4pairIKiiELb0ELb0EEppEi, symObjAddr: 0xA054, symBinAddr: 0x10000C2E0, symSize: 0x30 }
  - { offset: 0x448EB, size: 0x8, addend: 0x0, symName: __ZNSt8__detailneERKNS_19_Node_iterator_baseISt4pairIKiiELb0EEES6_, symObjAddr: 0xA024, symBinAddr: 0x10000C2B0, symSize: 0x30 }
  - { offset: 0x4492A, size: 0x8, addend: 0x0, symName: __ZNSt13unordered_mapIiiSt4hashIiESt8equal_toIiESaISt4pairIKiiEEE3endEv, symObjAddr: 0xA008, symBinAddr: 0x10000C294, symSize: 0x1C }
  - { offset: 0x44954, size: 0x8, addend: 0x0, symName: __ZNSt13unordered_mapIiiSt4hashIiESt8equal_toIiESaISt4pairIKiiEEE5beginEv, symObjAddr: 0x9FEC, symBinAddr: 0x10000C278, symSize: 0x1C }
  - { offset: 0x44998, size: 0x8, addend: 0x0, symName: __ZNSt8__detail19_Node_iterator_baseISt4pairIKiiELb0EEC2Ev, symObjAddr: 0x9FD0, symBinAddr: 0x10000C25C, symSize: 0x1C }
  - { offset: 0x449BE, size: 0x8, addend: 0x0, symName: __ZNSt13unordered_mapIiiSt4hashIiESt8equal_toIiESaISt4pairIKiiEEEixERS5_, symObjAddr: 0x9FAC, symBinAddr: 0x10000C238, symSize: 0x24 }
  - { offset: 0x449F9, size: 0x8, addend: 0x0, symName: __ZNK9__gnu_cxx17__normal_iteratorIPiSt6vectorIiSaIiEEEdeEv, symObjAddr: 0x9F94, symBinAddr: 0x10000C220, symSize: 0x18 }
  - { offset: 0x44A23, size: 0x8, addend: 0x0, symName: __ZN9__gnu_cxx17__normal_iteratorIPiSt6vectorIiSaIiEEEppEv, symObjAddr: 0x9F6C, symBinAddr: 0x10000C1F8, symSize: 0x28 }
  - { offset: 0x44A49, size: 0x8, addend: 0x0, symName: __ZN9__gnu_cxxneIPiSt6vectorIiSaIiEEEEbRKNS_17__normal_iteratorIT_T0_EESA_, symObjAddr: 0x9F28, symBinAddr: 0x10000C1B4, symSize: 0x44 }
  - { offset: 0x44A9A, size: 0x8, addend: 0x0, symName: __ZNSt6vectorIiSaIiEE3endEv, symObjAddr: 0x9F00, symBinAddr: 0x10000C18C, symSize: 0x28 }
  - { offset: 0x44AC4, size: 0x8, addend: 0x0, symName: __ZNSt6vectorIiSaIiEE5beginEv, symObjAddr: 0x9EDC, symBinAddr: 0x10000C168, symSize: 0x24 }
  - { offset: 0x44B12, size: 0x8, addend: 0x0, symName: __ZNSt10_HashtableIiSt4pairIKiiESaIS2_ENSt8__detail10_Select1stESt8equal_toIiESt4hashIiENS4_18_Mod_range_hashingENS4_20_Default_ranged_hashENS4_20_Prime_rehash_policyENS4_17_Hashtable_traitsILb0ELb0ELb1EEEED1Ev, symObjAddr: 0x9EAC, symBinAddr: 0x10000C138, symSize: 0x30 }
  - { offset: 0x44B72, size: 0x8, addend: 0x0, symName: __ZNSt8__detail21_Hashtable_ebo_helperILi0ESaINS_10_Hash_nodeISt4pairIKiiELb0EEEELb1EEC2Ev, symObjAddr: 0x9E80, symBinAddr: 0x10000C10C, symSize: 0x2C }
  - { offset: 0x44BF9, size: 0x8, addend: 0x0, symName: __ZNSt8__detail21_Hashtable_ebo_helperILi0ESt8equal_toIiELb1EEC2Ev, symObjAddr: 0x9E6C, symBinAddr: 0x10000C0F8, symSize: 0x14 }
  - { offset: 0x44C39, size: 0x8, addend: 0x0, symName: __ZNSt8__detail21_Hashtable_ebo_helperILi1ESt4hashIiELb1EEC2Ev, symObjAddr: 0x9E58, symBinAddr: 0x10000C0E4, symSize: 0x14 }
  - { offset: 0x44C5F, size: 0x8, addend: 0x0, symName: __ZNSt6vectorIiSaIiEE4backEv, symObjAddr: 0x9E20, symBinAddr: 0x10000C0AC, symSize: 0x38 }
  - { offset: 0x44CB0, size: 0x8, addend: 0x0, symName: __ZNSt12_Vector_baseIiSaIiEE12_Vector_implC1EOS2_, symObjAddr: 0x9DB4, symBinAddr: 0x10000C040, symSize: 0x6C }
  - { offset: 0x44D37, size: 0x8, addend: 0x0, symName: __ZNSt6vectorIiSaIiEE9push_backERKi, symObjAddr: 0x9CEC, symBinAddr: 0x10000BF78, symSize: 0xC8 }
  - { offset: 0x44E02, size: 0x8, addend: 0x0, symName: __ZNSt12_Vector_baseIiSaIiEED2Ev, symObjAddr: 0x9C9C, symBinAddr: 0x10000BF28, symSize: 0x50 }
  - { offset: 0x44E42, size: 0x8, addend: 0x0, symName: __ZNSt12_Vector_baseIiSaIiEE12_Vector_implC1Ev, symObjAddr: 0x9C64, symBinAddr: 0x10000BEF0, symSize: 0x38 }
  - { offset: 0x44EAA, size: 0x8, addend: 0x0, symName: __ZSt4swapIiENSt9enable_ifIXsrSt6__and_IJSt6__not_ISt15__is_tuple_likeIT_EESt21is_move_constructibleIS4_ESt18is_move_assignableIS4_EEE5valueEvE4typeERS4_SE_, symObjAddr: 0x9C10, symBinAddr: 0x10000BE9C, symSize: 0x54 }
  - { offset: 0x44F03, size: 0x8, addend: 0x0, symName: __ZSt4moveIRiEONSt16remove_referenceIT_E4typeEOS2_, symObjAddr: 0x9BFC, symBinAddr: 0x10000BE88, symSize: 0x14 }
  - { offset: 0x44F5D, size: 0x8, addend: 0x0, symName: __ZNSt6vectorIiSaIiEED1Ev, symObjAddr: 0x9BA0, symBinAddr: 0x10000BE2C, symSize: 0x5C }
  - { offset: 0x44FEF, size: 0x8, addend: 0x0, symName: __ZNSt6vectorIiSaIiEEC1ESt16initializer_listIiERKS0_, symObjAddr: 0x9B30, symBinAddr: 0x10000BDBC, symSize: 0x70 }
  - { offset: 0x4505D, size: 0x8, addend: 0x0, symName: __ZNKSt6vectorIiSaIiEE4sizeEv, symObjAddr: 0x9B08, symBinAddr: 0x10000BD94, symSize: 0x28 }
  - { offset: 0x45083, size: 0x8, addend: 0x0, symName: __ZSt3maxIiERKT_S2_S2_, symObjAddr: 0x9AD0, symBinAddr: 0x10000BD5C, symSize: 0x38 }
  - { offset: 0x450CB, size: 0x8, addend: 0x0, symName: __ZNSt6vectorIiSaIiEEixEm, symObjAddr: 0x9AA8, symBinAddr: 0x10000BD34, symSize: 0x28 }
  - { offset: 0x45109, size: 0x8, addend: 0x0, symName: __ZSt7forwardIiEOT_RNSt16remove_referenceIS0_E4typeE, symObjAddr: 0x9A94, symBinAddr: 0x10000BD20, symSize: 0x14 }
  - { offset: 0x4513B, size: 0x8, addend: 0x0, symName: __ZSt3maxImERKT_S2_S2_, symObjAddr: 0x9A5C, symBinAddr: 0x10000BCE8, symSize: 0x38 }
  - { offset: 0x451E0, size: 0x8, addend: 0x0, symName: __ZNSt7__cxx1112basic_stringIcSt11char_traitsIcESaIcEE12_Alloc_hiderD1Ev, symObjAddr: 0x9A30, symBinAddr: 0x10000BCBC, symSize: 0x2C }
  - { offset: 0x4522D, size: 0x8, addend: 0x0, symName: _main, symObjAddr: 0x95F0, symBinAddr: 0x10000B87C, symSize: 0x440 }
  - { offset: 0x45507, size: 0x8, addend: 0x0, symName: __Z18setZeroes_revisionRSt6vectorIS_IiSaIiEESaIS1_EE, symObjAddr: 0x92F0, symBinAddr: 0x10000B57C, symSize: 0x300 }
  - { offset: 0x45648, size: 0x8, addend: 0x0, symName: __Z26majorityElementRevisionTufRSt6vectorIiSaIiEE, symObjAddr: 0x8FF0, symBinAddr: 0x10000B27C, symSize: 0x300 }
  - { offset: 0x4573D, size: 0x8, addend: 0x0, symName: __Z23majorityElementRevisionRSt6vectorIiSaIiEE, symObjAddr: 0x8E74, symBinAddr: 0x10000B100, symSize: 0x17C }
  - { offset: 0x45808, size: 0x8, addend: 0x0, symName: __Z14findDuplicate2RSt6vectorIiSaIiEE, symObjAddr: 0x8D80, symBinAddr: 0x10000B00C, symSize: 0xF4 }
  - { offset: 0x45860, size: 0x8, addend: 0x0, symName: __Z13findDuplicateRSt6vectorIiSaIiEE, symObjAddr: 0x8C08, symBinAddr: 0x10000AE94, symSize: 0x178 }
  - { offset: 0x45924, size: 0x8, addend: 0x0, symName: __Z11maxProduct2RSt6vectorIiSaIiEE, symObjAddr: 0x8A9C, symBinAddr: 0x10000AD28, symSize: 0x16C }
  - { offset: 0x459E9, size: 0x8, addend: 0x0, symName: __Z10maxProductRSt6vectorIiSaIiEE, symObjAddr: 0x8994, symBinAddr: 0x10000AC20, symSize: 0x108 }
  - { offset: 0x45A83, size: 0x8, addend: 0x0, symName: __Z16mergeSortedArrayRSt6vectorIiSaIiEEiS2_i, symObjAddr: 0x8814, symBinAddr: 0x10000AAA0, symSize: 0x180 }
  - { offset: 0x45B1F, size: 0x8, addend: 0x0, symName: __Z5mergeRSt6vectorIS_IiSaIiEESaIS1_EE, symObjAddr: 0x8630, symBinAddr: 0x10000A8BC, symSize: 0x1E4 }
  - { offset: 0x45B88, size: 0x8, addend: 0x0, symName: __Z14maxLenSubarrayRSt6vectorIiSaIiEEi, symObjAddr: 0x84BC, symBinAddr: 0x10000A748, symSize: 0x174 }
  - { offset: 0x45C50, size: 0x8, addend: 0x0, symName: __Z9threeSum4RSt6vectorIiSaIiEE, symObjAddr: 0x80AC, symBinAddr: 0x10000A338, symSize: 0x410 }
  - { offset: 0x45D9A, size: 0x8, addend: 0x0, symName: __Z9threeSum3RSt6vectorIiSaIiEE, symObjAddr: 0x7DC8, symBinAddr: 0x10000A054, symSize: 0x2E4 }
  - { offset: 0x45F62, size: 0x8, addend: 0x0, symName: __Z9threeSum2RSt6vectorIiSaIiEE, symObjAddr: 0x7A0C, symBinAddr: 0x100009C98, symSize: 0x3BC }
  - { offset: 0x460B0, size: 0x8, addend: 0x0, symName: __Z9threeSum1RSt6vectorIiSaIiEE, symObjAddr: 0x7654, symBinAddr: 0x1000098E0, symSize: 0x3B8 }
  - { offset: 0x46337, size: 0x8, addend: 0x0, symName: __ZNSt3setISt6vectorIiSaIiEESt4lessIS2_ESaIS2_EED1Ev, symObjAddr: 0x7634, symBinAddr: 0x1000098C0, symSize: 0x20 }
  - { offset: 0x46377, size: 0x8, addend: 0x0, symName: __ZNSt3setISt6vectorIiSaIiEESt4lessIS2_ESaIS2_EEC1Ev, symObjAddr: 0x7614, symBinAddr: 0x1000098A0, symSize: 0x20 }
  - { offset: 0x463B7, size: 0x8, addend: 0x0, symName: __ZNSt8_Rb_treeISt6vectorIiSaIiEES2_St9_IdentityIS2_ESt4lessIS2_ESaIS2_EEC1Ev, symObjAddr: 0x75F4, symBinAddr: 0x100009880, symSize: 0x20 }
  - { offset: 0x46405, size: 0x8, addend: 0x0, symName: __ZNSt8_Rb_treeISt6vectorIiSaIiEES2_St9_IdentityIS2_ESt4lessIS2_ESaIS2_EE13_Rb_tree_implIS6_Lb1EED1Ev, symObjAddr: 0x75C8, symBinAddr: 0x100009854, symSize: 0x2C }
  - { offset: 0x46457, size: 0x8, addend: 0x0, symName: __Z18majorityElementTUFRSt6vectorIiSaIiEE, symObjAddr: 0x72C8, symBinAddr: 0x100009554, symSize: 0x300 }
  - { offset: 0x4654C, size: 0x8, addend: 0x0, symName: __Z16majorityElement4RSt6vectorIiSaIiEE, symObjAddr: 0x7144, symBinAddr: 0x1000093D0, symSize: 0x184 }
  - { offset: 0x46616, size: 0x8, addend: 0x0, symName: __Z16majorityElement3RSt6vectorIiSaIiEE, symObjAddr: 0x6FCC, symBinAddr: 0x100009258, symSize: 0x178 }
  - { offset: 0x466F2, size: 0x8, addend: 0x0, symName: __Z16majorityElement2RSt6vectorIiSaIiEE, symObjAddr: 0x6E00, symBinAddr: 0x10000908C, symSize: 0x1CC }
  - { offset: 0x46883, size: 0x8, addend: 0x0, symName: __ZNSt3setIiSt4lessIiESaIiEED1Ev, symObjAddr: 0x6DE0, symBinAddr: 0x10000906C, symSize: 0x20 }
  - { offset: 0x468C3, size: 0x8, addend: 0x0, symName: __ZNSt3setIiSt4lessIiESaIiEEC1Ev, symObjAddr: 0x6DC0, symBinAddr: 0x10000904C, symSize: 0x20 }
  - { offset: 0x46903, size: 0x8, addend: 0x0, symName: __ZNSt8_Rb_treeIiiSt9_IdentityIiESt4lessIiESaIiEEC1Ev, symObjAddr: 0x6DA0, symBinAddr: 0x10000902C, symSize: 0x20 }
  - { offset: 0x46951, size: 0x8, addend: 0x0, symName: __ZNSt8_Rb_treeIiiSt9_IdentityIiESt4lessIiESaIiEE13_Rb_tree_implIS3_Lb1EED1Ev, symObjAddr: 0x6D74, symBinAddr: 0x100009000, symSize: 0x2C }
  - { offset: 0x469A3, size: 0x8, addend: 0x0, symName: __Z8generatei, symObjAddr: 0x6BD8, symBinAddr: 0x100008E64, symSize: 0x19C }
  - { offset: 0x46A26, size: 0x8, addend: 0x0, symName: __Z21generatePascalTrianlei, symObjAddr: 0x6B34, symBinAddr: 0x100008DC0, symSize: 0xA4 }
  - { offset: 0x46A9C, size: 0x8, addend: 0x0, symName: __ZNSt6vectorIS_IiSaIiEESaIS1_EEC1EOS3_, symObjAddr: 0x6B0C, symBinAddr: 0x100008D98, symSize: 0x28 }
  - { offset: 0x46AEA, size: 0x8, addend: 0x0, symName: __ZNSt12_Vector_baseISt6vectorIiSaIiEESaIS2_EEC2EOS4_, symObjAddr: 0x6AE4, symBinAddr: 0x100008D70, symSize: 0x28 }
  - { offset: 0x46B33, size: 0x8, addend: 0x0, symName: __ZNSt6vectorIS_IiSaIiEESaIS1_EEC1Ev, symObjAddr: 0x6AC4, symBinAddr: 0x100008D50, symSize: 0x20 }
  - { offset: 0x46B73, size: 0x8, addend: 0x0, symName: __ZNSt12_Vector_baseISt6vectorIiSaIiEESaIS2_EEC2Ev, symObjAddr: 0x6AA4, symBinAddr: 0x100008D30, symSize: 0x20 }
  - { offset: 0x46BC0, size: 0x8, addend: 0x0, symName: __ZNSt12_Vector_baseISt6vectorIiSaIiEESaIS2_EE12_Vector_implD1Ev, symObjAddr: 0x6A78, symBinAddr: 0x100008D04, symSize: 0x2C }
  - { offset: 0x46C11, size: 0x8, addend: 0x0, symName: __Z11generateRowi, symObjAddr: 0x69A8, symBinAddr: 0x100008C34, symSize: 0xD0 }
  - { offset: 0x46C89, size: 0x8, addend: 0x0, symName: __Z15pascaltriangle2i, symObjAddr: 0x68EC, symBinAddr: 0x100008B78, symSize: 0xBC }
  - { offset: 0x46CF0, size: 0x8, addend: 0x0, symName: __Z14pascaltrianglei, symObjAddr: 0x6868, symBinAddr: 0x100008AF4, symSize: 0x84 }
  - { offset: 0x46D4A, size: 0x8, addend: 0x0, symName: __Z3nCrii, symObjAddr: 0x67F0, symBinAddr: 0x100008A7C, symSize: 0x78 }
  - { offset: 0x46DC6, size: 0x8, addend: 0x0, symName: __Z12subarraySum2RSt6vectorIiSaIiEEi, symObjAddr: 0x6684, symBinAddr: 0x100008910, symSize: 0x16C }
  - { offset: 0x46E8B, size: 0x8, addend: 0x0, symName: __Z11subarraySumRSt6vectorIiSaIiEEi, symObjAddr: 0x6514, symBinAddr: 0x1000087A0, symSize: 0x170 }
  - { offset: 0x46F50, size: 0x8, addend: 0x0, symName: __Z11spiralOrderRSt6vectorIS_IiSaIiEESaIS1_EE, symObjAddr: 0x62A0, symBinAddr: 0x10000852C, symSize: 0x274 }
  - { offset: 0x47089, size: 0x8, addend: 0x0, symName: __Z6rotateRSt6vectorIS_IiSaIiEESaIS1_EE, symObjAddr: 0x5FF0, symBinAddr: 0x10000827C, symSize: 0x2B0 }
  - { offset: 0x471D9, size: 0x8, addend: 0x0, symName: __Z17setZeroesRevisionRSt6vectorIS_IiSaIiEESaIS1_EE, symObjAddr: 0x5C44, symBinAddr: 0x100007ED0, symSize: 0x3AC }
  - { offset: 0x4735E, size: 0x8, addend: 0x0, symName: __Z10setZeroes3RSt6vectorIS_IiSaIiEESaIS1_EE, symObjAddr: 0x5944, symBinAddr: 0x100007BD0, symSize: 0x300 }
  - { offset: 0x4749B, size: 0x8, addend: 0x0, symName: __Z10setZeroes2RSt6vectorIS_IiSaIiEESaIS1_EE, symObjAddr: 0x5638, symBinAddr: 0x1000078C4, symSize: 0x30C }
  - { offset: 0x47688, size: 0x8, addend: 0x0, symName: __Z10setZeroes1RSt6vectorIS_IiSaIiEESaIS1_EE, symObjAddr: 0x52BC, symBinAddr: 0x100007548, symSize: 0x37C }
  - { offset: 0x47824, size: 0x8, addend: 0x0, symName: __Z19longestConsecutive4RSt6vectorIiSaIiEE, symObjAddr: 0x50E4, symBinAddr: 0x100007370, symSize: 0x1D8 }
  - { offset: 0x47962, size: 0x8, addend: 0x0, symName: __Z19longestConsecutive3RSt6vectorIiSaIiEE, symObjAddr: 0x4F18, symBinAddr: 0x1000071A4, symSize: 0x1CC }
  - { offset: 0x47A94, size: 0x8, addend: 0x0, symName: __ZNSt13unordered_setIiSt4hashIiESt8equal_toIiESaIiEED1Ev, symObjAddr: 0x4EF8, symBinAddr: 0x100007184, symSize: 0x20 }
  - { offset: 0x47AD4, size: 0x8, addend: 0x0, symName: __ZNSt13unordered_setIiSt4hashIiESt8equal_toIiESaIiEEC1Ev, symObjAddr: 0x4ED8, symBinAddr: 0x100007164, symSize: 0x20 }
  - { offset: 0x47B14, size: 0x8, addend: 0x0, symName: __ZNSt10_HashtableIiiSaIiENSt8__detail9_IdentityESt8equal_toIiESt4hashIiENS1_18_Mod_range_hashingENS1_20_Default_ranged_hashENS1_20_Prime_rehash_policyENS1_17_Hashtable_traitsILb0ELb1ELb1EEEEC1Ev, symObjAddr: 0x4E68, symBinAddr: 0x1000070F4, symSize: 0x70 }
  - { offset: 0x47B62, size: 0x8, addend: 0x0, symName: __ZNSt8__detail16_Hashtable_allocISaINS_10_Hash_nodeIiLb0EEEEED2Ev, symObjAddr: 0x4E48, symBinAddr: 0x1000070D4, symSize: 0x20 }
  - { offset: 0x47BA2, size: 0x8, addend: 0x0, symName: __ZNSt8__detail16_Hashtable_allocISaINS_10_Hash_nodeIiLb0EEEEEC2Ev, symObjAddr: 0x4E28, symBinAddr: 0x1000070B4, symSize: 0x20 }
  - { offset: 0x47BF0, size: 0x8, addend: 0x0, symName: __ZNSt8__detail21_Hashtable_ebo_helperILi0ESaINS_10_Hash_nodeIiLb0EEEELb1EED2Ev, symObjAddr: 0x4DFC, symBinAddr: 0x100007088, symSize: 0x2C }
  - { offset: 0x47C54, size: 0x8, addend: 0x0, symName: __ZNSt8__detail15_Hashtable_baseIiiNS_9_IdentityESt8equal_toIiESt4hashIiENS_18_Mod_range_hashingENS_20_Default_ranged_hashENS_17_Hashtable_traitsILb0ELb1ELb1EEEEC2Ev, symObjAddr: 0x4DD4, symBinAddr: 0x100007060, symSize: 0x28 }
  - { offset: 0x47C94, size: 0x8, addend: 0x0, symName: __ZNSt8__detail15_Hash_code_baseIiiNS_9_IdentityESt4hashIiENS_18_Mod_range_hashingENS_20_Default_ranged_hashELb0EEC2Ev, symObjAddr: 0x4DB4, symBinAddr: 0x100007040, symSize: 0x20 }
  - { offset: 0x47CC2, size: 0x8, addend: 0x0, symName: __Z19longestConsecutive2RSt6vectorIiSaIiEE, symObjAddr: 0x4C24, symBinAddr: 0x100006EB0, symSize: 0x190 }
  - { offset: 0x47D3E, size: 0x8, addend: 0x0, symName: __Z18longestConsecutiveRSt6vectorIiSaIiEE, symObjAddr: 0x4AC8, symBinAddr: 0x100006D54, symSize: 0x15C }
  - { offset: 0x47E53, size: 0x8, addend: 0x0, symName: __Z7leader2iPi, symObjAddr: 0x49A8, symBinAddr: 0x100006C34, symSize: 0x120 }
  - { offset: 0x47EE0, size: 0x8, addend: 0x0, symName: __Z7leadersiPi, symObjAddr: 0x48A4, symBinAddr: 0x100006B30, symSize: 0x104 }
  - { offset: 0x47F58, size: 0x8, addend: 0x0, symName: __Z23nextPermutationPracticeRSt6vectorIiSaIiEE, symObjAddr: 0x46E8, symBinAddr: 0x100006974, symSize: 0x1BC }
  - { offset: 0x47FF4, size: 0x8, addend: 0x0, symName: __Z15nextPermutationRSt6vectorIiSaIiEE, symObjAddr: 0x452C, symBinAddr: 0x1000067B8, symSize: 0x1BC }
  - { offset: 0x48094, size: 0x8, addend: 0x0, symName: __Z15rearrangeArray5RSt6vectorIiSaIiEE, symObjAddr: 0x439C, symBinAddr: 0x100006628, symSize: 0x190 }
  - { offset: 0x4810E, size: 0x8, addend: 0x0, symName: __Z15rearrangeArray4RSt6vectorIiSaIiEE, symObjAddr: 0x4230, symBinAddr: 0x1000064BC, symSize: 0x16C }
  - { offset: 0x48232, size: 0x8, addend: 0x0, symName: __Z15rearrangeArray3RSt6vectorIiSaIiEE, symObjAddr: 0x40A0, symBinAddr: 0x10000632C, symSize: 0x190 }
  - { offset: 0x48369, size: 0x8, addend: 0x0, symName: __Z15rearrangeArray2RSt6vectorIiSaIiEE, symObjAddr: 0x3F3C, symBinAddr: 0x1000061C8, symSize: 0x164 }
  - { offset: 0x483E3, size: 0x8, addend: 0x0, symName: __Z14rearrangeArrayRSt6vectorIiSaIiEE, symObjAddr: 0x3DAC, symBinAddr: 0x100006038, symSize: 0x190 }
  - { offset: 0x4845D, size: 0x8, addend: 0x0, symName: __Z10maxProfit2RSt6vectorIiSaIiEE, symObjAddr: 0x3CF0, symBinAddr: 0x100005F7C, symSize: 0xBC }
  - { offset: 0x484FB, size: 0x8, addend: 0x0, symName: __Z9maxProfitRSt6vectorIiSaIiEE, symObjAddr: 0x3BC4, symBinAddr: 0x100005E50, symSize: 0x12C }
  - { offset: 0x48599, size: 0x8, addend: 0x0, symName: __Z15pairWithMaxSum2RSt6vectorIiSaIiEE, symObjAddr: 0x3B20, symBinAddr: 0x100005DAC, symSize: 0xA4 }
  - { offset: 0x48615, size: 0x8, addend: 0x0, symName: __Z14pairWithMaxSumRSt6vectorIiSaIiEE, symObjAddr: 0x39EC, symBinAddr: 0x100005C78, symSize: 0x134 }
  - { offset: 0x486E6, size: 0x8, addend: 0x0, symName: __Z16printMaxSubArrayRSt6vectorIiSaIiEE, symObjAddr: 0x38A8, symBinAddr: 0x100005B34, symSize: 0x144 }
  - { offset: 0x487B9, size: 0x8, addend: 0x0, symName: __Z11maxSubArrayRSt6vectorIiSaIiEE, symObjAddr: 0x37FC, symBinAddr: 0x100005A88, symSize: 0xAC }
  - { offset: 0x48835, size: 0x8, addend: 0x0, symName: __Z15majorityElementRSt6vectorIiSaIiEE, symObjAddr: 0x36A8, symBinAddr: 0x100005934, symSize: 0x154 }
  - { offset: 0x488F3, size: 0x8, addend: 0x0, symName: __Z13sortColorsImpRSt6vectorIiSaIiEE, symObjAddr: 0x353C, symBinAddr: 0x1000057C8, symSize: 0x16C }
  - { offset: 0x48958, size: 0x8, addend: 0x0, symName: __Z11sortColors4RSt6vectorIiSaIiEE, symObjAddr: 0x3398, symBinAddr: 0x100005624, symSize: 0x1A4 }
  - { offset: 0x48A86, size: 0x8, addend: 0x0, symName: __Z11sortColors3RSt6vectorIiSaIiEE, symObjAddr: 0x31D4, symBinAddr: 0x100005460, symSize: 0x1C4 }
  - { offset: 0x48AEB, size: 0x8, addend: 0x0, symName: __Z11sortColors2RSt6vectorIiSaIiEE, symObjAddr: 0x2FFC, symBinAddr: 0x100005288, symSize: 0x1D8 }
  - { offset: 0x48BCF, size: 0x8, addend: 0x0, symName: __Z10sortColorsRSt6vectorIiSaIiEE, symObjAddr: 0x2D88, symBinAddr: 0x100005014, symSize: 0x274 }
  - { offset: 0x48D30, size: 0x8, addend: 0x0, symName: __Z6twoSumRSt6vectorIiSaIiEEi, symObjAddr: 0x2C00, symBinAddr: 0x100004E8C, symSize: 0x188 }
  - { offset: 0x48E6B, size: 0x8, addend: 0x0, symName: __Z6maxLenRSt6vectorIiSaIiEEi, symObjAddr: 0x2A8C, symBinAddr: 0x100004D18, symSize: 0x174 }
  - { offset: 0x48F4F, size: 0x8, addend: 0x0, symName: __ZNSt3mapIiiSt4lessIiESaISt4pairIKiiEEED1Ev, symObjAddr: 0x2A6C, symBinAddr: 0x100004CF8, symSize: 0x20 }
  - { offset: 0x48F8F, size: 0x8, addend: 0x0, symName: __ZNSt3mapIiiSt4lessIiESaISt4pairIKiiEEEC1Ev, symObjAddr: 0x2A4C, symBinAddr: 0x100004CD8, symSize: 0x20 }
  - { offset: 0x48FCF, size: 0x8, addend: 0x0, symName: __ZNSt8_Rb_treeIiSt4pairIKiiESt10_Select1stIS2_ESt4lessIiESaIS2_EEC1Ev, symObjAddr: 0x2A2C, symBinAddr: 0x100004CB8, symSize: 0x20 }
  - { offset: 0x4901D, size: 0x8, addend: 0x0, symName: __ZNSt8_Rb_treeIiSt4pairIKiiESt10_Select1stIS2_ESt4lessIiESaIS2_EE13_Rb_tree_implIS6_Lb1EED1Ev, symObjAddr: 0x2A00, symBinAddr: 0x100004C8C, symSize: 0x2C }
  - { offset: 0x4906F, size: 0x8, addend: 0x0, symName: __Z16lenOfLongSubarr2Piii, symObjAddr: 0x2870, symBinAddr: 0x100004AFC, symSize: 0x190 }
  - { offset: 0x4918A, size: 0x8, addend: 0x0, symName: __ZNSt3mapIxiSt4lessIxESaISt4pairIKxiEEED1Ev, symObjAddr: 0x2850, symBinAddr: 0x100004ADC, symSize: 0x20 }
  - { offset: 0x491CA, size: 0x8, addend: 0x0, symName: __ZNSt3mapIxiSt4lessIxESaISt4pairIKxiEEEC1Ev, symObjAddr: 0x2830, symBinAddr: 0x100004ABC, symSize: 0x20 }
  - { offset: 0x4920A, size: 0x8, addend: 0x0, symName: __ZNSt8_Rb_treeIxSt4pairIKxiESt10_Select1stIS2_ESt4lessIxESaIS2_EEC1Ev, symObjAddr: 0x2810, symBinAddr: 0x100004A9C, symSize: 0x20 }
  - { offset: 0x49258, size: 0x8, addend: 0x0, symName: __ZNSt8_Rb_treeIxSt4pairIKxiESt10_Select1stIS2_ESt4lessIxESaIS2_EE13_Rb_tree_implIS6_Lb1EED1Ev, symObjAddr: 0x27E4, symBinAddr: 0x100004A70, symSize: 0x2C }
  - { offset: 0x492AA, size: 0x8, addend: 0x0, symName: __Z15lenOfLongSubarrPiii, symObjAddr: 0x2714, symBinAddr: 0x1000049A0, symSize: 0xD0 }
  - { offset: 0x49390, size: 0x8, addend: 0x0, symName: __Z12singleNumberRSt6vectorIiSaIiEE, symObjAddr: 0x2694, symBinAddr: 0x100004920, symSize: 0x80 }
  - { offset: 0x4940C, size: 0x8, addend: 0x0, symName: __Z22findMaxConsecutiveOnesRSt6vectorIiSaIiEE, symObjAddr: 0x25E0, symBinAddr: 0x10000486C, symSize: 0xB4 }
  - { offset: 0x494AA, size: 0x8, addend: 0x0, symName: __Z14missingNumber4RSt6vectorIiSaIiEE, symObjAddr: 0x252C, symBinAddr: 0x1000047B8, symSize: 0xB4 }
  - { offset: 0x4955E, size: 0x8, addend: 0x0, symName: __Z14missingNumber3RSt6vectorIiSaIiEE, symObjAddr: 0x23C4, symBinAddr: 0x100004650, symSize: 0x168 }
  - { offset: 0x495DA, size: 0x8, addend: 0x0, symName: __Z14missingNumber2RSt6vectorIiSaIiEE, symObjAddr: 0x21F8, symBinAddr: 0x100004484, symSize: 0x1CC }
  - { offset: 0x49645, size: 0x8, addend: 0x0, symName: __Z13missingNumberRSt6vectorIiSaIiEE, symObjAddr: 0x20AC, symBinAddr: 0x100004338, symSize: 0x14C }
  - { offset: 0x49783, size: 0x8, addend: 0x0, symName: __Z17findIntersection2RSt6vectorIiSaIiEES2_, symObjAddr: 0x1EB4, symBinAddr: 0x100004140, symSize: 0x1F8 }
  - { offset: 0x497FD, size: 0x8, addend: 0x0, symName: __Z16findIntersectionRSt6vectorIiSaIiEES2_, symObjAddr: 0x1CDC, symBinAddr: 0x100003F68, symSize: 0x1D8 }
  - { offset: 0x4993B, size: 0x8, addend: 0x0, symName: __ZNSt8__detail14_Node_iteratorISt4pairIKiiELb0ELb0EEC1Ev, symObjAddr: 0x1CBC, symBinAddr: 0x100003F48, symSize: 0x20 }
  - { offset: 0x49988, size: 0x8, addend: 0x0, symName: __ZNSt13unordered_mapIiiSt4hashIiESt8equal_toIiESaISt4pairIKiiEEED1Ev, symObjAddr: 0x1C9C, symBinAddr: 0x100003F28, symSize: 0x20 }
  - { offset: 0x499C8, size: 0x8, addend: 0x0, symName: __ZNSt13unordered_mapIiiSt4hashIiESt8equal_toIiESaISt4pairIKiiEEEC1Ev, symObjAddr: 0x1C7C, symBinAddr: 0x100003F08, symSize: 0x20 }
  - { offset: 0x49A08, size: 0x8, addend: 0x0, symName: __ZNSt10_HashtableIiSt4pairIKiiESaIS2_ENSt8__detail10_Select1stESt8equal_toIiESt4hashIiENS4_18_Mod_range_hashingENS4_20_Default_ranged_hashENS4_20_Prime_rehash_policyENS4_17_Hashtable_traitsILb0ELb0ELb1EEEEC1Ev, symObjAddr: 0x1C0C, symBinAddr: 0x100003E98, symSize: 0x70 }
  - { offset: 0x49A56, size: 0x8, addend: 0x0, symName: __ZNSt8__detail16_Hashtable_allocISaINS_10_Hash_nodeISt4pairIKiiELb0EEEEED2Ev, symObjAddr: 0x1BEC, symBinAddr: 0x100003E78, symSize: 0x20 }
  - { offset: 0x49A96, size: 0x8, addend: 0x0, symName: __ZNSt8__detail16_Hashtable_allocISaINS_10_Hash_nodeISt4pairIKiiELb0EEEEEC2Ev, symObjAddr: 0x1BCC, symBinAddr: 0x100003E58, symSize: 0x20 }
  - { offset: 0x49AE4, size: 0x8, addend: 0x0, symName: __ZNSt8__detail21_Hashtable_ebo_helperILi0ESaINS_10_Hash_nodeISt4pairIKiiELb0EEEELb1EED2Ev, symObjAddr: 0x1BA0, symBinAddr: 0x100003E2C, symSize: 0x2C }
  - { offset: 0x49B48, size: 0x8, addend: 0x0, symName: __ZNSt8__detail15_Hashtable_baseIiSt4pairIKiiENS_10_Select1stESt8equal_toIiESt4hashIiENS_18_Mod_range_hashingENS_20_Default_ranged_hashENS_17_Hashtable_traitsILb0ELb0ELb1EEEEC2Ev, symObjAddr: 0x1B78, symBinAddr: 0x100003E04, symSize: 0x28 }
  - { offset: 0x49B88, size: 0x8, addend: 0x0, symName: __ZNSt8__detail15_Hash_code_baseIiSt4pairIKiiENS_10_Select1stESt4hashIiENS_18_Mod_range_hashingENS_20_Default_ranged_hashELb0EEC2Ev, symObjAddr: 0x1B58, symBinAddr: 0x100003DE4, symSize: 0x20 }
  - { offset: 0x49BB6, size: 0x8, addend: 0x0, symName: __Z10findUnion2PiS_ii, symObjAddr: 0x1864, symBinAddr: 0x100003AF0, symSize: 0x2F4 }
  - { offset: 0x49C52, size: 0x8, addend: 0x0, symName: __Z9findUnionPiS_ii, symObjAddr: 0x156C, symBinAddr: 0x1000037F8, symSize: 0x2F8 }
  - { offset: 0x49D29, size: 0x8, addend: 0x0, symName: __ZNSt6vectorIiSaIiEEC1EOS1_, symObjAddr: 0x1544, symBinAddr: 0x1000037D0, symSize: 0x28 }
  - { offset: 0x49D77, size: 0x8, addend: 0x0, symName: __ZNSt12_Vector_baseIiSaIiEEC2EOS1_, symObjAddr: 0x151C, symBinAddr: 0x1000037A8, symSize: 0x28 }
  - { offset: 0x49DC0, size: 0x8, addend: 0x0, symName: __ZNSt6vectorIiSaIiEEC1Ev, symObjAddr: 0x14FC, symBinAddr: 0x100003788, symSize: 0x20 }
  - { offset: 0x49E00, size: 0x8, addend: 0x0, symName: __ZNSt12_Vector_baseIiSaIiEEC2Ev, symObjAddr: 0x14DC, symBinAddr: 0x100003768, symSize: 0x20 }
  - { offset: 0x49E4D, size: 0x8, addend: 0x0, symName: __ZNSt12_Vector_baseIiSaIiEE12_Vector_implD1Ev, symObjAddr: 0x14B0, symBinAddr: 0x10000373C, symSize: 0x2C }
  - { offset: 0x49E9A, size: 0x8, addend: 0x0, symName: __Z11moveZeroes2RSt6vectorIiSaIiEE, symObjAddr: 0x1334, symBinAddr: 0x1000035C0, symSize: 0x17C }
  - { offset: 0x49F47, size: 0x8, addend: 0x0, symName: __Z10moveZeroesRSt6vectorIiSaIiEE, symObjAddr: 0x1248, symBinAddr: 0x1000034D4, symSize: 0xEC }
  - { offset: 0x49FC2, size: 0x8, addend: 0x0, symName: __Z17removeDuplicates3RSt6vectorIiSaIiEE, symObjAddr: 0x10D4, symBinAddr: 0x100003360, symSize: 0x174 }
  - { offset: 0x4A026, size: 0x8, addend: 0x0, symName: __Z17removeDuplicates2RSt6vectorIiSaIiEE, symObjAddr: 0xF50, symBinAddr: 0x1000031DC, symSize: 0x184 }
  - { offset: 0x4A08A, size: 0x8, addend: 0x0, symName: __Z16removeDuplicatesRSt6vectorIiSaIiEE, symObjAddr: 0xE70, symBinAddr: 0x1000030FC, symSize: 0xE0 }
  - { offset: 0x4A111, size: 0x8, addend: 0x0, symName: __Z6check2RSt6vectorIiSaIiEE, symObjAddr: 0xD68, symBinAddr: 0x100002FF4, symSize: 0x108 }
  - { offset: 0x4A188, size: 0x8, addend: 0x0, symName: __Z5checkRSt6vectorIiSaIiEE, symObjAddr: 0xBB8, symBinAddr: 0x100002E44, symSize: 0x1B0 }
  - { offset: 0x4A1EC, size: 0x8, addend: 0x0, symName: __Z22getSecondOrderElementsiSt6vectorIiSaIiEE, symObjAddr: 0xB0C, symBinAddr: 0x100002D98, symSize: 0xAC }
  - { offset: 0x4A2B4, size: 0x8, addend: 0x0, symName: __Z18findSecondSmallestRSt6vectorIiSaIiEEi, symObjAddr: 0x9E8, symBinAddr: 0x100002C74, symSize: 0x124 }
  - { offset: 0x4A33B, size: 0x8, addend: 0x0, symName: __Z17findSecondLargestRSt6vectorIiSaIiEEi, symObjAddr: 0x8C4, symBinAddr: 0x100002B50, symSize: 0x124 }
  - { offset: 0x4A3C2, size: 0x8, addend: 0x0, symName: __Z15find2ndSmallestRSt6vectorIiSaIiEEi, symObjAddr: 0x788, symBinAddr: 0x100002A14, symSize: 0x13C }
  - { offset: 0x4A46C, size: 0x8, addend: 0x0, symName: __Z14find2ndLargestRSt6vectorIiSaIiEEi, symObjAddr: 0x64C, symBinAddr: 0x1000028D8, symSize: 0x13C }
  - { offset: 0x4A516, size: 0x8, addend: 0x0, symName: __Z14print2largest3RSt6vectorIiSaIiEE, symObjAddr: 0x51C, symBinAddr: 0x1000027A8, symSize: 0x130 }
  - { offset: 0x4A5C0, size: 0x8, addend: 0x0, symName: __Z14print2largest2RSt6vectorIiSaIiEE, symObjAddr: 0x3E4, symBinAddr: 0x100002670, symSize: 0x138 }
  - { offset: 0x4A637, size: 0x8, addend: 0x0, symName: __Z13print2largestRSt6vectorIiSaIiEE, symObjAddr: 0x2A8, symBinAddr: 0x100002534, symSize: 0x13C }
  - { offset: 0x4A6AE, size: 0x8, addend: 0x0, symName: __Z14largestElementRSt6vectorIiSaIiEEi, symObjAddr: 0x200, symBinAddr: 0x10000248C, symSize: 0xA8 }
  - { offset: 0x4A71B, size: 0x8, addend: 0x0, symName: __ZNSt15_Rb_tree_header8_M_resetEv, symObjAddr: 0x1C4, symBinAddr: 0x100002450, symSize: 0x3C }
  - { offset: 0x4A75F, size: 0x8, addend: 0x0, symName: __ZNSt15_Rb_tree_headerC2Ev, symObjAddr: 0x19C, symBinAddr: 0x100002428, symSize: 0x28 }
  - { offset: 0x4A781, size: 0x8, addend: 0x0, symName: __ZSt3minImERKT_S2_S2_, symObjAddr: 0x164, symBinAddr: 0x1000023F0, symSize: 0x38 }
  - { offset: 0x4A7C7, size: 0x8, addend: 0x0, symName: __ZNSt8__detail20_Prime_rehash_policy8_M_resetEm, symObjAddr: 0x140, symBinAddr: 0x1000023CC, symSize: 0x24 }
  - { offset: 0x4A802, size: 0x8, addend: 0x0, symName: __ZNKSt8__detail20_Prime_rehash_policy8_M_stateEv, symObjAddr: 0x128, symBinAddr: 0x1000023B4, symSize: 0x18 }
  - { offset: 0x4A854, size: 0x8, addend: 0x0, symName: __ZNSt8__detail20_Prime_rehash_policyC1Ef, symObjAddr: 0xFC, symBinAddr: 0x100002388, symSize: 0x2C }
  - { offset: 0x4A883, size: 0x8, addend: 0x0, symName: __ZNKSt8__detail18_Mod_range_hashingclEmm, symObjAddr: 0xCC, symBinAddr: 0x100002358, symSize: 0x30 }
  - { offset: 0x4A8E9, size: 0x8, addend: 0x0, symName: __ZNSt8__detail15_Hash_node_baseC1Ev, symObjAddr: 0xB0, symBinAddr: 0x10000233C, symSize: 0x1C }
  - { offset: 0x4A913, size: 0x8, addend: 0x0, symName: __ZNSt8__detail15_Hash_node_baseC2Ev, symObjAddr: 0x94, symBinAddr: 0x100002320, symSize: 0x1C }
  - { offset: 0x4A939, size: 0x8, addend: 0x0, symName: __ZNKSt4hashIiEclEi, symObjAddr: 0x7C, symBinAddr: 0x100002308, symSize: 0x18 }
  - { offset: 0x4A976, size: 0x8, addend: 0x0, symName: __ZdlPvS_, symObjAddr: 0x64, symBinAddr: 0x1000022F0, symSize: 0x18 }
  - { offset: 0x4A9AC, size: 0x8, addend: 0x0, symName: __ZnwmPv, symObjAddr: 0x4C, symBinAddr: 0x1000022D8, symSize: 0x18 }
  - { offset: 0x4A9DE, size: 0x8, addend: 0x0, symName: __ZSt17__size_to_integerm, symObjAddr: 0x38, symBinAddr: 0x1000022C4, symSize: 0x14 }
  - { offset: 0x4AA08, size: 0x8, addend: 0x0, symName: __ZN9__gnu_cxx5__ops15__val_comp_iterENS0_15_Iter_less_iterE, symObjAddr: 0x20, symBinAddr: 0x1000022AC, symSize: 0x18 }
  - { offset: 0x4AA4D, size: 0x8, addend: 0x0, symName: __ZN9__gnu_cxx5__ops14_Iter_less_valC1ENS0_15_Iter_less_iterE, symObjAddr: 0x8, symBinAddr: 0x100002294, symSize: 0x18 }
  - { offset: 0x4AA78, size: 0x8, addend: 0x0, symName: __ZN9__gnu_cxx5__ops16__iter_less_iterEv, symObjAddr: 0x0, symBinAddr: 0x10000228C, symSize: 0x8 }
...
