---
triple:          'arm64-apple-darwin'
binary-path:     '/Users/lalitsiraswa/Documents/Daily-Practice/DP_PRACTICE'
relocations:
  - { offsetInCU: 0x2324E, offset: 0x2324E, size: 0x8, addend: 0x0, symName: __ZStL8__ioinit, symObjAddr: 0xE2D90, symBinAddr: 0x100028004, symSize: 0x0 }
  - { offsetInCU: 0x2381C, offset: 0x2381C, size: 0x8, addend: 0x0, symName: _mod, symObjAddr: 0x17604, symBinAddr: 0x100028000, symSize: 0x0 }
  - { offsetInCU: 0x23D03, offset: 0x23D03, size: 0x8, addend: 0x0, symName: __ZNK9__gnu_cxx17__normal_iteratorIPKSt6vectorIiSaIiEES1_IS3_SaIS3_EEE4baseEv, symObjAddr: 0x16AB4, symBinAddr: 0x10001B0D8, symSize: 0x14 }
  - { offsetInCU: 0x23D2D, offset: 0x23D2D, size: 0x8, addend: 0x0, symName: __ZNK9__gnu_cxx17__normal_iteratorIPKSt6vectorIiSaIiEES1_IS3_SaIS3_EEEdeEv, symObjAddr: 0x16A9C, symBinAddr: 0x10001B0C0, symSize: 0x18 }
  - { offsetInCU: 0x23D57, offset: 0x23D57, size: 0x8, addend: 0x0, symName: __ZN9__gnu_cxx17__normal_iteratorIPKSt6vectorIiSaIiEES1_IS3_SaIS3_EEEppEv, symObjAddr: 0x16A74, symBinAddr: 0x10001B098, symSize: 0x28 }
  - { offsetInCU: 0x23D84, offset: 0x23D84, size: 0x8, addend: 0x0, symName: __ZN9__gnu_cxxneIPKSt6vectorIiSaIiEES1_IS3_SaIS3_EEEEbRKNS_17__normal_iteratorIT_T0_EESD_, symObjAddr: 0x16A30, symBinAddr: 0x10001B054, symSize: 0x44 }
  - { offsetInCU: 0x23DD1, offset: 0x23DD1, size: 0x8, addend: 0x0, symName: __ZSt16__do_uninit_copyIN9__gnu_cxx17__normal_iteratorIPKSt6vectorIiSaIiEES2_IS4_SaIS4_EEEEPS4_ET0_T_SC_SB_, symObjAddr: 0x16988, symBinAddr: 0x10001AFAC, symSize: 0xA8 }
  - { offsetInCU: 0x23E3C, offset: 0x23E3C, size: 0x8, addend: 0x0, symName: __ZNSt10_Head_baseILm0ERKiLb0EE7_M_headERS2_, symObjAddr: 0x16970, symBinAddr: 0x10001AF94, symSize: 0x18 }
  - { offsetInCU: 0x23E65, offset: 0x23E65, size: 0x8, addend: 0x0, symName: __ZNSt10_Head_baseILm0EOiLb0EE7_M_headERS1_, symObjAddr: 0x16958, symBinAddr: 0x10001AF7C, symSize: 0x18 }
  - { offsetInCU: 0x23E8E, offset: 0x23E8E, size: 0x8, addend: 0x0, symName: __ZNSt20__uninitialized_copyILb0EE13__uninit_copyIN9__gnu_cxx17__normal_iteratorIPKSt6vectorIiSaIiEES4_IS6_SaIS6_EEEEPS6_EET0_T_SE_SD_, symObjAddr: 0x1692C, symBinAddr: 0x10001AF50, symSize: 0x2C }
  - { offsetInCU: 0x23EE9, offset: 0x23EE9, size: 0x8, addend: 0x0, symName: __ZNSt11_Tuple_implILm0EJRKiEE7_M_headERS2_, symObjAddr: 0x16910, symBinAddr: 0x10001AF34, symSize: 0x1C }
  - { offsetInCU: 0x23F13, offset: 0x23F13, size: 0x8, addend: 0x0, symName: __ZNSt11_Tuple_implILm0EJOiEE7_M_headERS1_, symObjAddr: 0x168F4, symBinAddr: 0x10001AF18, symSize: 0x1C }
  - { offsetInCU: 0x23F3D, offset: 0x23F3D, size: 0x8, addend: 0x0, symName: __ZSt18uninitialized_copyIN9__gnu_cxx17__normal_iteratorIPKSt6vectorIiSaIiEES2_IS4_SaIS4_EEEEPS4_ET0_T_SC_SB_, symObjAddr: 0x168C0, symBinAddr: 0x10001AEE4, symSize: 0x34 }
  - { offsetInCU: 0x2402D, offset: 0x2402D, size: 0x8, addend: 0x0, symName: __ZN9__gnu_cxx17__normal_iteratorIPKSt6vectorIiSaIiEES1_IS3_SaIS3_EEEC1ERKS5_, symObjAddr: 0x16898, symBinAddr: 0x10001AEBC, symSize: 0x28 }
  - { offsetInCU: 0x24025, offset: 0x24025, size: 0x8, addend: 0x0, symName: __ZSt12__get_helperILm0ERKiJEERT0_RSt11_Tuple_implIXT_EJS2_DpT1_EE, symObjAddr: 0x1687C, symBinAddr: 0x10001AEA0, symSize: 0x1C }
  - { offsetInCU: 0x24067, offset: 0x24067, size: 0x8, addend: 0x0, symName: __ZSt12__get_helperILm0EOiJEERT0_RSt11_Tuple_implIXT_EJS1_DpT1_EE, symObjAddr: 0x16860, symBinAddr: 0x10001AE84, symSize: 0x1C }
  - { offsetInCU: 0x240A9, offset: 0x240A9, size: 0x8, addend: 0x0, symName: __ZSt22__uninitialized_copy_aIN9__gnu_cxx17__normal_iteratorIPKSt6vectorIiSaIiEES2_IS4_SaIS4_EEEEPS4_S4_ET0_T_SC_SB_RSaIT1_E, symObjAddr: 0x16830, symBinAddr: 0x10001AE54, symSize: 0x30 }
  - { offsetInCU: 0x2411D, offset: 0x2411D, size: 0x8, addend: 0x0, symName: __ZNKSt6vectorIS_IiSaIiEESaIS1_EE3endEv, symObjAddr: 0x16808, symBinAddr: 0x10001AE2C, symSize: 0x28 }
  - { offsetInCU: 0x24147, offset: 0x24147, size: 0x8, addend: 0x0, symName: __ZNKSt6vectorIS_IiSaIiEESaIS1_EE5beginEv, symObjAddr: 0x167E4, symBinAddr: 0x10001AE08, symSize: 0x24 }
  - { offsetInCU: 0x24186, offset: 0x24186, size: 0x8, addend: 0x0, symName: __ZNKSt12_Vector_baseISt6vectorIiSaIiEESaIS2_EE19_M_get_Tp_allocatorEv, symObjAddr: 0x167D0, symBinAddr: 0x10001ADF4, symSize: 0x14 }
  - { offsetInCU: 0x241B3, offset: 0x241B3, size: 0x8, addend: 0x0, symName: __ZSt7forwardIRKiEOT_RNSt16remove_referenceIS2_E4typeE, symObjAddr: 0x167BC, symBinAddr: 0x10001ADE0, symSize: 0x14 }
  - { offsetInCU: 0x241E5, offset: 0x241E5, size: 0x8, addend: 0x0, symName: __ZSt3getILm0EJRKiEERNSt13tuple_elementIXT_ESt5tupleIJDpT0_EEE4typeERS6_, symObjAddr: 0x167A0, symBinAddr: 0x10001ADC4, symSize: 0x1C }
  - { offsetInCU: 0x2422B, offset: 0x2422B, size: 0x8, addend: 0x0, symName: __ZSt7forwardIOiEOT_RNSt16remove_referenceIS1_E4typeE, symObjAddr: 0x1678C, symBinAddr: 0x10001ADB0, symSize: 0x14 }
  - { offsetInCU: 0x2425D, offset: 0x2425D, size: 0x8, addend: 0x0, symName: __ZSt3getILm0EJOiEERNSt13tuple_elementIXT_ESt5tupleIJDpT0_EEE4typeERS5_, symObjAddr: 0x16770, symBinAddr: 0x10001AD94, symSize: 0x1C }
  - { offsetInCU: 0x2429C, offset: 0x2429C, size: 0x8, addend: 0x0, symName: __ZSt9__fill_a1IPiiEN9__gnu_cxx11__enable_ifIXsrSt11__is_scalarIT0_E7__valueEvE6__typeET_S8_RKS4_, symObjAddr: 0x16718, symBinAddr: 0x10001AD3C, symSize: 0x58 }
  - { offsetInCU: 0x2435B, offset: 0x2435B, size: 0x8, addend: 0x0, symName: __ZNSt6vectorIS_IiSaIiEESaIS1_EEC1ERKS3_, symObjAddr: 0x16604, symBinAddr: 0x10001AC28, symSize: 0x114 }
  - { offsetInCU: 0x2444D, offset: 0x2444D, size: 0x8, addend: 0x0, symName: __ZSt7forwardIRKSt6vectorIS0_IiSaIiEESaIS2_EEEOT_RNSt16remove_referenceIS7_E4typeE, symObjAddr: 0x165F0, symBinAddr: 0x10001AC14, symSize: 0x14 }
  - { offsetInCU: 0x24554, offset: 0x24554, size: 0x8, addend: 0x0, symName: __ZNSt4pairIKiiEC1IJRS0_EJLm0EEJEJEEERSt5tupleIJDpT_EERS4_IJDpT1_EESt12_Index_tupleIJXspT0_EEESD_IJXspT2_EEE, symObjAddr: 0x165A8, symBinAddr: 0x10001ABCC, symSize: 0x48 }
  - { offsetInCU: 0x2455F, offset: 0x2455F, size: 0x8, addend: 0x0, symName: __ZNSt15__new_allocatorIPNSt8__detail15_Hash_node_baseEE8allocateEmPKv, symObjAddr: 0x1652C, symBinAddr: 0x10001AB50, symSize: 0x7C }
  - { offsetInCU: 0x245E7, offset: 0x245E7, size: 0x8, addend: 0x0, symName: __ZSt11__addressofINSt8__detail10_Hash_nodeISt4pairIKiiELb0EEEEPT_RS6_, symObjAddr: 0x16518, symBinAddr: 0x10001AB3C, symSize: 0x14 }
  - { offsetInCU: 0x246EC, offset: 0x246EC, size: 0x8, addend: 0x0, symName: __ZNSt4pairIKiiEC1IJOiEJLm0EEJEJEEERSt5tupleIJDpT_EERS4_IJDpT1_EESt12_Index_tupleIJXspT0_EEESD_IJXspT2_EEE, symObjAddr: 0x164D0, symBinAddr: 0x10001AAF4, symSize: 0x48 }
  - { offsetInCU: 0x246FC, offset: 0x246FC, size: 0x8, addend: 0x0, symName: __ZSt7forwardIRKSt6vectorIiSaIiEEEOT_RNSt16remove_referenceIS5_E4typeE, symObjAddr: 0x164BC, symBinAddr: 0x10001AAE0, symSize: 0x14 }
  - { offsetInCU: 0x2472E, offset: 0x2472E, size: 0x8, addend: 0x0, symName: __ZSt8__fill_aIPiiEvT_S1_RKT0_, symObjAddr: 0x1648C, symBinAddr: 0x10001AAB0, symSize: 0x30 }
  - { offsetInCU: 0x2478C, offset: 0x2478C, size: 0x8, addend: 0x0, symName: __ZSt10_ConstructISt6vectorIS0_IiSaIiEESaIS2_EEJRKS4_EEvPT_DpOT0_, symObjAddr: 0x16410, symBinAddr: 0x10001AA34, symSize: 0x7C }
  - { offsetInCU: 0x247D8, offset: 0x247D8, size: 0x8, addend: 0x0, symName: __ZNSt11__copy_moveILb0ELb0ESt26random_access_iterator_tagE12__assign_oneIiiEEvPT_PT0_, symObjAddr: 0x163E8, symBinAddr: 0x10001AA0C, symSize: 0x28 }
  - { offsetInCU: 0x24825, offset: 0x24825, size: 0x8, addend: 0x0, symName: __ZNSt11__copy_moveILb0ELb0ESt26random_access_iterator_tagE12__assign_oneIiKiEEvPT_PT0_, symObjAddr: 0x163C0, symBinAddr: 0x10001A9E4, symSize: 0x28 }
  - { offsetInCU: 0x24872, offset: 0x24872, size: 0x8, addend: 0x0, symName: __ZSt13__copy_move_aILb0EN9__gnu_cxx17__normal_iteratorIPiSt6vectorIiSaIiEEEES2_ET1_T0_S8_S7_, symObjAddr: 0x16360, symBinAddr: 0x10001A984, symSize: 0x60 }
  - { offsetInCU: 0x248DA, offset: 0x248DA, size: 0x8, addend: 0x0, symName: __ZSt12__miter_baseIN9__gnu_cxx17__normal_iteratorIPiSt6vectorIiSaIiEEEEET_S7_, symObjAddr: 0x1634C, symBinAddr: 0x10001A970, symSize: 0x14 }
  - { offsetInCU: 0x249AA, offset: 0x249AA, size: 0x8, addend: 0x0, symName: __ZNSt4pairIKiiEC1IJRS0_EJEEESt21piecewise_construct_tSt5tupleIJDpT_EES5_IJDpT0_EE, symObjAddr: 0x16310, symBinAddr: 0x10001A934, symSize: 0x3C }
  - { offsetInCU: 0x249F7, offset: 0x249F7, size: 0x8, addend: 0x0, symName: __ZNSt11_Tuple_implILm0EJRKiEEC2EOS2_, symObjAddr: 0x162E8, symBinAddr: 0x10001A90C, symSize: 0x28 }
  - { offsetInCU: 0x24A01, offset: 0x24A01, size: 0x8, addend: 0x0, symName: __ZSt11__addressofIPNSt8__detail15_Hash_node_baseEEPT_RS3_, symObjAddr: 0x162D4, symBinAddr: 0x10001A8F8, symSize: 0x14 }
  - { offsetInCU: 0x24A33, offset: 0x24A33, size: 0x8, addend: 0x0, symName: __ZSt12__to_addressIPNSt8__detail15_Hash_node_baseEEPT_S4_, symObjAddr: 0x162C0, symBinAddr: 0x10001A8E4, symSize: 0x14 }
  - { offsetInCU: 0x24A89, offset: 0x24A89, size: 0x8, addend: 0x0, symName: __ZSt9addressofINSt8__detail10_Hash_nodeISt4pairIKiiELb0EEEEPT_RS6_, symObjAddr: 0x162A4, symBinAddr: 0x10001A8C8, symSize: 0x1C }
  - { offsetInCU: 0x24B56, offset: 0x24B56, size: 0x8, addend: 0x0, symName: __ZNSt4pairIKiiEC1IJOiEJEEESt21piecewise_construct_tSt5tupleIJDpT_EES5_IJDpT0_EE, symObjAddr: 0x16268, symBinAddr: 0x10001A88C, symSize: 0x3C }
  - { offsetInCU: 0x24BA4, offset: 0x24BA4, size: 0x8, addend: 0x0, symName: __ZNSt11_Tuple_implILm0EJOiEEC2EOS1_, symObjAddr: 0x16240, symBinAddr: 0x10001A864, symSize: 0x28 }
  - { offsetInCU: 0x24BB8, offset: 0x24BB8, size: 0x8, addend: 0x0, symName: __ZNK9__gnu_cxx16__aligned_bufferISt4pairIKiiEE7_M_addrEv, symObjAddr: 0x1622C, symBinAddr: 0x10001A850, symSize: 0x14 }
  - { offsetInCU: 0x24BDD, offset: 0x24BDD, size: 0x8, addend: 0x0, symName: __ZSt10_ConstructISt6vectorIiSaIiEEJRKS2_EEvPT_DpOT0_, symObjAddr: 0x161B0, symBinAddr: 0x10001A7D4, symSize: 0x7C }
  - { offsetInCU: 0x24C29, offset: 0x24C29, size: 0x8, addend: 0x0, symName: __ZSt10__fill_n_aIPimiET_S1_T0_RKT1_St26random_access_iterator_tag, symObjAddr: 0x1614C, symBinAddr: 0x10001A770, symSize: 0x64 }
  - { offsetInCU: 0x24CAF, offset: 0x24CAF, size: 0x8, addend: 0x0, symName: __ZSt18__do_uninit_fill_nIPSt6vectorIS0_IiSaIiEESaIS2_EEmS4_ET_S6_T0_RKT1_, symObjAddr: 0x160BC, symBinAddr: 0x10001A6E0, symSize: 0x90 }
  - { offsetInCU: 0x24D2B, offset: 0x24D2B, size: 0x8, addend: 0x0, symName: __ZNSt15__new_allocatorISt6vectorIS0_IiSaIiEESaIS2_EEE8allocateEmPKv, symObjAddr: 0x1602C, symBinAddr: 0x10001A650, symSize: 0x90 }
  - { offsetInCU: 0x24DB3, offset: 0x24DB3, size: 0x8, addend: 0x0, symName: __ZSt10_ConstructIiJEEvPT_DpOT0_, symObjAddr: 0x16000, symBinAddr: 0x10001A624, symSize: 0x2C }
  - { offsetInCU: 0x24DEF, offset: 0x24DEF, size: 0x8, addend: 0x0, symName: __ZSt11__addressofIiEPT_RS0_, symObjAddr: 0x15FEC, symBinAddr: 0x10001A610, symSize: 0x14 }
  - { offsetInCU: 0x24E21, offset: 0x24E21, size: 0x8, addend: 0x0, symName: __ZNSt11__copy_moveILb0ELb1ESt26random_access_iterator_tagE8__copy_mIiiEEPT0_PT_S6_S4_, symObjAddr: 0x15F5C, symBinAddr: 0x10001A580, symSize: 0x90 }
  - { offsetInCU: 0x24E90, offset: 0x24E90, size: 0x8, addend: 0x0, symName: __ZNSt11__copy_moveILb0ELb1ESt26random_access_iterator_tagE8__copy_mIKiiEEPT0_PT_S7_S5_, symObjAddr: 0x15ECC, symBinAddr: 0x10001A4F0, symSize: 0x90 }
  - { offsetInCU: 0x24EFF, offset: 0x24EFF, size: 0x8, addend: 0x0, symName: __ZSt13__copy_move_aILb0EN9__gnu_cxx17__normal_iteratorIPKiSt6vectorIiSaIiEEEEPiET1_T0_SA_S9_, symObjAddr: 0x15E6C, symBinAddr: 0x10001A490, symSize: 0x60 }
  - { offsetInCU: 0x24F67, offset: 0x24F67, size: 0x8, addend: 0x0, symName: __ZSt4copyIN9__gnu_cxx17__normal_iteratorIPiSt6vectorIiSaIiEEEES2_ET0_T_S8_S7_, symObjAddr: 0x15E24, symBinAddr: 0x10001A448, symSize: 0x48 }
  - { offsetInCU: 0x25062, offset: 0x25062, size: 0x8, addend: 0x0, symName: __ZNSt5tupleIJRKiEEC1EOS2_, symObjAddr: 0x15DFC, symBinAddr: 0x10001A420, symSize: 0x28 }
  - { offsetInCU: 0x2507B, offset: 0x2507B, size: 0x8, addend: 0x0, symName: __ZNSt15__new_allocatorIPNSt8__detail15_Hash_node_baseEE10deallocateEPS2_m, symObjAddr: 0x15DCC, symBinAddr: 0x10001A3F0, symSize: 0x30 }
  - { offsetInCU: 0x25121, offset: 0x25121, size: 0x8, addend: 0x0, symName: __ZNSt15__new_allocatorIPNSt8__detail15_Hash_node_baseEED2Ev, symObjAddr: 0x15DB8, symBinAddr: 0x10001A3DC, symSize: 0x14 }
  - { offsetInCU: 0x25121, offset: 0x25121, size: 0x8, addend: 0x0, symName: __ZSt9addressofIPNSt8__detail15_Hash_node_baseEEPT_RS3_, symObjAddr: 0x15D9C, symBinAddr: 0x10001A3C0, symSize: 0x1C }
  - { offsetInCU: 0x25157, offset: 0x25157, size: 0x8, addend: 0x0, symName: __ZNSt8__detail16_Hashtable_allocISaINS_10_Hash_nodeISt4pairIKiiELb0EEEEE19_M_allocate_bucketsEm, symObjAddr: 0x15CEC, symBinAddr: 0x10001A310, symSize: 0xB0 }
  - { offsetInCU: 0x2527A, offset: 0x2527A, size: 0x8, addend: 0x0, symName: __ZNSt19__ptr_traits_ptr_toIPNSt8__detail10_Hash_nodeISt4pairIKiiELb0EEES5_Lb0EE10pointer_toERS5_, symObjAddr: 0x15CD0, symBinAddr: 0x10001A2F4, symSize: 0x1C }
  - { offsetInCU: 0x252D3, offset: 0x252D3, size: 0x8, addend: 0x0, symName: __ZNSt15__new_allocatorINSt8__detail10_Hash_nodeISt4pairIKiiELb0EEEE10deallocateEPS5_m, symObjAddr: 0x15CA0, symBinAddr: 0x10001A2C4, symSize: 0x30 }
  - { offsetInCU: 0x253A7, offset: 0x253A7, size: 0x8, addend: 0x0, symName: __ZNSt5tupleIJOiEEC1EOS1_, symObjAddr: 0x15C78, symBinAddr: 0x10001A29C, symSize: 0x28 }
  - { offsetInCU: 0x253C1, offset: 0x253C1, size: 0x8, addend: 0x0, symName: __ZNSt15__new_allocatorINSt8__detail10_Hash_nodeISt4pairIKiiELb0EEEE8allocateEmPKv, symObjAddr: 0x15BFC, symBinAddr: 0x10001A220, symSize: 0x7C }
  - { offsetInCU: 0x2544D, offset: 0x2544D, size: 0x8, addend: 0x0, symName: __ZNSt8__detail21_Hashtable_ebo_helperILi0ESaINS_10_Hash_nodeISt4pairIKiiELb0EEEELb1EE6_M_getEv, symObjAddr: 0x15BE8, symBinAddr: 0x10001A20C, symSize: 0x14 }
  - { offsetInCU: 0x254CA, offset: 0x254CA, size: 0x8, addend: 0x0, symName: __ZNSt10_Head_baseILm0EOiLb0EEC2IiEEOT_, symObjAddr: 0x15BB8, symBinAddr: 0x10001A1DC, symSize: 0x30 }
  - { offsetInCU: 0x254E4, offset: 0x254E4, size: 0x8, addend: 0x0, symName: __ZN9__gnu_cxx16__aligned_bufferISt4pairIKiiEE7_M_addrEv, symObjAddr: 0x15BA4, symBinAddr: 0x10001A1C8, symSize: 0x14 }
  - { offsetInCU: 0x25509, offset: 0x25509, size: 0x8, addend: 0x0, symName: __ZNSt8__detail15_Hashtable_baseIiSt4pairIKiiENS_10_Select1stESt8equal_toIiESt4hashIiENS_18_Mod_range_hashingENS_20_Default_ranged_hashENS_17_Hashtable_traitsILb0ELb0ELb1EEEE9_S_equalsEmRKNS_21_Hash_node_code_cacheILb0EEE, symObjAddr: 0x15B8C, symBinAddr: 0x10001A1B0, symSize: 0x18 }
  - { offsetInCU: 0x25538, offset: 0x25538, size: 0x8, addend: 0x0, symName: __ZNK9__gnu_cxx16__aligned_bufferISt4pairIKiiEE6_M_ptrEv, symObjAddr: 0x15B70, symBinAddr: 0x10001A194, symSize: 0x1C }
  - { offsetInCU: 0x2555E, offset: 0x2555E, size: 0x8, addend: 0x0, symName: __ZSt18__do_uninit_fill_nIPSt6vectorIiSaIiEEmS2_ET_S4_T0_RKT1_, symObjAddr: 0x15AE0, symBinAddr: 0x10001A104, symSize: 0x90 }
  - { offsetInCU: 0x255DA, offset: 0x255DA, size: 0x8, addend: 0x0, symName: __ZNSt15__new_allocatorISt6vectorIiSaIiEEE8allocateEmPKv, symObjAddr: 0x15A50, symBinAddr: 0x10001A074, symSize: 0x90 }
  - { offsetInCU: 0x25662, offset: 0x25662, size: 0x8, addend: 0x0, symName: __ZSt6fill_nIPimiET_S1_T0_RKT1_, symObjAddr: 0x15A08, symBinAddr: 0x10001A02C, symSize: 0x48 }
  - { offsetInCU: 0x256EA, offset: 0x256EA, size: 0x8, addend: 0x0, symName: __ZSt8_DestroyISt6vectorIS0_IiSaIiEESaIS2_EEEvPT_, symObjAddr: 0x159E8, symBinAddr: 0x10001A00C, symSize: 0x20 }
  - { offsetInCU: 0x2571C, offset: 0x2571C, size: 0x8, addend: 0x0, symName: __ZSt11__addressofISt6vectorIS0_IiSaIiEESaIS2_EEEPT_RS5_, symObjAddr: 0x159D4, symBinAddr: 0x100019FF8, symSize: 0x14 }
  - { offsetInCU: 0x2574E, offset: 0x2574E, size: 0x8, addend: 0x0, symName: __ZNSt22__uninitialized_fill_nILb0EE15__uninit_fill_nIPSt6vectorIS2_IiSaIiEESaIS4_EEmS6_EET_S8_T0_RKT1_, symObjAddr: 0x159A8, symBinAddr: 0x100019FCC, symSize: 0x2C }
  - { offsetInCU: 0x257B9, offset: 0x257B9, size: 0x8, addend: 0x0, symName: __ZNSt15__new_allocatorISt6vectorIS0_IiSaIiEESaIS2_EEE10deallocateEPS4_m, symObjAddr: 0x1596C, symBinAddr: 0x100019F90, symSize: 0x3C }
  - { offsetInCU: 0x25839, offset: 0x25839, size: 0x8, addend: 0x0, symName: __ZNSt27__uninitialized_default_n_1ILb1EE18__uninit_default_nIPimEET_S3_T0_, symObjAddr: 0x15908, symBinAddr: 0x100019F2C, symSize: 0x64 }
  - { offsetInCU: 0x258B0, offset: 0x258B0, size: 0x8, addend: 0x0, symName: __ZSt14__copy_move_a2ILb0EPiS0_ET1_T0_S2_S1_, symObjAddr: 0x158DC, symBinAddr: 0x100019F00, symSize: 0x2C }
  - { offsetInCU: 0x25918, offset: 0x25918, size: 0x8, addend: 0x0, symName: __ZSt14__copy_move_a2ILb0EPKiPiET1_T0_S4_S3_, symObjAddr: 0x158B0, symBinAddr: 0x100019ED4, symSize: 0x2C }
  - { offsetInCU: 0x25984, offset: 0x25984, size: 0x8, addend: 0x0, symName: __ZNK9__gnu_cxx17__normal_iteratorIPKiSt6vectorIiSaIiEEE4baseEv, symObjAddr: 0x1589C, symBinAddr: 0x100019EC0, symSize: 0x14 }
  - { offsetInCU: 0x259AA, offset: 0x259AA, size: 0x8, addend: 0x0, symName: __ZSt4copyIN9__gnu_cxx17__normal_iteratorIPKiSt6vectorIiSaIiEEEEPiET0_T_SA_S9_, symObjAddr: 0x15854, symBinAddr: 0x100019E78, symSize: 0x48 }
  - { offsetInCU: 0x25A08, offset: 0x25A08, size: 0x8, addend: 0x0, symName: __ZNSt20__uninitialized_copyILb1EE13__uninit_copyIN9__gnu_cxx17__normal_iteratorIPiSt6vectorIiSaIiEEEES4_EET0_T_SA_S9_, symObjAddr: 0x15828, symBinAddr: 0x100019E4C, symSize: 0x2C }
  - { offsetInCU: 0x25A67, offset: 0x25A67, size: 0x8, addend: 0x0, symName: __ZNSt15__new_allocatorIiE8allocateEmPKv, symObjAddr: 0x157AC, symBinAddr: 0x100019DD0, symSize: 0x7C }
  - { offsetInCU: 0x25AF3, offset: 0x25AF3, size: 0x8, addend: 0x0, symName: __ZNK9__gnu_cxx17__normal_iteratorIPiSt6vectorIiSaIiEEE4baseEv, symObjAddr: 0x15798, symBinAddr: 0x100019DBC, symSize: 0x14 }
  - { offsetInCU: 0x25BBD, offset: 0x25BBD, size: 0x8, addend: 0x0, symName: __ZNSt10_Head_baseILm0ERKiLb0EEC2ES1_, symObjAddr: 0x15774, symBinAddr: 0x100019D98, symSize: 0x24 }
  - { offsetInCU: 0x25C3D, offset: 0x25C3D, size: 0x8, addend: 0x0, symName: __ZNSt19__ptr_traits_ptr_toIPPNSt8__detail15_Hash_node_baseES2_Lb0EE10pointer_toERS2_, symObjAddr: 0x15758, symBinAddr: 0x100019D7C, symSize: 0x1C }
  - { offsetInCU: 0x25C6A, offset: 0x25C6A, size: 0x8, addend: 0x0, symName: __ZNKSt8__detail15_Hash_code_baseIiSt4pairIKiiENS_10_Select1stESt4hashIiENS_18_Mod_range_hashingENS_20_Default_ranged_hashELb0EE15_M_bucket_indexERKNS_16_Hash_node_valueIS3_Lb0EEEm, symObjAddr: 0x156F4, symBinAddr: 0x100019D18, symSize: 0x64 }
  - { offsetInCU: 0x25CFE, offset: 0x25CFE, size: 0x8, addend: 0x0, symName: __ZNSt10_HashtableIiSt4pairIKiiESaIS2_ENSt8__detail10_Select1stESt8equal_toIiESt4hashIiENS4_18_Mod_range_hashingENS4_20_Default_ranged_hashENS4_20_Prime_rehash_policyENS4_17_Hashtable_traitsILb0ELb0ELb1EEEE19_M_allocate_bucketsEm, symObjAddr: 0x1569C, symBinAddr: 0x100019CC0, symSize: 0x58 }
  - { offsetInCU: 0x25D35, offset: 0x25D35, size: 0x8, addend: 0x0, symName: __ZSt11__addressofINSt8__detail20_Prime_rehash_policyEEPT_RS2_, symObjAddr: 0x15688, symBinAddr: 0x100019CAC, symSize: 0x14 }
  - { offsetInCU: 0x25D6B, offset: 0x25D6B, size: 0x8, addend: 0x0, symName: __ZNSt8__detail16_Hashtable_allocISaINS_10_Hash_nodeISt4pairIKiiELb0EEEEE22_M_deallocate_node_ptrEPS5_, symObjAddr: 0x15630, symBinAddr: 0x100019C54, symSize: 0x58 }
  - { offsetInCU: 0x25EA0, offset: 0x25EA0, size: 0x8, addend: 0x0, symName: __ZSt12__to_addressINSt8__detail10_Hash_nodeISt4pairIKiiELb0EEEEPT_S7_, symObjAddr: 0x1561C, symBinAddr: 0x100019C40, symSize: 0x14 }
  - { offsetInCU: 0x25EFA, offset: 0x25EFA, size: 0x8, addend: 0x0, symName: __ZNSt8__detail16_Hashtable_allocISaINS_10_Hash_nodeISt4pairIKiiELb0EEEEE17_M_node_allocatorEv, symObjAddr: 0x15600, symBinAddr: 0x100019C24, symSize: 0x1C }
  - { offsetInCU: 0x25F77, offset: 0x25F77, size: 0x8, addend: 0x0, symName: __ZNSt11_Tuple_implILm0EJOiEEC2IiEEOT_, symObjAddr: 0x155C4, symBinAddr: 0x100019BE8, symSize: 0x3C }
  - { offsetInCU: 0x25F8D, offset: 0x25F8D, size: 0x8, addend: 0x0, symName: __ZN9__gnu_cxx16__aligned_bufferISt4pairIKiiEE6_M_ptrEv, symObjAddr: 0x155A8, symBinAddr: 0x100019BCC, symSize: 0x1C }
  - { offsetInCU: 0x25FB7, offset: 0x25FB7, size: 0x8, addend: 0x0, symName: __ZNKSt10_HashtableIiSt4pairIKiiESaIS2_ENSt8__detail10_Select1stESt8equal_toIiESt4hashIiENS4_18_Mod_range_hashingENS4_20_Default_ranged_hashENS4_20_Prime_rehash_policyENS4_17_Hashtable_traitsILb0ELb0ELb1EEEE15_M_bucket_indexERKNS4_16_Hash_node_valueIS2_Lb0EEE, symObjAddr: 0x15578, symBinAddr: 0x100019B9C, symSize: 0x30 }
  - { offsetInCU: 0x25FF2, offset: 0x25FF2, size: 0x8, addend: 0x0, symName: __ZNKSt8__detail15_Hashtable_baseIiSt4pairIKiiENS_10_Select1stESt8equal_toIiESt4hashIiENS_18_Mod_range_hashingENS_20_Default_ranged_hashENS_17_Hashtable_traitsILb0ELb0ELb1EEEE9_M_equalsERS2_mRKNS_16_Hash_node_valueIS3_Lb0EEE, symObjAddr: 0x15518, symBinAddr: 0x100019B3C, symSize: 0x60 }
  - { offsetInCU: 0x2604F, offset: 0x2604F, size: 0x8, addend: 0x0, symName: __ZNKSt8__detail21_Hashtable_ebo_helperILi1ESt4hashIiELb1EE7_M_cgetEv, symObjAddr: 0x15504, symBinAddr: 0x100019B28, symSize: 0x14 }
  - { offsetInCU: 0x2607C, offset: 0x2607C, size: 0x8, addend: 0x0, symName: __ZSt7forwardIRKSt4pairIKiiEEOT_RNSt16remove_referenceIS5_E4typeE, symObjAddr: 0x154F0, symBinAddr: 0x100019B14, symSize: 0x14 }
  - { offsetInCU: 0x260C8, offset: 0x260C8, size: 0x8, addend: 0x0, symName: __ZNKSt8__detail21_Hashtable_ebo_helperILi0ESt8equal_toIiELb1EE7_M_cgetEv, symObjAddr: 0x154DC, symBinAddr: 0x100019B00, symSize: 0x14 }
  - { offsetInCU: 0x260EE, offset: 0x260EE, size: 0x8, addend: 0x0, symName: __ZSt8_DestroyISt6vectorIiSaIiEEEvPT_, symObjAddr: 0x154BC, symBinAddr: 0x100019AE0, symSize: 0x20 }
  - { offsetInCU: 0x26120, offset: 0x26120, size: 0x8, addend: 0x0, symName: __ZSt11__addressofISt6vectorIiSaIiEEEPT_RS3_, symObjAddr: 0x154A8, symBinAddr: 0x100019ACC, symSize: 0x14 }
  - { offsetInCU: 0x26152, offset: 0x26152, size: 0x8, addend: 0x0, symName: __ZNSt22__uninitialized_fill_nILb0EE15__uninit_fill_nIPSt6vectorIiSaIiEEmS4_EET_S6_T0_RKT1_, symObjAddr: 0x1547C, symBinAddr: 0x100019AA0, symSize: 0x2C }
  - { offsetInCU: 0x261BD, offset: 0x261BD, size: 0x8, addend: 0x0, symName: __ZNSt15__new_allocatorISt6vectorIiSaIiEEE10deallocateEPS2_m, symObjAddr: 0x15440, symBinAddr: 0x100019A64, symSize: 0x3C }
  - { offsetInCU: 0x2623D, offset: 0x2623D, size: 0x8, addend: 0x0, symName: __ZNSt22__uninitialized_fill_nILb1EE15__uninit_fill_nIPimiEET_S3_T0_RKT1_, symObjAddr: 0x15414, symBinAddr: 0x100019A38, symSize: 0x2C }
  - { offsetInCU: 0x262BA, offset: 0x262BA, size: 0x8, addend: 0x0, symName: __ZSt4swapIcENSt9enable_ifIXsrSt6__and_IJSt6__not_ISt15__is_tuple_likeIT_EESt21is_move_constructibleIS4_ESt18is_move_assignableIS4_EEE5valueEvE4typeERS4_SE_, symObjAddr: 0x153C0, symBinAddr: 0x1000199E4, symSize: 0x54 }
  - { offsetInCU: 0x26313, offset: 0x26313, size: 0x8, addend: 0x0, symName: __ZSt4moveIRcEONSt16remove_referenceIT_E4typeEOS2_, symObjAddr: 0x153AC, symBinAddr: 0x1000199D0, symSize: 0x14 }
  - { offsetInCU: 0x26349, offset: 0x26349, size: 0x8, addend: 0x0, symName: __ZNK9__gnu_cxx17__normal_iteratorIPcNSt7__cxx1112basic_stringIcSt11char_traitsIcESaIcEEEEdeEv, symObjAddr: 0x15394, symBinAddr: 0x1000199B8, symSize: 0x18 }
  - { offsetInCU: 0x26373, offset: 0x26373, size: 0x8, addend: 0x0, symName: __ZNK9__gnu_cxx17__normal_iteratorIPcNSt7__cxx1112basic_stringIcSt11char_traitsIcESaIcEEEE4baseEv, symObjAddr: 0x15380, symBinAddr: 0x1000199A4, symSize: 0x14 }
  - { offsetInCU: 0x26399, offset: 0x26399, size: 0x8, addend: 0x0, symName: __ZNSt12_Destroy_auxILb0EE9__destroyIPSt6vectorIS2_IiSaIiEESaIS4_EEEEvT_S8_, symObjAddr: 0x15334, symBinAddr: 0x100019958, symSize: 0x4C }
  - { offsetInCU: 0x263DB, offset: 0x263DB, size: 0x8, addend: 0x0, symName: __ZSt20uninitialized_fill_nIPSt6vectorIS0_IiSaIiEESaIS2_EEmS4_ET_S6_T0_RKT1_, symObjAddr: 0x15304, symBinAddr: 0x100019928, symSize: 0x30 }
  - { offsetInCU: 0x26489, offset: 0x26489, size: 0x8, addend: 0x0, symName: __ZNSt12_Vector_baseISt6vectorIS0_IiSaIiEESaIS2_EESaIS4_EE11_M_allocateEm, symObjAddr: 0x152B4, symBinAddr: 0x1000198D8, symSize: 0x50 }
  - { offsetInCU: 0x26558, offset: 0x26558, size: 0x8, addend: 0x0, symName: __ZNSt12_Vector_baseISt6vectorIS0_IiSaIiEESaIS2_EESaIS4_EE17_Vector_impl_dataC2Ev, symObjAddr: 0x15288, symBinAddr: 0x1000198AC, symSize: 0x2C }
  - { offsetInCU: 0x2655E, offset: 0x2655E, size: 0x8, addend: 0x0, symName: __ZSt25__uninitialized_default_nIPimET_S1_T0_, symObjAddr: 0x1525C, symBinAddr: 0x100019880, symSize: 0x2C }
  - { offsetInCU: 0x265BC, offset: 0x265BC, size: 0x8, addend: 0x0, symName: __ZNSt20__uninitialized_copyILb1EE13__uninit_copyIPiS2_EET0_T_S4_S3_, symObjAddr: 0x15230, symBinAddr: 0x100019854, symSize: 0x2C }
  - { offsetInCU: 0x26617, offset: 0x26617, size: 0x8, addend: 0x0, symName: __ZSt12__niter_wrapIPiET_RKS1_S1_, symObjAddr: 0x15218, symBinAddr: 0x10001983C, symSize: 0x18 }
  - { offsetInCU: 0x26653, offset: 0x26653, size: 0x8, addend: 0x0, symName: __ZSt14__copy_move_a1ILb0EPiS0_ET1_T0_S2_S1_, symObjAddr: 0x151EC, symBinAddr: 0x100019810, symSize: 0x2C }
  - { offsetInCU: 0x266BB, offset: 0x266BB, size: 0x8, addend: 0x0, symName: __ZSt12__niter_baseIPiET_S1_, symObjAddr: 0x151D8, symBinAddr: 0x1000197FC, symSize: 0x14 }
  - { offsetInCU: 0x266EE, offset: 0x266EE, size: 0x8, addend: 0x0, symName: __ZNSt12_Destroy_auxILb1EE9__destroyIN9__gnu_cxx17__normal_iteratorIPiSt6vectorIiSaIiEEEEEEvT_S9_, symObjAddr: 0x151C0, symBinAddr: 0x1000197E4, symSize: 0x18 }
  - { offsetInCU: 0x26722, offset: 0x26722, size: 0x8, addend: 0x0, symName: __ZSt12__niter_wrapIN9__gnu_cxx17__normal_iteratorIPiSt6vectorIiSaIiEEEES2_ET_S7_T0_, symObjAddr: 0x15178, symBinAddr: 0x10001979C, symSize: 0x48 }
  - { offsetInCU: 0x2676F, offset: 0x2676F, size: 0x8, addend: 0x0, symName: __ZSt14__copy_move_a1ILb0EPKiPiET1_T0_S4_S3_, symObjAddr: 0x1514C, symBinAddr: 0x100019770, symSize: 0x2C }
  - { offsetInCU: 0x267D7, offset: 0x267D7, size: 0x8, addend: 0x0, symName: __ZSt12__niter_baseIPiSt6vectorIiSaIiEEET_N9__gnu_cxx17__normal_iteratorIS4_T0_EE, symObjAddr: 0x1512C, symBinAddr: 0x100019750, symSize: 0x20 }
  - { offsetInCU: 0x26813, offset: 0x26813, size: 0x8, addend: 0x0, symName: __ZSt12__niter_baseIPKiSt6vectorIiSaIiEEET_N9__gnu_cxx17__normal_iteratorIS5_T0_EE, symObjAddr: 0x1510C, symBinAddr: 0x100019730, symSize: 0x20 }
  - { offsetInCU: 0x26853, offset: 0x26853, size: 0x8, addend: 0x0, symName: __ZNSt15__new_allocatorIiE10deallocateEPim, symObjAddr: 0x150DC, symBinAddr: 0x100019700, symSize: 0x30 }
  - { offsetInCU: 0x26899, offset: 0x26899, size: 0x8, addend: 0x0, symName: __ZNSt20__uninitialized_copyILb1EE13__uninit_copyIN9__gnu_cxx17__normal_iteratorIPKiSt6vectorIiSaIiEEEEPiEET0_T_SC_SB_, symObjAddr: 0x150B0, symBinAddr: 0x1000196D4, symSize: 0x2C }
  - { offsetInCU: 0x268F4, offset: 0x268F4, size: 0x8, addend: 0x0, symName: __ZSt18uninitialized_copyIN9__gnu_cxx17__normal_iteratorIPiSt6vectorIiSaIiEEEES2_ET0_T_S8_S7_, symObjAddr: 0x15074, symBinAddr: 0x100019698, symSize: 0x3C }
  - { offsetInCU: 0x2699A, offset: 0x2699A, size: 0x8, addend: 0x0, symName: __ZN9__gnu_cxxmiIPiSt6vectorIiSaIiEEEENS_17__normal_iteratorIT_T0_E15difference_typeERKS8_SB_, symObjAddr: 0x15034, symBinAddr: 0x100019658, symSize: 0x40 }
  - { offsetInCU: 0x269EB, offset: 0x269EB, size: 0x8, addend: 0x0, symName: __ZNSt8__detail16_Hashtable_allocISaINS_10_Hash_nodeISt4pairIKiiELb0EEEEE16_M_allocate_nodeIJRKSt21piecewise_construct_tSt5tupleIJRS3_EESC_IJEEEEEPS5_DpOT_, symObjAddr: 0x14E48, symBinAddr: 0x10001946C, symSize: 0x1EC }
  - { offsetInCU: 0x26BA0, offset: 0x26BA0, size: 0x8, addend: 0x0, symName: __ZSt7forwardISt5tupleIJRKiEEEOT_RNSt16remove_referenceIS4_E4typeE, symObjAddr: 0x14E34, symBinAddr: 0x100019458, symSize: 0x14 }
  - { offsetInCU: 0x26C1E, offset: 0x26C1E, size: 0x8, addend: 0x0, symName: __ZNSt11_Tuple_implILm0EJRKiEEC2ES1_, symObjAddr: 0x14E0C, symBinAddr: 0x100019430, symSize: 0x28 }
  - { offsetInCU: 0x26C2D, offset: 0x26C2D, size: 0x8, addend: 0x0, symName: __ZNSt8__detail16_Hashtable_allocISaINS_10_Hash_nodeISt4pairIKiiELb0EEEEE21_M_deallocate_bucketsEPPNS_15_Hash_node_baseEm, symObjAddr: 0x14D94, symBinAddr: 0x1000193B8, symSize: 0x78 }
  - { offsetInCU: 0x26D3D, offset: 0x26D3D, size: 0x8, addend: 0x0, symName: __ZNKSt10_HashtableIiSt4pairIKiiESaIS2_ENSt8__detail10_Select1stESt8equal_toIiESt4hashIiENS4_18_Mod_range_hashingENS4_20_Default_ranged_hashENS4_20_Prime_rehash_policyENS4_17_Hashtable_traitsILb0ELb0ELb1EEEE21_M_uses_single_bucketEPPNS4_15_Hash_node_baseE, symObjAddr: 0x14D58, symBinAddr: 0x10001937C, symSize: 0x3C }
  - { offsetInCU: 0x26D78, offset: 0x26D78, size: 0x8, addend: 0x0, symName: __ZNSt10_HashtableIiSt4pairIKiiESaIS2_ENSt8__detail10_Select1stESt8equal_toIiESt4hashIiENS4_18_Mod_range_hashingENS4_20_Default_ranged_hashENS4_20_Prime_rehash_policyENS4_17_Hashtable_traitsILb0ELb0ELb1EEEE22_M_insert_bucket_beginEmPNS4_10_Hash_nodeIS2_Lb0EEE, symObjAddr: 0x14C4C, symBinAddr: 0x100019270, symSize: 0x10C }
  - { offsetInCU: 0x26DC4, offset: 0x26DC4, size: 0x8, addend: 0x0, symName: __ZNKSt8__detail15_Hash_code_baseIiSt4pairIKiiENS_10_Select1stESt4hashIiENS_18_Mod_range_hashingENS_20_Default_ranged_hashELb0EE13_M_store_codeERNS_21_Hash_node_code_cacheILb0EEEm, symObjAddr: 0x14C30, symBinAddr: 0x100019254, symSize: 0x1C }
  - { offsetInCU: 0x26E00, offset: 0x26E00, size: 0x8, addend: 0x0, symName: __ZNSt10_HashtableIiSt4pairIKiiESaIS2_ENSt8__detail10_Select1stESt8equal_toIiESt4hashIiENS4_18_Mod_range_hashingENS4_20_Default_ranged_hashENS4_20_Prime_rehash_policyENS4_17_Hashtable_traitsILb0ELb0ELb1EEEE9_M_rehashEmSt17integral_constantIbLb1EE, symObjAddr: 0x14AC4, symBinAddr: 0x1000190E8, symSize: 0x16C }
  - { offsetInCU: 0x26F0F, offset: 0x26F0F, size: 0x8, addend: 0x0, symName: __ZNSt8__detail17_RehashStateGuardINS_20_Prime_rehash_policyEED1Ev, symObjAddr: 0x14A80, symBinAddr: 0x1000190A4, symSize: 0x44 }
  - { offsetInCU: 0x26F60, offset: 0x26F60, size: 0x8, addend: 0x0, symName: __ZNSt8__detail17_RehashStateGuardINS_20_Prime_rehash_policyEEC1ERS1_, symObjAddr: 0x14A3C, symBinAddr: 0x100019060, symSize: 0x44 }
  - { offsetInCU: 0x26F4E, offset: 0x26F4E, size: 0x8, addend: 0x0, symName: __ZNSt8__detail16_Hashtable_allocISaINS_10_Hash_nodeISt4pairIKiiELb0EEEEE18_M_deallocate_nodeEPS5_, symObjAddr: 0x149C8, symBinAddr: 0x100018FEC, symSize: 0x74 }
  - { offsetInCU: 0x27007, offset: 0x27007, size: 0x8, addend: 0x0, symName: __ZNSt8__detail16_Hashtable_allocISaINS_10_Hash_nodeISt4pairIKiiELb0EEEEE16_M_allocate_nodeIJRKSt21piecewise_construct_tSt5tupleIJOiEESC_IJEEEEEPS5_DpOT_, symObjAddr: 0x147DC, symBinAddr: 0x100018E00, symSize: 0x1EC }
  - { offsetInCU: 0x27204, offset: 0x27204, size: 0x8, addend: 0x0, symName: __ZNSt8__detail10_Hash_nodeISt4pairIKiiELb0EEC1Ev, symObjAddr: 0x147BC, symBinAddr: 0x100018DE0, symSize: 0x20 }
  - { offsetInCU: 0x27200, offset: 0x27200, size: 0x8, addend: 0x0, symName: __ZSt7forwardISt5tupleIJEEEOT_RNSt16remove_referenceIS2_E4typeE, symObjAddr: 0x147A8, symBinAddr: 0x100018DCC, symSize: 0x14 }
  - { offsetInCU: 0x27239, offset: 0x27239, size: 0x8, addend: 0x0, symName: __ZSt7forwardISt5tupleIJOiEEEOT_RNSt16remove_referenceIS3_E4typeE, symObjAddr: 0x14794, symBinAddr: 0x100018DB8, symSize: 0x14 }
  - { offsetInCU: 0x27272, offset: 0x27272, size: 0x8, addend: 0x0, symName: __ZSt7forwardIRKSt21piecewise_construct_tEOT_RNSt16remove_referenceIS3_E4typeE, symObjAddr: 0x14780, symBinAddr: 0x100018DA4, symSize: 0x14 }
  - { offsetInCU: 0x27306, offset: 0x27306, size: 0x8, addend: 0x0, symName: __ZNSt5tupleIJOiEEC1IJiELb1ELb1EEEDpOT_, symObjAddr: 0x14744, symBinAddr: 0x100018D68, symSize: 0x3C }
  - { offsetInCU: 0x27344, offset: 0x27344, size: 0x8, addend: 0x0, symName: __ZNKSt10_HashtableIiSt4pairIKiiESaIS2_ENSt8__detail10_Select1stESt8equal_toIiESt4hashIiENS4_18_Mod_range_hashingENS4_20_Default_ranged_hashENS4_20_Prime_rehash_policyENS4_17_Hashtable_traitsILb0ELb0ELb1EEEE19_M_find_before_nodeEmRS1_m, symObjAddr: 0x14648, symBinAddr: 0x100018C6C, symSize: 0xFC }
  - { offsetInCU: 0x273D6, offset: 0x273D6, size: 0x8, addend: 0x0, symName: __ZNKSt8__detail15_Hash_code_baseIiSt4pairIKiiENS_10_Select1stESt4hashIiENS_18_Mod_range_hashingENS_20_Default_ranged_hashELb0EE15_M_bucket_indexEmm, symObjAddr: 0x1461C, symBinAddr: 0x100018C40, symSize: 0x2C }
  - { offsetInCU: 0x27422, offset: 0x27422, size: 0x8, addend: 0x0, symName: __ZNKSt8__detail15_Hash_code_baseIiSt4pairIKiiENS_10_Select1stESt4hashIiENS_18_Mod_range_hashingENS_20_Default_ranged_hashELb0EE7_M_hashEv, symObjAddr: 0x14600, symBinAddr: 0x100018C24, symSize: 0x1C }
  - { offsetInCU: 0x274C3, offset: 0x274C3, size: 0x8, addend: 0x0, symName: __ZNSt8__detail19_Node_iterator_baseISt4pairIKiiELb0EEC2EPNS_10_Hash_nodeIS3_Lb0EEE, symObjAddr: 0x145DC, symBinAddr: 0x100018C00, symSize: 0x24 }
  - { offsetInCU: 0x274A3, offset: 0x274A3, size: 0x8, addend: 0x0, symName: __ZNKSt8equal_toIiEclERKiS2_, symObjAddr: 0x145A8, symBinAddr: 0x100018BCC, symSize: 0x34 }
  - { offsetInCU: 0x274FA, offset: 0x274FA, size: 0x8, addend: 0x0, symName: __ZNKSt8__detail10_Select1stclIRKSt4pairIKiiEEEONS0_10__1st_typeIT_E4typeEOS8_, symObjAddr: 0x14588, symBinAddr: 0x100018BAC, symSize: 0x20 }
  - { offsetInCU: 0x27553, offset: 0x27553, size: 0x8, addend: 0x0, symName: __ZNKSt8__detail15_Hashtable_baseIiSt4pairIKiiENS_10_Select1stESt8equal_toIiESt4hashIiENS_18_Mod_range_hashingENS_20_Default_ranged_hashENS_17_Hashtable_traitsILb0ELb0ELb1EEEE5_M_eqEv, symObjAddr: 0x1456C, symBinAddr: 0x100018B90, symSize: 0x1C }
  - { offsetInCU: 0x2757A, offset: 0x2757A, size: 0x8, addend: 0x0, symName: __ZNSt8__detail22_Hashtable_hash_traitsISt4hashIiEE22__small_size_thresholdEv, symObjAddr: 0x14564, symBinAddr: 0x100018B88, symSize: 0x8 }
  - { offsetInCU: 0x27591, offset: 0x27591, size: 0x8, addend: 0x0, symName: __ZNSt12_Destroy_auxILb0EE9__destroyIPSt6vectorIiSaIiEEEEvT_S6_, symObjAddr: 0x14518, symBinAddr: 0x100018B3C, symSize: 0x4C }
  - { offsetInCU: 0x275D3, offset: 0x275D3, size: 0x8, addend: 0x0, symName: __ZSt20uninitialized_fill_nIPSt6vectorIiSaIiEEmS2_ET_S4_T0_RKT1_, symObjAddr: 0x144E8, symBinAddr: 0x100018B0C, symSize: 0x30 }
  - { offsetInCU: 0x27681, offset: 0x27681, size: 0x8, addend: 0x0, symName: __ZNSt12_Vector_baseISt6vectorIiSaIiEESaIS2_EE11_M_allocateEm, symObjAddr: 0x14498, symBinAddr: 0x100018ABC, symSize: 0x50 }
  - { offsetInCU: 0x27744, offset: 0x27744, size: 0x8, addend: 0x0, symName: __ZNSt12_Vector_baseISt6vectorIiSaIiEESaIS2_EE17_Vector_impl_dataC2Ev, symObjAddr: 0x1446C, symBinAddr: 0x100018A90, symSize: 0x2C }
  - { offsetInCU: 0x27756, offset: 0x27756, size: 0x8, addend: 0x0, symName: __ZNSt12_Destroy_auxILb1EE9__destroyIPiEEvT_S3_, symObjAddr: 0x14454, symBinAddr: 0x100018A78, symSize: 0x18 }
  - { offsetInCU: 0x2778A, offset: 0x2778A, size: 0x8, addend: 0x0, symName: __ZSt20uninitialized_fill_nIPimiET_S1_T0_RKT1_, symObjAddr: 0x14420, symBinAddr: 0x100018A44, symSize: 0x34 }
  - { offsetInCU: 0x2784F, offset: 0x2784F, size: 0x8, addend: 0x0, symName: __ZNSt12_Vector_baseIiSaIiEE17_Vector_impl_dataC2Ev, symObjAddr: 0x143F4, symBinAddr: 0x100018A18, symSize: 0x2C }
  - { offsetInCU: 0x278C2, offset: 0x278C2, size: 0x8, addend: 0x0, symName: __ZN9__gnu_cxx17__normal_iteratorIPcNSt7__cxx1112basic_stringIcSt11char_traitsIcESaIcEEEEppEv, symObjAddr: 0x143CC, symBinAddr: 0x1000189F0, symSize: 0x28 }
  - { offsetInCU: 0x278E8, offset: 0x278E8, size: 0x8, addend: 0x0, symName: __ZSt9iter_swapIN9__gnu_cxx17__normal_iteratorIPcNSt7__cxx1112basic_stringIcSt11char_traitsIcESaIcEEEEES9_EvT_T0_, symObjAddr: 0x14388, symBinAddr: 0x1000189AC, symSize: 0x44 }
  - { offsetInCU: 0x2793A, offset: 0x2793A, size: 0x8, addend: 0x0, symName: __ZN9__gnu_cxxltIPcNSt7__cxx1112basic_stringIcSt11char_traitsIcESaIcEEEEEbRKNS_17__normal_iteratorIT_T0_EESD_, symObjAddr: 0x14344, symBinAddr: 0x100018968, symSize: 0x44 }
  - { offsetInCU: 0x2798B, offset: 0x2798B, size: 0x8, addend: 0x0, symName: __ZN9__gnu_cxx17__normal_iteratorIPcNSt7__cxx1112basic_stringIcSt11char_traitsIcESaIcEEEEmmEv, symObjAddr: 0x1431C, symBinAddr: 0x100018940, symSize: 0x28 }
  - { offsetInCU: 0x279B1, offset: 0x279B1, size: 0x8, addend: 0x0, symName: __ZN9__gnu_cxxeqIPcNSt7__cxx1112basic_stringIcSt11char_traitsIcESaIcEEEEEbRKNS_17__normal_iteratorIT_T0_EESD_, symObjAddr: 0x142D8, symBinAddr: 0x1000188FC, symSize: 0x44 }
  - { offsetInCU: 0x279FE, offset: 0x279FE, size: 0x8, addend: 0x0, symName: __ZSt8_DestroyIPSt6vectorIS0_IiSaIiEESaIS2_EEEvT_S6_, symObjAddr: 0x142B0, symBinAddr: 0x1000188D4, symSize: 0x28 }
  - { offsetInCU: 0x27A40, offset: 0x27A40, size: 0x8, addend: 0x0, symName: __ZSt24__uninitialized_fill_n_aIPSt6vectorIS0_IiSaIiEESaIS2_EEmS4_S4_ET_S6_T0_RKT1_RSaIT2_E, symObjAddr: 0x14280, symBinAddr: 0x1000188A4, symSize: 0x30 }
  - { offsetInCU: 0x27ABD, offset: 0x27ABD, size: 0x8, addend: 0x0, symName: __ZNSt12_Vector_baseISt6vectorIS0_IiSaIiEESaIS2_EESaIS4_EE13_M_deallocateEPS4_m, symObjAddr: 0x14228, symBinAddr: 0x10001884C, symSize: 0x58 }
  - { offsetInCU: 0x27B3F, offset: 0x27B3F, size: 0x8, addend: 0x0, symName: __ZNSt12_Vector_baseISt6vectorIS0_IiSaIiEESaIS2_EESaIS4_EE17_M_create_storageEm, symObjAddr: 0x141BC, symBinAddr: 0x1000187E0, symSize: 0x6C }
  - { offsetInCU: 0x27BED, offset: 0x27BED, size: 0x8, addend: 0x0, symName: __ZNSt12_Vector_baseISt6vectorIS0_IiSaIiEESaIS2_EESaIS4_EE12_Vector_implC1ERKS5_, symObjAddr: 0x14170, symBinAddr: 0x100018794, symSize: 0x4C }
  - { offsetInCU: 0x27C47, offset: 0x27C47, size: 0x8, addend: 0x0, symName: __ZNSt6vectorIS_IS_IiSaIiEESaIS1_EESaIS3_EE11_S_max_sizeERKS4_, symObjAddr: 0x14114, symBinAddr: 0x100018738, symSize: 0x5C }
  - { offsetInCU: 0x27CFE, offset: 0x27CFE, size: 0x8, addend: 0x0, symName: __ZSt27__uninitialized_default_n_aIPimiET_S1_T0_RSaIT1_E, symObjAddr: 0x140EC, symBinAddr: 0x100018710, symSize: 0x28 }
  - { offsetInCU: 0x27D5D, offset: 0x27D5D, size: 0x8, addend: 0x0, symName: __ZSt18uninitialized_copyIPiS0_ET0_T_S2_S1_, symObjAddr: 0x140B0, symBinAddr: 0x1000186D4, symSize: 0x3C }
  - { offsetInCU: 0x27DD8, offset: 0x27DD8, size: 0x8, addend: 0x0, symName: __ZSt13__copy_move_aILb0EPiS0_ET1_T0_S2_S1_, symObjAddr: 0x14050, symBinAddr: 0x100018674, symSize: 0x60 }
  - { offsetInCU: 0x27E40, offset: 0x27E40, size: 0x8, addend: 0x0, symName: __ZSt12__miter_baseIPiET_S1_, symObjAddr: 0x1403C, symBinAddr: 0x100018660, symSize: 0x14 }
  - { offsetInCU: 0x27E73, offset: 0x27E73, size: 0x8, addend: 0x0, symName: __ZSt8_DestroyIN9__gnu_cxx17__normal_iteratorIPiSt6vectorIiSaIiEEEEEvT_S7_, symObjAddr: 0x14014, symBinAddr: 0x100018638, symSize: 0x28 }
  - { offsetInCU: 0x27EB5, offset: 0x27EB5, size: 0x8, addend: 0x0, symName: __ZSt13__copy_move_aILb0EN9__gnu_cxx17__normal_iteratorIPKiSt6vectorIiSaIiEEEENS1_IPiS6_EEET1_T0_SB_SA_, symObjAddr: 0x13FB4, symBinAddr: 0x1000185D8, symSize: 0x60 }
  - { offsetInCU: 0x27F1D, offset: 0x27F1D, size: 0x8, addend: 0x0, symName: __ZSt12__miter_baseIN9__gnu_cxx17__normal_iteratorIPKiSt6vectorIiSaIiEEEEET_S8_, symObjAddr: 0x13FA0, symBinAddr: 0x1000185C4, symSize: 0x14 }
  - { offsetInCU: 0x27F86, offset: 0x27F86, size: 0x8, addend: 0x0, symName: __ZNSt6vectorIiSaIiEE15_M_erase_at_endEPi, symObjAddr: 0x13F18, symBinAddr: 0x10001853C, symSize: 0x88 }
  - { offsetInCU: 0x28017, offset: 0x28017, size: 0x8, addend: 0x0, symName: __ZSt18uninitialized_copyIN9__gnu_cxx17__normal_iteratorIPKiSt6vectorIiSaIiEEEEPiET0_T_SA_S9_, symObjAddr: 0x13EDC, symBinAddr: 0x100018500, symSize: 0x3C }
  - { offsetInCU: 0x280F9, offset: 0x280F9, size: 0x8, addend: 0x0, symName: __ZN9__gnu_cxx17__normal_iteratorIPKiSt6vectorIiSaIiEEEC1ERKS2_, symObjAddr: 0x13EB4, symBinAddr: 0x1000184D8, symSize: 0x28 }
  - { offsetInCU: 0x280FF, offset: 0x280FF, size: 0x8, addend: 0x0, symName: __ZSt22__uninitialized_copy_aIN9__gnu_cxx17__normal_iteratorIPiSt6vectorIiSaIiEEEES2_iET0_T_S8_S7_RSaIT1_E, symObjAddr: 0x13E84, symBinAddr: 0x1000184A8, symSize: 0x30 }
  - { offsetInCU: 0x28173, offset: 0x28173, size: 0x8, addend: 0x0, symName: __ZNSt12_Vector_baseIiSaIiEE11_M_allocateEm, symObjAddr: 0x13E34, symBinAddr: 0x100018458, symSize: 0x50 }
  - { offsetInCU: 0x283AC, offset: 0x283AC, size: 0x8, addend: 0x0, symName: __ZNSt10_HashtableIiSt4pairIKiiESaIS2_ENSt8__detail10_Select1stESt8equal_toIiESt4hashIiENS4_18_Mod_range_hashingENS4_20_Default_ranged_hashENS4_20_Prime_rehash_policyENS4_17_Hashtable_traitsILb0ELb0ELb1EEEE12_Scoped_nodeC1IJRKSt21piecewise_construct_tSt5tupleIJRS1_EESL_IJEEEEEPNS4_16_Hashtable_allocISaINS4_10_Hash_nodeIS2_Lb0EEEEEEDpOT_, symObjAddr: 0x13DAC, symBinAddr: 0x1000183D0, symSize: 0x88 }
  - { offsetInCU: 0x28315, offset: 0x28315, size: 0x8, addend: 0x0, symName: __ZNSt5tupleIJRKiEEC1ILb1ELb1EEES1_, symObjAddr: 0x13D84, symBinAddr: 0x1000183A8, symSize: 0x28 }
  - { offsetInCU: 0x2832F, offset: 0x2832F, size: 0x8, addend: 0x0, symName: __ZNSt10_HashtableIiSt4pairIKiiESaIS2_ENSt8__detail10_Select1stESt8equal_toIiESt4hashIiENS4_18_Mod_range_hashingENS4_20_Default_ranged_hashENS4_20_Prime_rehash_policyENS4_17_Hashtable_traitsILb0ELb0ELb1EEEE21_M_deallocate_bucketsEPPNS4_15_Hash_node_baseEm, symObjAddr: 0x13D38, symBinAddr: 0x10001835C, symSize: 0x4C }
  - { offsetInCU: 0x2837B, offset: 0x2837B, size: 0x8, addend: 0x0, symName: __ZNSt8__detail16_Hashtable_allocISaINS_10_Hash_nodeISt4pairIKiiELb0EEEEE19_M_deallocate_nodesEPS5_, symObjAddr: 0x13CE8, symBinAddr: 0x10001830C, symSize: 0x50 }
  - { offsetInCU: 0x283F0, offset: 0x283F0, size: 0x8, addend: 0x0, symName: __ZNKSt8__detail14_Node_iteratorISt4pairIKiiELb0ELb0EEptEv, symObjAddr: 0x13CB8, symBinAddr: 0x1000182DC, symSize: 0x30 }
  - { offsetInCU: 0x2843E, offset: 0x2843E, size: 0x8, addend: 0x0, symName: __ZNSt10_HashtableIiSt4pairIKiiESaIS2_ENSt8__detail10_Select1stESt8equal_toIiESt4hashIiENS4_18_Mod_range_hashingENS4_20_Default_ranged_hashENS4_20_Prime_rehash_policyENS4_17_Hashtable_traitsILb0ELb0ELb1EEEE21_M_insert_unique_nodeEmmPNS4_10_Hash_nodeIS2_Lb0EEEm, symObjAddr: 0x13BA8, symBinAddr: 0x1000181CC, symSize: 0x110 }
  - { offsetInCU: 0x285D1, offset: 0x285D1, size: 0x8, addend: 0x0, symName: __ZNSt10_HashtableIiSt4pairIKiiESaIS2_ENSt8__detail10_Select1stESt8equal_toIiESt4hashIiENS4_18_Mod_range_hashingENS4_20_Default_ranged_hashENS4_20_Prime_rehash_policyENS4_17_Hashtable_traitsILb0ELb0ELb1EEEE12_Scoped_nodeD1Ev, symObjAddr: 0x13B64, symBinAddr: 0x100018188, symSize: 0x44 }
  - { offsetInCU: 0x286BA, offset: 0x286BA, size: 0x8, addend: 0x0, symName: __ZNSt10_HashtableIiSt4pairIKiiESaIS2_ENSt8__detail10_Select1stESt8equal_toIiESt4hashIiENS4_18_Mod_range_hashingENS4_20_Default_ranged_hashENS4_20_Prime_rehash_policyENS4_17_Hashtable_traitsILb0ELb0ELb1EEEE12_Scoped_nodeC1IJRKSt21piecewise_construct_tSt5tupleIJOiEESL_IJEEEEEPNS4_16_Hashtable_allocISaINS4_10_Hash_nodeIS2_Lb0EEEEEEDpOT_, symObjAddr: 0x13ADC, symBinAddr: 0x100018100, symSize: 0x88 }
  - { offsetInCU: 0x285D0, offset: 0x285D0, size: 0x8, addend: 0x0, symName: __ZSt16forward_as_tupleIJiEESt5tupleIJDpOT_EES3_, symObjAddr: 0x13AA4, symBinAddr: 0x1000180C8, symSize: 0x38 }
  - { offsetInCU: 0x2861E, offset: 0x2861E, size: 0x8, addend: 0x0, symName: __ZNKSt10_HashtableIiSt4pairIKiiESaIS2_ENSt8__detail10_Select1stESt8equal_toIiESt4hashIiENS4_18_Mod_range_hashingENS4_20_Default_ranged_hashENS4_20_Prime_rehash_policyENS4_17_Hashtable_traitsILb0ELb0ELb1EEEE12_M_find_nodeEmRS1_m, symObjAddr: 0x13A50, symBinAddr: 0x100018074, symSize: 0x54 }
  - { offsetInCU: 0x2868C, offset: 0x2868C, size: 0x8, addend: 0x0, symName: __ZNKSt10_HashtableIiSt4pairIKiiESaIS2_ENSt8__detail10_Select1stESt8equal_toIiESt4hashIiENS4_18_Mod_range_hashingENS4_20_Default_ranged_hashENS4_20_Prime_rehash_policyENS4_17_Hashtable_traitsILb0ELb0ELb1EEEE15_M_bucket_indexEm, symObjAddr: 0x13A20, symBinAddr: 0x100018044, symSize: 0x30 }
  - { offsetInCU: 0x286C7, offset: 0x286C7, size: 0x8, addend: 0x0, symName: __ZNKSt8__detail15_Hash_code_baseIiSt4pairIKiiENS_10_Select1stESt4hashIiENS_18_Mod_range_hashingENS_20_Default_ranged_hashELb0EE12_M_hash_codeERS2_, symObjAddr: 0x139E8, symBinAddr: 0x10001800C, symSize: 0x38 }
  - { offsetInCU: 0x28778, offset: 0x28778, size: 0x8, addend: 0x0, symName: __ZNSt8__detail14_Node_iteratorISt4pairIKiiELb0ELb0EEC1EPNS_10_Hash_nodeIS3_Lb0EEE, symObjAddr: 0x139C0, symBinAddr: 0x100017FE4, symSize: 0x28 }
  - { offsetInCU: 0x28759, offset: 0x28759, size: 0x8, addend: 0x0, symName: __ZNKSt8__detail15_Hashtable_baseIiSt4pairIKiiENS_10_Select1stESt8equal_toIiESt4hashIiENS_18_Mod_range_hashingENS_20_Default_ranged_hashENS_17_Hashtable_traitsILb0ELb0ELb1EEEE13_M_key_equalsERS2_RKNS_16_Hash_node_valueIS3_Lb0EEE, symObjAddr: 0x13954, symBinAddr: 0x100017F78, symSize: 0x6C }
  - { offsetInCU: 0x287ED, offset: 0x287ED, size: 0x8, addend: 0x0, symName: __ZNKSt8__detail10_Hash_nodeISt4pairIKiiELb0EE7_M_nextEv, symObjAddr: 0x1393C, symBinAddr: 0x100017F60, symSize: 0x18 }
  - { offsetInCU: 0x28817, offset: 0x28817, size: 0x8, addend: 0x0, symName: __ZNKSt10_HashtableIiSt4pairIKiiESaIS2_ENSt8__detail10_Select1stESt8equal_toIiESt4hashIiENS4_18_Mod_range_hashingENS4_20_Default_ranged_hashENS4_20_Prime_rehash_policyENS4_17_Hashtable_traitsILb0ELb0ELb1EEEE8_M_beginEv, symObjAddr: 0x13924, symBinAddr: 0x100017F48, symSize: 0x18 }
  - { offsetInCU: 0x2883E, offset: 0x2883E, size: 0x8, addend: 0x0, symName: __ZNSt10_HashtableIiSt4pairIKiiESaIS2_ENSt8__detail10_Select1stESt8equal_toIiESt4hashIiENS4_18_Mod_range_hashingENS4_20_Default_ranged_hashENS4_20_Prime_rehash_policyENS4_17_Hashtable_traitsILb0ELb0ELb1EEEE22__small_size_thresholdEv, symObjAddr: 0x13910, symBinAddr: 0x100017F34, symSize: 0x14 }
  - { offsetInCU: 0x28859, offset: 0x28859, size: 0x8, addend: 0x0, symName: __ZNKSt10_HashtableIiSt4pairIKiiESaIS2_ENSt8__detail10_Select1stESt8equal_toIiESt4hashIiENS4_18_Mod_range_hashingENS4_20_Default_ranged_hashENS4_20_Prime_rehash_policyENS4_17_Hashtable_traitsILb0ELb0ELb1EEEE4sizeEv, symObjAddr: 0x138F8, symBinAddr: 0x100017F1C, symSize: 0x18 }
  - { offsetInCU: 0x2887F, offset: 0x2887F, size: 0x8, addend: 0x0, symName: __ZSt8_DestroyIPSt6vectorIiSaIiEEEvT_S4_, symObjAddr: 0x138D0, symBinAddr: 0x100017EF4, symSize: 0x28 }
  - { offsetInCU: 0x288C1, offset: 0x288C1, size: 0x8, addend: 0x0, symName: __ZSt24__uninitialized_fill_n_aIPSt6vectorIiSaIiEEmS2_S2_ET_S4_T0_RKT1_RSaIT2_E, symObjAddr: 0x138A0, symBinAddr: 0x100017EC4, symSize: 0x30 }
  - { offsetInCU: 0x2893E, offset: 0x2893E, size: 0x8, addend: 0x0, symName: __ZNSt12_Vector_baseISt6vectorIiSaIiEESaIS2_EE13_M_deallocateEPS2_m, symObjAddr: 0x13848, symBinAddr: 0x100017E6C, symSize: 0x58 }
  - { offsetInCU: 0x289C0, offset: 0x289C0, size: 0x8, addend: 0x0, symName: __ZNSt12_Vector_baseISt6vectorIiSaIiEESaIS2_EE17_M_create_storageEm, symObjAddr: 0x137DC, symBinAddr: 0x100017E00, symSize: 0x6C }
  - { offsetInCU: 0x28A62, offset: 0x28A62, size: 0x8, addend: 0x0, symName: __ZNSt12_Vector_baseISt6vectorIiSaIiEESaIS2_EE12_Vector_implC1ERKS3_, symObjAddr: 0x13790, symBinAddr: 0x100017DB4, symSize: 0x4C }
  - { offsetInCU: 0x28AC8, offset: 0x28AC8, size: 0x8, addend: 0x0, symName: __ZNSt6vectorIS_IiSaIiEESaIS1_EE11_S_max_sizeERKS2_, symObjAddr: 0x13734, symBinAddr: 0x100017D58, symSize: 0x5C }
  - { offsetInCU: 0x28B7F, offset: 0x28B7F, size: 0x8, addend: 0x0, symName: __ZSt8_DestroyIPiEvT_S1_, symObjAddr: 0x1370C, symBinAddr: 0x100017D30, symSize: 0x28 }
  - { offsetInCU: 0x28BC1, offset: 0x28BC1, size: 0x8, addend: 0x0, symName: __ZSt24__uninitialized_fill_n_aIPimiiET_S1_T0_RKT1_RSaIT2_E, symObjAddr: 0x136DC, symBinAddr: 0x100017D00, symSize: 0x30 }
  - { offsetInCU: 0x28C3E, offset: 0x28C3E, size: 0x8, addend: 0x0, symName: __ZNSt12_Vector_baseIiSaIiEE17_M_create_storageEm, symObjAddr: 0x1367C, symBinAddr: 0x100017CA0, symSize: 0x60 }
  - { offsetInCU: 0x28CCE, offset: 0x28CCE, size: 0x8, addend: 0x0, symName: __ZNSt12_Vector_baseIiSaIiEE12_Vector_implC1ERKS0_, symObjAddr: 0x13630, symBinAddr: 0x100017C54, symSize: 0x4C }
  - { offsetInCU: 0x28D46, offset: 0x28D46, size: 0x8, addend: 0x0, symName: __ZNSt6vectorIiSaIiEE11_S_max_sizeERKS0_, symObjAddr: 0x135DC, symBinAddr: 0x100017C00, symSize: 0x54 }
  - { offsetInCU: 0x28E61, offset: 0x28E61, size: 0x8, addend: 0x0, symName: __ZSt9__reverseIN9__gnu_cxx17__normal_iteratorIPcNSt7__cxx1112basic_stringIcSt11char_traitsIcESaIcEEEEEEvT_SA_St26random_access_iterator_tag, symObjAddr: 0x13560, symBinAddr: 0x100017B84, symSize: 0x7C }
  - { offsetInCU: 0x28F03, offset: 0x28F03, size: 0x8, addend: 0x0, symName: __ZNSt12_Vector_baseISt6vectorIS0_IiSaIiEESaIS2_EESaIS4_EE19_M_get_Tp_allocatorEv, symObjAddr: 0x1354C, symBinAddr: 0x100017B70, symSize: 0x14 }
  - { offsetInCU: 0x28F2D, offset: 0x28F2D, size: 0x8, addend: 0x0, symName: __ZNSt6vectorIS_IS_IiSaIiEESaIS1_EESaIS3_EE18_M_fill_initializeEmRKS3_, symObjAddr: 0x134F4, symBinAddr: 0x100017B18, symSize: 0x58 }
  - { offsetInCU: 0x28FD7, offset: 0x28FD7, size: 0x8, addend: 0x0, symName: __ZNSt12_Vector_baseISt6vectorIS0_IiSaIiEESaIS2_EESaIS4_EED2Ev, symObjAddr: 0x13498, symBinAddr: 0x100017ABC, symSize: 0x5C }
  - { offsetInCU: 0x29038, offset: 0x29038, size: 0x8, addend: 0x0, symName: __ZNSt12_Vector_baseISt6vectorIS0_IiSaIiEESaIS2_EESaIS4_EEC2EmRKS5_, symObjAddr: 0x13444, symBinAddr: 0x100017A68, symSize: 0x54 }
  - { offsetInCU: 0x290A0, offset: 0x290A0, size: 0x8, addend: 0x0, symName: __ZNSt12_Vector_baseISt6vectorIS0_IiSaIiEESaIS2_EESaIS4_EE12_Vector_implD1Ev, symObjAddr: 0x13418, symBinAddr: 0x100017A3C, symSize: 0x2C }
  - { offsetInCU: 0x2909D, offset: 0x2909D, size: 0x8, addend: 0x0, symName: __ZNSt6vectorIS_IS_IiSaIiEESaIS1_EESaIS3_EE17_S_check_init_lenEmRKS4_, symObjAddr: 0x13394, symBinAddr: 0x1000179B8, symSize: 0x84 }
  - { offsetInCU: 0x291AD, offset: 0x291AD, size: 0x8, addend: 0x0, symName: __ZNSt15__new_allocatorISt6vectorIS0_IiSaIiEESaIS2_EEED2Ev, symObjAddr: 0x13380, symBinAddr: 0x1000179A4, symSize: 0x14 }
  - { offsetInCU: 0x291B5, offset: 0x291B5, size: 0x8, addend: 0x0, symName: __ZSt12__str_concatINSt7__cxx1112basic_stringIcSt11char_traitsIcESaIcEEEET_PKNS6_10value_typeENS6_9size_typeES9_SA_RKNS6_14allocator_typeE, symObjAddr: 0x132A0, symBinAddr: 0x1000178C4, symSize: 0xE0 }
  - { offsetInCU: 0x29307, offset: 0x29307, size: 0x8, addend: 0x0, symName: __ZNSt6vectorIiSaIiEE21_M_default_initializeEm, symObjAddr: 0x13250, symBinAddr: 0x100017874, symSize: 0x50 }
  - { offsetInCU: 0x2933E, offset: 0x2933E, size: 0x8, addend: 0x0, symName: __ZSt22__uninitialized_copy_aIPiS0_iET0_T_S2_S1_RSaIT1_E, symObjAddr: 0x13220, symBinAddr: 0x100017844, symSize: 0x30 }
  - { offsetInCU: 0x293AE, offset: 0x293AE, size: 0x8, addend: 0x0, symName: __ZSt4copyIPiS0_ET0_T_S2_S1_, symObjAddr: 0x131D8, symBinAddr: 0x1000177FC, symSize: 0x48 }
  - { offsetInCU: 0x29447, offset: 0x29447, size: 0x8, addend: 0x0, symName: __ZSt4copyIN9__gnu_cxx17__normal_iteratorIPKiSt6vectorIiSaIiEEEENS1_IPiS6_EEET0_T_SB_SA_, symObjAddr: 0x13190, symBinAddr: 0x1000177B4, symSize: 0x48 }
  - { offsetInCU: 0x294A9, offset: 0x294A9, size: 0x8, addend: 0x0, symName: __ZNSt6vectorIiSaIiEE20_M_allocate_and_copyIN9__gnu_cxx17__normal_iteratorIPKiS1_EEEEPimT_S9_, symObjAddr: 0x1310C, symBinAddr: 0x100017730, symSize: 0x84 }
  - { offsetInCU: 0x29520, offset: 0x29520, size: 0x8, addend: 0x0, symName: __ZNKSt6vectorIiSaIiEE8capacityEv, symObjAddr: 0x130E4, symBinAddr: 0x100017708, symSize: 0x28 }
  - { offsetInCU: 0x29577, offset: 0x29577, size: 0x8, addend: 0x0, symName: __ZNSt12_Vector_baseIiSaIiEE13_M_deallocateEPim, symObjAddr: 0x1308C, symBinAddr: 0x1000176B0, symSize: 0x58 }
  - { offsetInCU: 0x295F9, offset: 0x295F9, size: 0x8, addend: 0x0, symName: __ZNSt6vectorIiSaIiEE5clearEv, symObjAddr: 0x13060, symBinAddr: 0x100017684, symSize: 0x2C }
  - { offsetInCU: 0x29631, offset: 0x29631, size: 0x8, addend: 0x0, symName: __ZSt22__uninitialized_copy_aIN9__gnu_cxx17__normal_iteratorIPKiSt6vectorIiSaIiEEEEPiiET0_T_SA_S9_RSaIT1_E, symObjAddr: 0x13030, symBinAddr: 0x100017654, symSize: 0x30 }
  - { offsetInCU: 0x296A5, offset: 0x296A5, size: 0x8, addend: 0x0, symName: __ZNKSt6vectorIiSaIiEE3endEv, symObjAddr: 0x13008, symBinAddr: 0x10001762C, symSize: 0x28 }
  - { offsetInCU: 0x296CF, offset: 0x296CF, size: 0x8, addend: 0x0, symName: __ZNKSt6vectorIiSaIiEE5beginEv, symObjAddr: 0x12FE4, symBinAddr: 0x100017608, symSize: 0x24 }
  - { offsetInCU: 0x2970E, offset: 0x2970E, size: 0x8, addend: 0x0, symName: __ZNKSt12_Vector_baseIiSaIiEE19_M_get_Tp_allocatorEv, symObjAddr: 0x12FD0, symBinAddr: 0x1000175F4, symSize: 0x14 }
  - { offsetInCU: 0x29738, offset: 0x29738, size: 0x8, addend: 0x0, symName: __ZNSt6vectorIiSaIiEE19_M_range_initializeIN9__gnu_cxx17__normal_iteratorIPiS1_EEEEvT_S7_St20forward_iterator_tag, symObjAddr: 0x12EEC, symBinAddr: 0x100017510, symSize: 0xE4 }
  - { offsetInCU: 0x298B4, offset: 0x298B4, size: 0x8, addend: 0x0, symName: __ZNSt12_Vector_baseIiSaIiEEC2ERKS0_, symObjAddr: 0x12EC4, symBinAddr: 0x1000174E8, symSize: 0x28 }
  - { offsetInCU: 0x29925, offset: 0x29925, size: 0x8, addend: 0x0, symName: __ZN9__gnu_cxx17__normal_iteratorIPiSt6vectorIiSaIiEEEC1ERKS1_, symObjAddr: 0x12E9C, symBinAddr: 0x1000174C0, symSize: 0x28 }
  - { offsetInCU: 0x2991A, offset: 0x2991A, size: 0x8, addend: 0x0, symName: __ZNSt8__detail9_Map_baseIiSt4pairIKiiESaIS3_ENS_10_Select1stESt8equal_toIiESt4hashIiENS_18_Mod_range_hashingENS_20_Default_ranged_hashENS_20_Prime_rehash_policyENS_17_Hashtable_traitsILb0ELb0ELb1EEELb1EEixERS2_, symObjAddr: 0x12D7C, symBinAddr: 0x1000173A0, symSize: 0x120 }
  - { offsetInCU: 0x29A20, offset: 0x29A20, size: 0x8, addend: 0x0, symName: __ZNSt10_HashtableIiSt4pairIKiiESaIS2_ENSt8__detail10_Select1stESt8equal_toIiESt4hashIiENS4_18_Mod_range_hashingENS4_20_Default_ranged_hashENS4_20_Prime_rehash_policyENS4_17_Hashtable_traitsILb0ELb0ELb1EEEE21_M_deallocate_bucketsEv, symObjAddr: 0x12D48, symBinAddr: 0x10001736C, symSize: 0x34 }
  - { offsetInCU: 0x29A4A, offset: 0x29A4A, size: 0x8, addend: 0x0, symName: __ZNSt10_HashtableIiSt4pairIKiiESaIS2_ENSt8__detail10_Select1stESt8equal_toIiESt4hashIiENS4_18_Mod_range_hashingENS4_20_Default_ranged_hashENS4_20_Prime_rehash_policyENS4_17_Hashtable_traitsILb0ELb0ELb1EEEE5clearEv, symObjAddr: 0x12CE8, symBinAddr: 0x10001730C, symSize: 0x60 }
  - { offsetInCU: 0x29ADC, offset: 0x29ADC, size: 0x8, addend: 0x0, symName: __ZNSt15__new_allocatorINSt8__detail10_Hash_nodeISt4pairIKiiELb0EEEED2Ev, symObjAddr: 0x12CD4, symBinAddr: 0x1000172F8, symSize: 0x14 }
  - { offsetInCU: 0x29AD4, offset: 0x29AD4, size: 0x8, addend: 0x0, symName: __ZNSt8__detail9_Map_baseIiSt4pairIKiiESaIS3_ENS_10_Select1stESt8equal_toIiESt4hashIiENS_18_Mod_range_hashingENS_20_Default_ranged_hashENS_20_Prime_rehash_policyENS_17_Hashtable_traitsILb0ELb0ELb1EEELb1EEixEOi, symObjAddr: 0x12BA4, symBinAddr: 0x1000171C8, symSize: 0x130 }
  - { offsetInCU: 0x29BD7, offset: 0x29BD7, size: 0x8, addend: 0x0, symName: __ZSt4moveIRiEONSt16remove_referenceIT_E4typeEOS2_, symObjAddr: 0x12B90, symBinAddr: 0x1000171B4, symSize: 0x14 }
  - { offsetInCU: 0x29C0D, offset: 0x29C0D, size: 0x8, addend: 0x0, symName: __ZNSt10_HashtableIiSt4pairIKiiESaIS2_ENSt8__detail10_Select1stESt8equal_toIiESt4hashIiENS4_18_Mod_range_hashingENS4_20_Default_ranged_hashENS4_20_Prime_rehash_policyENS4_17_Hashtable_traitsILb0ELb0ELb1EEEE3endEv, symObjAddr: 0x12B6C, symBinAddr: 0x100017190, symSize: 0x24 }
  - { offsetInCU: 0x29C37, offset: 0x29C37, size: 0x8, addend: 0x0, symName: __ZNSt10_HashtableIiSt4pairIKiiESaIS2_ENSt8__detail10_Select1stESt8equal_toIiESt4hashIiENS4_18_Mod_range_hashingENS4_20_Default_ranged_hashENS4_20_Prime_rehash_policyENS4_17_Hashtable_traitsILb0ELb0ELb1EEEE4findERS1_, symObjAddr: 0x12A74, symBinAddr: 0x100017098, symSize: 0xF8 }
  - { offsetInCU: 0x29CF3, offset: 0x29CF3, size: 0x8, addend: 0x0, symName: __ZNSt12_Vector_baseISt6vectorIiSaIiEESaIS2_EE19_M_get_Tp_allocatorEv, symObjAddr: 0x12A60, symBinAddr: 0x100017084, symSize: 0x14 }
  - { offsetInCU: 0x29D1D, offset: 0x29D1D, size: 0x8, addend: 0x0, symName: __ZNSt6vectorIS_IiSaIiEESaIS1_EE18_M_fill_initializeEmRKS1_, symObjAddr: 0x12A08, symBinAddr: 0x10001702C, symSize: 0x58 }
  - { offsetInCU: 0x29DBB, offset: 0x29DBB, size: 0x8, addend: 0x0, symName: __ZNSt12_Vector_baseISt6vectorIiSaIiEESaIS2_EED2Ev, symObjAddr: 0x129AC, symBinAddr: 0x100016FD0, symSize: 0x5C }
  - { offsetInCU: 0x29E1C, offset: 0x29E1C, size: 0x8, addend: 0x0, symName: __ZNSt12_Vector_baseISt6vectorIiSaIiEESaIS2_EEC2EmRKS3_, symObjAddr: 0x12958, symBinAddr: 0x100016F7C, symSize: 0x54 }
  - { offsetInCU: 0x29E84, offset: 0x29E84, size: 0x8, addend: 0x0, symName: __ZNSt12_Vector_baseISt6vectorIiSaIiEESaIS2_EE12_Vector_implD1Ev, symObjAddr: 0x1292C, symBinAddr: 0x100016F50, symSize: 0x2C }
  - { offsetInCU: 0x29E8D, offset: 0x29E8D, size: 0x8, addend: 0x0, symName: __ZNSt6vectorIS_IiSaIiEESaIS1_EE17_S_check_init_lenEmRKS2_, symObjAddr: 0x128A8, symBinAddr: 0x100016ECC, symSize: 0x84 }
  - { offsetInCU: 0x29F91, offset: 0x29F91, size: 0x8, addend: 0x0, symName: __ZNSt15__new_allocatorISt6vectorIiSaIiEEED2Ev, symObjAddr: 0x12894, symBinAddr: 0x100016EB8, symSize: 0x14 }
  - { offsetInCU: 0x29FDE, offset: 0x29FDE, size: 0x8, addend: 0x0, symName: __ZNSt12_Vector_baseIiSaIiEE19_M_get_Tp_allocatorEv, symObjAddr: 0x12880, symBinAddr: 0x100016EA4, symSize: 0x14 }
  - { offsetInCU: 0x2A008, offset: 0x2A008, size: 0x8, addend: 0x0, symName: __ZNSt6vectorIiSaIiEE18_M_fill_initializeEmRKi, symObjAddr: 0x12828, symBinAddr: 0x100016E4C, symSize: 0x58 }
  - { offsetInCU: 0x2A094, offset: 0x2A094, size: 0x8, addend: 0x0, symName: __ZNSt12_Vector_baseIiSaIiEED2Ev, symObjAddr: 0x127D8, symBinAddr: 0x100016DFC, symSize: 0x50 }
  - { offsetInCU: 0x2A0F5, offset: 0x2A0F5, size: 0x8, addend: 0x0, symName: __ZNSt12_Vector_baseIiSaIiEEC2EmRKS0_, symObjAddr: 0x12784, symBinAddr: 0x100016DA8, symSize: 0x54 }
  - { offsetInCU: 0x2A15D, offset: 0x2A15D, size: 0x8, addend: 0x0, symName: __ZNSt12_Vector_baseIiSaIiEE12_Vector_implD1Ev, symObjAddr: 0x12758, symBinAddr: 0x100016D7C, symSize: 0x2C }
  - { offsetInCU: 0x2A178, offset: 0x2A178, size: 0x8, addend: 0x0, symName: __ZNSt6vectorIiSaIiEE17_S_check_init_lenEmRKS0_, symObjAddr: 0x126D4, symBinAddr: 0x100016CF8, symSize: 0x84 }
  - { offsetInCU: 0x2A26C, offset: 0x2A26C, size: 0x8, addend: 0x0, symName: __ZNSt15__new_allocatorIiED2Ev, symObjAddr: 0x126C0, symBinAddr: 0x100016CE4, symSize: 0x14 }
  - { offsetInCU: 0x2A2A3, offset: 0x2A2A3, size: 0x8, addend: 0x0, symName: __ZNSt7__cxx1112basic_stringIcSt11char_traitsIcESaIcEE12_M_constructIPKcEEvT_S8_St20forward_iterator_tag, symObjAddr: 0x125C0, symBinAddr: 0x100016BE4, symSize: 0x100 }
  - { offsetInCU: 0x2A421, offset: 0x2A421, size: 0x8, addend: 0x0, symName: __ZZNSt7__cxx1112basic_stringIcSt11char_traitsIcESaIcEE12_M_constructIPKcEEvT_S8_St20forward_iterator_tagEN6_GuardC1EPS4_, symObjAddr: 0x12568, symBinAddr: 0x100016B8C, symSize: 0x24 }
  - { offsetInCU: 0x2A452, offset: 0x2A452, size: 0x8, addend: 0x0, symName: __ZZNSt7__cxx1112basic_stringIcSt11char_traitsIcESaIcEE12_M_constructIPKcEEvT_S8_St20forward_iterator_tagEN6_GuardD1Ev, symObjAddr: 0x1258C, symBinAddr: 0x100016BB0, symSize: 0x34 }
  - { offsetInCU: 0x2A4F9, offset: 0x2A4F9, size: 0x8, addend: 0x0, symName: __ZNSt15__new_allocatorIcED2Ev, symObjAddr: 0x12554, symBinAddr: 0x100016B78, symSize: 0x14 }
  - { offsetInCU: 0x2A543, offset: 0x2A543, size: 0x8, addend: 0x0, symName: __ZN9__gnu_cxx11char_traitsIcE2eqERKcS3_, symObjAddr: 0x12524, symBinAddr: 0x100016B48, symSize: 0x30 }
  - { offsetInCU: 0x2A605, offset: 0x2A605, size: 0x8, addend: 0x0, symName: __ZNSt7__cxx1112basic_stringIcSt11char_traitsIcESaIcEEC1IS3_EEmcRKS3_, symObjAddr: 0x124B0, symBinAddr: 0x100016AD4, symSize: 0x74 }
  - { offsetInCU: 0x2A601, offset: 0x2A601, size: 0x8, addend: 0x0, symName: __ZSt3maxIlERKT_S2_S2_, symObjAddr: 0x12478, symBinAddr: 0x100016A9C, symSize: 0x38 }
  - { offsetInCU: 0x2A645, offset: 0x2A645, size: 0x8, addend: 0x0, symName: __ZSt7reverseIN9__gnu_cxx17__normal_iteratorIPcNSt7__cxx1112basic_stringIcSt11char_traitsIcESaIcEEEEEEvT_SA_, symObjAddr: 0x1244C, symBinAddr: 0x100016A70, symSize: 0x2C }
  - { offsetInCU: 0x2A6FD, offset: 0x2A6FD, size: 0x8, addend: 0x0, symName: __ZNSt6vectorIS_IS_IiSaIiEESaIS1_EESaIS3_EED1Ev, symObjAddr: 0x123F0, symBinAddr: 0x100016A14, symSize: 0x5C }
  - { offsetInCU: 0x2A7A7, offset: 0x2A7A7, size: 0x8, addend: 0x0, symName: __ZNSt6vectorIS_IS_IiSaIiEESaIS1_EESaIS3_EEC1EmRKS3_RKS4_, symObjAddr: 0x12380, symBinAddr: 0x1000169A4, symSize: 0x70 }
  - { offsetInCU: 0x2A7E9, offset: 0x2A7E9, size: 0x8, addend: 0x0, symName: __ZNSt6vectorIS_IS_IiSaIiEESaIS1_EESaIS3_EEixEm, symObjAddr: 0x1234C, symBinAddr: 0x100016970, symSize: 0x34 }
  - { offsetInCU: 0x2A820, offset: 0x2A820, size: 0x8, addend: 0x0, symName: __ZStplIcSt11char_traitsIcESaIcEENSt7__cxx1112basic_stringIT_T0_T1_EES5_RKS8_, symObjAddr: 0x122A8, symBinAddr: 0x1000168CC, symSize: 0xA4 }
  - { offsetInCU: 0x2A8B8, offset: 0x2A8B8, size: 0x8, addend: 0x0, symName: __ZStplIcSt11char_traitsIcESaIcEENSt7__cxx1112basic_stringIT_T0_T1_EEOS8_S5_, symObjAddr: 0x12258, symBinAddr: 0x10001687C, symSize: 0x50 }
  - { offsetInCU: 0x2A912, offset: 0x2A912, size: 0x8, addend: 0x0, symName: __ZNKSt6vectorIS_IiSaIiEESaIS1_EE4sizeEv, symObjAddr: 0x12224, symBinAddr: 0x100016848, symSize: 0x34 }
  - { offsetInCU: 0x2A98C, offset: 0x2A98C, size: 0x8, addend: 0x0, symName: __ZNSt6vectorIiSaIiEEC1EmRKS0_, symObjAddr: 0x121BC, symBinAddr: 0x1000167E0, symSize: 0x68 }
  - { offsetInCU: 0x2A9AA, offset: 0x2A9AA, size: 0x8, addend: 0x0, symName: __ZNSt6vectorIiSaIiEEaSERKS1_, symObjAddr: 0x11E74, symBinAddr: 0x100016498, symSize: 0x348 }
  - { offsetInCU: 0x2AB2E, offset: 0x2AB2E, size: 0x8, addend: 0x0, symName: __ZSt11__addressofIKSt6vectorIiSaIiEEEPT_RS4_, symObjAddr: 0x11E60, symBinAddr: 0x100016484, symSize: 0x14 }
  - { offsetInCU: 0x2ABA5, offset: 0x2ABA5, size: 0x8, addend: 0x0, symName: __ZNSt6vectorIiSaIiEEC1ERKS1_, symObjAddr: 0x11D4C, symBinAddr: 0x100016370, symSize: 0x114 }
  - { offsetInCU: 0x2AC9F, offset: 0x2AC9F, size: 0x8, addend: 0x0, symName: __ZNK9__gnu_cxx17__normal_iteratorIPiSt6vectorIiSaIiEEEplEl, symObjAddr: 0x11D0C, symBinAddr: 0x100016330, symSize: 0x40 }
  - { offsetInCU: 0x2AD6E, offset: 0x2AD6E, size: 0x8, addend: 0x0, symName: __ZNSt6vectorIiSaIiEEC1IN9__gnu_cxx17__normal_iteratorIPiS1_EEvEET_S7_RKS0_, symObjAddr: 0x11CA8, symBinAddr: 0x1000162CC, symSize: 0x64 }
  - { offsetInCU: 0x2AD92, offset: 0x2AD92, size: 0x8, addend: 0x0, symName: __ZNK9__gnu_cxx17__normal_iteratorIPiSt6vectorIiSaIiEEEmiEl, symObjAddr: 0x11C64, symBinAddr: 0x100016288, symSize: 0x44 }
  - { offsetInCU: 0x2ADCD, offset: 0x2ADCD, size: 0x8, addend: 0x0, symName: __ZNSt6vectorIiSaIiEE3endEv, symObjAddr: 0x11C3C, symBinAddr: 0x100016260, symSize: 0x28 }
  - { offsetInCU: 0x2ADF7, offset: 0x2ADF7, size: 0x8, addend: 0x0, symName: __ZNSt6vectorIiSaIiEE5beginEv, symObjAddr: 0x11C18, symBinAddr: 0x10001623C, symSize: 0x24 }
  - { offsetInCU: 0x2AE1D, offset: 0x2AE1D, size: 0x8, addend: 0x0, symName: __ZSt3maxIiERKT_S2_S2_, symObjAddr: 0x11BE0, symBinAddr: 0x100016204, symSize: 0x38 }
  - { offsetInCU: 0x2AE65, offset: 0x2AE65, size: 0x8, addend: 0x0, symName: __ZNSt13unordered_mapIiiSt4hashIiESt8equal_toIiESaISt4pairIKiiEEEixERS5_, symObjAddr: 0x11BBC, symBinAddr: 0x1000161E0, symSize: 0x24 }
  - { offsetInCU: 0x2AF92, offset: 0x2AF92, size: 0x8, addend: 0x0, symName: __ZNSt10_HashtableIiSt4pairIKiiESaIS2_ENSt8__detail10_Select1stESt8equal_toIiESt4hashIiENS4_18_Mod_range_hashingENS4_20_Default_ranged_hashENS4_20_Prime_rehash_policyENS4_17_Hashtable_traitsILb0ELb0ELb1EEEED1Ev, symObjAddr: 0x11B8C, symBinAddr: 0x1000161B0, symSize: 0x30 }
  - { offsetInCU: 0x2AF7A, offset: 0x2AF7A, size: 0x8, addend: 0x0, symName: __ZNSt8__detail21_Hashtable_ebo_helperILi0ESaINS_10_Hash_nodeISt4pairIKiiELb0EEEELb1EEC2Ev, symObjAddr: 0x11B60, symBinAddr: 0x100016184, symSize: 0x2C }
  - { offsetInCU: 0x2AFE9, offset: 0x2AFE9, size: 0x8, addend: 0x0, symName: __ZNSt8__detail21_Hashtable_ebo_helperILi0ESt8equal_toIiELb1EEC2Ev, symObjAddr: 0x11B4C, symBinAddr: 0x100016170, symSize: 0x14 }
  - { offsetInCU: 0x2B025, offset: 0x2B025, size: 0x8, addend: 0x0, symName: __ZNSt8__detail21_Hashtable_ebo_helperILi1ESt4hashIiELb1EEC2Ev, symObjAddr: 0x11B38, symBinAddr: 0x10001615C, symSize: 0x14 }
  - { offsetInCU: 0x2B011, offset: 0x2B011, size: 0x8, addend: 0x0, symName: __ZNSt13unordered_mapIiiSt4hashIiESt8equal_toIiESaISt4pairIKiiEEEixEOi, symObjAddr: 0x11B00, symBinAddr: 0x100016124, symSize: 0x38 }
  - { offsetInCU: 0x2B04F, offset: 0x2B04F, size: 0x8, addend: 0x0, symName: __ZNSt8__detailneERKNS_19_Node_iterator_baseISt4pairIKiiELb0EEES6_, symObjAddr: 0x11AD0, symBinAddr: 0x1000160F4, symSize: 0x30 }
  - { offsetInCU: 0x2B08E, offset: 0x2B08E, size: 0x8, addend: 0x0, symName: __ZNSt13unordered_mapIiiSt4hashIiESt8equal_toIiESaISt4pairIKiiEEE3endEv, symObjAddr: 0x11AB4, symBinAddr: 0x1000160D8, symSize: 0x1C }
  - { offsetInCU: 0x2B0B8, offset: 0x2B0B8, size: 0x8, addend: 0x0, symName: __ZNSt13unordered_mapIiiSt4hashIiESt8equal_toIiESaISt4pairIKiiEEE4findERS5_, symObjAddr: 0x11A90, symBinAddr: 0x1000160B4, symSize: 0x24 }
  - { offsetInCU: 0x2B137, offset: 0x2B137, size: 0x8, addend: 0x0, symName: __ZNSt6vectorIS_IiSaIiEESaIS1_EED1Ev, symObjAddr: 0x11A34, symBinAddr: 0x100016058, symSize: 0x5C }
  - { offsetInCU: 0x2B1E1, offset: 0x2B1E1, size: 0x8, addend: 0x0, symName: __ZNSt6vectorIS_IiSaIiEESaIS1_EEC1EmRKS1_RKS2_, symObjAddr: 0x119C4, symBinAddr: 0x100015FE8, symSize: 0x70 }
  - { offsetInCU: 0x2B22E, offset: 0x2B22E, size: 0x8, addend: 0x0, symName: __ZNSt6vectorIS_IiSaIiEESaIS1_EEixEm, symObjAddr: 0x11990, symBinAddr: 0x100015FB4, symSize: 0x34 }
  - { offsetInCU: 0x2B269, offset: 0x2B269, size: 0x8, addend: 0x0, symName: __ZNKSt6vectorIiSaIiEE4sizeEv, symObjAddr: 0x11968, symBinAddr: 0x100015F8C, symSize: 0x28 }
  - { offsetInCU: 0x2B2CC, offset: 0x2B2CC, size: 0x8, addend: 0x0, symName: __ZNSt6vectorIiSaIiEED1Ev, symObjAddr: 0x1190C, symBinAddr: 0x100015F30, symSize: 0x5C }
  - { offsetInCU: 0x2B374, offset: 0x2B374, size: 0x8, addend: 0x0, symName: __ZNSt6vectorIiSaIiEEC1EmRKiRKS0_, symObjAddr: 0x1189C, symBinAddr: 0x100015EC0, symSize: 0x70 }
  - { offsetInCU: 0x2B3CE, offset: 0x2B3CE, size: 0x8, addend: 0x0, symName: __ZNSt6vectorIiSaIiEEixEm, symObjAddr: 0x11874, symBinAddr: 0x100015E98, symSize: 0x28 }
  - { offsetInCU: 0x2B40C, offset: 0x2B40C, size: 0x8, addend: 0x0, symName: __ZSt4moveIRNSt7__cxx1112basic_stringIcSt11char_traitsIcESaIcEEEEONSt16remove_referenceIT_E4typeEOS8_, symObjAddr: 0x11860, symBinAddr: 0x100015E84, symSize: 0x14 }
  - { offsetInCU: 0x2B4CB, offset: 0x2B4CB, size: 0x8, addend: 0x0, symName: __ZNSt7__cxx1112basic_stringIcSt11char_traitsIcESaIcEEC1IS3_EEPKcRKS3_, symObjAddr: 0x117C4, symBinAddr: 0x100015DE8, symSize: 0x9C }
  - { offsetInCU: 0x2B4F1, offset: 0x2B4F1, size: 0x8, addend: 0x0, symName: __ZSt7forwardIiEOT_RNSt16remove_referenceIS0_E4typeE, symObjAddr: 0x117B0, symBinAddr: 0x100015DD4, symSize: 0x14 }
  - { offsetInCU: 0x2B5C8, offset: 0x2B5C8, size: 0x8, addend: 0x0, symName: __ZNSt7__cxx1112basic_stringIcSt11char_traitsIcESaIcEE12_Alloc_hiderD1Ev, symObjAddr: 0x11784, symBinAddr: 0x100015DA8, symSize: 0x2C }
  - { offsetInCU: 0x2B5C9, offset: 0x2B5C9, size: 0x8, addend: 0x0, symName: __ZN9__gnu_cxx11char_traitsIcE6lengthEPKc, symObjAddr: 0x1172C, symBinAddr: 0x100015D50, symSize: 0x58 }
  - { offsetInCU: 0x2B60C, offset: 0x2B60C, size: 0x8, addend: 0x0, symName: _main, symObjAddr: 0x115E4, symBinAddr: 0x100015C08, symSize: 0x148 }
  - { offsetInCU: 0x2B760, offset: 0x2B760, size: 0x8, addend: 0x0, symName: __Z19climbStairsRevisioni, symObjAddr: 0x11580, symBinAddr: 0x100015BA4, symSize: 0x64 }
  - { offsetInCU: 0x2B7E5, offset: 0x2B7E5, size: 0x8, addend: 0x0, symName: __Z33buyAndSellStock2SpaceOptimizationRSt6vectorIiSaIiEE, symObjAddr: 0x112F8, symBinAddr: 0x10001591C, symSize: 0x288 }
  - { offsetInCU: 0x2BA11, offset: 0x2BA11, size: 0x8, addend: 0x0, symName: __Z26buyAndSellStock2TabulationRSt6vectorIiSaIiEE, symObjAddr: 0x11020, symBinAddr: 0x100015644, symSize: 0x2D8 }
  - { offsetInCU: 0x2BC2A, offset: 0x2BC2A, size: 0x8, addend: 0x0, symName: __Z16buyAndSellStock2RSt6vectorIiSaIiEE, symObjAddr: 0x10EDC, symBinAddr: 0x100015500, symSize: 0x144 }
  - { offsetInCU: 0x2BDB8, offset: 0x2BDB8, size: 0x8, addend: 0x0, symName: __Z26buyAndSellStockMemoizationRSt6vectorIiSaIiEEibRiRS_IS1_SaIS1_EE, symObjAddr: 0x10CB0, symBinAddr: 0x1000152D4, symSize: 0x22C }
  - { offsetInCU: 0x2BE80, offset: 0x2BE80, size: 0x8, addend: 0x0, symName: __Z12maxProfitTUFRSt6vectorIiSaIiEE, symObjAddr: 0x10BE4, symBinAddr: 0x100015208, symSize: 0xCC }
  - { offsetInCU: 0x2BF14, offset: 0x2BF14, size: 0x8, addend: 0x0, symName: __Z9maxProfitRSt6vectorIiSaIiEE, symObjAddr: 0x10AA8, symBinAddr: 0x1000150CC, symSize: 0x13C }
  - { offsetInCU: 0x2BFF3, offset: 0x2BFF3, size: 0x8, addend: 0x0, symName: __Z30minInsertionsSpaceOptimizationNSt7__cxx1112basic_stringIcSt11char_traitsIcESaIcEEE, symObjAddr: 0x107C4, symBinAddr: 0x100014DE8, symSize: 0x2E4 }
  - { offsetInCU: 0x2C21F, offset: 0x2C21F, size: 0x8, addend: 0x0, symName: __Z23minInsertionsTabulationNSt7__cxx1112basic_stringIcSt11char_traitsIcESaIcEEE, symObjAddr: 0x10430, symBinAddr: 0x100014A54, symSize: 0x394 }
  - { offsetInCU: 0x2C45C, offset: 0x2C45C, size: 0x8, addend: 0x0, symName: __Z13minInsertionsNSt7__cxx1112basic_stringIcSt11char_traitsIcESaIcEEE, symObjAddr: 0x102B4, symBinAddr: 0x1000148D8, symSize: 0x17C }
  - { offsetInCU: 0x2C63E, offset: 0x2C63E, size: 0x8, addend: 0x0, symName: __Z39findLongestCommonSubsequenceMemoizationRNSt7__cxx1112basic_stringIcSt11char_traitsIcESaIcEEES5_iiRSt6vectorIS6_IiSaIiEESaIS8_EE, symObjAddr: 0x100A4, symBinAddr: 0x1000146C8, symSize: 0x210 }
  - { offsetInCU: 0x2C6BF, offset: 0x2C6BF, size: 0x8, addend: 0x0, symName: __Z40longestPalindromeSubseqSpaceOptimizationNSt7__cxx1112basic_stringIcSt11char_traitsIcESaIcEEE, symObjAddr: 0xFDD0, symBinAddr: 0x1000143F4, symSize: 0x2D4 }
  - { offsetInCU: 0x2C8DA, offset: 0x2C8DA, size: 0x8, addend: 0x0, symName: __Z33longestPalindromeSubseqTabulationNSt7__cxx1112basic_stringIcSt11char_traitsIcESaIcEEE, symObjAddr: 0xFA4C, symBinAddr: 0x100014070, symSize: 0x384 }
  - { offsetInCU: 0x2CB06, offset: 0x2CB06, size: 0x8, addend: 0x0, symName: __Z23longestPalindromeSubseqNSt7__cxx1112basic_stringIcSt11char_traitsIcESaIcEEE, symObjAddr: 0xF8D8, symBinAddr: 0x100013EFC, symSize: 0x174 }
  - { offsetInCU: 0x2CCB9, offset: 0x2CCB9, size: 0x8, addend: 0x0, symName: __Z34longestPalindromeSubseqMemoizationRNSt7__cxx1112basic_stringIcSt11char_traitsIcESaIcEEES5_iiRSt6vectorIS6_IiSaIiEESaIS8_EE, symObjAddr: 0xF6C8, symBinAddr: 0x100013CEC, symSize: 0x210 }
  - { offsetInCU: 0x2CD3E, offset: 0x2CD3E, size: 0x8, addend: 0x0, symName: __Z39longestCommonSubStringSpaceOptimizationNSt7__cxx1112basic_stringIcSt11char_traitsIcESaIcEEES4_, symObjAddr: 0xF448, symBinAddr: 0x100013A6C, symSize: 0x280 }
  - { offsetInCU: 0x2CF46, offset: 0x2CF46, size: 0x8, addend: 0x0, symName: __Z32longestCommonSubStringTabulationNSt7__cxx1112basic_stringIcSt11char_traitsIcESaIcEEES4_, symObjAddr: 0xF148, symBinAddr: 0x10001376C, symSize: 0x300 }
  - { offsetInCU: 0x2D160, offset: 0x2D160, size: 0x8, addend: 0x0, symName: __Z22longestCommonSubstringRNSt7__cxx1112basic_stringIcSt11char_traitsIcESaIcEEES5_, symObjAddr: 0xEF78, symBinAddr: 0x10001359C, symSize: 0x1D0 }
  - { offsetInCU: 0x2D303, offset: 0x2D303, size: 0x8, addend: 0x0, symName: __ZSt3minIiERKT_S2_S2_, symObjAddr: 0xEF40, symBinAddr: 0x100013564, symSize: 0x38 }
  - { offsetInCU: 0x2D3F8, offset: 0x2D3F8, size: 0x8, addend: 0x0, symName: __Z34longestCommonSubstringMemorizationRNSt7__cxx1112basic_stringIcSt11char_traitsIcESaIcEEES5_iiiRSt6vectorIS6_IS6_IiSaIiEESaIS8_EESaISA_EE, symObjAddr: 0xED1C, symBinAddr: 0x100013340, symSize: 0x224 }
  - { offsetInCU: 0x2D447, offset: 0x2D447, size: 0x8, addend: 0x0, symName: __Z11printLCSFunRNSt7__cxx1112basic_stringIcSt11char_traitsIcESaIcEEES5_, symObjAddr: 0xEC68, symBinAddr: 0x10001328C, symSize: 0xB4 }
  - { offsetInCU: 0x2D4D8, offset: 0x2D4D8, size: 0x8, addend: 0x0, symName: __Z39printLongestCommonSubsequenceTabulationNSt7__cxx1112basic_stringIcSt11char_traitsIcESaIcEEES4_, symObjAddr: 0xE7B8, symBinAddr: 0x100012DDC, symSize: 0x4B0 }
  - { offsetInCU: 0x2D6E5, offset: 0x2D6E5, size: 0x8, addend: 0x0, symName: __Z8printLCSRNSt7__cxx1112basic_stringIcSt11char_traitsIcESaIcEEES5_, symObjAddr: 0xE730, symBinAddr: 0x100012D54, symSize: 0x88 }
  - { offsetInCU: 0x2D777, offset: 0x2D777, size: 0x8, addend: 0x0, symName: __Z19printLCSMemoizationRNSt7__cxx1112basic_stringIcSt11char_traitsIcESaIcEEES5_ii, symObjAddr: 0xE51C, symBinAddr: 0x100012B40, symSize: 0x214 }
  - { offsetInCU: 0x2D8B7, offset: 0x2D8B7, size: 0x8, addend: 0x0, symName: __Z41longestCommonSubsequenceSpaceOptimizationNSt7__cxx1112basic_stringIcSt11char_traitsIcESaIcEEES4_, symObjAddr: 0xE280, symBinAddr: 0x1000128A4, symSize: 0x29C }
  - { offsetInCU: 0x2DAAD, offset: 0x2DAAD, size: 0x8, addend: 0x0, symName: __Z34longestCommonSubsequenceTabulationNSt7__cxx1112basic_stringIcSt11char_traitsIcESaIcEEES4_, symObjAddr: 0xDF34, symBinAddr: 0x100012558, symSize: 0x34C }
  - { offsetInCU: 0x2DCB6, offset: 0x2DCB6, size: 0x8, addend: 0x0, symName: __Z25longestCommonSubsequence2NSt7__cxx1112basic_stringIcSt11char_traitsIcESaIcEEES4_, symObjAddr: 0xDDF4, symBinAddr: 0x100012418, symSize: 0x140 }
  - { offsetInCU: 0x2DE78, offset: 0x2DE78, size: 0x8, addend: 0x0, symName: __Z36longestCommonSubsequenceMemoization2RNSt7__cxx1112basic_stringIcSt11char_traitsIcESaIcEEES5_iiRSt6vectorIS6_IiSaIiEESaIS8_EE, symObjAddr: 0xDC0C, symBinAddr: 0x100012230, symSize: 0x1E8 }
  - { offsetInCU: 0x2DEB9, offset: 0x2DEB9, size: 0x8, addend: 0x0, symName: __Z24longestCommonSubsequenceNSt7__cxx1112basic_stringIcSt11char_traitsIcESaIcEEES4_, symObjAddr: 0xDACC, symBinAddr: 0x1000120F0, symSize: 0x140 }
  - { offsetInCU: 0x2E07B, offset: 0x2E07B, size: 0x8, addend: 0x0, symName: __Z35longestCommonSubsequenceMemoizationRNSt7__cxx1112basic_stringIcSt11char_traitsIcESaIcEEES5_iiRSt6vectorIS6_IiSaIiEESaIS8_EE, symObjAddr: 0xD8F4, symBinAddr: 0x100011F18, symSize: 0x1D8 }
  - { offsetInCU: 0x2E075, offset: 0x2E075, size: 0x8, addend: 0x0, symName: __Z6cutRodRSt6vectorIiSaIiEEi, symObjAddr: 0xD7D0, symBinAddr: 0x100011DF4, symSize: 0x124 }
  - { offsetInCU: 0x2E203, offset: 0x2E203, size: 0x8, addend: 0x0, symName: __Z17cutRodMemoizationRSt6vectorIiSaIiEEiiRS_IS1_SaIS1_EE, symObjAddr: 0xD5FC, symBinAddr: 0x100011C20, symSize: 0x1D4 }
  - { offsetInCU: 0x2E2B5, offset: 0x2E2B5, size: 0x8, addend: 0x0, symName: __Z34unboundedKnapsackSpaceOptimizationiiRSt6vectorIiSaIiEES2_, symObjAddr: 0xD33C, symBinAddr: 0x100011960, symSize: 0x2C0 }
  - { offsetInCU: 0x2E4E2, offset: 0x2E4E2, size: 0x8, addend: 0x0, symName: __Z27unboundedKnapsackTabulationiiRSt6vectorIiSaIiEES2_, symObjAddr: 0xD018, symBinAddr: 0x10001163C, symSize: 0x324 }
  - { offsetInCU: 0x2E6FC, offset: 0x2E6FC, size: 0x8, addend: 0x0, symName: __Z17unboundedKnapsackiiRSt6vectorIiSaIiEES2_, symObjAddr: 0xCEE8, symBinAddr: 0x10001150C, symSize: 0x130 }
  - { offsetInCU: 0x2E8AC, offset: 0x2E8AC, size: 0x8, addend: 0x0, symName: __Z28unboundedKnapsackMemoizationRSt6vectorIiSaIiEES2_iiRS_IS1_SaIS1_EE, symObjAddr: 0xCCA8, symBinAddr: 0x1000112CC, symSize: 0x240 }
  - { offsetInCU: 0x2E92B, offset: 0x2E92B, size: 0x8, addend: 0x0, symName: __Z23changeSpaceOptimizationiRSt6vectorIiSaIiEE, symObjAddr: 0xCA1C, symBinAddr: 0x100011040, symSize: 0x28C }
  - { offsetInCU: 0x2EB43, offset: 0x2EB43, size: 0x8, addend: 0x0, symName: __Z16changeTabulationiRSt6vectorIiSaIiEE, symObjAddr: 0xC72C, symBinAddr: 0x100010D50, symSize: 0x2F0 }
  - { offsetInCU: 0x2ED47, offset: 0x2ED47, size: 0x8, addend: 0x0, symName: __Z6changeiRSt6vectorIiSaIiEE, symObjAddr: 0xC5FC, symBinAddr: 0x100010C20, symSize: 0x130 }
  - { offsetInCU: 0x2EEE6, offset: 0x2EEE6, size: 0x8, addend: 0x0, symName: __Z17changeMemoizationiRSt6vectorIiSaIiEEiRS_IS1_SaIS1_EE, symObjAddr: 0xC404, symBinAddr: 0x100010A28, symSize: 0x1F8 }
  - { offsetInCU: 0x2EF83, offset: 0x2EF83, size: 0x8, addend: 0x0, symName: __Z34findTargetSumWaysSpaceOptimizationRSt6vectorIiSaIiEEi, symObjAddr: 0xC0AC, symBinAddr: 0x1000106D0, symSize: 0x358 }
  - { offsetInCU: 0x2F1E1, offset: 0x2F1E1, size: 0x8, addend: 0x0, symName: __Z27findTargetSumWaysTabulationRSt6vectorIiSaIiEEi, symObjAddr: 0xBCE8, symBinAddr: 0x10001030C, symSize: 0x3C4 }
  - { offsetInCU: 0x2F42C, offset: 0x2F42C, size: 0x8, addend: 0x0, symName: __Z17findTargetSumWaysRSt6vectorIiSaIiEEi, symObjAddr: 0xBB20, symBinAddr: 0x100010144, symSize: 0x1C8 }
  - { offsetInCU: 0x2F610, offset: 0x2F610, size: 0x8, addend: 0x0, symName: __Z28findTargetSumWaysMemoizationRSt6vectorIiSaIiEEiiRS_IS1_SaIS1_EE, symObjAddr: 0xB8A4, symBinAddr: 0x10000FEC8, symSize: 0x27C }
  - { offsetInCU: 0x2F689, offset: 0x2F689, size: 0x8, addend: 0x0, symName: __Z27coinChangeSpaceOptimizationRSt6vectorIiSaIiEEi, symObjAddr: 0xB5C8, symBinAddr: 0x10000FBEC, symSize: 0x2DC }
  - { offsetInCU: 0x2F8B4, offset: 0x2F8B4, size: 0x8, addend: 0x0, symName: __Z20coinChangeTabulationRSt6vectorIiSaIiEEi, symObjAddr: 0xB288, symBinAddr: 0x10000F8AC, symSize: 0x340 }
  - { offsetInCU: 0x2FACC, offset: 0x2FACC, size: 0x8, addend: 0x0, symName: __Z10coinChangeRSt6vectorIiSaIiEEi, symObjAddr: 0xB13C, symBinAddr: 0x10000F760, symSize: 0x14C }
  - { offsetInCU: 0x2FC7B, offset: 0x2FC7B, size: 0x8, addend: 0x0, symName: __Z21coinChangeMemoizationRSt6vectorIiSaIiEEiiRS_IS1_SaIS1_EE, symObjAddr: 0xAF14, symBinAddr: 0x10000F538, symSize: 0x228 }
  - { offsetInCU: 0x2FD11, offset: 0x2FD11, size: 0x8, addend: 0x0, symName: __Z33knapsackSpaceOptimizationOtherWaySt6vectorIiSaIiEES1_ii, symObjAddr: 0xACF4, symBinAddr: 0x10000F318, symSize: 0x220 }
  - { offsetInCU: 0x2FEAA, offset: 0x2FEAA, size: 0x8, addend: 0x0, symName: __Z25knapsackSpaceOptimizationSt6vectorIiSaIiEES1_ii, symObjAddr: 0xAA50, symBinAddr: 0x10000F074, symSize: 0x2A4 }
  - { offsetInCU: 0x300D9, offset: 0x300D9, size: 0x8, addend: 0x0, symName: __Z18knapsackTabulationSt6vectorIiSaIiEES1_ii, symObjAddr: 0xA740, symBinAddr: 0x10000ED64, symSize: 0x310 }
  - { offsetInCU: 0x302F4, offset: 0x302F4, size: 0x8, addend: 0x0, symName: __Z8knapsackSt6vectorIiSaIiEES1_ii, symObjAddr: 0xA610, symBinAddr: 0x10000EC34, symSize: 0x130 }
  - { offsetInCU: 0x304A8, offset: 0x304A8, size: 0x8, addend: 0x0, symName: __Z19knapsackMemoizationRSt6vectorIiSaIiEES2_iiRS_IS1_SaIS1_EE, symObjAddr: 0xA3DC, symBinAddr: 0x10000EA00, symSize: 0x234 }
  - { offsetInCU: 0x3052A, offset: 0x3052A, size: 0x8, addend: 0x0, symName: __Z15countPartitionsiiRSt6vectorIiSaIiEE, symObjAddr: 0xA21C, symBinAddr: 0x10000E840, symSize: 0x1C0 }
  - { offsetInCU: 0x3070E, offset: 0x3070E, size: 0x8, addend: 0x0, symName: __Z26countPartitionsMemoizationRSt6vectorIiSaIiEEiiRS_IS1_SaIS1_EE, symObjAddr: 0x9F88, symBinAddr: 0x10000E5AC, symSize: 0x294 }
  - { offsetInCU: 0x30787, offset: 0x30787, size: 0x8, addend: 0x0, symName: __Z25findWaysSpaceOptimizationRSt6vectorIiSaIiEEi, symObjAddr: 0x9CC8, symBinAddr: 0x10000E2EC, symSize: 0x2C0 }
  - { offsetInCU: 0x3099F, offset: 0x3099F, size: 0x8, addend: 0x0, symName: __Z18findWaysTabulationRSt6vectorIiSaIiEEi, symObjAddr: 0x999C, symBinAddr: 0x10000DFC0, symSize: 0x32C }
  - { offsetInCU: 0x30BA3, offset: 0x30BA3, size: 0x8, addend: 0x0, symName: __Z8findWaysRSt6vectorIiSaIiEEi, symObjAddr: 0x986C, symBinAddr: 0x10000DE90, symSize: 0x130 }
  - { offsetInCU: 0x30D56, offset: 0x30D56, size: 0x8, addend: 0x0, symName: __Z29findWaysMemoizationCorrectOneRSt6vectorIiSaIiEEiiRS_IS1_SaIS1_EE, symObjAddr: 0x95D8, symBinAddr: 0x10000DBFC, symSize: 0x294 }
  - { offsetInCU: 0x30DCD, offset: 0x30DCD, size: 0x8, addend: 0x0, symName: __Z19findWaysMemoizationRSt6vectorIiSaIiEEiiRS_IS1_SaIS1_EE, symObjAddr: 0x93BC, symBinAddr: 0x10000D9E0, symSize: 0x21C }
  - { offsetInCU: 0x30E5B, offset: 0x30E5B, size: 0x8, addend: 0x0, symName: __Z29canPartitionSpaceOptimizationRSt6vectorIiSaIiEE, symObjAddr: 0x9098, symBinAddr: 0x10000D6BC, symSize: 0x324 }
  - { offsetInCU: 0x31095, offset: 0x31095, size: 0x8, addend: 0x0, symName: __Z22canPartitionTabulationRSt6vectorIiSaIiEE, symObjAddr: 0x8D04, symBinAddr: 0x10000D328, symSize: 0x394 }
  - { offsetInCU: 0x31304, offset: 0x31304, size: 0x8, addend: 0x0, symName: __Z12canPartitionRSt6vectorIiSaIiEE, symObjAddr: 0x8B64, symBinAddr: 0x10000D188, symSize: 0x1A0 }
  - { offsetInCU: 0x314C3, offset: 0x314C3, size: 0x8, addend: 0x0, symName: __Z22canPartitionTabulationRSt6vectorIiSaIiEEiiRS_IS1_SaIS1_EE, symObjAddr: 0x8918, symBinAddr: 0x10000CF3C, symSize: 0x24C }
  - { offsetInCU: 0x3155F, offset: 0x3155F, size: 0x8, addend: 0x0, symName: __Z29subsetSumToKSpaceOptimizationiiRSt6vectorIiSaIiEE, symObjAddr: 0x8654, symBinAddr: 0x10000CC78, symSize: 0x2C4 }
  - { offsetInCU: 0x31778, offset: 0x31778, size: 0x8, addend: 0x0, symName: __Z22subsetSumToKTabulationiiRSt6vectorIiSaIiEE, symObjAddr: 0x8320, symBinAddr: 0x10000C944, symSize: 0x334 }
  - { offsetInCU: 0x319A2, offset: 0x319A2, size: 0x8, addend: 0x0, symName: __Z12subsetSumToKiiRSt6vectorIiSaIiEE, symObjAddr: 0x81FC, symBinAddr: 0x10000C820, symSize: 0x124 }
  - { offsetInCU: 0x31B40, offset: 0x31B40, size: 0x8, addend: 0x0, symName: __Z23subsetSumToKMemoizationiiRSt6vectorIiSaIiEERS_IS1_SaIS1_EE, symObjAddr: 0x7FAC, symBinAddr: 0x10000C5D0, symSize: 0x250 }
  - { offsetInCU: 0x31BAF, offset: 0x31BAF, size: 0x8, addend: 0x0, symName: __Z12cherryPickupRSt6vectorIS_IiSaIiEESaIS1_EE, symObjAddr: 0x7E80, symBinAddr: 0x10000C4A4, symSize: 0x12C }
  - { offsetInCU: 0x31D35, offset: 0x31D35, size: 0x8, addend: 0x0, symName: __Z24cherryPickupMemoization1RSt6vectorIS_IiSaIiEESaIS1_EEiiRiS4_, symObjAddr: 0x7984, symBinAddr: 0x10000BFA8, symSize: 0x4FC }
  - { offsetInCU: 0x31F67, offset: 0x31F67, size: 0x8, addend: 0x0, symName: __Z24cherryPickupMemoization2RSt6vectorIS_IiSaIiEESaIS1_EEiiRiS4_, symObjAddr: 0x7620, symBinAddr: 0x10000BC44, symSize: 0x364 }
  - { offsetInCU: 0x32068, offset: 0x32068, size: 0x8, addend: 0x0, symName: __Z42minFallingPathSumSpaceOptimizationOtherWayRSt6vectorIS_IiSaIiEESaIS1_EE, symObjAddr: 0x72E4, symBinAddr: 0x10000B908, symSize: 0x33C }
  - { offsetInCU: 0x322B6, offset: 0x322B6, size: 0x8, addend: 0x0, symName: __Z34minFallingPathSumSpaceOptimizationRSt6vectorIS_IiSaIiEESaIS1_EE, symObjAddr: 0x6FAC, symBinAddr: 0x10000B5D0, symSize: 0x338 }
  - { offsetInCU: 0x324F2, offset: 0x324F2, size: 0x8, addend: 0x0, symName: __Z35minFallingPathSumTabulationOtherWayRSt6vectorIS_IiSaIiEESaIS1_EE, symObjAddr: 0x6C00, symBinAddr: 0x10000B224, symSize: 0x3AC }
  - { offsetInCU: 0x32733, offset: 0x32733, size: 0x8, addend: 0x0, symName: __Z27minFallingPathSumTabulationRSt6vectorIS_IiSaIiEESaIS1_EE, symObjAddr: 0x6840, symBinAddr: 0x10000AE64, symSize: 0x3C0 }
  - { offsetInCU: 0x3294C, offset: 0x3294C, size: 0x8, addend: 0x0, symName: __Z17minFallingPathSumRSt6vectorIS_IiSaIiEESaIS1_EE, symObjAddr: 0x669C, symBinAddr: 0x10000ACC0, symSize: 0x1A4 }
  - { offsetInCU: 0x32B2B, offset: 0x32B2B, size: 0x8, addend: 0x0, symName: __Z28minFallingPathSumMemoizationRSt6vectorIS_IiSaIiEESaIS1_EEiiRiS4_, symObjAddr: 0x642C, symBinAddr: 0x10000AA50, symSize: 0x270 }
  - { offsetInCU: 0x32BD9, offset: 0x32BD9, size: 0x8, addend: 0x0, symName: __Z32minimumTotalSpaceOptimizationWayRSt6vectorIS_IiSaIiEESaIS1_EE, symObjAddr: 0x6168, symBinAddr: 0x10000A78C, symSize: 0x2C4 }
  - { offsetInCU: 0x32DF2, offset: 0x32DF2, size: 0x8, addend: 0x0, symName: __Z25minimumTotalTabulationWayRSt6vectorIS_IiSaIiEESaIS1_EE, symObjAddr: 0x5E50, symBinAddr: 0x10000A474, symSize: 0x318 }
  - { offsetInCU: 0x33004, offset: 0x33004, size: 0x8, addend: 0x0, symName: __Z21minimumTotalPreferWayRSt6vectorIS_IiSaIiEESaIS1_EE, symObjAddr: 0x5CFC, symBinAddr: 0x10000A320, symSize: 0x154 }
  - { offsetInCU: 0x33191, offset: 0x33191, size: 0x8, addend: 0x0, symName: __Z26minimumTotalMemoizationWayRSt6vectorIS_IiSaIiEESaIS1_EERiS5_iiS4_, symObjAddr: 0x5AC4, symBinAddr: 0x10000A0E8, symSize: 0x238 }
  - { offsetInCU: 0x3322C, offset: 0x3322C, size: 0x8, addend: 0x0, symName: __Z22minimumTotalTabulationRSt6vectorIS_IiSaIiEESaIS1_EE, symObjAddr: 0x573C, symBinAddr: 0x100009D60, symSize: 0x388 }
  - { offsetInCU: 0x33461, offset: 0x33461, size: 0x8, addend: 0x0, symName: __Z12minimumTotalRSt6vectorIS_IiSaIiEESaIS1_EE, symObjAddr: 0x5584, symBinAddr: 0x100009BA8, symSize: 0x1B8 }
  - { offsetInCU: 0x33652, offset: 0x33652, size: 0x8, addend: 0x0, symName: __Z21minimumTotalRecursionRSt6vectorIS_IiSaIiEESaIS1_EEiiS4_, symObjAddr: 0x5368, symBinAddr: 0x10000998C, symSize: 0x21C }
  - { offsetInCU: 0x336E4, offset: 0x336E4, size: 0x8, addend: 0x0, symName: __Z27minPathSumSpaceOptimizationRSt6vectorIS_IiSaIiEESaIS1_EE, symObjAddr: 0x50D0, symBinAddr: 0x1000096F4, symSize: 0x298 }
  - { offsetInCU: 0x338DE, offset: 0x338DE, size: 0x8, addend: 0x0, symName: __Z20minPathSumTabulationRSt6vectorIS_IiSaIiEESaIS1_EE, symObjAddr: 0x4DEC, symBinAddr: 0x100009410, symSize: 0x2E4 }
  - { offsetInCU: 0x33AC0, offset: 0x33AC0, size: 0x8, addend: 0x0, symName: __Z10minPathSumRSt6vectorIS_IiSaIiEESaIS1_EE, symObjAddr: 0x4CB0, symBinAddr: 0x1000092D4, symSize: 0x13C }
  - { offsetInCU: 0x33C52, offset: 0x33C52, size: 0x8, addend: 0x0, symName: __Z21minPathSumMemoizationRSt6vectorIS_IiSaIiEESaIS1_EEiiS4_, symObjAddr: 0x4AA8, symBinAddr: 0x1000090CC, symSize: 0x208 }
  - { offsetInCU: 0x33D00, offset: 0x33D00, size: 0x8, addend: 0x0, symName: __Z41uniquePathsWithObstaclesSpaceOptimizationRSt6vectorIS_IiSaIiEESaIS1_EE, symObjAddr: 0x4770, symBinAddr: 0x100008D94, symSize: 0x338 }
  - { offsetInCU: 0x33EF8, offset: 0x33EF8, size: 0x8, addend: 0x0, symName: __Z34uniquePathsWithObstaclesTabulationRSt6vectorIS_IiSaIiEESaIS1_EE, symObjAddr: 0x43EC, symBinAddr: 0x100008A10, symSize: 0x384 }
  - { offsetInCU: 0x340D8, offset: 0x340D8, size: 0x8, addend: 0x0, symName: __Z24uniquePathsWithObstaclesRSt6vectorIS_IiSaIiEESaIS1_EE, symObjAddr: 0x425C, symBinAddr: 0x100008880, symSize: 0x190 }
  - { offsetInCU: 0x3426A, offset: 0x3426A, size: 0x8, addend: 0x0, symName: __Z35uniquePathsWithObstaclesMemoizationRSt6vectorIS_IiSaIiEESaIS1_EEiiS4_, symObjAddr: 0x4044, symBinAddr: 0x100008668, symSize: 0x218 }
  - { offsetInCU: 0x342C3, offset: 0x342C3, size: 0x8, addend: 0x0, symName: __Z26countWaysSpaceOptimizationii, symObjAddr: 0x3E60, symBinAddr: 0x100008484, symSize: 0x1E4 }
  - { offsetInCU: 0x344AB, offset: 0x344AB, size: 0x8, addend: 0x0, symName: __Z19countWaysTabulationii, symObjAddr: 0x3C18, symBinAddr: 0x10000823C, symSize: 0x248 }
  - { offsetInCU: 0x3467A, offset: 0x3467A, size: 0x8, addend: 0x0, symName: __Z9countWaysii, symObjAddr: 0x3AF8, symBinAddr: 0x10000811C, symSize: 0x120 }
  - { offsetInCU: 0x34807, offset: 0x34807, size: 0x8, addend: 0x0, symName: __Z13countWaysUtiliiRSt6vectorIS_IiSaIiEESaIS1_EE, symObjAddr: 0x3990, symBinAddr: 0x100007FB4, symSize: 0x168 }
  - { offsetInCU: 0x34882, offset: 0x34882, size: 0x8, addend: 0x0, symName: __Z28uniquePathsSpaceOptimizationii, symObjAddr: 0x3780, symBinAddr: 0x100007DA4, symSize: 0x210 }
  - { offsetInCU: 0x34A99, offset: 0x34A99, size: 0x8, addend: 0x0, symName: __Z29uniquePathsTabulationModifiedii, symObjAddr: 0x3524, symBinAddr: 0x100007B48, symSize: 0x25C }
  - { offsetInCU: 0x34C91, offset: 0x34C91, size: 0x8, addend: 0x0, symName: __Z21uniquePathsTabulationii, symObjAddr: 0x32B4, symBinAddr: 0x1000078D8, symSize: 0x270 }
  - { offsetInCU: 0x34E61, offset: 0x34E61, size: 0x8, addend: 0x0, symName: __Z11uniquePathsii, symObjAddr: 0x318C, symBinAddr: 0x1000077B0, symSize: 0x128 }
  - { offsetInCU: 0x35000, offset: 0x35000, size: 0x8, addend: 0x0, symName: __Z22uniquePathsMemoizationiiRiS_RSt6vectorIS0_IiSaIiEESaIS2_EE, symObjAddr: 0x2FDC, symBinAddr: 0x100007600, symSize: 0x1B0 }
  - { offsetInCU: 0x350A6, offset: 0x350A6, size: 0x8, addend: 0x0, symName: __Z30ninjaTrainingSpaceOptimizationiRSt6vectorIS_IiSaIiEESaIS1_EE, symObjAddr: 0x2C78, symBinAddr: 0x10000729C, symSize: 0x364 }
  - { offsetInCU: 0x35278, offset: 0x35278, size: 0x8, addend: 0x0, symName: __Z23ninjaTrainingTabulationiRSt6vectorIS_IiSaIiEESaIS1_EE, symObjAddr: 0x28AC, symBinAddr: 0x100006ED0, symSize: 0x3CC }
  - { offsetInCU: 0x3545C, offset: 0x3545C, size: 0x8, addend: 0x0, symName: __Z13ninjaTrainingiRSt6vectorIS_IiSaIiEESaIS1_EE, symObjAddr: 0x278C, symBinAddr: 0x100006DB0, symSize: 0x120 }
  - { offsetInCU: 0x355AE, offset: 0x355AE, size: 0x8, addend: 0x0, symName: __Z1fiiRSt6vectorIS_IiSaIiEESaIS1_EES4_, symObjAddr: 0x2590, symBinAddr: 0x100006BB4, symSize: 0x1FC }
  - { offsetInCU: 0x356AE, offset: 0x356AE, size: 0x8, addend: 0x0, symName: __Z4rob2RSt6vectorIiSaIiEE, symObjAddr: 0x23E8, symBinAddr: 0x100006A0C, symSize: 0x1A8 }
  - { offsetInCU: 0x3587A, offset: 0x3587A, size: 0x8, addend: 0x0, symName: __Z28houseRobberSpaceOptimizationSt6vectorIiSaIiEE, symObjAddr: 0x2304, symBinAddr: 0x100006928, symSize: 0xE4 }
  - { offsetInCU: 0x35941, offset: 0x35941, size: 0x8, addend: 0x0, symName: __Z21robSpaceOptimization2RSt6vectorIiSaIiEE, symObjAddr: 0x2220, symBinAddr: 0x100006844, symSize: 0xE4 }
  - { offsetInCU: 0x35A12, offset: 0x35A12, size: 0x8, addend: 0x0, symName: __Z20robSpaceOptimizationRSt6vectorIiSaIiEE, symObjAddr: 0x210C, symBinAddr: 0x100006730, symSize: 0x114 }
  - { offsetInCU: 0x35AD7, offset: 0x35AD7, size: 0x8, addend: 0x0, symName: __Z13robTabulationRSt6vectorIiSaIiEE, symObjAddr: 0x1FA0, symBinAddr: 0x1000065C4, symSize: 0x16C }
  - { offsetInCU: 0x35BFA, offset: 0x35BFA, size: 0x8, addend: 0x0, symName: __Z3robRSt6vectorIiSaIiEE, symObjAddr: 0x1ED0, symBinAddr: 0x1000064F4, symSize: 0xD0 }
  - { offsetInCU: 0x35D06, offset: 0x35D06, size: 0x8, addend: 0x0, symName: __Z23robRecursionMemoizationRSt6vectorIiSaIiEEiS2_, symObjAddr: 0x1D9C, symBinAddr: 0x1000063C0, symSize: 0x134 }
  - { offsetInCU: 0x35D93, offset: 0x35D93, size: 0x8, addend: 0x0, symName: __Z34frogJumpTUFWithKDistanceTabulationRSt6vectorIiSaIiEEi, symObjAddr: 0x1BEC, symBinAddr: 0x100006210, symSize: 0x1B0 }
  - { offsetInCU: 0x35EDB, offset: 0x35EDB, size: 0x8, addend: 0x0, symName: __Z24frogJumpTUFWithKDistanceRSt6vectorIiSaIiEEi, symObjAddr: 0x1B14, symBinAddr: 0x100006138, symSize: 0xD8 }
  - { offsetInCU: 0x35FD0, offset: 0x35FD0, size: 0x8, addend: 0x0, symName: __Z24frogJumpTUFWithKDistanceRSt6vectorIiSaIiEEiiS2_, symObjAddr: 0x19A0, symBinAddr: 0x100005FC4, symSize: 0x174 }
  - { offsetInCU: 0x36095, offset: 0x36095, size: 0x8, addend: 0x0, symName: __Z28frogJumpTUFSpaceOptimizationRSt6vectorIiSaIiEE, symObjAddr: 0x185C, symBinAddr: 0x100005E80, symSize: 0x144 }
  - { offsetInCU: 0x36151, offset: 0x36151, size: 0x8, addend: 0x0, symName: __Z21frogJumpTUFTabulationRSt6vectorIiSaIiEE, symObjAddr: 0x1698, symBinAddr: 0x100005CBC, symSize: 0x1C4 }
  - { offsetInCU: 0x36282, offset: 0x36282, size: 0x8, addend: 0x0, symName: __Z22frogJumpTUFMemoizationRSt6vectorIiSaIiEEi, symObjAddr: 0x15C4, symBinAddr: 0x100005BE8, symSize: 0xD4 }
  - { offsetInCU: 0x3637E, offset: 0x3637E, size: 0x8, addend: 0x0, symName: __Z30frogJumpTUFMemoizationRecusionRSt6vectorIiSaIiEEiS2_, symObjAddr: 0x1440, symBinAddr: 0x100005A64, symSize: 0x184 }
  - { offsetInCU: 0x363C9, offset: 0x363C9, size: 0x8, addend: 0x0, symName: __Z11frogJumpTUFRSt6vectorIiSaIiEEi, symObjAddr: 0x1300, symBinAddr: 0x100005924, symSize: 0x140 }
  - { offsetInCU: 0x36436, offset: 0x36436, size: 0x8, addend: 0x0, symName: __Z16canCrossPracticeRSt6vectorIiSaIiEE, symObjAddr: 0x1130, symBinAddr: 0x100005754, symSize: 0x1D0 }
  - { offsetInCU: 0x365E7, offset: 0x365E7, size: 0x8, addend: 0x0, symName: __ZNSt13unordered_mapIiiSt4hashIiESt8equal_toIiESaISt4pairIKiiEEED1Ev, symObjAddr: 0x1110, symBinAddr: 0x100005734, symSize: 0x20 }
  - { offsetInCU: 0x36627, offset: 0x36627, size: 0x8, addend: 0x0, symName: __ZNSt13unordered_mapIiiSt4hashIiESt8equal_toIiESaISt4pairIKiiEEEC1Ev, symObjAddr: 0x10F0, symBinAddr: 0x100005714, symSize: 0x20 }
  - { offsetInCU: 0x366F4, offset: 0x366F4, size: 0x8, addend: 0x0, symName: __ZNSt10_HashtableIiSt4pairIKiiESaIS2_ENSt8__detail10_Select1stESt8equal_toIiESt4hashIiENS4_18_Mod_range_hashingENS4_20_Default_ranged_hashENS4_20_Prime_rehash_policyENS4_17_Hashtable_traitsILb0ELb0ELb1EEEEC1Ev, symObjAddr: 0x1080, symBinAddr: 0x1000056A4, symSize: 0x70 }
  - { offsetInCU: 0x366BD, offset: 0x366BD, size: 0x8, addend: 0x0, symName: __ZNSt8__detail16_Hashtable_allocISaINS_10_Hash_nodeISt4pairIKiiELb0EEEEED2Ev, symObjAddr: 0x1060, symBinAddr: 0x100005684, symSize: 0x20 }
  - { offsetInCU: 0x366FD, offset: 0x366FD, size: 0x8, addend: 0x0, symName: __ZNSt8__detail16_Hashtable_allocISaINS_10_Hash_nodeISt4pairIKiiELb0EEEEEC2Ev, symObjAddr: 0x1040, symBinAddr: 0x100005664, symSize: 0x20 }
  - { offsetInCU: 0x36758, offset: 0x36758, size: 0x8, addend: 0x0, symName: __ZNSt8__detail21_Hashtable_ebo_helperILi0ESaINS_10_Hash_nodeISt4pairIKiiELb0EEEELb1EED2Ev, symObjAddr: 0x1014, symBinAddr: 0x100005638, symSize: 0x2C }
  - { offsetInCU: 0x36814, offset: 0x36814, size: 0x8, addend: 0x0, symName: __ZNSt8__detail15_Hashtable_baseIiSt4pairIKiiENS_10_Select1stESt8equal_toIiESt4hashIiENS_18_Mod_range_hashingENS_20_Default_ranged_hashENS_17_Hashtable_traitsILb0ELb0ELb1EEEEC2Ev, symObjAddr: 0xFEC, symBinAddr: 0x100005610, symSize: 0x28 }
  - { offsetInCU: 0x36825, offset: 0x36825, size: 0x8, addend: 0x0, symName: __ZNSt8__detail15_Hash_code_baseIiSt4pairIKiiENS_10_Select1stESt4hashIiENS_18_Mod_range_hashingENS_20_Default_ranged_hashELb0EEC2Ev, symObjAddr: 0xFCC, symBinAddr: 0x1000055F0, symSize: 0x20 }
  - { offsetInCU: 0x36844, offset: 0x36844, size: 0x8, addend: 0x0, symName: __Z14canCrossHelperiiRSt6vectorIiSaIiEERS_IS1_SaIS1_EERSt13unordered_mapIiiSt4hashIiESt8equal_toIiESaISt4pairIKiiEEE, symObjAddr: 0xC3C, symBinAddr: 0x100005260, symSize: 0x390 }
  - { offsetInCU: 0x3689B, offset: 0x3689B, size: 0x8, addend: 0x0, symName: __Z8canCrossRSt6vectorIiSaIiEE, symObjAddr: 0xA84, symBinAddr: 0x1000050A8, symSize: 0x1B8 }
  - { offsetInCU: 0x36A0B, offset: 0x36A0B, size: 0x8, addend: 0x0, symName: __Z14canCrossHelperiiRSt6vectorIiSaIiEERS_IS1_SaIS1_EE, symObjAddr: 0x824, symBinAddr: 0x100004E48, symSize: 0x260 }
  - { offsetInCU: 0x36AC9, offset: 0x36AC9, size: 0x8, addend: 0x0, symName: __Z28climbStairsSpaceOptimizationi, symObjAddr: 0x7A0, symBinAddr: 0x100004DC4, symSize: 0x84 }
  - { offsetInCU: 0x36B42, offset: 0x36B42, size: 0x8, addend: 0x0, symName: __Z21climbStairsTabulationi, symObjAddr: 0x66C, symBinAddr: 0x100004C90, symSize: 0x134 }
  - { offsetInCU: 0x36C4C, offset: 0x36C4C, size: 0x8, addend: 0x0, symName: __Z11climbStairsi, symObjAddr: 0x5B4, symBinAddr: 0x100004BD8, symSize: 0xB8 }
  - { offsetInCU: 0x36D3B, offset: 0x36D3B, size: 0x8, addend: 0x0, symName: __Z22climbStairsMemoizationiRSt6vectorIiSaIiEE, symObjAddr: 0x4E0, symBinAddr: 0x100004B04, symSize: 0xD4 }
  - { offsetInCU: 0x36D89, offset: 0x36D89, size: 0x8, addend: 0x0, symName: __Z20fibSpaceOptimizationi, symObjAddr: 0x460, symBinAddr: 0x100004A84, symSize: 0x80 }
  - { offsetInCU: 0x36E02, offset: 0x36E02, size: 0x8, addend: 0x0, symName: __Z13fibTabulationi, symObjAddr: 0x328, symBinAddr: 0x10000494C, symSize: 0x138 }
  - { offsetInCU: 0x36ED8, offset: 0x36ED8, size: 0x8, addend: 0x0, symName: __Z3fibi, symObjAddr: 0x270, symBinAddr: 0x100004894, symSize: 0xB8 }
  - { offsetInCU: 0x36FCC, offset: 0x36FCC, size: 0x8, addend: 0x0, symName: __Z16fibRecursionMemoiRSt6vectorIiSaIiEE, symObjAddr: 0x1A0, symBinAddr: 0x1000047C4, symSize: 0xD0 }
  - { offsetInCU: 0x36FD4, offset: 0x36FD4, size: 0x8, addend: 0x0, symName: __ZSt3minImERKT_S2_S2_, symObjAddr: 0x168, symBinAddr: 0x10000478C, symSize: 0x38 }
  - { offsetInCU: 0x3701A, offset: 0x3701A, size: 0x8, addend: 0x0, symName: __ZNSt8__detail20_Prime_rehash_policy8_M_resetEm, symObjAddr: 0x144, symBinAddr: 0x100004768, symSize: 0x24 }
  - { offsetInCU: 0x37055, offset: 0x37055, size: 0x8, addend: 0x0, symName: __ZNKSt8__detail20_Prime_rehash_policy8_M_stateEv, symObjAddr: 0x12C, symBinAddr: 0x100004750, symSize: 0x18 }
  - { offsetInCU: 0x370CC, offset: 0x370CC, size: 0x8, addend: 0x0, symName: __ZNSt8__detail20_Prime_rehash_policyC1Ef, symObjAddr: 0x100, symBinAddr: 0x100004724, symSize: 0x2C }
  - { offsetInCU: 0x370D6, offset: 0x370D6, size: 0x8, addend: 0x0, symName: __ZNKSt8__detail18_Mod_range_hashingclEmm, symObjAddr: 0xD0, symBinAddr: 0x1000046F4, symSize: 0x30 }
  - { offsetInCU: 0x3715C, offset: 0x3715C, size: 0x8, addend: 0x0, symName: __ZNSt8__detail15_Hash_node_baseC1Ev, symObjAddr: 0xB4, symBinAddr: 0x1000046D8, symSize: 0x1C }
  - { offsetInCU: 0x37186, offset: 0x37186, size: 0x8, addend: 0x0, symName: __ZNSt8__detail15_Hash_node_baseC2Ev, symObjAddr: 0x98, symBinAddr: 0x1000046BC, symSize: 0x1C }
  - { offsetInCU: 0x3718C, offset: 0x3718C, size: 0x8, addend: 0x0, symName: __ZNKSt4hashIiEclEi, symObjAddr: 0x80, symBinAddr: 0x1000046A4, symSize: 0x18 }
  - { offsetInCU: 0x371C2, offset: 0x371C2, size: 0x8, addend: 0x0, symName: __ZNSt11char_traitsIcE6lengthEPKc, symObjAddr: 0x44, symBinAddr: 0x100004668, symSize: 0x3C }
  - { offsetInCU: 0x37213, offset: 0x37213, size: 0x8, addend: 0x0, symName: __ZdlPvS_, symObjAddr: 0x2C, symBinAddr: 0x100004650, symSize: 0x18 }
  - { offsetInCU: 0x37248, offset: 0x37248, size: 0x8, addend: 0x0, symName: __ZnwmPv, symObjAddr: 0x14, symBinAddr: 0x100004638, symSize: 0x18 }
  - { offsetInCU: 0x37275, offset: 0x37275, size: 0x8, addend: 0x0, symName: __ZSt17__size_to_integerm, symObjAddr: 0x0, symBinAddr: 0x100004624, symSize: 0x14 }
...
