---
triple:          'arm64-apple-darwin'
binary-path:     '/Users/lalitsiraswa/Documents/Daily-Practice/Graph'
relocations:
  - { offset: 0x2ED59, size: 0x8, addend: 0x0, symName: __ZStL8__ioinit, symObjAddr: 0x104D12, symBinAddr: 0x100024000, symSize: 0x0 }
  - { offset: 0x30583, size: 0x8, addend: 0x0, symName: __ZNSt10_Head_baseILm0ERKcLb0EE7_M_headERS2_, symObjAddr: 0x11780, symBinAddr: 0x100012340, symSize: 0x18 }
  - { offset: 0x305AC, size: 0x8, addend: 0x0, symName: __ZNSt11_Tuple_implILm0EJRKcEE7_M_headERS2_, symObjAddr: 0x11764, symBinAddr: 0x100012324, symSize: 0x1C }
  - { offset: 0x305D6, size: 0x8, addend: 0x0, symName: __ZNSt11__copy_moveILb0ELb0ESt26random_access_iterator_tagE12__assign_oneIPSt4pairIiiES5_EEvPT_PT0_, symObjAddr: 0x1173C, symBinAddr: 0x1000122FC, symSize: 0x28 }
  - { offset: 0x30623, size: 0x8, addend: 0x0, symName: __ZSt12__get_helperILm0ERKcJEERT0_RSt11_Tuple_implIXT_EJS2_DpT1_EE, symObjAddr: 0x11720, symBinAddr: 0x1000122E0, symSize: 0x1C }
  - { offset: 0x30665, size: 0x8, addend: 0x0, symName: __ZNSt20__copy_move_backwardILb0ELb1ESt26random_access_iterator_tagE13__copy_move_bIPSt4pairIiiES5_EEPT0_PT_S9_S7_, symObjAddr: 0x11674, symBinAddr: 0x100012234, symSize: 0xAC }
  - { offset: 0x306D4, size: 0x8, addend: 0x0, symName: __ZNSt11__copy_moveILb0ELb1ESt26random_access_iterator_tagE8__copy_mIPSt4pairIiiES5_EEPT0_PT_S9_S7_, symObjAddr: 0x115E4, symBinAddr: 0x1000121A4, symSize: 0x90 }
  - { offset: 0x30743, size: 0x8, addend: 0x0, symName: __ZNSt11__copy_moveILb0ELb0ESt26random_access_iterator_tagE12__assign_oneIPiS3_EEvPT_PT0_, symObjAddr: 0x115BC, symBinAddr: 0x10001217C, symSize: 0x28 }
  - { offset: 0x30790, size: 0x8, addend: 0x0, symName: __ZNSt11__copy_moveILb0ELb0ESt26random_access_iterator_tagE12__assign_oneIiKiEEvPT_PT0_, symObjAddr: 0x11594, symBinAddr: 0x100012154, symSize: 0x28 }
  - { offset: 0x307DD, size: 0x8, addend: 0x0, symName: __ZNSt11__copy_moveILb0ELb0ESt26random_access_iterator_tagE12__assign_oneIPcS3_EEvPT_PT0_, symObjAddr: 0x1156C, symBinAddr: 0x10001212C, symSize: 0x28 }
  - { offset: 0x3082A, size: 0x8, addend: 0x0, symName: __ZSt3getILm0EJRKcEERNSt13tuple_elementIXT_ESt5tupleIJDpT0_EEE4typeERS6_, symObjAddr: 0x11550, symBinAddr: 0x100012110, symSize: 0x1C }
  - { offset: 0x30869, size: 0x8, addend: 0x0, symName: __ZSt23__copy_move_backward_a2ILb0EPPSt4pairIiiES3_ET1_T0_S5_S4_, symObjAddr: 0x11524, symBinAddr: 0x1000120E4, symSize: 0x2C }
  - { offset: 0x308D1, size: 0x8, addend: 0x0, symName: __ZSt14__copy_move_a2ILb0EPPSt4pairIiiES3_ET1_T0_S5_S4_, symObjAddr: 0x114F8, symBinAddr: 0x1000120B8, symSize: 0x2C }
  - { offset: 0x30939, size: 0x8, addend: 0x0, symName: __ZNSt20__copy_move_backwardILb0ELb1ESt26random_access_iterator_tagE13__copy_move_bIPiS3_EEPT0_PT_S7_S5_, symObjAddr: 0x1144C, symBinAddr: 0x10001200C, symSize: 0xAC }
  - { offset: 0x309A8, size: 0x8, addend: 0x0, symName: __ZNSt11__copy_moveILb0ELb1ESt26random_access_iterator_tagE8__copy_mIPiS3_EEPT0_PT_S7_S5_, symObjAddr: 0x113BC, symBinAddr: 0x100011F7C, symSize: 0x90 }
  - { offset: 0x30A17, size: 0x8, addend: 0x0, symName: __ZNSt11__copy_moveILb0ELb1ESt26random_access_iterator_tagE8__copy_mIKiiEEPT0_PT_S7_S5_, symObjAddr: 0x1132C, symBinAddr: 0x100011EEC, symSize: 0x90 }
  - { offset: 0x30A86, size: 0x8, addend: 0x0, symName: __ZNSt20__copy_move_backwardILb0ELb1ESt26random_access_iterator_tagE13__copy_move_bIPcS3_EEPT0_PT_S7_S5_, symObjAddr: 0x11280, symBinAddr: 0x100011E40, symSize: 0xAC }
  - { offset: 0x30AF5, size: 0x8, addend: 0x0, symName: __ZNSt11__copy_moveILb0ELb1ESt26random_access_iterator_tagE8__copy_mIPcS3_EEPT0_PT_S7_S5_, symObjAddr: 0x111F0, symBinAddr: 0x100011DB0, symSize: 0x90 }
  - { offset: 0x30BD1, size: 0x8, addend: 0x0, symName: __ZNSt4pairIKcSt6vectorIcSaIcEEEC1IJRS0_EJLm0EEJEJEEERSt5tupleIJDpT_EERS7_IJDpT1_EESt12_Index_tupleIJXspT0_EEESG_IJXspT2_EEE, symObjAddr: 0x11194, symBinAddr: 0x100011D54, symSize: 0x5C }
  - { offset: 0x30CAD, size: 0x8, addend: 0x0, symName: __ZNSt4pairIKciEC1IJRS0_EJLm0EEJEJEEERSt5tupleIJDpT_EERS4_IJDpT1_EESt12_Index_tupleIJXspT0_EEESD_IJXspT2_EEE, symObjAddr: 0x1114C, symBinAddr: 0x100011D0C, symSize: 0x48 }
  - { offset: 0x30D1C, size: 0x8, addend: 0x0, symName: __ZSt23__copy_move_backward_a1ILb0EPPSt4pairIiiES3_ET1_T0_S5_S4_, symObjAddr: 0x11120, symBinAddr: 0x100011CE0, symSize: 0x2C }
  - { offset: 0x30D84, size: 0x8, addend: 0x0, symName: __ZSt12__niter_wrapIPPSt4pairIiiEET_RKS4_S4_, symObjAddr: 0x11108, symBinAddr: 0x100011CC8, symSize: 0x18 }
  - { offset: 0x30DC0, size: 0x8, addend: 0x0, symName: __ZSt14__copy_move_a1ILb0EPPSt4pairIiiES3_ET1_T0_S5_S4_, symObjAddr: 0x110DC, symBinAddr: 0x100011C9C, symSize: 0x2C }
  - { offset: 0x30E28, size: 0x8, addend: 0x0, symName: __ZSt12__niter_baseIPPSt4pairIiiEET_S4_, symObjAddr: 0x110C8, symBinAddr: 0x100011C88, symSize: 0x14 }
  - { offset: 0x30E5B, size: 0x8, addend: 0x0, symName: __ZSt23__copy_move_backward_a2ILb0EPPiS1_ET1_T0_S3_S2_, symObjAddr: 0x1109C, symBinAddr: 0x100011C5C, symSize: 0x2C }
  - { offset: 0x30EC3, size: 0x8, addend: 0x0, symName: __ZSt14__copy_move_a2ILb0EPPiS1_ET1_T0_S3_S2_, symObjAddr: 0x11070, symBinAddr: 0x100011C30, symSize: 0x2C }
  - { offset: 0x30F2B, size: 0x8, addend: 0x0, symName: __ZSt9__fill_a1IPiiEN9__gnu_cxx11__enable_ifIXsrSt11__is_scalarIT0_E7__valueEvE6__typeET_S8_RKS4_, symObjAddr: 0x11018, symBinAddr: 0x100011BD8, symSize: 0x58 }
  - { offset: 0x30FE0, size: 0x8, addend: 0x0, symName: __ZNSt15__new_allocatorISt13_Rb_tree_nodeISt4pairIiiEEE8allocateEmPKv, symObjAddr: 0x10F88, symBinAddr: 0x100011B48, symSize: 0x90 }
  - { offset: 0x31068, size: 0x8, addend: 0x0, symName: __ZSt14__copy_move_a2ILb0EPKiPiET1_T0_S4_S3_, symObjAddr: 0x10F5C, symBinAddr: 0x100011B1C, symSize: 0x2C }
  - { offset: 0x310D4, size: 0x8, addend: 0x0, symName: __ZNK9__gnu_cxx17__normal_iteratorIPKiSt6vectorIiSaIiEEE4baseEv, symObjAddr: 0x10F48, symBinAddr: 0x100011B08, symSize: 0x14 }
  - { offset: 0x310FA, size: 0x8, addend: 0x0, symName: __ZSt19__relocate_object_aISt4pairIiiES1_SaIS1_EEvPT_PT0_RT1_, symObjAddr: 0x10E84, symBinAddr: 0x100011A44, symSize: 0xC4 }
  - { offset: 0x3122C, size: 0x8, addend: 0x0, symName: __ZSt11__addressofISt4pairIiiEEPT_RS2_, symObjAddr: 0x10E70, symBinAddr: 0x100011A30, symSize: 0x14 }
  - { offset: 0x3125E, size: 0x8, addend: 0x0, symName: __ZSt23__copy_move_backward_a2ILb0EPPcS1_ET1_T0_S3_S2_, symObjAddr: 0x10E44, symBinAddr: 0x100011A04, symSize: 0x2C }
  - { offset: 0x312C6, size: 0x8, addend: 0x0, symName: __ZSt14__copy_move_a2ILb0EPPcS1_ET1_T0_S3_S2_, symObjAddr: 0x10E18, symBinAddr: 0x1000119D8, symSize: 0x2C }
  - { offset: 0x3132E, size: 0x8, addend: 0x0, symName: __ZNSt11__copy_moveILb0ELb0ESt26random_access_iterator_tagE12__assign_oneIcKcEEvPT_PT0_, symObjAddr: 0x10DF0, symBinAddr: 0x1000119B0, symSize: 0x28 }
  - { offset: 0x313CA, size: 0x8, addend: 0x0, symName: __ZNSt4pairIKcSt6vectorIcSaIcEEEC1IJRS0_EJEEESt21piecewise_construct_tSt5tupleIJDpT_EES8_IJDpT0_EE, symObjAddr: 0x10DB4, symBinAddr: 0x100011974, symSize: 0x3C }
  - { offset: 0x31467, size: 0x8, addend: 0x0, symName: __ZNSt4pairIKciEC1IJRS0_EJEEESt21piecewise_construct_tSt5tupleIJDpT_EES5_IJDpT0_EE, symObjAddr: 0x10D78, symBinAddr: 0x100011938, symSize: 0x3C }
  - { offset: 0x314E1, size: 0x8, addend: 0x0, symName: __ZNSt11_Tuple_implILm0EJRKcEEC2EOS2_, symObjAddr: 0x10D50, symBinAddr: 0x100011910, symSize: 0x28 }
  - { offset: 0x3150C, size: 0x8, addend: 0x0, symName: __ZSt22__copy_move_backward_aILb0EPPSt4pairIiiES3_ET1_T0_S5_S4_, symObjAddr: 0x10CF0, symBinAddr: 0x1000118B0, symSize: 0x60 }
  - { offset: 0x31574, size: 0x8, addend: 0x0, symName: __ZSt13__copy_move_aILb0EPPSt4pairIiiES3_ET1_T0_S5_S4_, symObjAddr: 0x10C90, symBinAddr: 0x100011850, symSize: 0x60 }
  - { offset: 0x315DC, size: 0x8, addend: 0x0, symName: __ZSt12__miter_baseIPPSt4pairIiiEET_S4_, symObjAddr: 0x10C7C, symBinAddr: 0x10001183C, symSize: 0x14 }
  - { offset: 0x31625, size: 0x8, addend: 0x0, symName: __ZSt23__copy_move_backward_a1ILb0EPPiS1_ET1_T0_S3_S2_, symObjAddr: 0x10C50, symBinAddr: 0x100011810, symSize: 0x2C }
  - { offset: 0x3168D, size: 0x8, addend: 0x0, symName: __ZSt12__niter_wrapIPPiET_RKS2_S2_, symObjAddr: 0x10C38, symBinAddr: 0x1000117F8, symSize: 0x18 }
  - { offset: 0x316C9, size: 0x8, addend: 0x0, symName: __ZSt14__copy_move_a1ILb0EPPiS1_ET1_T0_S3_S2_, symObjAddr: 0x10C0C, symBinAddr: 0x1000117CC, symSize: 0x2C }
  - { offset: 0x31731, size: 0x8, addend: 0x0, symName: __ZSt12__niter_baseIPPiET_S2_, symObjAddr: 0x10BF8, symBinAddr: 0x1000117B8, symSize: 0x14 }
  - { offset: 0x31764, size: 0x8, addend: 0x0, symName: __ZSt8__fill_aIPiiEvT_S1_RKT0_, symObjAddr: 0x10BC8, symBinAddr: 0x100011788, symSize: 0x30 }
  - { offset: 0x317C2, size: 0x8, addend: 0x0, symName: __ZSt12__niter_baseIPKiET_S2_, symObjAddr: 0x10BB4, symBinAddr: 0x100011774, symSize: 0x14 }
  - { offset: 0x317FC, size: 0x8, addend: 0x0, symName: __ZSt7forwardIRKSt6vectorIiSaIiEEEOT_RNSt16remove_referenceIS5_E4typeE, symObjAddr: 0x10BA0, symBinAddr: 0x100011760, symSize: 0x14 }
  - { offset: 0x31832, size: 0x8, addend: 0x0, symName: __ZNK9__gnu_cxx17__normal_iteratorIPKSt6vectorIiSaIiEES1_IS3_SaIS3_EEE4baseEv, symObjAddr: 0x10B8C, symBinAddr: 0x10001174C, symSize: 0x14 }
  - { offset: 0x318C8, size: 0x8, addend: 0x0, symName: __ZN9__gnu_cxx16__aligned_membufISt4pairIiiEE7_M_addrEv, symObjAddr: 0x10B78, symBinAddr: 0x100011738, symSize: 0x14 }
  - { offset: 0x318EE, size: 0x8, addend: 0x0, symName: __ZSt12__niter_wrapIPiET_RKS1_S1_, symObjAddr: 0x10B60, symBinAddr: 0x100011720, symSize: 0x18 }
  - { offset: 0x3192A, size: 0x8, addend: 0x0, symName: __ZSt14__copy_move_a1ILb0EPKiPiET1_T0_S4_S3_, symObjAddr: 0x10B34, symBinAddr: 0x1000116F4, symSize: 0x2C }
  - { offset: 0x31992, size: 0x8, addend: 0x0, symName: __ZSt12__niter_baseIPKiSt6vectorIiSaIiEEET_N9__gnu_cxx17__normal_iteratorIS5_T0_EE, symObjAddr: 0x10B14, symBinAddr: 0x1000116D4, symSize: 0x20 }
  - { offset: 0x319CE, size: 0x8, addend: 0x0, symName: __ZSt14__relocate_a_1IPSt4pairIiiES2_SaIS1_EET0_T_S5_S4_RT1_, symObjAddr: 0x10A90, symBinAddr: 0x100011650, symSize: 0x84 }
  - { offset: 0x31A57, size: 0x8, addend: 0x0, symName: __ZSt12__niter_baseIPSt4pairIiiEET_S3_, symObjAddr: 0x10A7C, symBinAddr: 0x10001163C, symSize: 0x14 }
  - { offset: 0x31A8E, size: 0x8, addend: 0x0, symName: __ZNKSt12_Vector_baseISt4pairIiiESaIS1_EE19_M_get_Tp_allocatorEv, symObjAddr: 0x10A68, symBinAddr: 0x100011628, symSize: 0x14 }
  - { offset: 0x31AB4, size: 0x8, addend: 0x0, symName: __ZNSt6vectorISt4pairIiiESaIS1_EE11_S_max_sizeERKS2_, symObjAddr: 0x10A14, symBinAddr: 0x1000115D4, symSize: 0x54 }
  - { offset: 0x31B6B, size: 0x8, addend: 0x0, symName: __ZSt23__copy_move_backward_a1ILb0EPPcS1_ET1_T0_S3_S2_, symObjAddr: 0x109E8, symBinAddr: 0x1000115A8, symSize: 0x2C }
  - { offset: 0x31BD3, size: 0x8, addend: 0x0, symName: __ZSt12__niter_wrapIPPcET_RKS2_S2_, symObjAddr: 0x109D0, symBinAddr: 0x100011590, symSize: 0x18 }
  - { offset: 0x31C0F, size: 0x8, addend: 0x0, symName: __ZSt14__copy_move_a1ILb0EPPcS1_ET1_T0_S3_S2_, symObjAddr: 0x109A4, symBinAddr: 0x100011564, symSize: 0x2C }
  - { offset: 0x31C77, size: 0x8, addend: 0x0, symName: __ZSt12__niter_baseIPPcET_S2_, symObjAddr: 0x10990, symBinAddr: 0x100011550, symSize: 0x14 }
  - { offset: 0x31CAA, size: 0x8, addend: 0x0, symName: __ZNSt11__copy_moveILb0ELb1ESt26random_access_iterator_tagE8__copy_mIKccEEPT0_PT_S7_S5_, symObjAddr: 0x1090C, symBinAddr: 0x1000114CC, symSize: 0x84 }
  - { offset: 0x31D21, size: 0x8, addend: 0x0, symName: __ZNK9__gnu_cxx16__aligned_membufISt4pairIKcSt6vectorIcSaIcEEEE7_M_addrEv, symObjAddr: 0x108F8, symBinAddr: 0x1000114B8, symSize: 0x14 }
  - { offset: 0x31DAF, size: 0x8, addend: 0x0, symName: __ZNSt15__new_allocatorISt13_Rb_tree_nodeISt4pairIKcSt6vectorIcSaIcEEEEE8allocateEmPKv, symObjAddr: 0x1087C, symBinAddr: 0x10001143C, symSize: 0x7C }
  - { offset: 0x31E3F, size: 0x8, addend: 0x0, symName: __ZNK9__gnu_cxx16__aligned_membufISt4pairIKciEE7_M_addrEv, symObjAddr: 0x10868, symBinAddr: 0x100011428, symSize: 0x14 }
  - { offset: 0x31EDE, size: 0x8, addend: 0x0, symName: __ZNSt5tupleIJRKcEEC1EOS2_, symObjAddr: 0x10840, symBinAddr: 0x100011400, symSize: 0x28 }
  - { offset: 0x31F0D, size: 0x8, addend: 0x0, symName: __ZNSt15__new_allocatorISt13_Rb_tree_nodeISt4pairIKciEEE8allocateEmPKv, symObjAddr: 0x107B0, symBinAddr: 0x100011370, symSize: 0x90 }
  - { offset: 0x31F95, size: 0x8, addend: 0x0, symName: __ZSt13copy_backwardIPPSt4pairIiiES3_ET0_T_S5_S4_, symObjAddr: 0x10768, symBinAddr: 0x100011328, symSize: 0x48 }
  - { offset: 0x31FF3, size: 0x8, addend: 0x0, symName: __ZSt4copyIPPSt4pairIiiES3_ET0_T_S5_S4_, symObjAddr: 0x10720, symBinAddr: 0x1000112E0, symSize: 0x48 }
  - { offset: 0x3206B, size: 0x8, addend: 0x0, symName: __ZNSt15__new_allocatorISt4pairIiiEE8allocateEmPKv, symObjAddr: 0x106A4, symBinAddr: 0x100011264, symSize: 0x7C }
  - { offset: 0x320F3, size: 0x8, addend: 0x0, symName: __ZSt22__copy_move_backward_aILb0EPPiS1_ET1_T0_S3_S2_, symObjAddr: 0x10644, symBinAddr: 0x100011204, symSize: 0x60 }
  - { offset: 0x3215B, size: 0x8, addend: 0x0, symName: __ZSt13__copy_move_aILb0EPPiS1_ET1_T0_S3_S2_, symObjAddr: 0x105E4, symBinAddr: 0x1000111A4, symSize: 0x60 }
  - { offset: 0x321C3, size: 0x8, addend: 0x0, symName: __ZSt12__miter_baseIPPiET_S2_, symObjAddr: 0x105D0, symBinAddr: 0x100011190, symSize: 0x14 }
  - { offset: 0x321F6, size: 0x8, addend: 0x0, symName: __ZSt10__fill_n_aIPimiET_S1_T0_RKT1_St26random_access_iterator_tag, symObjAddr: 0x1056C, symBinAddr: 0x10001112C, symSize: 0x64 }
  - { offset: 0x3227C, size: 0x8, addend: 0x0, symName: __ZSt13__copy_move_aILb0EPKiPiET1_T0_S4_S3_, symObjAddr: 0x1050C, symBinAddr: 0x1000110CC, symSize: 0x60 }
  - { offset: 0x322E4, size: 0x8, addend: 0x0, symName: __ZSt12__miter_baseIPKiET_S2_, symObjAddr: 0x104F8, symBinAddr: 0x1000110B8, symSize: 0x14 }
  - { offset: 0x32317, size: 0x8, addend: 0x0, symName: __ZSt16__do_uninit_copyIPKSt6vectorIiSaIiEEPS2_ET0_T_S7_S6_, symObjAddr: 0x10464, symBinAddr: 0x100011024, symSize: 0x94 }
  - { offset: 0x32382, size: 0x8, addend: 0x0, symName: __ZSt10_ConstructISt6vectorIiSaIiEEJRKS2_EEvPT_DpOT0_, symObjAddr: 0x103E8, symBinAddr: 0x100010FA8, symSize: 0x7C }
  - { offset: 0x323D2, size: 0x8, addend: 0x0, symName: __ZNK9__gnu_cxx17__normal_iteratorIPKSt6vectorIiSaIiEES1_IS3_SaIS3_EEEdeEv, symObjAddr: 0x103D0, symBinAddr: 0x100010F90, symSize: 0x18 }
  - { offset: 0x323FC, size: 0x8, addend: 0x0, symName: __ZN9__gnu_cxx17__normal_iteratorIPKSt6vectorIiSaIiEES1_IS3_SaIS3_EEEppEv, symObjAddr: 0x103A8, symBinAddr: 0x100010F68, symSize: 0x28 }
  - { offset: 0x32429, size: 0x8, addend: 0x0, symName: __ZN9__gnu_cxxneIPKSt6vectorIiSaIiEES1_IS3_SaIS3_EEEEbRKNS_17__normal_iteratorIT_T0_EESD_, symObjAddr: 0x10364, symBinAddr: 0x100010F24, symSize: 0x44 }
  - { offset: 0x32476, size: 0x8, addend: 0x0, symName: __ZSt18__do_uninit_fill_nIPSt6vectorIiSaIiEEmS2_ET_S4_T0_RKT1_, symObjAddr: 0x102D4, symBinAddr: 0x100010E94, symSize: 0x90 }
  - { offset: 0x324EE, size: 0x8, addend: 0x0, symName: __ZSt10_ConstructISt6vectorIiSaIiEEJEEvPT_DpOT0_, symObjAddr: 0x102A0, symBinAddr: 0x100010E60, symSize: 0x34 }
  - { offset: 0x3252E, size: 0x8, addend: 0x0, symName: __ZNSt8_Rb_treeISt4pairIiiES1_St9_IdentityIS1_ESt4lessIS1_ESaIS1_EE17_M_construct_nodeIJS1_EEEvPSt13_Rb_tree_nodeIS1_EDpOT_, symObjAddr: 0x101F0, symBinAddr: 0x100010DB0, symSize: 0xB0 }
  - { offset: 0x325F1, size: 0x8, addend: 0x0, symName: __ZNSt8_Rb_treeISt4pairIiiES1_St9_IdentityIS1_ESt4lessIS1_ESaIS1_EE11_M_get_nodeEv, symObjAddr: 0x101B4, symBinAddr: 0x100010D74, symSize: 0x3C }
  - { offset: 0x32648, size: 0x8, addend: 0x0, symName: __ZNSt15__new_allocatorISt13_Rb_tree_nodeISt4pairIiiEEE10deallocateEPS3_m, symObjAddr: 0x10178, symBinAddr: 0x100010D38, symSize: 0x3C }
  - { offset: 0x326BE, size: 0x8, addend: 0x0, symName: __ZN9__gnu_cxx16__aligned_membufISt4pairIiiEE6_M_ptrEv, symObjAddr: 0x1015C, symBinAddr: 0x100010D1C, symSize: 0x1C }
  - { offset: 0x326E4, size: 0x8, addend: 0x0, symName: __ZSt13__copy_move_aILb0EN9__gnu_cxx17__normal_iteratorIPKiSt6vectorIiSaIiEEEEPiET1_T0_SA_S9_, symObjAddr: 0x100FC, symBinAddr: 0x100010CBC, symSize: 0x60 }
  - { offset: 0x3274C, size: 0x8, addend: 0x0, symName: __ZSt12__miter_baseIN9__gnu_cxx17__normal_iteratorIPKiSt6vectorIiSaIiEEEEET_S8_, symObjAddr: 0x100E8, symBinAddr: 0x100010CA8, symSize: 0x14 }
  - { offset: 0x3277F, size: 0x8, addend: 0x0, symName: __ZStgtIiiEbRKSt4pairIT_T0_ES5_, symObjAddr: 0x100C4, symBinAddr: 0x100010C84, symSize: 0x24 }
  - { offset: 0x327CC, size: 0x8, addend: 0x0, symName: __ZSt12__relocate_aIPSt4pairIiiES2_SaIS1_EET0_T_S5_S4_RT1_, symObjAddr: 0x10068, symBinAddr: 0x100010C28, symSize: 0x5C }
  - { offset: 0x32848, size: 0x8, addend: 0x0, symName: __ZNKSt6vectorISt4pairIiiESaIS1_EE4sizeEv, symObjAddr: 0x10040, symBinAddr: 0x100010C00, symSize: 0x28 }
  - { offset: 0x32872, size: 0x8, addend: 0x0, symName: __ZNKSt6vectorISt4pairIiiESaIS1_EE8max_sizeEv, symObjAddr: 0x10020, symBinAddr: 0x100010BE0, symSize: 0x20 }
  - { offset: 0x32898, size: 0x8, addend: 0x0, symName: __ZSt22__copy_move_backward_aILb0EPPcS1_ET1_T0_S3_S2_, symObjAddr: 0xFFC0, symBinAddr: 0x100010B80, symSize: 0x60 }
  - { offset: 0x32900, size: 0x8, addend: 0x0, symName: __ZSt13__copy_move_aILb0EPPcS1_ET1_T0_S3_S2_, symObjAddr: 0xFF60, symBinAddr: 0x100010B20, symSize: 0x60 }
  - { offset: 0x32968, size: 0x8, addend: 0x0, symName: __ZSt12__miter_baseIPPcET_S2_, symObjAddr: 0xFF4C, symBinAddr: 0x100010B0C, symSize: 0x14 }
  - { offset: 0x3299B, size: 0x8, addend: 0x0, symName: __ZSt14__copy_move_a2ILb0EPKcPcET1_T0_S4_S3_, symObjAddr: 0xFF20, symBinAddr: 0x100010AE0, symSize: 0x2C }
  - { offset: 0x32A1D, size: 0x8, addend: 0x0, symName: __ZNK9__gnu_cxx16__aligned_membufISt4pairIKcSt6vectorIcSaIcEEEE6_M_ptrEv, symObjAddr: 0xFF04, symBinAddr: 0x100010AC4, symSize: 0x1C }
  - { offset: 0x32A51, size: 0x8, addend: 0x0, symName: __ZSt7forwardIRPSt13_Rb_tree_nodeISt4pairIKcSt6vectorIcSaIcEEEEEOT_RNSt16remove_referenceISA_E4typeE, symObjAddr: 0xFEF0, symBinAddr: 0x100010AB0, symSize: 0x14 }
  - { offset: 0x32B03, size: 0x8, addend: 0x0, symName: __ZNK9__gnu_cxx16__aligned_membufISt4pairIKciEE6_M_ptrEv, symObjAddr: 0xFED4, symBinAddr: 0x100010A94, symSize: 0x1C }
  - { offset: 0x32B37, size: 0x8, addend: 0x0, symName: __ZSt7forwardIRPSt13_Rb_tree_nodeISt4pairIKciEEEOT_RNSt16remove_referenceIS7_E4typeE, symObjAddr: 0xFEC0, symBinAddr: 0x100010A80, symSize: 0x14 }
  - { offset: 0x32BE9, size: 0x8, addend: 0x0, symName: __ZNSt15__new_allocatorISt13_Rb_tree_nodeISt4pairIKciEEE10deallocateEPS4_m, symObjAddr: 0xFE84, symBinAddr: 0x100010A44, symSize: 0x3C }
  - { offset: 0x32C5F, size: 0x8, addend: 0x0, symName: __ZNSt15__new_allocatorISt13_Rb_tree_nodeISt4pairIKcSt6vectorIcSaIcEEEEE10deallocateEPS7_m, symObjAddr: 0xFE54, symBinAddr: 0x100010A14, symSize: 0x30 }
  - { offset: 0x32CFD, size: 0x8, addend: 0x0, symName: __ZNSt4pairIKcSt6vectorIcSaIcEEED1Ev, symObjAddr: 0xFE30, symBinAddr: 0x1000109F0, symSize: 0x24 }
  - { offset: 0x32D23, size: 0x8, addend: 0x0, symName: __ZNSt5dequeISt4pairIiiESaIS1_EE17_M_reallocate_mapEmb, symObjAddr: 0xFBEC, symBinAddr: 0x1000107AC, symSize: 0x244 }
  - { offset: 0x32DD4, size: 0x8, addend: 0x0, symName: __ZNSt5dequeISt4pairIiiESaIS1_EE11_S_max_sizeERKS2_, symObjAddr: 0xFB98, symBinAddr: 0x100010758, symSize: 0x54 }
  - { offset: 0x32E92, size: 0x8, addend: 0x0, symName: __ZStmiRKSt15_Deque_iteratorISt4pairIiiERS1_PS1_ES6_, symObjAddr: 0xFB04, symBinAddr: 0x1000106C4, symSize: 0x94 }
  - { offset: 0x32F0B, size: 0x8, addend: 0x0, symName: __ZNSt15__new_allocatorIPSt4pairIiiEE8allocateEmPKv, symObjAddr: 0xFA88, symBinAddr: 0x100010648, symSize: 0x7C }
  - { offset: 0x32F93, size: 0x8, addend: 0x0, symName: __ZSt13copy_backwardIPPiS1_ET0_T_S3_S2_, symObjAddr: 0xFA40, symBinAddr: 0x100010600, symSize: 0x48 }
  - { offset: 0x32FF1, size: 0x8, addend: 0x0, symName: __ZSt4copyIPPiS1_ET0_T_S3_S2_, symObjAddr: 0xF9F8, symBinAddr: 0x1000105B8, symSize: 0x48 }
  - { offset: 0x33069, size: 0x8, addend: 0x0, symName: __ZNSt15__new_allocatorIPiE8allocateEmPKv, symObjAddr: 0xF97C, symBinAddr: 0x10001053C, symSize: 0x7C }
  - { offset: 0x330F1, size: 0x8, addend: 0x0, symName: __ZSt6fill_nIPimiET_S1_T0_RKT1_, symObjAddr: 0xF934, symBinAddr: 0x1000104F4, symSize: 0x48 }
  - { offset: 0x33179, size: 0x8, addend: 0x0, symName: __ZSt4copyIPKiPiET0_T_S4_S3_, symObjAddr: 0xF8EC, symBinAddr: 0x1000104AC, symSize: 0x48 }
  - { offset: 0x331D7, size: 0x8, addend: 0x0, symName: __ZNSt20__uninitialized_copyILb0EE13__uninit_copyIPKSt6vectorIiSaIiEEPS4_EET0_T_S9_S8_, symObjAddr: 0xF8C0, symBinAddr: 0x100010480, symSize: 0x2C }
  - { offset: 0x33236, size: 0x8, addend: 0x0, symName: __ZNSt15__new_allocatorISt6vectorIiSaIiEEE8allocateEmPKv, symObjAddr: 0xF830, symBinAddr: 0x1000103F0, symSize: 0x90 }
  - { offset: 0x332BE, size: 0x8, addend: 0x0, symName: __ZSt16__do_uninit_copyIN9__gnu_cxx17__normal_iteratorIPKSt6vectorIiSaIiEES2_IS4_SaIS4_EEEEPS4_ET0_T_SC_SB_, symObjAddr: 0xF788, symBinAddr: 0x100010348, symSize: 0xA8 }
  - { offset: 0x33329, size: 0x8, addend: 0x0, symName: __ZNSt22__uninitialized_fill_nILb0EE15__uninit_fill_nIPSt6vectorIiSaIiEEmS4_EET_S6_T0_RKT1_, symObjAddr: 0xF75C, symBinAddr: 0x10001031C, symSize: 0x2C }
  - { offset: 0x33390, size: 0x8, addend: 0x0, symName: __ZSt8_DestroyISt6vectorIiSaIiEEEvPT_, symObjAddr: 0xF73C, symBinAddr: 0x1000102FC, symSize: 0x20 }
  - { offset: 0x333C2, size: 0x8, addend: 0x0, symName: __ZSt11__addressofISt6vectorIiSaIiEEEPT_RS3_, symObjAddr: 0xF728, symBinAddr: 0x1000102E8, symSize: 0x14 }
  - { offset: 0x333F4, size: 0x8, addend: 0x0, symName: __ZNSt27__uninitialized_default_n_1ILb0EE18__uninit_default_nIPSt6vectorIiSaIiEEmEET_S6_T0_, symObjAddr: 0xF6D0, symBinAddr: 0x100010290, symSize: 0x58 }
  - { offset: 0x33456, size: 0x8, addend: 0x0, symName: __ZNSt15__new_allocatorISt6vectorIiSaIiEEE10deallocateEPS2_m, symObjAddr: 0xF694, symBinAddr: 0x100010254, symSize: 0x3C }
  - { offset: 0x334B6, size: 0x8, addend: 0x0, symName: __ZNSt8_Rb_treeISt4pairIiiES1_St9_IdentityIS1_ESt4lessIS1_ESaIS1_EE14_M_create_nodeIJS1_EEEPSt13_Rb_tree_nodeIS1_EDpOT_, symObjAddr: 0xF654, symBinAddr: 0x100010214, symSize: 0x40 }
  - { offset: 0x33516, size: 0x8, addend: 0x0, symName: __ZSt7forwardIRPSt13_Rb_tree_nodeISt4pairIiiEEEOT_RNSt16remove_referenceIS6_E4typeE, symObjAddr: 0xF640, symBinAddr: 0x100010200, symSize: 0x14 }
  - { offset: 0x33548, size: 0x8, addend: 0x0, symName: __ZStltIiiEbRKSt4pairIT_T0_ES5_, symObjAddr: 0xF5D8, symBinAddr: 0x100010198, symSize: 0x68 }
  - { offset: 0x33599, size: 0x8, addend: 0x0, symName: __ZNKSt9_IdentityISt4pairIiiEEclERKS1_, symObjAddr: 0xF5C0, symBinAddr: 0x100010180, symSize: 0x18 }
  - { offset: 0x33633, size: 0x8, addend: 0x0, symName: __ZNSt13_Rb_tree_nodeISt4pairIiiEE9_M_valptrEv, symObjAddr: 0xF5A0, symBinAddr: 0x100010160, symSize: 0x20 }
  - { offset: 0x3365D, size: 0x8, addend: 0x0, symName: __ZNSt8_Rb_treeISt4pairIiiES1_St9_IdentityIS1_ESt4lessIS1_ESaIS1_EE21_M_get_Node_allocatorEv, symObjAddr: 0xF58C, symBinAddr: 0x10001014C, symSize: 0x14 }
  - { offset: 0x33683, size: 0x8, addend: 0x0, symName: __ZSt4copyIN9__gnu_cxx17__normal_iteratorIPKiSt6vectorIiSaIiEEEEPiET0_T_SA_S9_, symObjAddr: 0xF544, symBinAddr: 0x100010104, symSize: 0x48 }
  - { offset: 0x3370C, size: 0x8, addend: 0x0, symName: __ZN9__gnu_cxx5__ops14_Iter_comp_valISt7greaterISt4pairIiiEEEC1EONS0_15_Iter_comp_iterIS5_EE, symObjAddr: 0xF520, symBinAddr: 0x1000100E0, symSize: 0x24 }
  - { offset: 0x33745, size: 0x8, addend: 0x0, symName: __ZSt4moveIRN9__gnu_cxx5__ops15_Iter_comp_iterISt7greaterISt4pairIiiEEEEEONSt16remove_referenceIT_E4typeEOSA_, symObjAddr: 0xF50C, symBinAddr: 0x1000100CC, symSize: 0x14 }
  - { offset: 0x3377B, size: 0x8, addend: 0x0, symName: __ZN9__gnu_cxx5__ops15_Iter_comp_iterISt7greaterISt4pairIiiEEEclINS_17__normal_iteratorIPS4_St6vectorIS4_SaIS4_EEEESD_EEbT_T0_, symObjAddr: 0xF4C0, symBinAddr: 0x100010080, symSize: 0x4C }
  - { offset: 0x337D7, size: 0x8, addend: 0x0, symName: __ZNKSt7greaterISt4pairIiiEEclERKS1_S4_, symObjAddr: 0xF498, symBinAddr: 0x100010058, symSize: 0x28 }
  - { offset: 0x3381F, size: 0x8, addend: 0x0, symName: __ZNSt6vectorISt4pairIiiESaIS1_EE11_S_relocateEPS1_S4_S4_RS2_, symObjAddr: 0xF464, symBinAddr: 0x100010024, symSize: 0x34 }
  - { offset: 0x3387C, size: 0x8, addend: 0x0, symName: __ZSt12__to_addressISt4pairIiiEEPT_S3_, symObjAddr: 0xF450, symBinAddr: 0x100010010, symSize: 0x14 }
  - { offset: 0x338B2, size: 0x8, addend: 0x0, symName: __ZNSt12_Vector_baseISt4pairIiiESaIS1_EE11_M_allocateEm, symObjAddr: 0xF400, symBinAddr: 0x10000FFC0, symSize: 0x50 }
  - { offset: 0x3391A, size: 0x8, addend: 0x0, symName: __ZNKSt6vectorISt4pairIiiESaIS1_EE12_M_check_lenEmPKc, symObjAddr: 0xF330, symBinAddr: 0x10000FEF0, symSize: 0xD0 }
  - { offset: 0x33977, size: 0x8, addend: 0x0, symName: __ZNSt15__new_allocatorISt4pairIiiEE10deallocateEPS1_m, symObjAddr: 0xF300, symBinAddr: 0x10000FEC0, symSize: 0x30 }
  - { offset: 0x339BD, size: 0x8, addend: 0x0, symName: __ZSt13copy_backwardIPPcS1_ET0_T_S3_S2_, symObjAddr: 0xF2B8, symBinAddr: 0x10000FE78, symSize: 0x48 }
  - { offset: 0x33A1B, size: 0x8, addend: 0x0, symName: __ZSt4copyIPPcS1_ET0_T_S3_S2_, symObjAddr: 0xF270, symBinAddr: 0x10000FE30, symSize: 0x48 }
  - { offset: 0x33A93, size: 0x8, addend: 0x0, symName: __ZNSt15__new_allocatorIPcE8allocateEmPKv, symObjAddr: 0xF1F4, symBinAddr: 0x10000FDB4, symSize: 0x7C }
  - { offset: 0x33B1B, size: 0x8, addend: 0x0, symName: __ZSt14__relocate_a_1IccENSt9enable_ifIXsrSt24__is_bitwise_relocatableIT_vE5valueEPS2_E4typeES4_S4_S4_RSaIT0_E, symObjAddr: 0xF19C, symBinAddr: 0x10000FD5C, symSize: 0x58 }
  - { offset: 0x33B9F, size: 0x8, addend: 0x0, symName: __ZNKSt12_Vector_baseIcSaIcEE19_M_get_Tp_allocatorEv, symObjAddr: 0xF188, symBinAddr: 0x10000FD48, symSize: 0x14 }
  - { offset: 0x33BC5, size: 0x8, addend: 0x0, symName: __ZNSt20__uninitialized_copyILb1EE13__uninit_copyIPKcPcEET0_T_S6_S5_, symObjAddr: 0xF15C, symBinAddr: 0x10000FD1C, symSize: 0x2C }
  - { offset: 0x33C20, size: 0x8, addend: 0x0, symName: __ZSt12__niter_wrapIPcET_RKS1_S1_, symObjAddr: 0xF144, symBinAddr: 0x10000FD04, symSize: 0x18 }
  - { offset: 0x33C5C, size: 0x8, addend: 0x0, symName: __ZSt14__copy_move_a1ILb0EPKcPcET1_T0_S4_S3_, symObjAddr: 0xF118, symBinAddr: 0x10000FCD8, symSize: 0x2C }
  - { offset: 0x33CC4, size: 0x8, addend: 0x0, symName: __ZSt12__niter_baseIPcET_S1_, symObjAddr: 0xF104, symBinAddr: 0x10000FCC4, symSize: 0x14 }
  - { offset: 0x33CF7, size: 0x8, addend: 0x0, symName: __ZSt12__niter_baseIPKcET_S2_, symObjAddr: 0xF0F0, symBinAddr: 0x10000FCB0, symSize: 0x14 }
  - { offset: 0x33D44, size: 0x8, addend: 0x0, symName: __ZNKSt10_Select1stISt4pairIKcSt6vectorIcSaIcEEEEclERKS5_, symObjAddr: 0xF0D8, symBinAddr: 0x10000FC98, symSize: 0x18 }
  - { offset: 0x33D7F, size: 0x8, addend: 0x0, symName: __ZNKSt13_Rb_tree_nodeISt4pairIKcSt6vectorIcSaIcEEEE9_M_valptrEv, symObjAddr: 0xF0B8, symBinAddr: 0x10000FC78, symSize: 0x20 }
  - { offset: 0x33DF1, size: 0x8, addend: 0x0, symName: __ZNSt4pairIPSt18_Rb_tree_node_baseS1_EC1IRPSt13_Rb_tree_nodeIS_IKcSt6vectorIcSaIcEEEERS1_Lb1EEEOT_OT0_, symObjAddr: 0xF070, symBinAddr: 0x10000FC30, symSize: 0x48 }
  - { offset: 0x33E3B, size: 0x8, addend: 0x0, symName: __ZNSt8_Rb_treeIcSt4pairIKcSt6vectorIcSaIcEEESt10_Select1stIS5_ESt4lessIcESaIS5_EE5beginEv, symObjAddr: 0xF048, symBinAddr: 0x10000FC08, symSize: 0x28 }
  - { offset: 0x33E65, size: 0x8, addend: 0x0, symName: __ZNSt8_Rb_treeIcSt4pairIKcSt6vectorIcSaIcEEESt10_Select1stIS5_ESt4lessIcESaIS5_EE17_M_construct_nodeIJRKSt21piecewise_construct_tSt5tupleIJRS1_EESG_IJEEEEEvPSt13_Rb_tree_nodeIS5_EDpOT_, symObjAddr: 0xEECC, symBinAddr: 0x10000FA8C, symSize: 0x17C }
  - { offset: 0x33F66, size: 0x8, addend: 0x0, symName: __ZNSt8_Rb_treeIcSt4pairIKcSt6vectorIcSaIcEEESt10_Select1stIS5_ESt4lessIcESaIS5_EE11_M_get_nodeEv, symObjAddr: 0xEE90, symBinAddr: 0x10000FA50, symSize: 0x3C }
  - { offset: 0x33FC1, size: 0x8, addend: 0x0, symName: __ZN9__gnu_cxx16__aligned_membufISt4pairIKcSt6vectorIcSaIcEEEE7_M_addrEv, symObjAddr: 0xEE7C, symBinAddr: 0x10000FA3C, symSize: 0x14 }
  - { offset: 0x33FEB, size: 0x8, addend: 0x0, symName: __ZNKSt10_Select1stISt4pairIKciEEclERKS2_, symObjAddr: 0xEE64, symBinAddr: 0x10000FA24, symSize: 0x18 }
  - { offset: 0x34026, size: 0x8, addend: 0x0, symName: __ZNKSt13_Rb_tree_nodeISt4pairIKciEE9_M_valptrEv, symObjAddr: 0xEE44, symBinAddr: 0x10000FA04, symSize: 0x20 }
  - { offset: 0x34053, size: 0x8, addend: 0x0, symName: __ZSt7forwardIRPSt18_Rb_tree_node_baseEOT_RNSt16remove_referenceIS3_E4typeE, symObjAddr: 0xEE30, symBinAddr: 0x10000F9F0, symSize: 0x14 }
  - { offset: 0x340D1, size: 0x8, addend: 0x0, symName: __ZNSt4pairIPSt18_Rb_tree_node_baseS1_EC1IRPSt13_Rb_tree_nodeIS_IKciEERS1_Lb1EEEOT_OT0_, symObjAddr: 0xEDE8, symBinAddr: 0x10000F9A8, symSize: 0x48 }
  - { offset: 0x3411B, size: 0x8, addend: 0x0, symName: __ZNSt8_Rb_treeIcSt4pairIKciESt10_Select1stIS2_ESt4lessIcESaIS2_EE17_M_construct_nodeIJRKSt21piecewise_construct_tSt5tupleIJRS1_EESD_IJEEEEEvPSt13_Rb_tree_nodeIS2_EDpOT_, symObjAddr: 0xEC6C, symBinAddr: 0x10000F82C, symSize: 0x17C }
  - { offset: 0x3421C, size: 0x8, addend: 0x0, symName: __ZNSt8_Rb_treeIcSt4pairIKciESt10_Select1stIS2_ESt4lessIcESaIS2_EE11_M_get_nodeEv, symObjAddr: 0xEC30, symBinAddr: 0x10000F7F0, symSize: 0x3C }
  - { offset: 0x342D2, size: 0x8, addend: 0x0, symName: __ZNSt8_Rb_treeIcSt4pairIKciESt10_Select1stIS2_ESt4lessIcESaIS2_EE21_M_get_Node_allocatorEv, symObjAddr: 0xEC1C, symBinAddr: 0x10000F7DC, symSize: 0x14 }
  - { offset: 0x3435B, size: 0x8, addend: 0x0, symName: __ZNSt8_Rb_treeIcSt4pairIKcSt6vectorIcSaIcEEESt10_Select1stIS5_ESt4lessIcESaIS5_EE21_M_get_Node_allocatorEv, symObjAddr: 0xEC08, symBinAddr: 0x10000F7C8, symSize: 0x14 }
  - { offset: 0x34385, size: 0x8, addend: 0x0, symName: __ZNSt15_Deque_iteratorISt4pairIiiERS1_PS1_EmmEv, symObjAddr: 0xEB9C, symBinAddr: 0x10000F75C, symSize: 0x6C }
  - { offset: 0x343AF, size: 0x8, addend: 0x0, symName: __ZNSt5dequeISt4pairIiiESaIS1_EE22_M_reserve_map_at_backEm, symObjAddr: 0xEB3C, symBinAddr: 0x10000F6FC, symSize: 0x60 }
  - { offset: 0x343EA, size: 0x8, addend: 0x0, symName: __ZNKSt5dequeISt4pairIiiESaIS1_EE8max_sizeEv, symObjAddr: 0xEB1C, symBinAddr: 0x10000F6DC, symSize: 0x20 }
  - { offset: 0x34414, size: 0x8, addend: 0x0, symName: __ZNKSt5dequeISt4pairIiiESaIS1_EE4sizeEv, symObjAddr: 0xEAEC, symBinAddr: 0x10000F6AC, symSize: 0x30 }
  - { offset: 0x34480, size: 0x8, addend: 0x0, symName: __ZNSt15__new_allocatorIPSt4pairIiiEE10deallocateEPS2_m, symObjAddr: 0xEABC, symBinAddr: 0x10000F67C, symSize: 0x30 }
  - { offset: 0x344EE, size: 0x8, addend: 0x0, symName: __ZNSt15__new_allocatorIPSt4pairIiiEED2Ev, symObjAddr: 0xEAA8, symBinAddr: 0x10000F668, symSize: 0x14 }
  - { offset: 0x34538, size: 0x8, addend: 0x0, symName: __ZNKSt11_Deque_baseISt4pairIiiESaIS1_EE19_M_get_Tp_allocatorEv, symObjAddr: 0xEA94, symBinAddr: 0x10000F654, symSize: 0x14 }
  - { offset: 0x3455E, size: 0x8, addend: 0x0, symName: __ZNSt15_Deque_iteratorISt4pairIiiERS1_PS1_E14_S_buffer_sizeEv, symObjAddr: 0xEA7C, symBinAddr: 0x10000F63C, symSize: 0x18 }
  - { offset: 0x3457A, size: 0x8, addend: 0x0, symName: __ZNSt11_Deque_baseISt4pairIiiESaIS1_EE16_M_allocate_nodeEv, symObjAddr: 0xEA38, symBinAddr: 0x10000F5F8, symSize: 0x44 }
  - { offset: 0x3460F, size: 0x8, addend: 0x0, symName: __ZNSt15_Deque_iteratorISt4pairIiiERS1_PS1_EC1Ev, symObjAddr: 0xEA04, symBinAddr: 0x10000F5C4, symSize: 0x34 }
  - { offset: 0x34635, size: 0x8, addend: 0x0, symName: __ZNSt5dequeIiSaIiEE17_M_reallocate_mapEmb, symObjAddr: 0xE7C0, symBinAddr: 0x10000F380, symSize: 0x244 }
  - { offset: 0x346E6, size: 0x8, addend: 0x0, symName: __ZNSt5dequeIiSaIiEE11_S_max_sizeERKS0_, symObjAddr: 0xE76C, symBinAddr: 0x10000F32C, symSize: 0x54 }
  - { offset: 0x347A1, size: 0x8, addend: 0x0, symName: __ZNSt15_Deque_iteratorIiRiPiEmmEv, symObjAddr: 0xE700, symBinAddr: 0x10000F2C0, symSize: 0x6C }
  - { offset: 0x3480D, size: 0x8, addend: 0x0, symName: __ZNSt15__new_allocatorIPiE10deallocateEPS0_m, symObjAddr: 0xE6D0, symBinAddr: 0x10000F290, symSize: 0x30 }
  - { offset: 0x3487B, size: 0x8, addend: 0x0, symName: __ZNSt15__new_allocatorIPiED2Ev, symObjAddr: 0xE6BC, symBinAddr: 0x10000F27C, symSize: 0x14 }
  - { offset: 0x348C5, size: 0x8, addend: 0x0, symName: __ZNKSt11_Deque_baseIiSaIiEE19_M_get_Tp_allocatorEv, symObjAddr: 0xE6A8, symBinAddr: 0x10000F268, symSize: 0x14 }
  - { offset: 0x3492D, size: 0x8, addend: 0x0, symName: __ZNSt15_Deque_iteratorIiRiPiEC1Ev, symObjAddr: 0xE674, symBinAddr: 0x10000F234, symSize: 0x34 }
  - { offset: 0x3494F, size: 0x8, addend: 0x0, symName: __ZNSt22__uninitialized_fill_nILb1EE15__uninit_fill_nIPimiEET_S3_T0_RKT1_, symObjAddr: 0xE648, symBinAddr: 0x10000F208, symSize: 0x2C }
  - { offset: 0x349CC, size: 0x8, addend: 0x0, symName: __ZNSt20__uninitialized_copyILb1EE13__uninit_copyIPKiPiEET0_T_S6_S5_, symObjAddr: 0xE61C, symBinAddr: 0x10000F1DC, symSize: 0x2C }
  - { offset: 0x34A27, size: 0x8, addend: 0x0, symName: __ZSt14__relocate_a_1IiiENSt9enable_ifIXsrSt24__is_bitwise_relocatableIT_vE5valueEPS2_E4typeES4_S4_S4_RSaIT0_E, symObjAddr: 0xE5B8, symBinAddr: 0x10000F178, symSize: 0x64 }
  - { offset: 0x34AA7, size: 0x8, addend: 0x0, symName: __ZSt12__niter_baseIPiET_S1_, symObjAddr: 0xE5A4, symBinAddr: 0x10000F164, symSize: 0x14 }
  - { offset: 0x34ADE, size: 0x8, addend: 0x0, symName: __ZNSt15__new_allocatorIiE8allocateEmPKv, symObjAddr: 0xE528, symBinAddr: 0x10000F0E8, symSize: 0x7C }
  - { offset: 0x34B6A, size: 0x8, addend: 0x0, symName: __ZNSt15__new_allocatorIcE8allocateEmPKv, symObjAddr: 0xE4C4, symBinAddr: 0x10000F084, symSize: 0x64 }
  - { offset: 0x34BF2, size: 0x8, addend: 0x0, symName: __ZSt18uninitialized_copyIPKSt6vectorIiSaIiEEPS2_ET0_T_S7_S6_, symObjAddr: 0xE490, symBinAddr: 0x10000F050, symSize: 0x34 }
  - { offset: 0x34C91, size: 0x8, addend: 0x0, symName: __ZNSt20__uninitialized_copyILb0EE13__uninit_copyIN9__gnu_cxx17__normal_iteratorIPKSt6vectorIiSaIiEES4_IS6_SaIS6_EEEEPS6_EET0_T_SE_SD_, symObjAddr: 0xE464, symBinAddr: 0x10000F024, symSize: 0x2C }
  - { offset: 0x34CEC, size: 0x8, addend: 0x0, symName: __ZSt20uninitialized_fill_nIPSt6vectorIiSaIiEEmS2_ET_S4_T0_RKT1_, symObjAddr: 0xE434, symBinAddr: 0x10000EFF4, symSize: 0x30 }
  - { offset: 0x34D64, size: 0x8, addend: 0x0, symName: __ZNSt12_Destroy_auxILb0EE9__destroyIPSt6vectorIiSaIiEEEEvT_S6_, symObjAddr: 0xE3E8, symBinAddr: 0x10000EFA8, symSize: 0x4C }
  - { offset: 0x34DA6, size: 0x8, addend: 0x0, symName: __ZSt25__uninitialized_default_nIPSt6vectorIiSaIiEEmET_S4_T0_, symObjAddr: 0xE3BC, symBinAddr: 0x10000EF7C, symSize: 0x2C }
  - { offset: 0x34E54, size: 0x8, addend: 0x0, symName: __ZNSt12_Vector_baseISt6vectorIiSaIiEESaIS2_EE17_Vector_impl_dataC2Ev, symObjAddr: 0xE390, symBinAddr: 0x10000EF50, symSize: 0x2C }
  - { offset: 0x34EA7, size: 0x8, addend: 0x0, symName: __ZNSt15_Deque_iteratorIiRiPiE14_S_buffer_sizeEv, symObjAddr: 0xE378, symBinAddr: 0x10000EF38, symSize: 0x18 }
  - { offset: 0x34EC3, size: 0x8, addend: 0x0, symName: __ZNSt8_Rb_treeISt4pairIiiES1_St9_IdentityIS1_ESt4lessIS1_ESaIS1_EE12_M_erase_auxESt23_Rb_tree_const_iteratorIS1_E, symObjAddr: 0xE320, symBinAddr: 0x10000EEE0, symSize: 0x58 }
  - { offset: 0x34F0F, size: 0x8, addend: 0x0, symName: __ZNSt23_Rb_tree_const_iteratorISt4pairIiiEEppEi, symObjAddr: 0xE2E0, symBinAddr: 0x10000EEA0, symSize: 0x40 }
  - { offset: 0x34F56, size: 0x8, addend: 0x0, symName: __ZStneRKSt23_Rb_tree_const_iteratorISt4pairIiiEES4_, symObjAddr: 0xE2B0, symBinAddr: 0x10000EE70, symSize: 0x30 }
  - { offset: 0x34F95, size: 0x8, addend: 0x0, symName: __ZNSt8_Rb_treeISt4pairIiiES1_St9_IdentityIS1_ESt4lessIS1_ESaIS1_EE5clearEv, symObjAddr: 0xE278, symBinAddr: 0x10000EE38, symSize: 0x38 }
  - { offset: 0x34FBF, size: 0x8, addend: 0x0, symName: __ZNSt8_Rb_treeISt4pairIiiES1_St9_IdentityIS1_ESt4lessIS1_ESaIS1_EE3endEv, symObjAddr: 0xE250, symBinAddr: 0x10000EE10, symSize: 0x28 }
  - { offset: 0x34FE5, size: 0x8, addend: 0x0, symName: __ZSteqRKSt23_Rb_tree_const_iteratorISt4pairIiiEES4_, symObjAddr: 0xE220, symBinAddr: 0x10000EDE0, symSize: 0x30 }
  - { offset: 0x3506C, size: 0x8, addend: 0x0, symName: __ZNSt4pairISt17_Rb_tree_iteratorIS_IiiEES2_EC1IS2_S2_Lb1EEEOT_OT0_, symObjAddr: 0xE1D0, symBinAddr: 0x10000ED90, symSize: 0x50 }
  - { offset: 0x350B6, size: 0x8, addend: 0x0, symName: __ZNSt8_Rb_treeISt4pairIiiES1_St9_IdentityIS1_ESt4lessIS1_ESaIS1_EE14_M_upper_boundEPSt13_Rb_tree_nodeIS1_EPSt18_Rb_tree_node_baseRKS1_, symObjAddr: 0xE13C, symBinAddr: 0x10000ECFC, symSize: 0x94 }
  - { offset: 0x35113, size: 0x8, addend: 0x0, symName: __ZNSt8_Rb_treeISt4pairIiiES1_St9_IdentityIS1_ESt4lessIS1_ESaIS1_EE14_M_lower_boundEPSt13_Rb_tree_nodeIS1_EPSt18_Rb_tree_node_baseRKS1_, symObjAddr: 0xE0A0, symBinAddr: 0x10000EC60, symSize: 0x9C }
  - { offset: 0x35174, size: 0x8, addend: 0x0, symName: __ZNK9__gnu_cxx16__aligned_membufISt4pairIiiEE7_M_addrEv, symObjAddr: 0xE08C, symBinAddr: 0x10000EC4C, symSize: 0x14 }
  - { offset: 0x351A1, size: 0x8, addend: 0x0, symName: __ZSt7forwardISt17_Rb_tree_iteratorISt4pairIiiEEEOT_RNSt16remove_referenceIS4_E4typeE, symObjAddr: 0xE078, symBinAddr: 0x10000EC38, symSize: 0x14 }
  - { offset: 0x351E2, size: 0x8, addend: 0x0, symName: __ZNKSt8_Rb_treeISt4pairIiiES1_St9_IdentityIS1_ESt4lessIS1_ESaIS1_EE11_Alloc_nodeclIS1_EEPSt13_Rb_tree_nodeIS1_EOT_, symObjAddr: 0xE03C, symBinAddr: 0x10000EBFC, symSize: 0x3C }
  - { offset: 0x35222, size: 0x8, addend: 0x0, symName: __ZNSt8_Rb_treeISt4pairIiiES1_St9_IdentityIS1_ESt4lessIS1_ESaIS1_EE6_S_keyEPKSt18_Rb_tree_node_base, symObjAddr: 0xE020, symBinAddr: 0x10000EBE0, symSize: 0x1C }
  - { offset: 0x35250, size: 0x8, addend: 0x0, symName: __ZNSt17_Rb_tree_iteratorISt4pairIiiEEmmEv, symObjAddr: 0xDFF0, symBinAddr: 0x10000EBB0, symSize: 0x30 }
  - { offset: 0x352C2, size: 0x8, addend: 0x0, symName: __ZNSt4pairIPSt18_Rb_tree_node_baseS1_EC1IRPSt13_Rb_tree_nodeIS_IiiEERS1_Lb1EEEOT_OT0_, symObjAddr: 0xDFA8, symBinAddr: 0x10000EB68, symSize: 0x48 }
  - { offset: 0x3530F, size: 0x8, addend: 0x0, symName: __ZSteqRKSt17_Rb_tree_iteratorISt4pairIiiEES4_, symObjAddr: 0xDF78, symBinAddr: 0x10000EB38, symSize: 0x30 }
  - { offset: 0x3534E, size: 0x8, addend: 0x0, symName: __ZNSt8_Rb_treeISt4pairIiiES1_St9_IdentityIS1_ESt4lessIS1_ESaIS1_EE5beginEv, symObjAddr: 0xDF50, symBinAddr: 0x10000EB10, symSize: 0x28 }
  - { offset: 0x35378, size: 0x8, addend: 0x0, symName: __ZNKSt4lessISt4pairIiiEEclERKS1_S4_, symObjAddr: 0xDF28, symBinAddr: 0x10000EAE8, symSize: 0x28 }
  - { offset: 0x353C0, size: 0x8, addend: 0x0, symName: __ZNSt8_Rb_treeISt4pairIiiES1_St9_IdentityIS1_ESt4lessIS1_ESaIS1_EE6_S_keyEPKSt13_Rb_tree_nodeIS1_E, symObjAddr: 0xDF00, symBinAddr: 0x10000EAC0, symSize: 0x28 }
  - { offset: 0x353EE, size: 0x8, addend: 0x0, symName: __ZNSt8_Rb_treeISt4pairIiiES1_St9_IdentityIS1_ESt4lessIS1_ESaIS1_EE6_M_endEv, symObjAddr: 0xDEE8, symBinAddr: 0x10000EAA8, symSize: 0x18 }
  - { offset: 0x35418, size: 0x8, addend: 0x0, symName: __ZNSt8_Rb_treeISt4pairIiiES1_St9_IdentityIS1_ESt4lessIS1_ESaIS1_EE11_M_put_nodeEPSt13_Rb_tree_nodeIS1_E, symObjAddr: 0xDE9C, symBinAddr: 0x10000EA5C, symSize: 0x4C }
  - { offset: 0x35489, size: 0x8, addend: 0x0, symName: __ZNSt8_Rb_treeISt4pairIiiES1_St9_IdentityIS1_ESt4lessIS1_ESaIS1_EE15_M_destroy_nodeEPSt13_Rb_tree_nodeIS1_E, symObjAddr: 0xDE44, symBinAddr: 0x10000EA04, symSize: 0x58 }
  - { offset: 0x3551A, size: 0x8, addend: 0x0, symName: __ZNSt20__uninitialized_copyILb1EE13__uninit_copyIN9__gnu_cxx17__normal_iteratorIPKiSt6vectorIiSaIiEEEEPiEET0_T_SC_SB_, symObjAddr: 0xDE18, symBinAddr: 0x10000E9D8, symSize: 0x2C }
  - { offset: 0x35575, size: 0x8, addend: 0x0, symName: __ZSt13__adjust_heapIN9__gnu_cxx17__normal_iteratorIPSt4pairIiiESt6vectorIS3_SaIS3_EEEElS3_NS0_5__ops15_Iter_comp_iterISt7greaterIS3_EEEEvT_T0_SF_T1_T2_, symObjAddr: 0xDC40, symBinAddr: 0x10000E800, symSize: 0x1D8 }
  - { offset: 0x3563B, size: 0x8, addend: 0x0, symName: __ZNK9__gnu_cxx17__normal_iteratorIPKSt4pairIiiESt6vectorIS2_SaIS2_EEE4baseEv, symObjAddr: 0xDC2C, symBinAddr: 0x10000E7EC, symSize: 0x14 }
  - { offset: 0x3568D, size: 0x8, addend: 0x0, symName: __ZN9__gnu_cxx17__normal_iteratorIPKSt4pairIiiESt6vectorIS2_SaIS2_EEEC1ERKS4_, symObjAddr: 0xDC04, symBinAddr: 0x10000E7C4, symSize: 0x28 }
  - { offset: 0x356BC, size: 0x8, addend: 0x0, symName: __ZNSt4pairIiiEaSEOS0_, symObjAddr: 0xDBBC, symBinAddr: 0x10000E77C, symSize: 0x48 }
  - { offset: 0x356F7, size: 0x8, addend: 0x0, symName: __ZN9__gnu_cxx5__ops14_Iter_comp_valISt7greaterISt4pairIiiEEEclINS_17__normal_iteratorIPS4_St6vectorIS4_SaIS4_EEEES4_EEbT_RT0_, symObjAddr: 0xDB7C, symBinAddr: 0x10000E73C, symSize: 0x40 }
  - { offset: 0x35753, size: 0x8, addend: 0x0, symName: __ZNK9__gnu_cxx17__normal_iteratorIPSt4pairIiiESt6vectorIS2_SaIS2_EEEplEl, symObjAddr: 0xDB3C, symBinAddr: 0x10000E6FC, symSize: 0x40 }
  - { offset: 0x3578E, size: 0x8, addend: 0x0, symName: __ZNK9__gnu_cxx17__normal_iteratorIPSt4pairIiiESt6vectorIS2_SaIS2_EEE4baseEv, symObjAddr: 0xDB28, symBinAddr: 0x10000E6E8, symSize: 0x14 }
  - { offset: 0x357B8, size: 0x8, addend: 0x0, symName: __ZNSt6vectorISt4pairIiiESaIS1_EE4backEv, symObjAddr: 0xDAF0, symBinAddr: 0x10000E6B0, symSize: 0x38 }
  - { offset: 0x357E2, size: 0x8, addend: 0x0, symName: __ZNSt6vectorISt4pairIiiESaIS1_EE17_M_realloc_appendIJS1_EEEvDpOT_, symObjAddr: 0xD934, symBinAddr: 0x10000E4F4, symSize: 0x1BC }
  - { offset: 0x35967, size: 0x8, addend: 0x0, symName: __ZZNSt6vectorISt4pairIiiESaIS1_EE17_M_realloc_appendIJS1_EEEvDpOT_EN6_GuardC1EPS1_mRS2_, symObjAddr: 0xD890, symBinAddr: 0x10000E450, symSize: 0x44 }
  - { offset: 0x359AC, size: 0x8, addend: 0x0, symName: __ZZNSt6vectorISt4pairIiiESaIS1_EE17_M_realloc_appendIJS1_EEEvDpOT_EN6_GuardD1Ev, symObjAddr: 0xD8D4, symBinAddr: 0x10000E494, symSize: 0x60 }
  - { offset: 0x35A9B, size: 0x8, addend: 0x0, symName: __ZNSt12_Destroy_auxILb1EE9__destroyIPSt4pairIiiEEEvT_S5_, symObjAddr: 0xD878, symBinAddr: 0x10000E438, symSize: 0x18 }
  - { offset: 0x35B1B, size: 0x8, addend: 0x0, symName: __ZNSt5dequeIcSaIcEE17_M_reallocate_mapEmb, symObjAddr: 0xD634, symBinAddr: 0x10000E1F4, symSize: 0x244 }
  - { offset: 0x35BCC, size: 0x8, addend: 0x0, symName: __ZNSt5dequeIcSaIcEE11_S_max_sizeERKS0_, symObjAddr: 0xD5E0, symBinAddr: 0x10000E1A0, symSize: 0x54 }
  - { offset: 0x35C8B, size: 0x8, addend: 0x0, symName: __ZN9__gnu_cxx16__aligned_membufISt4pairIKciEE7_M_addrEv, symObjAddr: 0xD5CC, symBinAddr: 0x10000E18C, symSize: 0x14 }
  - { offset: 0x35CB5, size: 0x8, addend: 0x0, symName: __ZNSt15__new_allocatorIPcE10deallocateEPS0_m, symObjAddr: 0xD59C, symBinAddr: 0x10000E15C, symSize: 0x30 }
  - { offset: 0x35D23, size: 0x8, addend: 0x0, symName: __ZNSt15__new_allocatorIPcED2Ev, symObjAddr: 0xD588, symBinAddr: 0x10000E148, symSize: 0x14 }
  - { offset: 0x35D6D, size: 0x8, addend: 0x0, symName: __ZNKSt11_Deque_baseIcSaIcEE19_M_get_Tp_allocatorEv, symObjAddr: 0xD574, symBinAddr: 0x10000E134, symSize: 0x14 }
  - { offset: 0x35DD5, size: 0x8, addend: 0x0, symName: __ZNSt15_Deque_iteratorIcRcPcEC1Ev, symObjAddr: 0xD540, symBinAddr: 0x10000E100, symSize: 0x34 }
  - { offset: 0x35DF7, size: 0x8, addend: 0x0, symName: __ZSt12__relocate_aIPcS0_SaIcEET0_T_S3_S2_RT1_, symObjAddr: 0xD4E4, symBinAddr: 0x10000E0A4, symSize: 0x5C }
  - { offset: 0x35E73, size: 0x8, addend: 0x0, symName: __ZNK9__gnu_cxx17__normal_iteratorIPcSt6vectorIcSaIcEEE4baseEv, symObjAddr: 0xD4D0, symBinAddr: 0x10000E090, symSize: 0x14 }
  - { offset: 0x35EC5, size: 0x8, addend: 0x0, symName: __ZN9__gnu_cxx17__normal_iteratorIPcSt6vectorIcSaIcEEEC1ERKS1_, symObjAddr: 0xD4A8, symBinAddr: 0x10000E068, symSize: 0x28 }
  - { offset: 0x35EF4, size: 0x8, addend: 0x0, symName: __ZNKSt6vectorIcSaIcEE8max_sizeEv, symObjAddr: 0xD488, symBinAddr: 0x10000E048, symSize: 0x20 }
  - { offset: 0x35F1A, size: 0x8, addend: 0x0, symName: __ZSt18uninitialized_copyIPKcPcET0_T_S4_S3_, symObjAddr: 0xD44C, symBinAddr: 0x10000E00C, symSize: 0x3C }
  - { offset: 0x35F95, size: 0x8, addend: 0x0, symName: __ZSt9__advanceIPKclEvRT_T0_St26random_access_iterator_tag, symObjAddr: 0xD418, symBinAddr: 0x10000DFD8, symSize: 0x34 }
  - { offset: 0x35FE9, size: 0x8, addend: 0x0, symName: __ZSt13__copy_move_aILb0EPKcPcET1_T0_S4_S3_, symObjAddr: 0xD3B8, symBinAddr: 0x10000DF78, symSize: 0x60 }
  - { offset: 0x36051, size: 0x8, addend: 0x0, symName: __ZSt12__miter_baseIPKcET_S2_, symObjAddr: 0xD3A4, symBinAddr: 0x10000DF64, symSize: 0x14 }
  - { offset: 0x36084, size: 0x8, addend: 0x0, symName: __ZNSt6vectorIcSaIcEE11_S_max_sizeERKS0_, symObjAddr: 0xD350, symBinAddr: 0x10000DF10, symSize: 0x54 }
  - { offset: 0x3613F, size: 0x8, addend: 0x0, symName: __ZNSt8_Rb_treeIcSt4pairIKcSt6vectorIcSaIcEEESt10_Select1stIS5_ESt4lessIcESaIS5_EE14_M_insert_nodeEPSt18_Rb_tree_node_baseSD_PSt13_Rb_tree_nodeIS5_E, symObjAddr: 0xD280, symBinAddr: 0x10000DE40, symSize: 0xD0 }
  - { offset: 0x361A9, size: 0x8, addend: 0x0, symName: __ZNSt8_Rb_treeIcSt4pairIKcSt6vectorIcSaIcEEESt10_Select1stIS5_ESt4lessIcESaIS5_EE6_S_keyEPKSt13_Rb_tree_nodeIS5_E, symObjAddr: 0xD258, symBinAddr: 0x10000DE18, symSize: 0x28 }
  - { offset: 0x361D7, size: 0x8, addend: 0x0, symName: __ZNSt17_Rb_tree_iteratorISt4pairIKcSt6vectorIcSaIcEEEEppEv, symObjAddr: 0xD228, symBinAddr: 0x10000DDE8, symSize: 0x30 }
  - { offset: 0x36201, size: 0x8, addend: 0x0, symName: __ZNSt17_Rb_tree_iteratorISt4pairIKcSt6vectorIcSaIcEEEEmmEv, symObjAddr: 0xD1F8, symBinAddr: 0x10000DDB8, symSize: 0x30 }
  - { offset: 0x3622B, size: 0x8, addend: 0x0, symName: __ZNSt8_Rb_treeIcSt4pairIKcSt6vectorIcSaIcEEESt10_Select1stIS5_ESt4lessIcESaIS5_EE11_M_leftmostEv, symObjAddr: 0xD1E0, symBinAddr: 0x10000DDA0, symSize: 0x18 }
  - { offset: 0x36255, size: 0x8, addend: 0x0, symName: __ZNSt8_Rb_treeIcSt4pairIKcSt6vectorIcSaIcEEESt10_Select1stIS5_ESt4lessIcESaIS5_EE24_M_get_insert_unique_posERS1_, symObjAddr: 0xD088, symBinAddr: 0x10000DC48, symSize: 0x158 }
  - { offset: 0x362D5, size: 0x8, addend: 0x0, symName: __ZNSt8_Rb_treeIcSt4pairIKcSt6vectorIcSaIcEEESt10_Select1stIS5_ESt4lessIcESaIS5_EE6_S_keyEPKSt18_Rb_tree_node_base, symObjAddr: 0xD06C, symBinAddr: 0x10000DC2C, symSize: 0x1C }
  - { offset: 0x36303, size: 0x8, addend: 0x0, symName: __ZNSt8_Rb_treeIcSt4pairIKcSt6vectorIcSaIcEEESt10_Select1stIS5_ESt4lessIcESaIS5_EE12_M_rightmostEv, symObjAddr: 0xD054, symBinAddr: 0x10000DC14, symSize: 0x18 }
  - { offset: 0x3632D, size: 0x8, addend: 0x0, symName: __ZNKSt23_Rb_tree_const_iteratorISt4pairIKcSt6vectorIcSaIcEEEE13_M_const_castEv, symObjAddr: 0xD02C, symBinAddr: 0x10000DBEC, symSize: 0x28 }
  - { offset: 0x36357, size: 0x8, addend: 0x0, symName: __ZNSt8_Rb_treeIcSt4pairIKcSt6vectorIcSaIcEEESt10_Select1stIS5_ESt4lessIcESaIS5_EE14_M_create_nodeIJRKSt21piecewise_construct_tSt5tupleIJRS1_EESG_IJEEEEEPSt13_Rb_tree_nodeIS5_EDpOT_, symObjAddr: 0xCFBC, symBinAddr: 0x10000DB7C, symSize: 0x70 }
  - { offset: 0x363C9, size: 0x8, addend: 0x0, symName: __ZN9__gnu_cxx16__aligned_membufISt4pairIKcSt6vectorIcSaIcEEEE6_M_ptrEv, symObjAddr: 0xCFA0, symBinAddr: 0x10000DB60, symSize: 0x1C }
  - { offset: 0x363F3, size: 0x8, addend: 0x0, symName: __ZNSt8_Rb_treeIcSt4pairIKcSt6vectorIcSaIcEEESt10_Select1stIS5_ESt4lessIcESaIS5_EE14_M_lower_boundEPSt13_Rb_tree_nodeIS5_EPSt18_Rb_tree_node_baseRS1_, symObjAddr: 0xCF04, symBinAddr: 0x10000DAC4, symSize: 0x9C }
  - { offset: 0x36450, size: 0x8, addend: 0x0, symName: __ZNSt8_Rb_treeIcSt4pairIKcSt6vectorIcSaIcEEESt10_Select1stIS5_ESt4lessIcESaIS5_EE6_M_endEv, symObjAddr: 0xCEEC, symBinAddr: 0x10000DAAC, symSize: 0x18 }
  - { offset: 0x3647A, size: 0x8, addend: 0x0, symName: __ZNSt8_Rb_treeIcSt4pairIKciESt10_Select1stIS2_ESt4lessIcESaIS2_EE14_M_insert_nodeEPSt18_Rb_tree_node_baseSA_PSt13_Rb_tree_nodeIS2_E, symObjAddr: 0xCE1C, symBinAddr: 0x10000D9DC, symSize: 0xD0 }
  - { offset: 0x364E4, size: 0x8, addend: 0x0, symName: __ZNSt8_Rb_treeIcSt4pairIKciESt10_Select1stIS2_ESt4lessIcESaIS2_EE6_S_keyEPKSt13_Rb_tree_nodeIS2_E, symObjAddr: 0xCDF4, symBinAddr: 0x10000D9B4, symSize: 0x28 }
  - { offset: 0x36512, size: 0x8, addend: 0x0, symName: __ZNSt17_Rb_tree_iteratorISt4pairIKciEEmmEv, symObjAddr: 0xCDC4, symBinAddr: 0x10000D984, symSize: 0x30 }
  - { offset: 0x36584, size: 0x8, addend: 0x0, symName: __ZNSt4pairIPSt18_Rb_tree_node_baseS1_EC1IRS1_S4_Lb1EEEOT_OT0_, symObjAddr: 0xCD7C, symBinAddr: 0x10000D93C, symSize: 0x48 }
  - { offset: 0x365CE, size: 0x8, addend: 0x0, symName: __ZNSt8_Rb_treeIcSt4pairIKciESt10_Select1stIS2_ESt4lessIcESaIS2_EE11_M_leftmostEv, symObjAddr: 0xCD64, symBinAddr: 0x10000D924, symSize: 0x18 }
  - { offset: 0x365F8, size: 0x8, addend: 0x0, symName: __ZNSt8_Rb_treeIcSt4pairIKciESt10_Select1stIS2_ESt4lessIcESaIS2_EE24_M_get_insert_unique_posERS1_, symObjAddr: 0xCC0C, symBinAddr: 0x10000D7CC, symSize: 0x158 }
  - { offset: 0x366C4, size: 0x8, addend: 0x0, symName: __ZNSt4pairIPSt18_Rb_tree_node_baseS1_EC1IS1_S1_Lb1EEERKS1_S5_, symObjAddr: 0xCBD0, symBinAddr: 0x10000D790, symSize: 0x3C }
  - { offset: 0x3670A, size: 0x8, addend: 0x0, symName: __ZNSt8_Rb_treeIcSt4pairIKciESt10_Select1stIS2_ESt4lessIcESaIS2_EE6_S_keyEPKSt18_Rb_tree_node_base, symObjAddr: 0xCBB4, symBinAddr: 0x10000D774, symSize: 0x1C }
  - { offset: 0x36738, size: 0x8, addend: 0x0, symName: __ZNSt8_Rb_treeIcSt4pairIKciESt10_Select1stIS2_ESt4lessIcESaIS2_EE12_M_rightmostEv, symObjAddr: 0xCB9C, symBinAddr: 0x10000D75C, symSize: 0x18 }
  - { offset: 0x36762, size: 0x8, addend: 0x0, symName: __ZNKSt8_Rb_treeIcSt4pairIKciESt10_Select1stIS2_ESt4lessIcESaIS2_EE4sizeEv, symObjAddr: 0xCB84, symBinAddr: 0x10000D744, symSize: 0x18 }
  - { offset: 0x3678C, size: 0x8, addend: 0x0, symName: __ZNKSt23_Rb_tree_const_iteratorISt4pairIKciEE13_M_const_castEv, symObjAddr: 0xCB5C, symBinAddr: 0x10000D71C, symSize: 0x28 }
  - { offset: 0x367B6, size: 0x8, addend: 0x0, symName: __ZNSt8_Rb_treeIcSt4pairIKciESt10_Select1stIS2_ESt4lessIcESaIS2_EE14_M_create_nodeIJRKSt21piecewise_construct_tSt5tupleIJRS1_EESD_IJEEEEEPSt13_Rb_tree_nodeIS2_EDpOT_, symObjAddr: 0xCAEC, symBinAddr: 0x10000D6AC, symSize: 0x70 }
  - { offset: 0x3684F, size: 0x8, addend: 0x0, symName: __ZNSt10_Head_baseILm0ERKcLb0EEC2ES1_, symObjAddr: 0xCAC8, symBinAddr: 0x10000D688, symSize: 0x24 }
  - { offset: 0x3687E, size: 0x8, addend: 0x0, symName: __ZNSt8_Rb_treeIcSt4pairIKciESt10_Select1stIS2_ESt4lessIcESaIS2_EE14_M_lower_boundEPSt13_Rb_tree_nodeIS2_EPSt18_Rb_tree_node_baseRS1_, symObjAddr: 0xCA2C, symBinAddr: 0x10000D5EC, symSize: 0x9C }
  - { offset: 0x368DB, size: 0x8, addend: 0x0, symName: __ZNSt8_Rb_treeIcSt4pairIKciESt10_Select1stIS2_ESt4lessIcESaIS2_EE6_M_endEv, symObjAddr: 0xCA14, symBinAddr: 0x10000D5D4, symSize: 0x18 }
  - { offset: 0x36905, size: 0x8, addend: 0x0, symName: __ZNSt8_Rb_treeIcSt4pairIKciESt10_Select1stIS2_ESt4lessIcESaIS2_EE11_M_put_nodeEPSt13_Rb_tree_nodeIS2_E, symObjAddr: 0xC9C8, symBinAddr: 0x10000D588, symSize: 0x4C }
  - { offset: 0x36976, size: 0x8, addend: 0x0, symName: __ZNSt8_Rb_treeIcSt4pairIKciESt10_Select1stIS2_ESt4lessIcESaIS2_EE15_M_destroy_nodeEPSt13_Rb_tree_nodeIS2_E, symObjAddr: 0xC970, symBinAddr: 0x10000D530, symSize: 0x58 }
  - { offset: 0x36A0B, size: 0x8, addend: 0x0, symName: __ZNSt8_Rb_treeIcSt4pairIKcSt6vectorIcSaIcEEESt10_Select1stIS5_ESt4lessIcESaIS5_EE11_M_put_nodeEPSt13_Rb_tree_nodeIS5_E, symObjAddr: 0xC924, symBinAddr: 0x10000D4E4, symSize: 0x4C }
  - { offset: 0x36A7C, size: 0x8, addend: 0x0, symName: __ZNSt8_Rb_treeIcSt4pairIKcSt6vectorIcSaIcEEESt10_Select1stIS5_ESt4lessIcESaIS5_EE15_M_destroy_nodeEPSt13_Rb_tree_nodeIS5_E, symObjAddr: 0xC8C4, symBinAddr: 0x10000D484, symSize: 0x60 }
  - { offset: 0x36B0D, size: 0x8, addend: 0x0, symName: __ZNSt12_Destroy_auxILb1EE9__destroyIPcEEvT_S3_, symObjAddr: 0xC8AC, symBinAddr: 0x10000D46C, symSize: 0x18 }
  - { offset: 0x36B71, size: 0x8, addend: 0x0, symName: __ZNSt5dequeISt4pairIiiESaIS1_EE4backEv, symObjAddr: 0xC878, symBinAddr: 0x10000D438, symSize: 0x34 }
  - { offset: 0x36BAC, size: 0x8, addend: 0x0, symName: __ZNSt5dequeISt4pairIiiESaIS1_EE16_M_push_back_auxIJS1_EEEvDpOT_, symObjAddr: 0xC758, symBinAddr: 0x10000D318, symSize: 0x120 }
  - { offset: 0x36CF3, size: 0x8, addend: 0x0, symName: __ZNKSt11_Deque_baseISt4pairIiiESaIS1_EE20_M_get_map_allocatorEv, symObjAddr: 0xC710, symBinAddr: 0x10000D2D0, symSize: 0x48 }
  - { offset: 0x36D6D, size: 0x8, addend: 0x0, symName: __ZNSt11_Deque_baseISt4pairIiiESaIS1_EE18_M_deallocate_nodeEPS1_, symObjAddr: 0xC6B8, symBinAddr: 0x10000D278, symSize: 0x58 }
  - { offset: 0x36DDE, size: 0x8, addend: 0x0, symName: __ZNSt15_Deque_iteratorISt4pairIiiERS1_PS1_E11_M_set_nodeEPS3_, symObjAddr: 0xC65C, symBinAddr: 0x10000D21C, symSize: 0x5C }
  - { offset: 0x36E19, size: 0x8, addend: 0x0, symName: __ZNSt11_Deque_baseISt4pairIiiESaIS1_EE15_M_create_nodesEPPS1_S5_, symObjAddr: 0xC5D0, symBinAddr: 0x10000D190, symSize: 0x8C }
  - { offset: 0x36E76, size: 0x8, addend: 0x0, symName: __ZNSt11_Deque_baseISt4pairIiiESaIS1_EE15_M_allocate_mapEm, symObjAddr: 0xC550, symBinAddr: 0x10000D110, symSize: 0x80 }
  - { offset: 0x36F48, size: 0x8, addend: 0x0, symName: __ZNSt11_Deque_baseISt4pairIiiESaIS1_EE16_Deque_impl_dataC2Ev, symObjAddr: 0xC510, symBinAddr: 0x10000D0D0, symSize: 0x40 }
  - { offset: 0x36F6E, size: 0x8, addend: 0x0, symName: __ZNSt11_Deque_baseIiSaIiEE16_M_allocate_nodeEv, symObjAddr: 0xC4CC, symBinAddr: 0x10000D08C, symSize: 0x44 }
  - { offset: 0x36FC5, size: 0x8, addend: 0x0, symName: __ZNSt5dequeIiSaIiEE22_M_reserve_map_at_backEm, symObjAddr: 0xC46C, symBinAddr: 0x10000D02C, symSize: 0x60 }
  - { offset: 0x37000, size: 0x8, addend: 0x0, symName: __ZNKSt5dequeIiSaIiEE8max_sizeEv, symObjAddr: 0xC44C, symBinAddr: 0x10000D00C, symSize: 0x20 }
  - { offset: 0x37056, size: 0x8, addend: 0x0, symName: __ZNSt5dequeIiSaIiEE4backEv, symObjAddr: 0xC418, symBinAddr: 0x10000CFD8, symSize: 0x34 }
  - { offset: 0x37091, size: 0x8, addend: 0x0, symName: __ZNSt5dequeIiSaIiEE16_M_push_back_auxIJiEEEvDpOT_, symObjAddr: 0xC2F8, symBinAddr: 0x10000CEB8, symSize: 0x120 }
  - { offset: 0x371D8, size: 0x8, addend: 0x0, symName: __ZNKSt11_Deque_baseIiSaIiEE20_M_get_map_allocatorEv, symObjAddr: 0xC2B0, symBinAddr: 0x10000CE70, symSize: 0x48 }
  - { offset: 0x37252, size: 0x8, addend: 0x0, symName: __ZNSt11_Deque_baseIiSaIiEE18_M_deallocate_nodeEPi, symObjAddr: 0xC258, symBinAddr: 0x10000CE18, symSize: 0x58 }
  - { offset: 0x372C3, size: 0x8, addend: 0x0, symName: __ZNSt15_Deque_iteratorIiRiPiE11_M_set_nodeEPS1_, symObjAddr: 0xC1FC, symBinAddr: 0x10000CDBC, symSize: 0x5C }
  - { offset: 0x372FE, size: 0x8, addend: 0x0, symName: __ZNSt11_Deque_baseIiSaIiEE15_M_create_nodesEPPiS3_, symObjAddr: 0xC170, symBinAddr: 0x10000CD30, symSize: 0x8C }
  - { offset: 0x3735B, size: 0x8, addend: 0x0, symName: __ZNSt11_Deque_baseIiSaIiEE15_M_allocate_mapEm, symObjAddr: 0xC0F0, symBinAddr: 0x10000CCB0, symSize: 0x80 }
  - { offset: 0x3742D, size: 0x8, addend: 0x0, symName: __ZNSt11_Deque_baseIiSaIiEE16_Deque_impl_dataC2Ev, symObjAddr: 0xC0B0, symBinAddr: 0x10000CC70, symSize: 0x40 }
  - { offset: 0x3744F, size: 0x8, addend: 0x0, symName: __ZSt20uninitialized_fill_nIPimiET_S1_T0_RKT1_, symObjAddr: 0xC07C, symBinAddr: 0x10000CC3C, symSize: 0x34 }
  - { offset: 0x374DD, size: 0x8, addend: 0x0, symName: __ZSt18uninitialized_copyIPKiPiET0_T_S4_S3_, symObjAddr: 0xC040, symBinAddr: 0x10000CC00, symSize: 0x3C }
  - { offset: 0x37558, size: 0x8, addend: 0x0, symName: __ZSt12__relocate_aIPiS0_SaIiEET0_T_S3_S2_RT1_, symObjAddr: 0xBFE4, symBinAddr: 0x10000CBA4, symSize: 0x5C }
  - { offset: 0x375F8, size: 0x8, addend: 0x0, symName: __ZNKSt6vectorIiSaIiEE8max_sizeEv, symObjAddr: 0xBFC4, symBinAddr: 0x10000CB84, symSize: 0x20 }
  - { offset: 0x37622, size: 0x8, addend: 0x0, symName: __ZNSt15__new_allocatorIiE10deallocateEPim, symObjAddr: 0xBF94, symBinAddr: 0x10000CB54, symSize: 0x30 }
  - { offset: 0x37668, size: 0x8, addend: 0x0, symName: __ZNSt12_Destroy_auxILb1EE9__destroyIPiEEvT_S3_, symObjAddr: 0xBF7C, symBinAddr: 0x10000CB3C, symSize: 0x18 }
  - { offset: 0x376C4, size: 0x8, addend: 0x0, symName: __ZNSt15__new_allocatorIcE10deallocateEPcm, symObjAddr: 0xBF54, symBinAddr: 0x10000CB14, symSize: 0x28 }
  - { offset: 0x3770A, size: 0x8, addend: 0x0, symName: __ZSt22__uninitialized_copy_aIPKSt6vectorIiSaIiEEPS2_S2_ET0_T_S7_S6_RSaIT1_E, symObjAddr: 0xBF24, symBinAddr: 0x10000CAE4, symSize: 0x30 }
  - { offset: 0x3777E, size: 0x8, addend: 0x0, symName: __ZNSt12_Vector_baseISt6vectorIiSaIiEESaIS2_EE11_M_allocateEm, symObjAddr: 0xBED4, symBinAddr: 0x10000CA94, symSize: 0x50 }
  - { offset: 0x3782C, size: 0x8, addend: 0x0, symName: __ZNKSt16initializer_listISt6vectorIiSaIiEEE4sizeEv, symObjAddr: 0xBEBC, symBinAddr: 0x10000CA7C, symSize: 0x18 }
  - { offset: 0x37852, size: 0x8, addend: 0x0, symName: __ZSt18uninitialized_copyIN9__gnu_cxx17__normal_iteratorIPKSt6vectorIiSaIiEES2_IS4_SaIS4_EEEEPS4_ET0_T_SC_SB_, symObjAddr: 0xBE88, symBinAddr: 0x10000CA48, symSize: 0x34 }
  - { offset: 0x378F9, size: 0x8, addend: 0x0, symName: __ZN9__gnu_cxx17__normal_iteratorIPKSt6vectorIiSaIiEES1_IS3_SaIS3_EEEC1ERKS5_, symObjAddr: 0xBE60, symBinAddr: 0x10000CA20, symSize: 0x28 }
  - { offset: 0x3793A, size: 0x8, addend: 0x0, symName: __ZSt24__uninitialized_fill_n_aIPSt6vectorIiSaIiEEmS2_S2_ET_S4_T0_RKT1_RSaIT2_E, symObjAddr: 0xBE30, symBinAddr: 0x10000C9F0, symSize: 0x30 }
  - { offset: 0x379B3, size: 0x8, addend: 0x0, symName: __ZSt8_DestroyIPSt6vectorIiSaIiEEEvT_S4_, symObjAddr: 0xBE08, symBinAddr: 0x10000C9C8, symSize: 0x28 }
  - { offset: 0x379F5, size: 0x8, addend: 0x0, symName: __ZSt27__uninitialized_default_n_aIPSt6vectorIiSaIiEEmS2_ET_S4_T0_RSaIT1_E, symObjAddr: 0xBDE0, symBinAddr: 0x10000C9A0, symSize: 0x28 }
  - { offset: 0x37A58, size: 0x8, addend: 0x0, symName: __ZNSt12_Vector_baseISt6vectorIiSaIiEESaIS2_EE13_M_deallocateEPS2_m, symObjAddr: 0xBD88, symBinAddr: 0x10000C948, symSize: 0x58 }
  - { offset: 0x37ADA, size: 0x8, addend: 0x0, symName: __ZNSt12_Vector_baseISt6vectorIiSaIiEESaIS2_EE17_M_create_storageEm, symObjAddr: 0xBD1C, symBinAddr: 0x10000C8DC, symSize: 0x6C }
  - { offset: 0x37B3C, size: 0x8, addend: 0x0, symName: __ZNSt12_Vector_baseISt6vectorIiSaIiEESaIS2_EE12_Vector_implC1ERKS3_, symObjAddr: 0xBCD0, symBinAddr: 0x10000C890, symSize: 0x4C }
  - { offset: 0x37BE2, size: 0x8, addend: 0x0, symName: __ZNSt6vectorIS_IiSaIiEESaIS1_EE11_S_max_sizeERKS2_, symObjAddr: 0xBC74, symBinAddr: 0x10000C834, symSize: 0x5C }
  - { offset: 0x37CA0, size: 0x8, addend: 0x0, symName: __ZStmiRKSt15_Deque_iteratorIiRiPiES4_, symObjAddr: 0xBBE0, symBinAddr: 0x10000C7A0, symSize: 0x94 }
  - { offset: 0x37CDF, size: 0x8, addend: 0x0, symName: __ZNSt8_Rb_treeISt4pairIiiES1_St9_IdentityIS1_ESt4lessIS1_ESaIS1_EE12_M_erase_auxESt23_Rb_tree_const_iteratorIS1_ES9_, symObjAddr: 0xBB0C, symBinAddr: 0x10000C6CC, symSize: 0xD4 }
  - { offset: 0x37D2B, size: 0x8, addend: 0x0, symName: __ZNKSt8_Rb_treeISt4pairIiiES1_St9_IdentityIS1_ESt4lessIS1_ESaIS1_EE4sizeEv, symObjAddr: 0xBAF4, symBinAddr: 0x10000C6B4, symSize: 0x18 }
  - { offset: 0x37D55, size: 0x8, addend: 0x0, symName: __ZNSt8_Rb_treeISt4pairIiiES1_St9_IdentityIS1_ESt4lessIS1_ESaIS1_EE11equal_rangeERKS1_, symObjAddr: 0xB990, symBinAddr: 0x10000C550, symSize: 0x164 }
  - { offset: 0x37DE9, size: 0x8, addend: 0x0, symName: __ZNK9__gnu_cxx16__aligned_membufISt4pairIiiEE6_M_ptrEv, symObjAddr: 0xB974, symBinAddr: 0x10000C534, symSize: 0x1C }
  - { offset: 0x37E3B, size: 0x8, addend: 0x0, symName: __ZNSt23_Rb_tree_const_iteratorISt4pairIiiEEC1EPKSt18_Rb_tree_node_base, symObjAddr: 0xB950, symBinAddr: 0x10000C510, symSize: 0x24 }
  - { offset: 0x37E92, size: 0x8, addend: 0x0, symName: __ZNSt23_Rb_tree_const_iteratorISt4pairIiiEEC1ERKSt17_Rb_tree_iteratorIS1_E, symObjAddr: 0xB928, symBinAddr: 0x10000C4E8, symSize: 0x28 }
  - { offset: 0x37EC4, size: 0x8, addend: 0x0, symName: __ZSt7forwardIRbEOT_RNSt16remove_referenceIS1_E4typeE, symObjAddr: 0xB914, symBinAddr: 0x10000C4D4, symSize: 0x14 }
  - { offset: 0x37EFD, size: 0x8, addend: 0x0, symName: __ZSt7forwardIRSt17_Rb_tree_iteratorISt4pairIiiEEEOT_RNSt16remove_referenceIS5_E4typeE, symObjAddr: 0xB900, symBinAddr: 0x10000C4C0, symSize: 0x14 }
  - { offset: 0x37F5B, size: 0x8, addend: 0x0, symName: __ZNSt17_Rb_tree_iteratorISt4pairIiiEEC1EPSt18_Rb_tree_node_base, symObjAddr: 0xB8DC, symBinAddr: 0x10000C49C, symSize: 0x24 }
  - { offset: 0x37FD2, size: 0x8, addend: 0x0, symName: __ZNSt4pairISt17_Rb_tree_iteratorIS_IiiEEbEC1IS2_bLb1EEEOT_OT0_, symObjAddr: 0xB890, symBinAddr: 0x10000C450, symSize: 0x4C }
  - { offset: 0x38023, size: 0x8, addend: 0x0, symName: __ZNSt8_Rb_treeISt4pairIiiES1_St9_IdentityIS1_ESt4lessIS1_ESaIS1_EE10_M_insert_IS1_NS7_11_Alloc_nodeEEESt17_Rb_tree_iteratorIS1_EPSt18_Rb_tree_node_baseSD_OT_RT0_, symObjAddr: 0xB7A0, symBinAddr: 0x10000C360, symSize: 0xF0 }
  - { offset: 0x380C9, size: 0x8, addend: 0x0, symName: __ZSt7forwardISt4pairIiiEEOT_RNSt16remove_referenceIS2_E4typeE, symObjAddr: 0xB78C, symBinAddr: 0x10000C34C, symSize: 0x14 }
  - { offset: 0x38127, size: 0x8, addend: 0x0, symName: __ZNSt8_Rb_treeISt4pairIiiES1_St9_IdentityIS1_ESt4lessIS1_ESaIS1_EE11_Alloc_nodeC1ERS7_, symObjAddr: 0xB768, symBinAddr: 0x10000C328, symSize: 0x24 }
  - { offset: 0x38156, size: 0x8, addend: 0x0, symName: __ZNKSt9_IdentityISt4pairIiiEEclERS1_, symObjAddr: 0xB750, symBinAddr: 0x10000C310, symSize: 0x18 }
  - { offset: 0x38191, size: 0x8, addend: 0x0, symName: __ZNSt8_Rb_treeISt4pairIiiES1_St9_IdentityIS1_ESt4lessIS1_ESaIS1_EE24_M_get_insert_unique_posERKS1_, symObjAddr: 0xB5F8, symBinAddr: 0x10000C1B8, symSize: 0x158 }
  - { offset: 0x38215, size: 0x8, addend: 0x0, symName: __ZNKSt8_Rb_treeISt4pairIiiES1_St9_IdentityIS1_ESt4lessIS1_ESaIS1_EE9_M_mbeginEv, symObjAddr: 0xB5E0, symBinAddr: 0x10000C1A0, symSize: 0x18 }
  - { offset: 0x3823F, size: 0x8, addend: 0x0, symName: __ZNSt8_Rb_treeISt4pairIiiES1_St9_IdentityIS1_ESt4lessIS1_ESaIS1_EE12_M_drop_nodeEPSt13_Rb_tree_nodeIS1_E, symObjAddr: 0xB5AC, symBinAddr: 0x10000C16C, symSize: 0x34 }
  - { offset: 0x38276, size: 0x8, addend: 0x0, symName: __ZNSt8_Rb_treeISt4pairIiiES1_St9_IdentityIS1_ESt4lessIS1_ESaIS1_EE7_S_leftEPSt18_Rb_tree_node_base, symObjAddr: 0xB594, symBinAddr: 0x10000C154, symSize: 0x18 }
  - { offset: 0x382A0, size: 0x8, addend: 0x0, symName: __ZNSt8_Rb_treeISt4pairIiiES1_St9_IdentityIS1_ESt4lessIS1_ESaIS1_EE8_S_rightEPSt18_Rb_tree_node_base, symObjAddr: 0xB57C, symBinAddr: 0x10000C13C, symSize: 0x18 }
  - { offset: 0x382FB, size: 0x8, addend: 0x0, symName: __ZSt18uninitialized_copyIN9__gnu_cxx17__normal_iteratorIPKiSt6vectorIiSaIiEEEEPiET0_T_SA_S9_, symObjAddr: 0xB540, symBinAddr: 0x10000C100, symSize: 0x3C }
  - { offset: 0x383A2, size: 0x8, addend: 0x0, symName: __ZN9__gnu_cxx17__normal_iteratorIPKiSt6vectorIiSaIiEEEC1ERKS2_, symObjAddr: 0xB518, symBinAddr: 0x10000C0D8, symSize: 0x28 }
  - { offset: 0x383E3, size: 0x8, addend: 0x0, symName: __ZSt10__pop_heapIN9__gnu_cxx17__normal_iteratorIPSt4pairIiiESt6vectorIS3_SaIS3_EEEENS0_5__ops15_Iter_comp_iterISt7greaterIS3_EEEEvT_SE_SE_RT0_, symObjAddr: 0xB480, symBinAddr: 0x10000C040, symSize: 0x98 }
  - { offset: 0x3847D, size: 0x8, addend: 0x0, symName: __ZN9__gnu_cxx17__normal_iteratorIPSt4pairIiiESt6vectorIS2_SaIS2_EEEmmEv, symObjAddr: 0xB458, symBinAddr: 0x10000C018, symSize: 0x28 }
  - { offset: 0x384A7, size: 0x8, addend: 0x0, symName: __ZNK9__gnu_cxx17__normal_iteratorIPKSt4pairIiiESt6vectorIS2_SaIS2_EEEdeEv, symObjAddr: 0xB440, symBinAddr: 0x10000C000, symSize: 0x18 }
  - { offset: 0x384D4, size: 0x8, addend: 0x0, symName: __ZN9__gnu_cxxeqIPKSt4pairIiiESt6vectorIS2_SaIS2_EEEEbRKNS_17__normal_iteratorIT_T0_EESD_, symObjAddr: 0xB3FC, symBinAddr: 0x10000BFBC, symSize: 0x44 }
  - { offset: 0x38525, size: 0x8, addend: 0x0, symName: __ZNKSt6vectorISt4pairIiiESaIS1_EE3endEv, symObjAddr: 0xB3D4, symBinAddr: 0x10000BF94, symSize: 0x28 }
  - { offset: 0x3854F, size: 0x8, addend: 0x0, symName: __ZNKSt6vectorISt4pairIiiESaIS1_EE5beginEv, symObjAddr: 0xB3B0, symBinAddr: 0x10000BF70, symSize: 0x24 }
  - { offset: 0x3857C, size: 0x8, addend: 0x0, symName: __ZSt11__push_heapIN9__gnu_cxx17__normal_iteratorIPSt4pairIiiESt6vectorIS3_SaIS3_EEEElS3_NS0_5__ops14_Iter_comp_valISt7greaterIS3_EEEEvT_T0_SF_T1_RT2_, symObjAddr: 0xB284, symBinAddr: 0x10000BE44, symSize: 0x12C }
  - { offset: 0x38621, size: 0x8, addend: 0x0, symName: __ZN9__gnu_cxxmiIPSt4pairIiiESt6vectorIS2_SaIS2_EEEENS_17__normal_iteratorIT_T0_E15difference_typeERKSA_SD_, symObjAddr: 0xB244, symBinAddr: 0x10000BE04, symSize: 0x40 }
  - { offset: 0x38672, size: 0x8, addend: 0x0, symName: __ZNK9__gnu_cxx17__normal_iteratorIPSt4pairIiiESt6vectorIS2_SaIS2_EEEdeEv, symObjAddr: 0xB22C, symBinAddr: 0x10000BDEC, symSize: 0x18 }
  - { offset: 0x3869C, size: 0x8, addend: 0x0, symName: __ZNK9__gnu_cxx17__normal_iteratorIPSt4pairIiiESt6vectorIS2_SaIS2_EEEmiEl, symObjAddr: 0xB1E8, symBinAddr: 0x10000BDA8, symSize: 0x44 }
  - { offset: 0x386FE, size: 0x8, addend: 0x0, symName: __ZN9__gnu_cxx5__ops14_Iter_comp_valISt7greaterISt4pairIiiEEEC1ES5_, symObjAddr: 0xB1C4, symBinAddr: 0x10000BD84, symSize: 0x24 }
  - { offset: 0x38755, size: 0x8, addend: 0x0, symName: __ZN9__gnu_cxx17__normal_iteratorIPSt4pairIiiESt6vectorIS2_SaIS2_EEEC1ERKS3_, symObjAddr: 0xB19C, symBinAddr: 0x10000BD5C, symSize: 0x28 }
  - { offset: 0x38784, size: 0x8, addend: 0x0, symName: __ZNSt6vectorISt4pairIiiESaIS1_EE12emplace_backIJS1_EEERS1_DpOT_, symObjAddr: 0xB0C4, symBinAddr: 0x10000BC84, symSize: 0xD8 }
  - { offset: 0x3882F, size: 0x8, addend: 0x0, symName: __ZSt8_DestroyIPSt4pairIiiEEvT_S3_, symObjAddr: 0xB09C, symBinAddr: 0x10000BC5C, symSize: 0x28 }
  - { offset: 0x38875, size: 0x8, addend: 0x0, symName: __ZNSt12_Vector_baseISt4pairIiiESaIS1_EE13_M_deallocateEPS1_m, symObjAddr: 0xB044, symBinAddr: 0x10000BC04, symSize: 0x58 }
  - { offset: 0x3891B, size: 0x8, addend: 0x0, symName: __ZNSt15__new_allocatorISt4pairIiiEED2Ev, symObjAddr: 0xB030, symBinAddr: 0x10000BBF0, symSize: 0x14 }
  - { offset: 0x3895B, size: 0x8, addend: 0x0, symName: __ZNSt12_Vector_baseISt4pairIiiESaIS1_EE17_Vector_impl_dataC2Ev, symObjAddr: 0xB004, symBinAddr: 0x10000BBC4, symSize: 0x2C }
  - { offset: 0x389BF, size: 0x8, addend: 0x0, symName: __ZNSt15_Deque_iteratorIcRcPcE14_S_buffer_sizeEv, symObjAddr: 0xAFEC, symBinAddr: 0x10000BBAC, symSize: 0x18 }
  - { offset: 0x389DB, size: 0x8, addend: 0x0, symName: __ZNSt11_Deque_baseIcSaIcEE16_M_allocate_nodeEv, symObjAddr: 0xAFA8, symBinAddr: 0x10000BB68, symSize: 0x44 }
  - { offset: 0x38A32, size: 0x8, addend: 0x0, symName: __ZNSt5dequeIcSaIcEE22_M_reserve_map_at_backEm, symObjAddr: 0xAF48, symBinAddr: 0x10000BB08, symSize: 0x60 }
  - { offset: 0x38A6D, size: 0x8, addend: 0x0, symName: __ZNKSt5dequeIcSaIcEE8max_sizeEv, symObjAddr: 0xAF28, symBinAddr: 0x10000BAE8, symSize: 0x20 }
  - { offset: 0x38A97, size: 0x8, addend: 0x0, symName: __ZN9__gnu_cxx16__aligned_membufISt4pairIKciEE6_M_ptrEv, symObjAddr: 0xAF0C, symBinAddr: 0x10000BACC, symSize: 0x1C }
  - { offset: 0x38AE8, size: 0x8, addend: 0x0, symName: __ZNSt15_Deque_iteratorIcRcPcEC1ERKS2_, symObjAddr: 0xAEB4, symBinAddr: 0x10000BA74, symSize: 0x58 }
  - { offset: 0x38B69, size: 0x8, addend: 0x0, symName: __ZNKSt11_Deque_baseIcSaIcEE20_M_get_map_allocatorEv, symObjAddr: 0xAE6C, symBinAddr: 0x10000BA2C, symSize: 0x48 }
  - { offset: 0x38BE3, size: 0x8, addend: 0x0, symName: __ZNSt11_Deque_baseIcSaIcEE18_M_deallocate_nodeEPc, symObjAddr: 0xAE14, symBinAddr: 0x10000B9D4, symSize: 0x58 }
  - { offset: 0x38C54, size: 0x8, addend: 0x0, symName: __ZNSt15_Deque_iteratorIcRcPcE11_M_set_nodeEPS1_, symObjAddr: 0xADBC, symBinAddr: 0x10000B97C, symSize: 0x58 }
  - { offset: 0x38C8F, size: 0x8, addend: 0x0, symName: __ZNSt11_Deque_baseIcSaIcEE15_M_create_nodesEPPcS3_, symObjAddr: 0xAD30, symBinAddr: 0x10000B8F0, symSize: 0x8C }
  - { offset: 0x38CEC, size: 0x8, addend: 0x0, symName: __ZNSt11_Deque_baseIcSaIcEE15_M_allocate_mapEm, symObjAddr: 0xACB0, symBinAddr: 0x10000B870, symSize: 0x80 }
  - { offset: 0x38DBE, size: 0x8, addend: 0x0, symName: __ZNSt11_Deque_baseIcSaIcEE16_Deque_impl_dataC2Ev, symObjAddr: 0xAC70, symBinAddr: 0x10000B830, symSize: 0x40 }
  - { offset: 0x38DE0, size: 0x8, addend: 0x0, symName: __ZNSt6vectorIcSaIcEE11_S_relocateEPcS2_S2_RS0_, symObjAddr: 0xAC3C, symBinAddr: 0x10000B7FC, symSize: 0x34 }
  - { offset: 0x38E3D, size: 0x8, addend: 0x0, symName: __ZSt12__to_addressIcEPT_S1_, symObjAddr: 0xAC28, symBinAddr: 0x10000B7E8, symSize: 0x14 }
  - { offset: 0x38E73, size: 0x8, addend: 0x0, symName: __ZNSt12_Vector_baseIcSaIcEE11_M_allocateEm, symObjAddr: 0xABD8, symBinAddr: 0x10000B798, symSize: 0x50 }
  - { offset: 0x38EDE, size: 0x8, addend: 0x0, symName: __ZN9__gnu_cxxmiIPcSt6vectorIcSaIcEEEENS_17__normal_iteratorIT_T0_E15difference_typeERKS8_SB_, symObjAddr: 0xAB9C, symBinAddr: 0x10000B75C, symSize: 0x3C }
  - { offset: 0x38F2F, size: 0x8, addend: 0x0, symName: __ZNSt6vectorIcSaIcEE5beginEv, symObjAddr: 0xAB78, symBinAddr: 0x10000B738, symSize: 0x24 }
  - { offset: 0x38F59, size: 0x8, addend: 0x0, symName: __ZNSt6vectorIcSaIcEE3endEv, symObjAddr: 0xAB50, symBinAddr: 0x10000B710, symSize: 0x28 }
  - { offset: 0x38F83, size: 0x8, addend: 0x0, symName: __ZNKSt6vectorIcSaIcEE12_M_check_lenEmPKc, symObjAddr: 0xAA80, symBinAddr: 0x10000B640, symSize: 0xD0 }
  - { offset: 0x39025, size: 0x8, addend: 0x0, symName: __ZSt7forwardIRKcEOT_RNSt16remove_referenceIS2_E4typeE, symObjAddr: 0xAA6C, symBinAddr: 0x10000B62C, symSize: 0x14 }
  - { offset: 0x39072, size: 0x8, addend: 0x0, symName: __ZSt22__uninitialized_copy_aIPKcPccET0_T_S4_S3_RSaIT1_E, symObjAddr: 0xAA3C, symBinAddr: 0x10000B5FC, symSize: 0x30 }
  - { offset: 0x39123, size: 0x8, addend: 0x0, symName: __ZSt4copyIPKcPcET0_T_S4_S3_, symObjAddr: 0xA9F4, symBinAddr: 0x10000B5B4, symSize: 0x48 }
  - { offset: 0x39185, size: 0x8, addend: 0x0, symName: __ZNSt6vectorIcSaIcEE15_M_erase_at_endEPc, symObjAddr: 0xA970, symBinAddr: 0x10000B530, symSize: 0x84 }
  - { offset: 0x3921A, size: 0x8, addend: 0x0, symName: __ZNSt6vectorIcSaIcEE20_M_allocate_and_copyIPKcEEPcmT_S6_, symObjAddr: 0xA8EC, symBinAddr: 0x10000B4AC, symSize: 0x84 }
  - { offset: 0x3928D, size: 0x8, addend: 0x0, symName: __ZNSt6vectorIcSaIcEE17_S_check_init_lenEmRKS0_, symObjAddr: 0xA868, symBinAddr: 0x10000B428, symSize: 0x84 }
  - { offset: 0x39343, size: 0x8, addend: 0x0, symName: __ZNKSt6vectorIcSaIcEE8capacityEv, symObjAddr: 0xA844, symBinAddr: 0x10000B404, symSize: 0x24 }
  - { offset: 0x3939D, size: 0x8, addend: 0x0, symName: __ZNKSt16initializer_listIcE4sizeEv, symObjAddr: 0xA82C, symBinAddr: 0x10000B3EC, symSize: 0x18 }
  - { offset: 0x393EF, size: 0x8, addend: 0x0, symName: __ZNSt17_Rb_tree_iteratorISt4pairIKcSt6vectorIcSaIcEEEEC1EPSt18_Rb_tree_node_base, symObjAddr: 0xA808, symBinAddr: 0x10000B3C8, symSize: 0x24 }
  - { offset: 0x3941E, size: 0x8, addend: 0x0, symName: __ZNSt8_Rb_treeIcSt4pairIKcSt6vectorIcSaIcEEESt10_Select1stIS5_ESt4lessIcESaIS5_EE10_Auto_node9_M_insertES0_IPSt18_Rb_tree_node_baseSE_E, symObjAddr: 0xA7BC, symBinAddr: 0x10000B37C, symSize: 0x4C }
  - { offset: 0x3946A, size: 0x8, addend: 0x0, symName: __ZNKSt8_Rb_treeIcSt4pairIKcSt6vectorIcSaIcEEESt10_Select1stIS5_ESt4lessIcESaIS5_EE10_Auto_node6_M_keyEv, symObjAddr: 0xA79C, symBinAddr: 0x10000B35C, symSize: 0x20 }
  - { offset: 0x39494, size: 0x8, addend: 0x0, symName: __ZNSt8_Rb_treeIcSt4pairIKcSt6vectorIcSaIcEEESt10_Select1stIS5_ESt4lessIcESaIS5_EE29_M_get_insert_hint_unique_posESt23_Rb_tree_const_iteratorIS5_ERS1_, symObjAddr: 0xA478, symBinAddr: 0x10000B038, symSize: 0x324 }
  - { offset: 0x39563, size: 0x8, addend: 0x0, symName: __ZNSt8_Rb_treeIcSt4pairIKcSt6vectorIcSaIcEEESt10_Select1stIS5_ESt4lessIcESaIS5_EE10_Auto_nodeD1Ev, symObjAddr: 0xA434, symBinAddr: 0x10000AFF4, symSize: 0x44 }
  - { offset: 0x395DC, size: 0x8, addend: 0x0, symName: __ZNSt8_Rb_treeIcSt4pairIKcSt6vectorIcSaIcEEESt10_Select1stIS5_ESt4lessIcESaIS5_EE10_Auto_nodeC1IJRKSt21piecewise_construct_tSt5tupleIJRS1_EESH_IJEEEEERSB_DpOT_, symObjAddr: 0xA3B8, symBinAddr: 0x10000AF78, symSize: 0x7C }
  - { offset: 0x39642, size: 0x8, addend: 0x0, symName: __ZNSt13_Rb_tree_nodeISt4pairIKcSt6vectorIcSaIcEEEE9_M_valptrEv, symObjAddr: 0xA398, symBinAddr: 0x10000AF58, symSize: 0x20 }
  - { offset: 0x3966C, size: 0x8, addend: 0x0, symName: __ZNKSt8_Rb_treeIcSt4pairIKcSt6vectorIcSaIcEEESt10_Select1stIS5_ESt4lessIcESaIS5_EE8key_compEv, symObjAddr: 0xA380, symBinAddr: 0x10000AF40, symSize: 0x18 }
  - { offset: 0x39696, size: 0x8, addend: 0x0, symName: __ZNSt8_Rb_treeIcSt4pairIKcSt6vectorIcSaIcEEESt10_Select1stIS5_ESt4lessIcESaIS5_EE3endEv, symObjAddr: 0xA358, symBinAddr: 0x10000AF18, symSize: 0x28 }
  - { offset: 0x396C0, size: 0x8, addend: 0x0, symName: __ZNSt8_Rb_treeIcSt4pairIKcSt6vectorIcSaIcEEESt10_Select1stIS5_ESt4lessIcESaIS5_EE11lower_boundERS1_, symObjAddr: 0xA310, symBinAddr: 0x10000AED0, symSize: 0x48 }
  - { offset: 0x39723, size: 0x8, addend: 0x0, symName: __ZNSt17_Rb_tree_iteratorISt4pairIKciEEC1EPSt18_Rb_tree_node_base, symObjAddr: 0xA2EC, symBinAddr: 0x10000AEAC, symSize: 0x24 }
  - { offset: 0x39752, size: 0x8, addend: 0x0, symName: __ZNSt8_Rb_treeIcSt4pairIKciESt10_Select1stIS2_ESt4lessIcESaIS2_EE10_Auto_node9_M_insertES0_IPSt18_Rb_tree_node_baseSB_E, symObjAddr: 0xA2A0, symBinAddr: 0x10000AE60, symSize: 0x4C }
  - { offset: 0x3979E, size: 0x8, addend: 0x0, symName: __ZNKSt8_Rb_treeIcSt4pairIKciESt10_Select1stIS2_ESt4lessIcESaIS2_EE10_Auto_node6_M_keyEv, symObjAddr: 0xA280, symBinAddr: 0x10000AE40, symSize: 0x20 }
  - { offset: 0x397C8, size: 0x8, addend: 0x0, symName: __ZNSt8_Rb_treeIcSt4pairIKciESt10_Select1stIS2_ESt4lessIcESaIS2_EE29_M_get_insert_hint_unique_posESt23_Rb_tree_const_iteratorIS2_ERS1_, symObjAddr: 0x9F5C, symBinAddr: 0x10000AB1C, symSize: 0x324 }
  - { offset: 0x39897, size: 0x8, addend: 0x0, symName: __ZNSt8_Rb_treeIcSt4pairIKciESt10_Select1stIS2_ESt4lessIcESaIS2_EE10_Auto_nodeD1Ev, symObjAddr: 0x9F18, symBinAddr: 0x10000AAD8, symSize: 0x44 }
  - { offset: 0x39910, size: 0x8, addend: 0x0, symName: __ZNSt8_Rb_treeIcSt4pairIKciESt10_Select1stIS2_ESt4lessIcESaIS2_EE10_Auto_nodeC1IJRKSt21piecewise_construct_tSt5tupleIJRS1_EESE_IJEEEEERS8_DpOT_, symObjAddr: 0x9E9C, symBinAddr: 0x10000AA5C, symSize: 0x7C }
  - { offset: 0x39979, size: 0x8, addend: 0x0, symName: __ZSt7forwardISt5tupleIJEEEOT_RNSt16remove_referenceIS2_E4typeE, symObjAddr: 0x9E88, symBinAddr: 0x10000AA48, symSize: 0x14 }
  - { offset: 0x399B2, size: 0x8, addend: 0x0, symName: __ZSt7forwardISt5tupleIJRKcEEEOT_RNSt16remove_referenceIS4_E4typeE, symObjAddr: 0x9E74, symBinAddr: 0x10000AA34, symSize: 0x14 }
  - { offset: 0x399EB, size: 0x8, addend: 0x0, symName: __ZSt7forwardIRKSt21piecewise_construct_tEOT_RNSt16remove_referenceIS3_E4typeE, symObjAddr: 0x9E60, symBinAddr: 0x10000AA20, symSize: 0x14 }
  - { offset: 0x39A49, size: 0x8, addend: 0x0, symName: __ZNSt11_Tuple_implILm0EJRKcEEC2ES1_, symObjAddr: 0x9E38, symBinAddr: 0x10000A9F8, symSize: 0x28 }
  - { offset: 0x39A78, size: 0x8, addend: 0x0, symName: __ZNKSt8_Rb_treeIcSt4pairIKciESt10_Select1stIS2_ESt4lessIcESaIS2_EE8key_compEv, symObjAddr: 0x9E20, symBinAddr: 0x10000A9E0, symSize: 0x18 }
  - { offset: 0x39AA2, size: 0x8, addend: 0x0, symName: __ZNSt8_Rb_treeIcSt4pairIKciESt10_Select1stIS2_ESt4lessIcESaIS2_EE11lower_boundERS1_, symObjAddr: 0x9DD8, symBinAddr: 0x10000A998, symSize: 0x48 }
  - { offset: 0x39ADD, size: 0x8, addend: 0x0, symName: __ZNKSt8_Rb_treeIcSt4pairIKciESt10_Select1stIS2_ESt4lessIcESaIS2_EE9_M_mbeginEv, symObjAddr: 0x9DC0, symBinAddr: 0x10000A980, symSize: 0x18 }
  - { offset: 0x39B07, size: 0x8, addend: 0x0, symName: __ZNSt8_Rb_treeIcSt4pairIKciESt10_Select1stIS2_ESt4lessIcESaIS2_EE12_M_drop_nodeEPSt13_Rb_tree_nodeIS2_E, symObjAddr: 0x9D8C, symBinAddr: 0x10000A94C, symSize: 0x34 }
  - { offset: 0x39B3E, size: 0x8, addend: 0x0, symName: __ZNSt8_Rb_treeIcSt4pairIKciESt10_Select1stIS2_ESt4lessIcESaIS2_EE7_S_leftEPSt18_Rb_tree_node_base, symObjAddr: 0x9D74, symBinAddr: 0x10000A934, symSize: 0x18 }
  - { offset: 0x39B68, size: 0x8, addend: 0x0, symName: __ZNSt8_Rb_treeIcSt4pairIKciESt10_Select1stIS2_ESt4lessIcESaIS2_EE8_S_rightEPSt18_Rb_tree_node_base, symObjAddr: 0x9D5C, symBinAddr: 0x10000A91C, symSize: 0x18 }
  - { offset: 0x39BAC, size: 0x8, addend: 0x0, symName: __ZNKSt8_Rb_treeIcSt4pairIKcSt6vectorIcSaIcEEESt10_Select1stIS5_ESt4lessIcESaIS5_EE9_M_mbeginEv, symObjAddr: 0x9D44, symBinAddr: 0x10000A904, symSize: 0x18 }
  - { offset: 0x39BD6, size: 0x8, addend: 0x0, symName: __ZNSt8_Rb_treeIcSt4pairIKcSt6vectorIcSaIcEEESt10_Select1stIS5_ESt4lessIcESaIS5_EE12_M_drop_nodeEPSt13_Rb_tree_nodeIS5_E, symObjAddr: 0x9D10, symBinAddr: 0x10000A8D0, symSize: 0x34 }
  - { offset: 0x39C0D, size: 0x8, addend: 0x0, symName: __ZNSt8_Rb_treeIcSt4pairIKcSt6vectorIcSaIcEEESt10_Select1stIS5_ESt4lessIcESaIS5_EE7_S_leftEPSt18_Rb_tree_node_base, symObjAddr: 0x9CF8, symBinAddr: 0x10000A8B8, symSize: 0x18 }
  - { offset: 0x39C37, size: 0x8, addend: 0x0, symName: __ZNSt8_Rb_treeIcSt4pairIKcSt6vectorIcSaIcEEESt10_Select1stIS5_ESt4lessIcESaIS5_EE8_S_rightEPSt18_Rb_tree_node_base, symObjAddr: 0x9CE0, symBinAddr: 0x10000A8A0, symSize: 0x18 }
  - { offset: 0x39C77, size: 0x8, addend: 0x0, symName: __ZSt8_DestroyIPcEvT_S1_, symObjAddr: 0x9CB8, symBinAddr: 0x10000A878, symSize: 0x28 }
  - { offset: 0x39CBD, size: 0x8, addend: 0x0, symName: __ZNSt5dequeISt4pairIiiESaIS1_EE16_M_pop_front_auxEv, symObjAddr: 0x9C24, symBinAddr: 0x10000A7E4, symSize: 0x94 }
  - { offset: 0x39D6E, size: 0x8, addend: 0x0, symName: __ZNKSt15_Deque_iteratorISt4pairIiiERS1_PS1_EdeEv, symObjAddr: 0x9C0C, symBinAddr: 0x10000A7CC, symSize: 0x18 }
  - { offset: 0x39D94, size: 0x8, addend: 0x0, symName: __ZSteqRKSt15_Deque_iteratorISt4pairIiiERS1_PS1_ES6_, symObjAddr: 0x9BDC, symBinAddr: 0x10000A79C, symSize: 0x30 }
  - { offset: 0x39DD3, size: 0x8, addend: 0x0, symName: __ZNSt5dequeISt4pairIiiESaIS1_EE12emplace_backIJS1_EEERS1_DpOT_, symObjAddr: 0x9B00, symBinAddr: 0x10000A6C0, symSize: 0xDC }
  - { offset: 0x39EA9, size: 0x8, addend: 0x0, symName: __ZNSt15_Deque_iteratorISt4pairIiiERS1_PS1_EC1ERKS4_, symObjAddr: 0x9AA8, symBinAddr: 0x10000A668, symSize: 0x58 }
  - { offset: 0x39ED8, size: 0x8, addend: 0x0, symName: __ZNSt11_Deque_baseISt4pairIiiESaIS1_EE17_M_deallocate_mapEPPS1_m, symObjAddr: 0x9A48, symBinAddr: 0x10000A608, symSize: 0x60 }
  - { offset: 0x39F89, size: 0x8, addend: 0x0, symName: __ZNSt11_Deque_baseISt4pairIiiESaIS1_EE16_M_destroy_nodesEPPS1_S5_, symObjAddr: 0x99E8, symBinAddr: 0x10000A5A8, symSize: 0x60 }
  - { offset: 0x39FF9, size: 0x8, addend: 0x0, symName: __ZNSt11_Deque_baseISt4pairIiiESaIS1_EE17_M_initialize_mapEm, symObjAddr: 0x985C, symBinAddr: 0x10000A41C, symSize: 0x18C }
  - { offset: 0x3A081, size: 0x8, addend: 0x0, symName: __ZNSt11_Deque_baseISt4pairIiiESaIS1_EE11_Deque_implC1Ev, symObjAddr: 0x9824, symBinAddr: 0x10000A3E4, symSize: 0x38 }
  - { offset: 0x3A0EE, size: 0x8, addend: 0x0, symName: __ZNSt5dequeIiSaIiEE16_M_push_back_auxIJRKiEEEvDpOT_, symObjAddr: 0x9704, symBinAddr: 0x10000A2C4, symSize: 0x120 }
  - { offset: 0x3A19F, size: 0x8, addend: 0x0, symName: __ZNSt5dequeIiSaIiEE16_M_pop_front_auxEv, symObjAddr: 0x9670, symBinAddr: 0x10000A230, symSize: 0x94 }
  - { offset: 0x3A250, size: 0x8, addend: 0x0, symName: __ZNKSt15_Deque_iteratorIiRiPiEdeEv, symObjAddr: 0x9658, symBinAddr: 0x10000A218, symSize: 0x18 }
  - { offset: 0x3A276, size: 0x8, addend: 0x0, symName: __ZSteqRKSt15_Deque_iteratorIiRiPiES4_, symObjAddr: 0x9628, symBinAddr: 0x10000A1E8, symSize: 0x30 }
  - { offset: 0x3A2B5, size: 0x8, addend: 0x0, symName: __ZNSt5dequeIiSaIiEE12emplace_backIJiEEERiDpOT_, symObjAddr: 0x954C, symBinAddr: 0x10000A10C, symSize: 0xDC }
  - { offset: 0x3A38B, size: 0x8, addend: 0x0, symName: __ZNSt15_Deque_iteratorIiRiPiEC1ERKS2_, symObjAddr: 0x94F4, symBinAddr: 0x10000A0B4, symSize: 0x58 }
  - { offset: 0x3A3BA, size: 0x8, addend: 0x0, symName: __ZNSt11_Deque_baseIiSaIiEE17_M_deallocate_mapEPPim, symObjAddr: 0x9494, symBinAddr: 0x10000A054, symSize: 0x60 }
  - { offset: 0x3A46B, size: 0x8, addend: 0x0, symName: __ZNSt11_Deque_baseIiSaIiEE16_M_destroy_nodesEPPiS3_, symObjAddr: 0x9434, symBinAddr: 0x100009FF4, symSize: 0x60 }
  - { offset: 0x3A4DB, size: 0x8, addend: 0x0, symName: __ZNSt11_Deque_baseIiSaIiEE17_M_initialize_mapEm, symObjAddr: 0x92A8, symBinAddr: 0x100009E68, symSize: 0x18C }
  - { offset: 0x3A563, size: 0x8, addend: 0x0, symName: __ZNSt11_Deque_baseIiSaIiEE11_Deque_implC1Ev, symObjAddr: 0x9270, symBinAddr: 0x100009E30, symSize: 0x38 }
  - { offset: 0x3A5CC, size: 0x8, addend: 0x0, symName: __ZSt24__uninitialized_fill_n_aIPimiiET_S1_T0_RKT1_RSaIT2_E, symObjAddr: 0x9240, symBinAddr: 0x100009E00, symSize: 0x30 }
  - { offset: 0x3A649, size: 0x8, addend: 0x0, symName: __ZNSt12_Vector_baseIiSaIiEE17_M_create_storageEm, symObjAddr: 0x91E0, symBinAddr: 0x100009DA0, symSize: 0x60 }
  - { offset: 0x3A680, size: 0x8, addend: 0x0, symName: __ZNSt6vectorIiSaIiEE11_S_max_sizeERKS0_, symObjAddr: 0x918C, symBinAddr: 0x100009D4C, symSize: 0x54 }
  - { offset: 0x3A737, size: 0x8, addend: 0x0, symName: __ZSt22__uninitialized_copy_aIPKiPiiET0_T_S4_S3_RSaIT1_E, symObjAddr: 0x915C, symBinAddr: 0x100009D1C, symSize: 0x30 }
  - { offset: 0x3A7F1, size: 0x8, addend: 0x0, symName: __ZNKSt16initializer_listIiE4sizeEv, symObjAddr: 0x9144, symBinAddr: 0x100009D04, symSize: 0x18 }
  - { offset: 0x3A842, size: 0x8, addend: 0x0, symName: __ZNSt12_Vector_baseIiSaIiEE12_Vector_implC1ERKS0_, symObjAddr: 0x90F8, symBinAddr: 0x100009CB8, symSize: 0x4C }
  - { offset: 0x3A8C5, size: 0x8, addend: 0x0, symName: __ZNSt6vectorIiSaIiEE11_S_relocateEPiS2_S2_RS0_, symObjAddr: 0x90C4, symBinAddr: 0x100009C84, symSize: 0x34 }
  - { offset: 0x3A922, size: 0x8, addend: 0x0, symName: __ZSt12__to_addressIiEPT_S1_, symObjAddr: 0x90B0, symBinAddr: 0x100009C70, symSize: 0x14 }
  - { offset: 0x3A958, size: 0x8, addend: 0x0, symName: __ZNSt12_Vector_baseIiSaIiEE11_M_allocateEm, symObjAddr: 0x9060, symBinAddr: 0x100009C20, symSize: 0x50 }
  - { offset: 0x3A9C3, size: 0x8, addend: 0x0, symName: __ZN9__gnu_cxxmiIPiSt6vectorIiSaIiEEEENS_17__normal_iteratorIT_T0_E15difference_typeERKS8_SB_, symObjAddr: 0x9020, symBinAddr: 0x100009BE0, symSize: 0x40 }
  - { offset: 0x3AA14, size: 0x8, addend: 0x0, symName: __ZNKSt6vectorIiSaIiEE12_M_check_lenEmPKc, symObjAddr: 0x8F50, symBinAddr: 0x100009B10, symSize: 0xD0 }
  - { offset: 0x3AAB6, size: 0x8, addend: 0x0, symName: __ZSt7forwardIRKiEOT_RNSt16remove_referenceIS2_E4typeE, symObjAddr: 0x8F3C, symBinAddr: 0x100009AFC, symSize: 0x14 }
  - { offset: 0x3AB1A, size: 0x8, addend: 0x0, symName: __ZSt8_DestroyIPiEvT_S1_, symObjAddr: 0x8F14, symBinAddr: 0x100009AD4, symSize: 0x28 }
  - { offset: 0x3AB92, size: 0x8, addend: 0x0, symName: __ZNSt6vectorIS_IiSaIiEESaIS1_EE19_M_range_initializeIPKS1_EEvT_S7_St20forward_iterator_tag, symObjAddr: 0x8E18, symBinAddr: 0x1000099D8, symSize: 0xFC }
  - { offset: 0x3ACB0, size: 0x8, addend: 0x0, symName: __ZNKSt16initializer_listISt6vectorIiSaIiEEE3endEv, symObjAddr: 0x8DD0, symBinAddr: 0x100009990, symSize: 0x48 }
  - { offset: 0x3ACDA, size: 0x8, addend: 0x0, symName: __ZNKSt16initializer_listISt6vectorIiSaIiEEE5beginEv, symObjAddr: 0x8DB8, symBinAddr: 0x100009978, symSize: 0x18 }
  - { offset: 0x3AD2C, size: 0x8, addend: 0x0, symName: __ZNSt12_Vector_baseISt6vectorIiSaIiEESaIS2_EEC2ERKS3_, symObjAddr: 0x8D90, symBinAddr: 0x100009950, symSize: 0x28 }
  - { offset: 0x3AD57, size: 0x8, addend: 0x0, symName: __ZSt22__uninitialized_copy_aIN9__gnu_cxx17__normal_iteratorIPKSt6vectorIiSaIiEES2_IS4_SaIS4_EEEEPS4_S4_ET0_T_SC_SB_RSaIT1_E, symObjAddr: 0x8D60, symBinAddr: 0x100009920, symSize: 0x30 }
  - { offset: 0x3ADCB, size: 0x8, addend: 0x0, symName: __ZNKSt6vectorIS_IiSaIiEESaIS1_EE3endEv, symObjAddr: 0x8D38, symBinAddr: 0x1000098F8, symSize: 0x28 }
  - { offset: 0x3ADF5, size: 0x8, addend: 0x0, symName: __ZNKSt6vectorIS_IiSaIiEESaIS1_EE5beginEv, symObjAddr: 0x8D14, symBinAddr: 0x1000098D4, symSize: 0x24 }
  - { offset: 0x3AE34, size: 0x8, addend: 0x0, symName: __ZNKSt12_Vector_baseISt6vectorIiSaIiEESaIS2_EE19_M_get_Tp_allocatorEv, symObjAddr: 0x8D00, symBinAddr: 0x1000098C0, symSize: 0x14 }
  - { offset: 0x3AE5E, size: 0x8, addend: 0x0, symName: __ZNSt6vectorIS_IiSaIiEESaIS1_EE18_M_fill_initializeEmRKS1_, symObjAddr: 0x8CA8, symBinAddr: 0x100009868, symSize: 0x58 }
  - { offset: 0x3AEE5, size: 0x8, addend: 0x0, symName: __ZNSt12_Vector_baseISt6vectorIiSaIiEESaIS2_EE19_M_get_Tp_allocatorEv, symObjAddr: 0x8C94, symBinAddr: 0x100009854, symSize: 0x14 }
  - { offset: 0x3AF0F, size: 0x8, addend: 0x0, symName: __ZNSt6vectorIS_IiSaIiEESaIS1_EE21_M_default_initializeEm, symObjAddr: 0x8C44, symBinAddr: 0x100009804, symSize: 0x50 }
  - { offset: 0x3AF6E, size: 0x8, addend: 0x0, symName: __ZNSt12_Vector_baseISt6vectorIiSaIiEESaIS2_EED2Ev, symObjAddr: 0x8BE8, symBinAddr: 0x1000097A8, symSize: 0x5C }
  - { offset: 0x3AFCA, size: 0x8, addend: 0x0, symName: __ZNSt12_Vector_baseISt6vectorIiSaIiEESaIS2_EEC2EmRKS3_, symObjAddr: 0x8B94, symBinAddr: 0x100009754, symSize: 0x54 }
  - { offset: 0x3B029, size: 0x8, addend: 0x0, symName: __ZNSt12_Vector_baseISt6vectorIiSaIiEESaIS2_EE12_Vector_implD1Ev, symObjAddr: 0x8B68, symBinAddr: 0x100009728, symSize: 0x2C }
  - { offset: 0x3B06E, size: 0x8, addend: 0x0, symName: __ZNSt6vectorIS_IiSaIiEESaIS1_EE17_S_check_init_lenEmRKS2_, symObjAddr: 0x8AE4, symBinAddr: 0x1000096A4, symSize: 0x84 }
  - { offset: 0x3B148, size: 0x8, addend: 0x0, symName: __ZNSt15__new_allocatorISt6vectorIiSaIiEEED2Ev, symObjAddr: 0x8AD0, symBinAddr: 0x100009690, symSize: 0x14 }
  - { offset: 0x3B184, size: 0x8, addend: 0x0, symName: __ZNKSt5dequeIiSaIiEE4sizeEv, symObjAddr: 0x8AA0, symBinAddr: 0x100009660, symSize: 0x30 }
  - { offset: 0x3B1AE, size: 0x8, addend: 0x0, symName: __ZNSt8_Rb_treeISt4pairIiiES1_St9_IdentityIS1_ESt4lessIS1_ESaIS1_EE5eraseERKS1_, symObjAddr: 0x8A2C, symBinAddr: 0x1000095EC, symSize: 0x74 }
  - { offset: 0x3B20B, size: 0x8, addend: 0x0, symName: __ZNKSt13_Rb_tree_nodeISt4pairIiiEE9_M_valptrEv, symObjAddr: 0x8A0C, symBinAddr: 0x1000095CC, symSize: 0x20 }
  - { offset: 0x3B235, size: 0x8, addend: 0x0, symName: __ZNKSt8_Rb_treeISt4pairIiiES1_St9_IdentityIS1_ESt4lessIS1_ESaIS1_EE5beginEv, symObjAddr: 0x89E4, symBinAddr: 0x1000095A4, symSize: 0x28 }
  - { offset: 0x3B25F, size: 0x8, addend: 0x0, symName: __ZNKSt8_Rb_treeISt4pairIiiES1_St9_IdentityIS1_ESt4lessIS1_ESaIS1_EE5emptyEv, symObjAddr: 0x89C0, symBinAddr: 0x100009580, symSize: 0x24 }
  - { offset: 0x3B2D1, size: 0x8, addend: 0x0, symName: __ZNSt4pairISt23_Rb_tree_const_iteratorIS_IiiEEbEC1IRSt17_Rb_tree_iteratorIS1_ERbLb1EEEOT_OT0_, symObjAddr: 0x896C, symBinAddr: 0x10000952C, symSize: 0x54 }
  - { offset: 0x3B31B, size: 0x8, addend: 0x0, symName: __ZNSt8_Rb_treeISt4pairIiiES1_St9_IdentityIS1_ESt4lessIS1_ESaIS1_EE16_M_insert_uniqueIS1_EES0_ISt17_Rb_tree_iteratorIS1_EbEOT_, symObjAddr: 0x88A0, symBinAddr: 0x100009460, symSize: 0xCC }
  - { offset: 0x3B398, size: 0x8, addend: 0x0, symName: __ZNSt8_Rb_treeISt4pairIiiES1_St9_IdentityIS1_ESt4lessIS1_ESaIS1_EE8_M_beginEv, symObjAddr: 0x8884, symBinAddr: 0x100009444, symSize: 0x1C }
  - { offset: 0x3B3C2, size: 0x8, addend: 0x0, symName: __ZNSt8_Rb_treeISt4pairIiiES1_St9_IdentityIS1_ESt4lessIS1_ESaIS1_EE8_M_eraseEPSt13_Rb_tree_nodeIS1_E, symObjAddr: 0x8820, symBinAddr: 0x1000093E0, symSize: 0x64 }
  - { offset: 0x3B445, size: 0x8, addend: 0x0, symName: __ZNSt15__new_allocatorISt13_Rb_tree_nodeISt4pairIiiEEED2Ev, symObjAddr: 0x880C, symBinAddr: 0x1000093CC, symSize: 0x14 }
  - { offset: 0x3B485, size: 0x8, addend: 0x0, symName: __ZNSt20_Rb_tree_key_compareISt4lessISt4pairIiiEEEC2Ev, symObjAddr: 0x87F8, symBinAddr: 0x1000093B8, symSize: 0x14 }
  - { offset: 0x3B4E0, size: 0x8, addend: 0x0, symName: __ZSt22__uninitialized_copy_aIN9__gnu_cxx17__normal_iteratorIPKiSt6vectorIiSaIiEEEEPiiET0_T_SA_S9_RSaIT1_E, symObjAddr: 0x87C8, symBinAddr: 0x100009388, symSize: 0x30 }
  - { offset: 0x3B554, size: 0x8, addend: 0x0, symName: __ZNKSt6vectorIiSaIiEE3endEv, symObjAddr: 0x87A0, symBinAddr: 0x100009360, symSize: 0x28 }
  - { offset: 0x3B57E, size: 0x8, addend: 0x0, symName: __ZNKSt6vectorIiSaIiEE5beginEv, symObjAddr: 0x877C, symBinAddr: 0x10000933C, symSize: 0x24 }
  - { offset: 0x3B5BD, size: 0x8, addend: 0x0, symName: __ZNKSt12_Vector_baseIiSaIiEE19_M_get_Tp_allocatorEv, symObjAddr: 0x8768, symBinAddr: 0x100009328, symSize: 0x14 }
  - { offset: 0x3B5E7, size: 0x8, addend: 0x0, symName: __ZNK9__gnu_cxx17__normal_iteratorIPSt6vectorIiSaIiEES1_IS3_SaIS3_EEE4baseEv, symObjAddr: 0x8754, symBinAddr: 0x100009314, symSize: 0x14 }
  - { offset: 0x3B639, size: 0x8, addend: 0x0, symName: __ZN9__gnu_cxx17__normal_iteratorIPSt6vectorIiSaIiEES1_IS3_SaIS3_EEEC1ERKS4_, symObjAddr: 0x872C, symBinAddr: 0x1000092EC, symSize: 0x28 }
  - { offset: 0x3B668, size: 0x8, addend: 0x0, symName: __ZNSt6vectorISt4pairIiiESaIS1_EE8pop_backEv, symObjAddr: 0x86D8, symBinAddr: 0x100009298, symSize: 0x54 }
  - { offset: 0x3B6E8, size: 0x8, addend: 0x0, symName: __ZSt8pop_heapIN9__gnu_cxx17__normal_iteratorIPSt4pairIiiESt6vectorIS3_SaIS3_EEEESt7greaterIS3_EEvT_SB_T0_, symObjAddr: 0x8674, symBinAddr: 0x100009234, symSize: 0x64 }
  - { offset: 0x3B778, size: 0x8, addend: 0x0, symName: __ZSt4moveIRSt7greaterISt4pairIiiEEEONSt16remove_referenceIT_E4typeEOS6_, symObjAddr: 0x8660, symBinAddr: 0x100009220, symSize: 0x14 }
  - { offset: 0x3B7AE, size: 0x8, addend: 0x0, symName: __ZNKSt6vectorISt4pairIiiESaIS1_EE5frontEv, symObjAddr: 0x8638, symBinAddr: 0x1000091F8, symSize: 0x28 }
  - { offset: 0x3B7D8, size: 0x8, addend: 0x0, symName: __ZNKSt6vectorISt4pairIiiESaIS1_EE5emptyEv, symObjAddr: 0x8600, symBinAddr: 0x1000091C0, symSize: 0x38 }
  - { offset: 0x3B7FE, size: 0x8, addend: 0x0, symName: __ZSt9push_heapIN9__gnu_cxx17__normal_iteratorIPSt4pairIiiESt6vectorIS3_SaIS3_EEEESt7greaterIS3_EEvT_SB_T0_, symObjAddr: 0x856C, symBinAddr: 0x10000912C, symSize: 0x94 }
  - { offset: 0x3B895, size: 0x8, addend: 0x0, symName: __ZNSt6vectorISt4pairIiiESaIS1_EE3endEv, symObjAddr: 0x8544, symBinAddr: 0x100009104, symSize: 0x28 }
  - { offset: 0x3B8BF, size: 0x8, addend: 0x0, symName: __ZNSt6vectorISt4pairIiiESaIS1_EE5beginEv, symObjAddr: 0x8520, symBinAddr: 0x1000090E0, symSize: 0x24 }
  - { offset: 0x3B8E9, size: 0x8, addend: 0x0, symName: __ZNSt6vectorISt4pairIiiESaIS1_EE9push_backEOS1_, symObjAddr: 0x84F0, symBinAddr: 0x1000090B0, symSize: 0x30 }
  - { offset: 0x3B95F, size: 0x8, addend: 0x0, symName: __ZNSt12_Vector_baseISt4pairIiiESaIS1_EE19_M_get_Tp_allocatorEv, symObjAddr: 0x84DC, symBinAddr: 0x10000909C, symSize: 0x14 }
  - { offset: 0x3B9AD, size: 0x8, addend: 0x0, symName: __ZNSt12_Vector_baseISt4pairIiiESaIS1_EED2Ev, symObjAddr: 0x848C, symBinAddr: 0x10000904C, symSize: 0x50 }
  - { offset: 0x3BA0D, size: 0x8, addend: 0x0, symName: __ZNSt12_Vector_baseISt4pairIiiESaIS1_EE12_Vector_implC1Ev, symObjAddr: 0x8454, symBinAddr: 0x100009014, symSize: 0x38 }
  - { offset: 0x3BA79, size: 0x8, addend: 0x0, symName: __ZNSt5dequeIcSaIcEE16_M_pop_front_auxEv, symObjAddr: 0x83C0, symBinAddr: 0x100008F80, symSize: 0x94 }
  - { offset: 0x3BB2A, size: 0x8, addend: 0x0, symName: __ZNKSt15_Deque_iteratorIcRcPcEdeEv, symObjAddr: 0x83A8, symBinAddr: 0x100008F68, symSize: 0x18 }
  - { offset: 0x3BB57, size: 0x8, addend: 0x0, symName: __ZStmiRKSt15_Deque_iteratorIcRcPcES4_, symObjAddr: 0x831C, symBinAddr: 0x100008EDC, symSize: 0x8C }
  - { offset: 0x3BB96, size: 0x8, addend: 0x0, symName: __ZNSt5dequeIcSaIcEE16_M_push_back_auxIJRKcEEEvDpOT_, symObjAddr: 0x81FC, symBinAddr: 0x100008DBC, symSize: 0x120 }
  - { offset: 0x3BC47, size: 0x8, addend: 0x0, symName: __ZNSt13_Rb_tree_nodeISt4pairIKciEE9_M_valptrEv, symObjAddr: 0x81DC, symBinAddr: 0x100008D9C, symSize: 0x20 }
  - { offset: 0x3BC71, size: 0x8, addend: 0x0, symName: __ZNSt8_Rb_treeIcSt4pairIKciESt10_Select1stIS2_ESt4lessIcESaIS2_EE3endEv, symObjAddr: 0x81B4, symBinAddr: 0x100008D74, symSize: 0x28 }
  - { offset: 0x3BC9B, size: 0x8, addend: 0x0, symName: __ZNSt8_Rb_treeIcSt4pairIKciESt10_Select1stIS2_ESt4lessIcESaIS2_EE5beginEv, symObjAddr: 0x818C, symBinAddr: 0x100008D4C, symSize: 0x28 }
  - { offset: 0x3BCC5, size: 0x8, addend: 0x0, symName: __ZNSt5dequeIcSaIcEE15_M_destroy_dataESt15_Deque_iteratorIcRcPcES5_RKS0_, symObjAddr: 0x816C, symBinAddr: 0x100008D2C, symSize: 0x20 }
  - { offset: 0x3BD20, size: 0x8, addend: 0x0, symName: __ZNSt11_Deque_baseIcSaIcEE19_M_get_Tp_allocatorEv, symObjAddr: 0x8158, symBinAddr: 0x100008D18, symSize: 0x14 }
  - { offset: 0x3BD4A, size: 0x8, addend: 0x0, symName: __ZNSt5dequeIcSaIcEE3endEv, symObjAddr: 0x8120, symBinAddr: 0x100008CE0, symSize: 0x38 }
  - { offset: 0x3BD74, size: 0x8, addend: 0x0, symName: __ZNSt5dequeIcSaIcEE5beginEv, symObjAddr: 0x80E8, symBinAddr: 0x100008CA8, symSize: 0x38 }
  - { offset: 0x3BD9E, size: 0x8, addend: 0x0, symName: __ZNSt11_Deque_baseIcSaIcEE17_M_deallocate_mapEPPcm, symObjAddr: 0x8088, symBinAddr: 0x100008C48, symSize: 0x60 }
  - { offset: 0x3BE4F, size: 0x8, addend: 0x0, symName: __ZNSt11_Deque_baseIcSaIcEE16_M_destroy_nodesEPPcS3_, symObjAddr: 0x8028, symBinAddr: 0x100008BE8, symSize: 0x60 }
  - { offset: 0x3BEBF, size: 0x8, addend: 0x0, symName: __ZNSt11_Deque_baseIcSaIcEE17_M_initialize_mapEm, symObjAddr: 0x7EA0, symBinAddr: 0x100008A60, symSize: 0x188 }
  - { offset: 0x3BF47, size: 0x8, addend: 0x0, symName: __ZNSt11_Deque_baseIcSaIcEE11_Deque_implC1Ev, symObjAddr: 0x7E68, symBinAddr: 0x100008A28, symSize: 0x38 }
  - { offset: 0x3BFB4, size: 0x8, addend: 0x0, symName: __ZNSt6vectorIcSaIcEE17_M_realloc_appendIJRKcEEEvDpOT_, symObjAddr: 0x7CB8, symBinAddr: 0x100008878, symSize: 0x1B0 }
  - { offset: 0x3C139, size: 0x8, addend: 0x0, symName: __ZZNSt6vectorIcSaIcEE17_M_realloc_appendIJRKcEEEvDpOT_EN6_GuardC1EPcmRS0_, symObjAddr: 0x7C14, symBinAddr: 0x1000087D4, symSize: 0x44 }
  - { offset: 0x3C17E, size: 0x8, addend: 0x0, symName: __ZZNSt6vectorIcSaIcEE17_M_realloc_appendIJRKcEEEvDpOT_EN6_GuardD1Ev, symObjAddr: 0x7C58, symBinAddr: 0x100008818, symSize: 0x60 }
  - { offset: 0x3C2DC, size: 0x8, addend: 0x0, symName: __ZNSt12_Vector_baseIcSaIcEE17_Vector_impl_dataC2EOS2_, symObjAddr: 0x7BA4, symBinAddr: 0x100008764, symSize: 0x70 }
  - { offset: 0x3C338, size: 0x8, addend: 0x0, symName: __ZSt4moveIRNSt12_Vector_baseIcSaIcEE12_Vector_implEEONSt16remove_referenceIT_E4typeEOS6_, symObjAddr: 0x7B90, symBinAddr: 0x100008750, symSize: 0x14 }
  - { offset: 0x3C36E, size: 0x8, addend: 0x0, symName: __ZNKSt8_Rb_treeIcSt4pairIKcSt6vectorIcSaIcEEESt10_Select1stIS5_ESt4lessIcESaIS5_EE4sizeEv, symObjAddr: 0x7B78, symBinAddr: 0x100008738, symSize: 0x18 }
  - { offset: 0x3C398, size: 0x8, addend: 0x0, symName: __ZNSt6vectorIcSaIcEE13_M_assign_auxIPKcEEvT_S5_St20forward_iterator_tag, symObjAddr: 0x7938, symBinAddr: 0x1000084F8, symSize: 0x240 }
  - { offset: 0x3C5B6, size: 0x8, addend: 0x0, symName: __ZNKSt16initializer_listIcE3endEv, symObjAddr: 0x7904, symBinAddr: 0x1000084C4, symSize: 0x34 }
  - { offset: 0x3C5E0, size: 0x8, addend: 0x0, symName: __ZNKSt16initializer_listIcE5beginEv, symObjAddr: 0x78EC, symBinAddr: 0x1000084AC, symSize: 0x18 }
  - { offset: 0x3C60A, size: 0x8, addend: 0x0, symName: __ZNSt8_Rb_treeIcSt4pairIKcSt6vectorIcSaIcEEESt10_Select1stIS5_ESt4lessIcESaIS5_EE22_M_emplace_hint_uniqueIJRKSt21piecewise_construct_tSt5tupleIJRS1_EESG_IJEEEEESt17_Rb_tree_iteratorIS5_ESt23_Rb_tree_const_iteratorIS5_EDpOT_, symObjAddr: 0x7814, symBinAddr: 0x1000083D4, symSize: 0xD8 }
  - { offset: 0x3C6C9, size: 0x8, addend: 0x0, symName: __ZNSt23_Rb_tree_const_iteratorISt4pairIKcSt6vectorIcSaIcEEEEC1ERKSt17_Rb_tree_iteratorIS5_E, symObjAddr: 0x77EC, symBinAddr: 0x1000083AC, symSize: 0x28 }
  - { offset: 0x3C6F8, size: 0x8, addend: 0x0, symName: __ZNKSt17_Rb_tree_iteratorISt4pairIKcSt6vectorIcSaIcEEEEdeEv, symObjAddr: 0x77CC, symBinAddr: 0x10000838C, symSize: 0x20 }
  - { offset: 0x3C722, size: 0x8, addend: 0x0, symName: __ZNKSt3mapIcSt6vectorIcSaIcEESt4lessIcESaISt4pairIKcS2_EEE8key_compEv, symObjAddr: 0x77A0, symBinAddr: 0x100008360, symSize: 0x2C }
  - { offset: 0x3C74F, size: 0x8, addend: 0x0, symName: __ZSteqRKSt17_Rb_tree_iteratorISt4pairIKcSt6vectorIcSaIcEEEES8_, symObjAddr: 0x7770, symBinAddr: 0x100008330, symSize: 0x30 }
  - { offset: 0x3C78E, size: 0x8, addend: 0x0, symName: __ZNSt3mapIcSt6vectorIcSaIcEESt4lessIcESaISt4pairIKcS2_EEE3endEv, symObjAddr: 0x7754, symBinAddr: 0x100008314, symSize: 0x1C }
  - { offset: 0x3C7B8, size: 0x8, addend: 0x0, symName: __ZNSt3mapIcSt6vectorIcSaIcEESt4lessIcESaISt4pairIKcS2_EEE11lower_boundERS6_, symObjAddr: 0x7730, symBinAddr: 0x1000082F0, symSize: 0x24 }
  - { offset: 0x3C7F3, size: 0x8, addend: 0x0, symName: __ZNSt8_Rb_treeIcSt4pairIKciESt10_Select1stIS2_ESt4lessIcESaIS2_EE22_M_emplace_hint_uniqueIJRKSt21piecewise_construct_tSt5tupleIJRS1_EESD_IJEEEEESt17_Rb_tree_iteratorIS2_ESt23_Rb_tree_const_iteratorIS2_EDpOT_, symObjAddr: 0x7658, symBinAddr: 0x100008218, symSize: 0xD8 }
  - { offset: 0x3C8B2, size: 0x8, addend: 0x0, symName: __ZNSt23_Rb_tree_const_iteratorISt4pairIKciEEC1ERKSt17_Rb_tree_iteratorIS2_E, symObjAddr: 0x7630, symBinAddr: 0x1000081F0, symSize: 0x28 }
  - { offset: 0x3C913, size: 0x8, addend: 0x0, symName: __ZNSt5tupleIJRKcEEC1ILb1ELb1EEES1_, symObjAddr: 0x7608, symBinAddr: 0x1000081C8, symSize: 0x28 }
  - { offset: 0x3C94C, size: 0x8, addend: 0x0, symName: __ZNKSt4lessIcEclERKcS2_, symObjAddr: 0x75D4, symBinAddr: 0x100008194, symSize: 0x34 }
  - { offset: 0x3C998, size: 0x8, addend: 0x0, symName: __ZNKSt3mapIciSt4lessIcESaISt4pairIKciEEE8key_compEv, symObjAddr: 0x75A8, symBinAddr: 0x100008168, symSize: 0x2C }
  - { offset: 0x3C9C5, size: 0x8, addend: 0x0, symName: __ZSteqRKSt17_Rb_tree_iteratorISt4pairIKciEES5_, symObjAddr: 0x7578, symBinAddr: 0x100008138, symSize: 0x30 }
  - { offset: 0x3CA04, size: 0x8, addend: 0x0, symName: __ZNSt3mapIciSt4lessIcESaISt4pairIKciEEE11lower_boundERS3_, symObjAddr: 0x7554, symBinAddr: 0x100008114, symSize: 0x24 }
  - { offset: 0x3CA3F, size: 0x8, addend: 0x0, symName: __ZNSt8_Rb_treeIcSt4pairIKciESt10_Select1stIS2_ESt4lessIcESaIS2_EE8_M_beginEv, symObjAddr: 0x7538, symBinAddr: 0x1000080F8, symSize: 0x1C }
  - { offset: 0x3CA69, size: 0x8, addend: 0x0, symName: __ZNSt8_Rb_treeIcSt4pairIKciESt10_Select1stIS2_ESt4lessIcESaIS2_EE8_M_eraseEPSt13_Rb_tree_nodeIS2_E, symObjAddr: 0x74D4, symBinAddr: 0x100008094, symSize: 0x64 }
  - { offset: 0x3CAEC, size: 0x8, addend: 0x0, symName: __ZNSt15__new_allocatorISt13_Rb_tree_nodeISt4pairIKciEEED2Ev, symObjAddr: 0x74C0, symBinAddr: 0x100008080, symSize: 0x14 }
  - { offset: 0x3CB28, size: 0x8, addend: 0x0, symName: __ZNSt8_Rb_treeIcSt4pairIKcSt6vectorIcSaIcEEESt10_Select1stIS5_ESt4lessIcESaIS5_EE8_M_beginEv, symObjAddr: 0x74A4, symBinAddr: 0x100008064, symSize: 0x1C }
  - { offset: 0x3CB52, size: 0x8, addend: 0x0, symName: __ZNSt8_Rb_treeIcSt4pairIKcSt6vectorIcSaIcEEESt10_Select1stIS5_ESt4lessIcESaIS5_EE8_M_eraseEPSt13_Rb_tree_nodeIS5_E, symObjAddr: 0x7440, symBinAddr: 0x100008000, symSize: 0x64 }
  - { offset: 0x3CBD5, size: 0x8, addend: 0x0, symName: __ZNSt15__new_allocatorISt13_Rb_tree_nodeISt4pairIKcSt6vectorIcSaIcEEEEED2Ev, symObjAddr: 0x742C, symBinAddr: 0x100007FEC, symSize: 0x14 }
  - { offset: 0x3CC15, size: 0x8, addend: 0x0, symName: __ZNSt20_Rb_tree_key_compareISt4lessIcEEC2Ev, symObjAddr: 0x7418, symBinAddr: 0x100007FD8, symSize: 0x14 }
  - { offset: 0x3CC8C, size: 0x8, addend: 0x0, symName: __ZNSt12_Vector_baseIcSaIcEE19_M_get_Tp_allocatorEv, symObjAddr: 0x7404, symBinAddr: 0x100007FC4, symSize: 0x14 }
  - { offset: 0x3CCB6, size: 0x8, addend: 0x0, symName: __ZNSt12_Vector_baseIcSaIcEE13_M_deallocateEPcm, symObjAddr: 0x73AC, symBinAddr: 0x100007F6C, symSize: 0x58 }
  - { offset: 0x3CD52, size: 0x8, addend: 0x0, symName: __ZNSt12_Vector_baseIcSaIcEE17_Vector_impl_dataC2Ev, symObjAddr: 0x7380, symBinAddr: 0x100007F40, symSize: 0x2C }
  - { offset: 0x3CD78, size: 0x8, addend: 0x0, symName: __ZNSt5dequeISt4pairIiiESaIS1_EE9pop_frontEv, symObjAddr: 0x72F8, symBinAddr: 0x100007EB8, symSize: 0x88 }
  - { offset: 0x3CDFC, size: 0x8, addend: 0x0, symName: __ZNSt5dequeISt4pairIiiESaIS1_EE5frontEv, symObjAddr: 0x72CC, symBinAddr: 0x100007E8C, symSize: 0x2C }
  - { offset: 0x3CE26, size: 0x8, addend: 0x0, symName: __ZNKSt5dequeISt4pairIiiESaIS1_EE5emptyEv, symObjAddr: 0x729C, symBinAddr: 0x100007E5C, symSize: 0x30 }
  - { offset: 0x3CE50, size: 0x8, addend: 0x0, symName: __ZNSt5dequeISt4pairIiiESaIS1_EE9push_backEOS1_, symObjAddr: 0x726C, symBinAddr: 0x100007E2C, symSize: 0x30 }
  - { offset: 0x3CE8E, size: 0x8, addend: 0x0, symName: __ZSt4moveIRSt4pairIiiEEONSt16remove_referenceIT_E4typeEOS4_, symObjAddr: 0x7258, symBinAddr: 0x100007E18, symSize: 0x14 }
  - { offset: 0x3CEC7, size: 0x8, addend: 0x0, symName: __ZSt7forwardIRiEOT_RNSt16remove_referenceIS1_E4typeE, symObjAddr: 0x7244, symBinAddr: 0x100007E04, symSize: 0x14 }
  - { offset: 0x3CEFD, size: 0x8, addend: 0x0, symName: __ZNSt5dequeISt4pairIiiESaIS1_EE15_M_destroy_dataESt15_Deque_iteratorIS1_RS1_PS1_ES7_RKS2_, symObjAddr: 0x7224, symBinAddr: 0x100007DE4, symSize: 0x20 }
  - { offset: 0x3CF58, size: 0x8, addend: 0x0, symName: __ZNSt11_Deque_baseISt4pairIiiESaIS1_EE19_M_get_Tp_allocatorEv, symObjAddr: 0x7210, symBinAddr: 0x100007DD0, symSize: 0x14 }
  - { offset: 0x3CF82, size: 0x8, addend: 0x0, symName: __ZNSt5dequeISt4pairIiiESaIS1_EE3endEv, symObjAddr: 0x71D8, symBinAddr: 0x100007D98, symSize: 0x38 }
  - { offset: 0x3CFAC, size: 0x8, addend: 0x0, symName: __ZNSt5dequeISt4pairIiiESaIS1_EE5beginEv, symObjAddr: 0x71A0, symBinAddr: 0x100007D60, symSize: 0x38 }
  - { offset: 0x3CFFA, size: 0x8, addend: 0x0, symName: __ZNSt11_Deque_baseISt4pairIiiESaIS1_EED2Ev, symObjAddr: 0x7134, symBinAddr: 0x100007CF4, symSize: 0x6C }
  - { offset: 0x3D03A, size: 0x8, addend: 0x0, symName: __ZNSt11_Deque_baseISt4pairIiiESaIS1_EEC2Ev, symObjAddr: 0x70EC, symBinAddr: 0x100007CAC, symSize: 0x48 }
  - { offset: 0x3D088, size: 0x8, addend: 0x0, symName: __ZNSt11_Deque_baseISt4pairIiiESaIS1_EE11_Deque_implD1Ev, symObjAddr: 0x70C0, symBinAddr: 0x100007C80, symSize: 0x2C }
  - { offset: 0x3D0D2, size: 0x8, addend: 0x0, symName: __ZNSt5dequeIiSaIiEE9push_backERKi, symObjAddr: 0x6FF4, symBinAddr: 0x100007BB4, symSize: 0xCC }
  - { offset: 0x3D179, size: 0x8, addend: 0x0, symName: __ZNK9__gnu_cxx17__normal_iteratorIPiSt6vectorIiSaIiEEE4baseEv, symObjAddr: 0x6FE0, symBinAddr: 0x100007BA0, symSize: 0x14 }
  - { offset: 0x3D1CB, size: 0x8, addend: 0x0, symName: __ZN9__gnu_cxx17__normal_iteratorIPiSt6vectorIiSaIiEEEC1ERKS1_, symObjAddr: 0x6FB8, symBinAddr: 0x100007B78, symSize: 0x28 }
  - { offset: 0x3D1FA, size: 0x8, addend: 0x0, symName: __ZNSt5dequeIiSaIiEE9pop_frontEv, symObjAddr: 0x6F30, symBinAddr: 0x100007AF0, symSize: 0x88 }
  - { offset: 0x3D27E, size: 0x8, addend: 0x0, symName: __ZNSt5dequeIiSaIiEE5frontEv, symObjAddr: 0x6F04, symBinAddr: 0x100007AC4, symSize: 0x2C }
  - { offset: 0x3D2A8, size: 0x8, addend: 0x0, symName: __ZNKSt5dequeIiSaIiEE5emptyEv, symObjAddr: 0x6ED4, symBinAddr: 0x100007A94, symSize: 0x30 }
  - { offset: 0x3D2D2, size: 0x8, addend: 0x0, symName: __ZNSt5dequeIiSaIiEE9push_backEOi, symObjAddr: 0x6EA4, symBinAddr: 0x100007A64, symSize: 0x30 }
  - { offset: 0x3D310, size: 0x8, addend: 0x0, symName: __ZSt4moveIRiEONSt16remove_referenceIT_E4typeEOS2_, symObjAddr: 0x6E90, symBinAddr: 0x100007A50, symSize: 0x14 }
  - { offset: 0x3D346, size: 0x8, addend: 0x0, symName: __ZNSt5dequeIiSaIiEE15_M_destroy_dataESt15_Deque_iteratorIiRiPiES5_RKS0_, symObjAddr: 0x6E70, symBinAddr: 0x100007A30, symSize: 0x20 }
  - { offset: 0x3D3A1, size: 0x8, addend: 0x0, symName: __ZNSt11_Deque_baseIiSaIiEE19_M_get_Tp_allocatorEv, symObjAddr: 0x6E5C, symBinAddr: 0x100007A1C, symSize: 0x14 }
  - { offset: 0x3D3CB, size: 0x8, addend: 0x0, symName: __ZNSt5dequeIiSaIiEE3endEv, symObjAddr: 0x6E24, symBinAddr: 0x1000079E4, symSize: 0x38 }
  - { offset: 0x3D3F5, size: 0x8, addend: 0x0, symName: __ZNSt5dequeIiSaIiEE5beginEv, symObjAddr: 0x6DEC, symBinAddr: 0x1000079AC, symSize: 0x38 }
  - { offset: 0x3D443, size: 0x8, addend: 0x0, symName: __ZNSt11_Deque_baseIiSaIiEED2Ev, symObjAddr: 0x6D80, symBinAddr: 0x100007940, symSize: 0x6C }
  - { offset: 0x3D483, size: 0x8, addend: 0x0, symName: __ZNSt11_Deque_baseIiSaIiEEC2Ev, symObjAddr: 0x6D38, symBinAddr: 0x1000078F8, symSize: 0x48 }
  - { offset: 0x3D4D1, size: 0x8, addend: 0x0, symName: __ZNSt11_Deque_baseIiSaIiEE11_Deque_implD1Ev, symObjAddr: 0x6D0C, symBinAddr: 0x1000078CC, symSize: 0x2C }
  - { offset: 0x3D51B, size: 0x8, addend: 0x0, symName: __ZNSt6vectorIiSaIiEE18_M_fill_initializeEmRKi, symObjAddr: 0x6CB4, symBinAddr: 0x100007874, symSize: 0x58 }
  - { offset: 0x3D59D, size: 0x8, addend: 0x0, symName: __ZNSt12_Vector_baseIiSaIiEEC2EmRKS0_, symObjAddr: 0x6C60, symBinAddr: 0x100007820, symSize: 0x54 }
  - { offset: 0x3D5D1, size: 0x8, addend: 0x0, symName: __ZNSt6vectorIiSaIiEE17_S_check_init_lenEmRKS0_, symObjAddr: 0x6BDC, symBinAddr: 0x10000779C, symSize: 0x84 }
  - { offset: 0x3D687, size: 0x8, addend: 0x0, symName: __ZNSt6vectorIiSaIiEE19_M_range_initializeIPKiEEvT_S5_St20forward_iterator_tag, symObjAddr: 0x6AF8, symBinAddr: 0x1000076B8, symSize: 0xE4 }
  - { offset: 0x3D7A5, size: 0x8, addend: 0x0, symName: __ZNKSt16initializer_listIiE3endEv, symObjAddr: 0x6AC0, symBinAddr: 0x100007680, symSize: 0x38 }
  - { offset: 0x3D7CF, size: 0x8, addend: 0x0, symName: __ZNKSt16initializer_listIiE5beginEv, symObjAddr: 0x6AA8, symBinAddr: 0x100007668, symSize: 0x18 }
  - { offset: 0x3D821, size: 0x8, addend: 0x0, symName: __ZNSt12_Vector_baseIiSaIiEEC2ERKS0_, symObjAddr: 0x6A80, symBinAddr: 0x100007640, symSize: 0x28 }
  - { offset: 0x3D866, size: 0x8, addend: 0x0, symName: __ZNSt6vectorIiSaIiEE17_M_realloc_appendIJRKiEEEvDpOT_, symObjAddr: 0x68C4, symBinAddr: 0x100007484, symSize: 0x1BC }
  - { offset: 0x3D9EB, size: 0x8, addend: 0x0, symName: __ZZNSt6vectorIiSaIiEE17_M_realloc_appendIJRKiEEEvDpOT_EN6_GuardC1EPimRS0_, symObjAddr: 0x6820, symBinAddr: 0x1000073E0, symSize: 0x44 }
  - { offset: 0x3DA30, size: 0x8, addend: 0x0, symName: __ZZNSt6vectorIiSaIiEE17_M_realloc_appendIJRKiEEEvDpOT_EN6_GuardD1Ev, symObjAddr: 0x6864, symBinAddr: 0x100007424, symSize: 0x60 }
  - { offset: 0x3DB67, size: 0x8, addend: 0x0, symName: __ZNSt12_Vector_baseIiSaIiEE13_M_deallocateEPim, symObjAddr: 0x67C8, symBinAddr: 0x100007388, symSize: 0x58 }
  - { offset: 0x3DC0D, size: 0x8, addend: 0x0, symName: __ZNSt15__new_allocatorIiED2Ev, symObjAddr: 0x67B4, symBinAddr: 0x100007374, symSize: 0x14 }
  - { offset: 0x3DC4D, size: 0x8, addend: 0x0, symName: __ZNSt12_Vector_baseIiSaIiEE17_Vector_impl_dataC2Ev, symObjAddr: 0x6788, symBinAddr: 0x100007348, symSize: 0x2C }
  - { offset: 0x3DCAE, size: 0x8, addend: 0x0, symName: __ZNSt12_Vector_baseIiSaIiEE19_M_get_Tp_allocatorEv, symObjAddr: 0x6774, symBinAddr: 0x100007334, symSize: 0x14 }
  - { offset: 0x3DCDB, size: 0x8, addend: 0x0, symName: __ZSt7forwardIbEOT_RNSt16remove_referenceIS0_E4typeE, symObjAddr: 0x6760, symBinAddr: 0x100007320, symSize: 0x14 }
  - { offset: 0x3DD35, size: 0x8, addend: 0x0, symName: __ZNSt15__new_allocatorIcED2Ev, symObjAddr: 0x674C, symBinAddr: 0x10000730C, symSize: 0x14 }
  - { offset: 0x3DDBD, size: 0x8, addend: 0x0, symName: __ZNSt6vectorIS_IiSaIiEESaIS1_EEC1ESt16initializer_listIS1_ERKS2_, symObjAddr: 0x66DC, symBinAddr: 0x10000729C, symSize: 0x70 }
  - { offset: 0x3DE39, size: 0x8, addend: 0x0, symName: __ZNSt7__cxx1112basic_stringIcSt11char_traitsIcESaIcEEC1IS3_EEmcRKS3_, symObjAddr: 0x6668, symBinAddr: 0x100007228, symSize: 0x74 }
  - { offset: 0x3DEA2, size: 0x8, addend: 0x0, symName: __ZNSt6vectorIS_IiSaIiEESaIS1_EEC1ERKS3_, symObjAddr: 0x6554, symBinAddr: 0x100007114, symSize: 0x114 }
  - { offset: 0x3DFB5, size: 0x8, addend: 0x0, symName: __ZNKSt6vectorIiSaIiEE4sizeEv, symObjAddr: 0x652C, symBinAddr: 0x1000070EC, symSize: 0x28 }
  - { offset: 0x3E023, size: 0x8, addend: 0x0, symName: __ZNSt6vectorIS_IiSaIiEESaIS1_EEC1EmRKS1_RKS2_, symObjAddr: 0x64BC, symBinAddr: 0x10000707C, symSize: 0x70 }
  - { offset: 0x3E0AC, size: 0x8, addend: 0x0, symName: __ZNSt4pairIiiEC1IiRiLb1EEEOT_OT0_, symObjAddr: 0x6474, symBinAddr: 0x100007034, symSize: 0x48 }
  - { offset: 0x3E11A, size: 0x8, addend: 0x0, symName: __ZNSt6vectorIS_IiSaIiEESaIS1_EED1Ev, symObjAddr: 0x6418, symBinAddr: 0x100006FD8, symSize: 0x5C }
  - { offset: 0x3E1AC, size: 0x8, addend: 0x0, symName: __ZNSt6vectorIS_IiSaIiEESaIS1_EEC1EmRKS2_, symObjAddr: 0x63B0, symBinAddr: 0x100006F70, symSize: 0x68 }
  - { offset: 0x3E21A, size: 0x8, addend: 0x0, symName: __ZNSt6vectorIS_IiSaIiEESaIS1_EEixEm, symObjAddr: 0x637C, symBinAddr: 0x100006F3C, symSize: 0x34 }
  - { offset: 0x3E255, size: 0x8, addend: 0x0, symName: __ZNKSt5queueIiSt5dequeIiSaIiEEE4sizeEv, symObjAddr: 0x6360, symBinAddr: 0x100006F20, symSize: 0x1C }
  - { offset: 0x3E27F, size: 0x8, addend: 0x0, symName: __ZNKSt6vectorIS_IiSaIiEESaIS1_EE4sizeEv, symObjAddr: 0x632C, symBinAddr: 0x100006EEC, symSize: 0x34 }
  - { offset: 0x3E2A5, size: 0x8, addend: 0x0, symName: __ZSt9make_pairIRiS0_ESt4pairINSt25__strip_reference_wrapperINSt5decayIT_E4typeEE6__typeENS2_INS3_IT0_E4typeEE6__typeEEOS4_OS9_, symObjAddr: 0x62E0, symBinAddr: 0x100006EA0, symSize: 0x4C }
  - { offset: 0x3E2F6, size: 0x8, addend: 0x0, symName: __ZNSt3setISt4pairIiiESt4lessIS1_ESaIS1_EE5eraseERKS1_, symObjAddr: 0x62BC, symBinAddr: 0x100006E7C, symSize: 0x24 }
  - { offset: 0x3E331, size: 0x8, addend: 0x0, symName: __ZNKSt23_Rb_tree_const_iteratorISt4pairIiiEEdeEv, symObjAddr: 0x629C, symBinAddr: 0x100006E5C, symSize: 0x20 }
  - { offset: 0x3E35B, size: 0x8, addend: 0x0, symName: __ZNKSt3setISt4pairIiiESt4lessIS1_ESaIS1_EE5beginEv, symObjAddr: 0x6280, symBinAddr: 0x100006E40, symSize: 0x1C }
  - { offset: 0x3E385, size: 0x8, addend: 0x0, symName: __ZNKSt3setISt4pairIiiESt4lessIS1_ESaIS1_EE5emptyEv, symObjAddr: 0x6264, symBinAddr: 0x100006E24, symSize: 0x1C }
  - { offset: 0x3E3AF, size: 0x8, addend: 0x0, symName: __ZNSt3setISt4pairIiiESt4lessIS1_ESaIS1_EE6insertEOS1_, symObjAddr: 0x6210, symBinAddr: 0x100006DD0, symSize: 0x54 }
  - { offset: 0x3E41F, size: 0x8, addend: 0x0, symName: __ZNSt8_Rb_treeISt4pairIiiES1_St9_IdentityIS1_ESt4lessIS1_ESaIS1_EED1Ev, symObjAddr: 0x61DC, symBinAddr: 0x100006D9C, symSize: 0x34 }
  - { offset: 0x3E47F, size: 0x8, addend: 0x0, symName: __ZNSt8_Rb_treeISt4pairIiiES1_St9_IdentityIS1_ESt4lessIS1_ESaIS1_EE13_Rb_tree_implIS5_Lb1EEC1Ev, symObjAddr: 0x6198, symBinAddr: 0x100006D58, symSize: 0x44 }
  - { offset: 0x3E514, size: 0x8, addend: 0x0, symName: __ZNSt6vectorIiSaIiEEC1ERKS1_, symObjAddr: 0x6084, symBinAddr: 0x100006C44, symSize: 0x114 }
  - { offset: 0x3E627, size: 0x8, addend: 0x0, symName: __ZNK9__gnu_cxx17__normal_iteratorIPSt6vectorIiSaIiEES1_IS3_SaIS3_EEEdeEv, symObjAddr: 0x606C, symBinAddr: 0x100006C2C, symSize: 0x18 }
  - { offset: 0x3E651, size: 0x8, addend: 0x0, symName: __ZN9__gnu_cxx17__normal_iteratorIPSt6vectorIiSaIiEES1_IS3_SaIS3_EEEppEv, symObjAddr: 0x6044, symBinAddr: 0x100006C04, symSize: 0x28 }
  - { offset: 0x3E67E, size: 0x8, addend: 0x0, symName: __ZN9__gnu_cxxneIPSt6vectorIiSaIiEES1_IS3_SaIS3_EEEEbRKNS_17__normal_iteratorIT_T0_EESC_, symObjAddr: 0x6000, symBinAddr: 0x100006BC0, symSize: 0x44 }
  - { offset: 0x3E6CF, size: 0x8, addend: 0x0, symName: __ZNSt6vectorIS_IiSaIiEESaIS1_EE3endEv, symObjAddr: 0x5FD8, symBinAddr: 0x100006B98, symSize: 0x28 }
  - { offset: 0x3E6F9, size: 0x8, addend: 0x0, symName: __ZNSt6vectorIS_IiSaIiEESaIS1_EE5beginEv, symObjAddr: 0x5FB4, symBinAddr: 0x100006B74, symSize: 0x24 }
  - { offset: 0x3E723, size: 0x8, addend: 0x0, symName: __ZNSt14priority_queueISt4pairIiiESt6vectorIS1_SaIS1_EESt7greaterIS1_EE3popEv, symObjAddr: 0x5F68, symBinAddr: 0x100006B28, symSize: 0x4C }
  - { offset: 0x3E74D, size: 0x8, addend: 0x0, symName: __ZNKSt14priority_queueISt4pairIiiESt6vectorIS1_SaIS1_EESt7greaterIS1_EE3topEv, symObjAddr: 0x5F4C, symBinAddr: 0x100006B0C, symSize: 0x1C }
  - { offset: 0x3E777, size: 0x8, addend: 0x0, symName: __ZNKSt14priority_queueISt4pairIiiESt6vectorIS1_SaIS1_EESt7greaterIS1_EE5emptyEv, symObjAddr: 0x5F30, symBinAddr: 0x100006AF0, symSize: 0x1C }
  - { offset: 0x3E7A1, size: 0x8, addend: 0x0, symName: __ZNSt14priority_queueISt4pairIiiESt6vectorIS1_SaIS1_EESt7greaterIS1_EE4pushEOS1_, symObjAddr: 0x5ED0, symBinAddr: 0x100006A90, symSize: 0x60 }
  - { offset: 0x3E7D8, size: 0x8, addend: 0x0, symName: __ZSt9make_pairIiRiESt4pairINSt25__strip_reference_wrapperINSt5decayIT_E4typeEE6__typeENS2_INS3_IT0_E4typeEE6__typeEEOS4_OS9_, symObjAddr: 0x5E84, symBinAddr: 0x100006A44, symSize: 0x4C }
  - { offset: 0x3E84D, size: 0x8, addend: 0x0, symName: __ZNSt6vectorISt4pairIiiESaIS1_EED1Ev, symObjAddr: 0x5E28, symBinAddr: 0x1000069E8, symSize: 0x5C }
  - { offset: 0x3E8D1, size: 0x8, addend: 0x0, symName: __ZNSt14priority_queueISt4pairIiiESt6vectorIS1_SaIS1_EESt7greaterIS1_EEC1IS4_vEEv, symObjAddr: 0x5DFC, symBinAddr: 0x1000069BC, symSize: 0x2C }
  - { offset: 0x3E91F, size: 0x8, addend: 0x0, symName: __ZNSt6vectorISt4pairIiiESaIS1_EEC1Ev, symObjAddr: 0x5DDC, symBinAddr: 0x10000699C, symSize: 0x20 }
  - { offset: 0x3E95F, size: 0x8, addend: 0x0, symName: __ZNSt12_Vector_baseISt4pairIiiESaIS1_EEC2Ev, symObjAddr: 0x5DBC, symBinAddr: 0x10000697C, symSize: 0x20 }
  - { offset: 0x3E9AC, size: 0x8, addend: 0x0, symName: __ZNSt12_Vector_baseISt4pairIiiESaIS1_EE12_Vector_implD1Ev, symObjAddr: 0x5D90, symBinAddr: 0x100006950, symSize: 0x2C }
  - { offset: 0x3E9F5, size: 0x8, addend: 0x0, symName: __ZNKSt6vectorIcSaIcEE4sizeEv, symObjAddr: 0x5D6C, symBinAddr: 0x10000692C, symSize: 0x24 }
  - { offset: 0x3EA1F, size: 0x8, addend: 0x0, symName: __ZNSt5dequeIcSaIcEE9pop_frontEv, symObjAddr: 0x5CE4, symBinAddr: 0x1000068A4, symSize: 0x88 }
  - { offset: 0x3EAA3, size: 0x8, addend: 0x0, symName: __ZNSt5dequeIcSaIcEE5frontEv, symObjAddr: 0x5CB8, symBinAddr: 0x100006878, symSize: 0x2C }
  - { offset: 0x3EACD, size: 0x8, addend: 0x0, symName: __ZNKSt5dequeIcSaIcEE4sizeEv, symObjAddr: 0x5C88, symBinAddr: 0x100006848, symSize: 0x30 }
  - { offset: 0x3EAF7, size: 0x8, addend: 0x0, symName: __ZNSt5dequeIcSaIcEE9push_backERKc, symObjAddr: 0x5BBC, symBinAddr: 0x10000677C, symSize: 0xCC }
  - { offset: 0x3EB9E, size: 0x8, addend: 0x0, symName: __ZNKSt17_Rb_tree_iteratorISt4pairIKciEEdeEv, symObjAddr: 0x5B9C, symBinAddr: 0x10000675C, symSize: 0x20 }
  - { offset: 0x3EBC8, size: 0x8, addend: 0x0, symName: __ZNSt17_Rb_tree_iteratorISt4pairIKciEEppEv, symObjAddr: 0x5B6C, symBinAddr: 0x10000672C, symSize: 0x30 }
  - { offset: 0x3EBEE, size: 0x8, addend: 0x0, symName: __ZStneRKSt17_Rb_tree_iteratorISt4pairIKciEES5_, symObjAddr: 0x5B3C, symBinAddr: 0x1000066FC, symSize: 0x30 }
  - { offset: 0x3EC2D, size: 0x8, addend: 0x0, symName: __ZNSt3mapIciSt4lessIcESaISt4pairIKciEEE3endEv, symObjAddr: 0x5B20, symBinAddr: 0x1000066E0, symSize: 0x1C }
  - { offset: 0x3EC57, size: 0x8, addend: 0x0, symName: __ZNSt3mapIciSt4lessIcESaISt4pairIKciEEE5beginEv, symObjAddr: 0x5B04, symBinAddr: 0x1000066C4, symSize: 0x1C }
  - { offset: 0x3ECA5, size: 0x8, addend: 0x0, symName: __ZNSt5dequeIcSaIcEED1Ev, symObjAddr: 0x5A9C, symBinAddr: 0x10000665C, symSize: 0x68 }
  - { offset: 0x3ECF0, size: 0x8, addend: 0x0, symName: __ZNSt11_Deque_baseIcSaIcEED2Ev, symObjAddr: 0x5A30, symBinAddr: 0x1000065F0, symSize: 0x6C }
  - { offset: 0x3ED30, size: 0x8, addend: 0x0, symName: __ZNSt11_Deque_baseIcSaIcEEC2Ev, symObjAddr: 0x59E8, symBinAddr: 0x1000065A8, symSize: 0x48 }
  - { offset: 0x3ED7E, size: 0x8, addend: 0x0, symName: __ZNSt11_Deque_baseIcSaIcEE11_Deque_implD1Ev, symObjAddr: 0x59BC, symBinAddr: 0x10000657C, symSize: 0x2C }
  - { offset: 0x3EDC8, size: 0x8, addend: 0x0, symName: __ZNSt6vectorIcSaIcEE9push_backERKc, symObjAddr: 0x58F4, symBinAddr: 0x1000064B4, symSize: 0xC8 }
  - { offset: 0x3EE96, size: 0x8, addend: 0x0, symName: __ZNSt12_Vector_baseIcSaIcEE12_Vector_implC1EOS2_, symObjAddr: 0x5888, symBinAddr: 0x100006448, symSize: 0x6C }
  - { offset: 0x3EF1D, size: 0x8, addend: 0x0, symName: __ZNKSt3mapIcSt6vectorIcSaIcEESt4lessIcESaISt4pairIKcS2_EEE4sizeEv, symObjAddr: 0x586C, symBinAddr: 0x10000642C, symSize: 0x1C }
  - { offset: 0x3EF47, size: 0x8, addend: 0x0, symName: __ZNSt6vectorIcSaIcEEaSESt16initializer_listIcE, symObjAddr: 0x5820, symBinAddr: 0x1000063E0, symSize: 0x4C }
  - { offset: 0x3EF82, size: 0x8, addend: 0x0, symName: __ZNSt3mapIcSt6vectorIcSaIcEESt4lessIcESaISt4pairIKcS2_EEEixERS6_, symObjAddr: 0x5734, symBinAddr: 0x1000062F4, symSize: 0xEC }
  - { offset: 0x3EFCE, size: 0x8, addend: 0x0, symName: __ZNSt3mapIciSt4lessIcESaISt4pairIKciEEEixERS3_, symObjAddr: 0x5648, symBinAddr: 0x100006208, symSize: 0xEC }
  - { offset: 0x3F01A, size: 0x8, addend: 0x0, symName: __ZNSt6vectorIcSaIcEEixEm, symObjAddr: 0x5624, symBinAddr: 0x1000061E4, symSize: 0x24 }
  - { offset: 0x3F055, size: 0x8, addend: 0x0, symName: __ZNSt6vectorIS_IcSaIcEESaIS1_EEixEm, symObjAddr: 0x55F0, symBinAddr: 0x1000061B0, symSize: 0x34 }
  - { offset: 0x3F090, size: 0x8, addend: 0x0, symName: __ZNKSt6vectorIS_IcSaIcEESaIS1_EE4sizeEv, symObjAddr: 0x55BC, symBinAddr: 0x10000617C, symSize: 0x34 }
  - { offset: 0x3F0DE, size: 0x8, addend: 0x0, symName: __ZNSt8_Rb_treeIcSt4pairIKciESt10_Select1stIS2_ESt4lessIcESaIS2_EED1Ev, symObjAddr: 0x5588, symBinAddr: 0x100006148, symSize: 0x34 }
  - { offset: 0x3F13E, size: 0x8, addend: 0x0, symName: __ZNSt8_Rb_treeIcSt4pairIKciESt10_Select1stIS2_ESt4lessIcESaIS2_EE13_Rb_tree_implIS6_Lb1EEC1Ev, symObjAddr: 0x5544, symBinAddr: 0x100006104, symSize: 0x44 }
  - { offset: 0x3F1CF, size: 0x8, addend: 0x0, symName: __ZNSt8_Rb_treeIcSt4pairIKcSt6vectorIcSaIcEEESt10_Select1stIS5_ESt4lessIcESaIS5_EED1Ev, symObjAddr: 0x5510, symBinAddr: 0x1000060D0, symSize: 0x34 }
  - { offset: 0x3F22F, size: 0x8, addend: 0x0, symName: __ZNSt8_Rb_treeIcSt4pairIKcSt6vectorIcSaIcEEESt10_Select1stIS5_ESt4lessIcESaIS5_EE13_Rb_tree_implIS9_Lb1EEC1Ev, symObjAddr: 0x54CC, symBinAddr: 0x10000608C, symSize: 0x44 }
  - { offset: 0x3F2C0, size: 0x8, addend: 0x0, symName: __ZNSt6vectorIcSaIcEED1Ev, symObjAddr: 0x5470, symBinAddr: 0x100006030, symSize: 0x5C }
  - { offset: 0x3F340, size: 0x8, addend: 0x0, symName: __ZNSt12_Vector_baseIcSaIcEED2Ev, symObjAddr: 0x5424, symBinAddr: 0x100005FE4, symSize: 0x4C }
  - { offset: 0x3F380, size: 0x8, addend: 0x0, symName: __ZNSt12_Vector_baseIcSaIcEE12_Vector_implC1Ev, symObjAddr: 0x53EC, symBinAddr: 0x100005FAC, symSize: 0x38 }
  - { offset: 0x3F434, size: 0x8, addend: 0x0, symName: __ZNSt4pairIiiEC1IRiS2_Lb1EEEOT_OT0_, symObjAddr: 0x53A4, symBinAddr: 0x100005F64, symSize: 0x48 }
  - { offset: 0x3F47E, size: 0x8, addend: 0x0, symName: __ZNSt5queueISt4pairIiiESt5dequeIS1_SaIS1_EEE3popEv, symObjAddr: 0x5384, symBinAddr: 0x100005F44, symSize: 0x20 }
  - { offset: 0x3F4A8, size: 0x8, addend: 0x0, symName: __ZNSt5queueISt4pairIiiESt5dequeIS1_SaIS1_EEE5frontEv, symObjAddr: 0x5368, symBinAddr: 0x100005F28, symSize: 0x1C }
  - { offset: 0x3F4D2, size: 0x8, addend: 0x0, symName: __ZNKSt5queueISt4pairIiiESt5dequeIS1_SaIS1_EEE5emptyEv, symObjAddr: 0x534C, symBinAddr: 0x100005F0C, symSize: 0x1C }
  - { offset: 0x3F4FC, size: 0x8, addend: 0x0, symName: __ZNSt5queueISt4pairIiiESt5dequeIS1_SaIS1_EEE4pushEOS1_, symObjAddr: 0x5310, symBinAddr: 0x100005ED0, symSize: 0x3C }
  - { offset: 0x3F57F, size: 0x8, addend: 0x0, symName: __ZNSt4pairIiiEC1IRiiLb1EEEOT_OT0_, symObjAddr: 0x52C8, symBinAddr: 0x100005E88, symSize: 0x48 }
  - { offset: 0x3F5ED, size: 0x8, addend: 0x0, symName: __ZNSt5dequeISt4pairIiiESaIS1_EED1Ev, symObjAddr: 0x5260, symBinAddr: 0x100005E20, symSize: 0x68 }
  - { offset: 0x3F63C, size: 0x8, addend: 0x0, symName: __ZNSt5queueISt4pairIiiESt5dequeIS1_SaIS1_EEEC1IS4_vEEv, symObjAddr: 0x5224, symBinAddr: 0x100005DE4, symSize: 0x3C }
  - { offset: 0x3F68A, size: 0x8, addend: 0x0, symName: __ZNSt5dequeISt4pairIiiESaIS1_EEC1Ev, symObjAddr: 0x5204, symBinAddr: 0x100005DC4, symSize: 0x20 }
  - { offset: 0x3F6B0, size: 0x8, addend: 0x0, symName: __ZNSt5queueIiSt5dequeIiSaIiEEE4pushERKi, symObjAddr: 0x51DC, symBinAddr: 0x100005D9C, symSize: 0x28 }
  - { offset: 0x3F6EB, size: 0x8, addend: 0x0, symName: __ZNK9__gnu_cxx17__normal_iteratorIPiSt6vectorIiSaIiEEEdeEv, symObjAddr: 0x51C4, symBinAddr: 0x100005D84, symSize: 0x18 }
  - { offset: 0x3F715, size: 0x8, addend: 0x0, symName: __ZN9__gnu_cxx17__normal_iteratorIPiSt6vectorIiSaIiEEEppEv, symObjAddr: 0x519C, symBinAddr: 0x100005D5C, symSize: 0x28 }
  - { offset: 0x3F73B, size: 0x8, addend: 0x0, symName: __ZN9__gnu_cxxneIPiSt6vectorIiSaIiEEEEbRKNS_17__normal_iteratorIT_T0_EESA_, symObjAddr: 0x5158, symBinAddr: 0x100005D18, symSize: 0x44 }
  - { offset: 0x3F78C, size: 0x8, addend: 0x0, symName: __ZNSt6vectorIiSaIiEE3endEv, symObjAddr: 0x5130, symBinAddr: 0x100005CF0, symSize: 0x28 }
  - { offset: 0x3F7B6, size: 0x8, addend: 0x0, symName: __ZNSt6vectorIiSaIiEE5beginEv, symObjAddr: 0x510C, symBinAddr: 0x100005CCC, symSize: 0x24 }
  - { offset: 0x3F7E0, size: 0x8, addend: 0x0, symName: __ZNSt5queueIiSt5dequeIiSaIiEEE3popEv, symObjAddr: 0x50EC, symBinAddr: 0x100005CAC, symSize: 0x20 }
  - { offset: 0x3F80A, size: 0x8, addend: 0x0, symName: __ZNSt5queueIiSt5dequeIiSaIiEEE5frontEv, symObjAddr: 0x50D0, symBinAddr: 0x100005C90, symSize: 0x1C }
  - { offset: 0x3F834, size: 0x8, addend: 0x0, symName: __ZNKSt5queueIiSt5dequeIiSaIiEEE5emptyEv, symObjAddr: 0x50B4, symBinAddr: 0x100005C74, symSize: 0x1C }
  - { offset: 0x3F85E, size: 0x8, addend: 0x0, symName: __ZNSt6vectorIiSaIiEEixEm, symObjAddr: 0x508C, symBinAddr: 0x100005C4C, symSize: 0x28 }
  - { offset: 0x3F899, size: 0x8, addend: 0x0, symName: __ZNSt5queueIiSt5dequeIiSaIiEEE4pushEOi, symObjAddr: 0x5050, symBinAddr: 0x100005C10, symSize: 0x3C }
  - { offset: 0x3F8F8, size: 0x8, addend: 0x0, symName: __ZNSt5dequeIiSaIiEED1Ev, symObjAddr: 0x4FE8, symBinAddr: 0x100005BA8, symSize: 0x68 }
  - { offset: 0x3F947, size: 0x8, addend: 0x0, symName: __ZNSt5queueIiSt5dequeIiSaIiEEEC1IS2_vEEv, symObjAddr: 0x4FAC, symBinAddr: 0x100005B6C, symSize: 0x3C }
  - { offset: 0x3F995, size: 0x8, addend: 0x0, symName: __ZNSt5dequeIiSaIiEEC1Ev, symObjAddr: 0x4F8C, symBinAddr: 0x100005B4C, symSize: 0x20 }
  - { offset: 0x3F9FF, size: 0x8, addend: 0x0, symName: __ZNSt6vectorIiSaIiEEC1EmRKiRKS0_, symObjAddr: 0x4F1C, symBinAddr: 0x100005ADC, symSize: 0x70 }
  - { offset: 0x3FA76, size: 0x8, addend: 0x0, symName: __ZNSt6vectorIiSaIiEEC1ESt16initializer_listIiERKS0_, symObjAddr: 0x4EAC, symBinAddr: 0x100005A6C, symSize: 0x70 }
  - { offset: 0x3FAC4, size: 0x8, addend: 0x0, symName: __ZNSt6vectorIiSaIiEE9push_backERKi, symObjAddr: 0x4DE4, symBinAddr: 0x1000059A4, symSize: 0xC8 }
  - { offset: 0x3FB8F, size: 0x8, addend: 0x0, symName: __ZNSt12_Vector_baseIiSaIiEED2Ev, symObjAddr: 0x4D94, symBinAddr: 0x100005954, symSize: 0x50 }
  - { offset: 0x3FBEF, size: 0x8, addend: 0x0, symName: __ZNSt12_Vector_baseIiSaIiEE12_Vector_implC1Ev, symObjAddr: 0x4D5C, symBinAddr: 0x10000591C, symSize: 0x38 }
  - { offset: 0x3FC7F, size: 0x8, addend: 0x0, symName: __ZNSt6vectorIiSaIiEED1Ev, symObjAddr: 0x4D00, symBinAddr: 0x1000058C0, symSize: 0x5C }
  - { offset: 0x3FCDE, size: 0x8, addend: 0x0, symName: __ZSt7forwardIiEOT_RNSt16remove_referenceIS0_E4typeE, symObjAddr: 0x4CEC, symBinAddr: 0x1000058AC, symSize: 0x14 }
  - { offset: 0x3FD10, size: 0x8, addend: 0x0, symName: __ZSt3maxImERKT_S2_S2_, symObjAddr: 0x4CB4, symBinAddr: 0x100005874, symSize: 0x38 }
  - { offset: 0x3FDB5, size: 0x8, addend: 0x0, symName: __ZNSt7__cxx1112basic_stringIcSt11char_traitsIcESaIcEE12_Alloc_hiderD1Ev, symObjAddr: 0x4C88, symBinAddr: 0x100005848, symSize: 0x2C }
  - { offset: 0x3FE02, size: 0x8, addend: 0x0, symName: _main, symObjAddr: 0x4858, symBinAddr: 0x100005418, symSize: 0x430 }
  - { offset: 0x400F2, size: 0x8, addend: 0x0, symName: __Z9floodFillRSt6vectorIS_IiSaIiEESaIS1_EEiii, symObjAddr: 0x46F8, symBinAddr: 0x1000052B8, symSize: 0x160 }
  - { offset: 0x4029D, size: 0x8, addend: 0x0, symName: __Z9floodFillRSt6vectorIS_IiSaIiEESaIS1_EES4_iiiRiS5_, symObjAddr: 0x4360, symBinAddr: 0x100004F20, symSize: 0x398 }
  - { offset: 0x40339, size: 0x8, addend: 0x0, symName: __Z13numIslandsDfsRSt6vectorIS_IcSaIcEESaIS1_EE, symObjAddr: 0x4154, symBinAddr: 0x100004D14, symSize: 0x20C }
  - { offset: 0x40507, size: 0x8, addend: 0x0, symName: __Z13numIslandsDfsRSt6vectorIS_IcSaIcEESaIS1_EERS_IS_IiSaIiEESaIS6_EEiiRiSA_, symObjAddr: 0x3E04, symBinAddr: 0x1000049C4, symSize: 0x350 }
  - { offset: 0x40592, size: 0x8, addend: 0x0, symName: __Z10numIslandsRSt6vectorIS_IcSaIcEESaIS1_EE, symObjAddr: 0x3BE0, symBinAddr: 0x1000047A0, symSize: 0x224 }
  - { offset: 0x40762, size: 0x8, addend: 0x0, symName: __Z13numIslandsBfsRSt6vectorIS_IcSaIcEESaIS1_EERS_IS_IiSaIiEESaIS6_EERiSA_SA_SA_, symObjAddr: 0x36E0, symBinAddr: 0x1000042A0, symSize: 0x500 }
  - { offset: 0x4084E, size: 0x8, addend: 0x0, symName: __Z16findCircleNumTUFRSt6vectorIS_IiSaIiEESaIS1_EE, symObjAddr: 0x3498, symBinAddr: 0x100004058, symSize: 0x248 }
  - { offset: 0x40A41, size: 0x8, addend: 0x0, symName: __Z3dfsRSt6vectorIS_IiSaIiEESaIS1_EERS1_i, symObjAddr: 0x33C0, symBinAddr: 0x100003F80, symSize: 0xD8 }
  - { offset: 0x40AE4, size: 0x8, addend: 0x0, symName: __Z16findCircleNumDfsRSt6vectorIS_IiSaIiEESaIS1_EE, symObjAddr: 0x32B4, symBinAddr: 0x100003E74, symSize: 0x10C }
  - { offset: 0x40BF4, size: 0x8, addend: 0x0, symName: __Z13findCircleNumRSt6vectorIS_IiSaIiEESaIS1_EERS1_i, symObjAddr: 0x31C4, symBinAddr: 0x100003D84, symSize: 0xF0 }
  - { offset: 0x40C70, size: 0x8, addend: 0x0, symName: __Z13findCircleNumRSt6vectorIS_IiSaIiEESaIS1_EE, symObjAddr: 0x2F9C, symBinAddr: 0x100003B5C, symSize: 0x228 }
  - { offset: 0x40DE0, size: 0x8, addend: 0x0, symName: __Z10dfsOfGraphRSt6vectorIS_IiSaIiEESaIS1_EE, symObjAddr: 0x2EDC, symBinAddr: 0x100003A9C, symSize: 0xC0 }
  - { offset: 0x40ECC, size: 0x8, addend: 0x0, symName: __Z10dfsOfGraphRSt6vectorIS_IiSaIiEESaIS1_EEiRS1_S5_, symObjAddr: 0x2DE4, symBinAddr: 0x1000039A4, symSize: 0xF8 }
  - { offset: 0x40F80, size: 0x8, addend: 0x0, symName: __Z13bfsOfGraphTUFRSt6vectorIS_IiSaIiEESaIS1_EE, symObjAddr: 0x2BF4, symBinAddr: 0x1000037B4, symSize: 0x1F0 }
  - { offset: 0x410F5, size: 0x8, addend: 0x0, symName: __Z10bfsOfGraphRSt6vectorIS_IiSaIiEESaIS1_EE, symObjAddr: 0x2984, symBinAddr: 0x100003544, symSize: 0x270 }
  - { offset: 0x412D8, size: 0x8, addend: 0x0, symName: __Z18dijkstraUsingStackiPSt6vectorIS_IiSaIiEESaIS1_EEi, symObjAddr: 0x2684, symBinAddr: 0x100003244, symSize: 0x300 }
  - { offset: 0x4149F, size: 0x8, addend: 0x0, symName: __ZNSt3setISt4pairIiiESt4lessIS1_ESaIS1_EED1Ev, symObjAddr: 0x2664, symBinAddr: 0x100003224, symSize: 0x20 }
  - { offset: 0x414DF, size: 0x8, addend: 0x0, symName: __ZNSt3setISt4pairIiiESt4lessIS1_ESaIS1_EEC1Ev, symObjAddr: 0x2644, symBinAddr: 0x100003204, symSize: 0x20 }
  - { offset: 0x4151F, size: 0x8, addend: 0x0, symName: __ZNSt8_Rb_treeISt4pairIiiES1_St9_IdentityIS1_ESt4lessIS1_ESaIS1_EEC1Ev, symObjAddr: 0x2624, symBinAddr: 0x1000031E4, symSize: 0x20 }
  - { offset: 0x4156D, size: 0x8, addend: 0x0, symName: __ZNSt8_Rb_treeISt4pairIiiES1_St9_IdentityIS1_ESt4lessIS1_ESaIS1_EE13_Rb_tree_implIS5_Lb1EED1Ev, symObjAddr: 0x25F8, symBinAddr: 0x1000031B8, symSize: 0x2C }
  - { offset: 0x415BF, size: 0x8, addend: 0x0, symName: __Z18dijkstraUsingQueueiPSt6vectorIS_IiSaIiEESaIS1_EEi, symObjAddr: 0x2380, symBinAddr: 0x100002F40, symSize: 0x278 }
  - { offset: 0x41758, size: 0x8, addend: 0x0, symName: __Z15dijkstraUsingPQiPSt6vectorIS_IiSaIiEESaIS1_EEi, symObjAddr: 0x2108, symBinAddr: 0x100002CC8, symSize: 0x278 }
  - { offset: 0x41911, size: 0x8, addend: 0x0, symName: __ZNSt14priority_queueISt4pairIiiESt6vectorIS1_SaIS1_EESt7greaterIS1_EED1Ev, symObjAddr: 0x20E8, symBinAddr: 0x100002CA8, symSize: 0x20 }
  - { offset: 0x4193E, size: 0x8, addend: 0x0, symName: __Z16TOPOLOGICAL_SORTRSt6vectorIS_IcSaIcEESaIS1_EE, symObjAddr: 0x1C9C, symBinAddr: 0x10000285C, symSize: 0x44C }
  - { offset: 0x41B03, size: 0x8, addend: 0x0, symName: __ZNSt5dequeIcSaIcEEC1Ev, symObjAddr: 0x1C7C, symBinAddr: 0x10000283C, symSize: 0x20 }
  - { offset: 0x41B48, size: 0x8, addend: 0x0, symName: __ZNSt6vectorIcSaIcEEC1EOS1_, symObjAddr: 0x1C54, symBinAddr: 0x100002814, symSize: 0x28 }
  - { offset: 0x41B96, size: 0x8, addend: 0x0, symName: __ZNSt12_Vector_baseIcSaIcEEC2EOS1_, symObjAddr: 0x1C2C, symBinAddr: 0x1000027EC, symSize: 0x28 }
  - { offset: 0x41BE9, size: 0x8, addend: 0x0, symName: __ZNSt3mapIciSt4lessIcESaISt4pairIKciEEED1Ev, symObjAddr: 0x1C0C, symBinAddr: 0x1000027CC, symSize: 0x20 }
  - { offset: 0x41C29, size: 0x8, addend: 0x0, symName: __ZNSt3mapIciSt4lessIcESaISt4pairIKciEEEC1Ev, symObjAddr: 0x1BEC, symBinAddr: 0x1000027AC, symSize: 0x20 }
  - { offset: 0x41C69, size: 0x8, addend: 0x0, symName: __ZNSt8_Rb_treeIcSt4pairIKciESt10_Select1stIS2_ESt4lessIcESaIS2_EEC1Ev, symObjAddr: 0x1BCC, symBinAddr: 0x10000278C, symSize: 0x20 }
  - { offset: 0x41CB7, size: 0x8, addend: 0x0, symName: __ZNSt8_Rb_treeIcSt4pairIKciESt10_Select1stIS2_ESt4lessIcESaIS2_EE13_Rb_tree_implIS6_Lb1EED1Ev, symObjAddr: 0x1BA0, symBinAddr: 0x100002760, symSize: 0x2C }
  - { offset: 0x41D25, size: 0x8, addend: 0x0, symName: __ZNSt3mapIcSt6vectorIcSaIcEESt4lessIcESaISt4pairIKcS2_EEED1Ev, symObjAddr: 0x1B80, symBinAddr: 0x100002740, symSize: 0x20 }
  - { offset: 0x41D65, size: 0x8, addend: 0x0, symName: __ZNSt3mapIcSt6vectorIcSaIcEESt4lessIcESaISt4pairIKcS2_EEEC1Ev, symObjAddr: 0x1B60, symBinAddr: 0x100002720, symSize: 0x20 }
  - { offset: 0x41DA5, size: 0x8, addend: 0x0, symName: __ZNSt8_Rb_treeIcSt4pairIKcSt6vectorIcSaIcEEESt10_Select1stIS5_ESt4lessIcESaIS5_EEC1Ev, symObjAddr: 0x1B40, symBinAddr: 0x100002700, symSize: 0x20 }
  - { offset: 0x41DF3, size: 0x8, addend: 0x0, symName: __ZNSt8_Rb_treeIcSt4pairIKcSt6vectorIcSaIcEEESt10_Select1stIS5_ESt4lessIcESaIS5_EE13_Rb_tree_implIS9_Lb1EED1Ev, symObjAddr: 0x1B14, symBinAddr: 0x1000026D4, symSize: 0x2C }
  - { offset: 0x41E57, size: 0x8, addend: 0x0, symName: __ZNSt6vectorIcSaIcEEC1Ev, symObjAddr: 0x1AF4, symBinAddr: 0x1000026B4, symSize: 0x20 }
  - { offset: 0x41E97, size: 0x8, addend: 0x0, symName: __ZNSt12_Vector_baseIcSaIcEEC2Ev, symObjAddr: 0x1AD4, symBinAddr: 0x100002694, symSize: 0x20 }
  - { offset: 0x41EE4, size: 0x8, addend: 0x0, symName: __ZNSt12_Vector_baseIcSaIcEE12_Vector_implD1Ev, symObjAddr: 0x1AA8, symBinAddr: 0x100002668, symSize: 0x2C }
  - { offset: 0x41F34, size: 0x8, addend: 0x0, symName: __Z20isCycleDirectedGraphiPSt6vectorIiSaIiEE, symObjAddr: 0x18CC, symBinAddr: 0x10000248C, symSize: 0x1DC }
  - { offset: 0x41FDD, size: 0x8, addend: 0x0, symName: __Z8dfsCheckiPSt6vectorIiSaIiEEPiS3_, symObjAddr: 0x178C, symBinAddr: 0x10000234C, symSize: 0x140 }
  - { offset: 0x4208B, size: 0x8, addend: 0x0, symName: __Z10isCycleDFSiPSt6vectorIiSaIiEE, symObjAddr: 0x1654, symBinAddr: 0x100002214, symSize: 0x138 }
  - { offset: 0x42113, size: 0x8, addend: 0x0, symName: __Z3DFSiiPSt6vectorIiSaIiEEPi, symObjAddr: 0x1528, symBinAddr: 0x1000020E8, symSize: 0x12C }
  - { offset: 0x421C1, size: 0x8, addend: 0x0, symName: __Z10isCycleBFSiPSt6vectorIiSaIiEE, symObjAddr: 0x13F4, symBinAddr: 0x100001FB4, symSize: 0x134 }
  - { offset: 0x42249, size: 0x8, addend: 0x0, symName: __Z11detectCycleiPSt6vectorIiSaIiEEPi, symObjAddr: 0x1208, symBinAddr: 0x100001DC8, symSize: 0x1EC }
  - { offset: 0x42352, size: 0x8, addend: 0x0, symName: __ZNSt5queueISt4pairIiiESt5dequeIS1_SaIS1_EEED1Ev, symObjAddr: 0x11E8, symBinAddr: 0x100001DA8, symSize: 0x20 }
  - { offset: 0x4237F, size: 0x8, addend: 0x0, symName: __Z3BFSPSt6vectorIiSaIiEE, symObjAddr: 0xFF8, symBinAddr: 0x100001BB8, symSize: 0x1F0 }
  - { offset: 0x424C5, size: 0x8, addend: 0x0, symName: __Z3DFSv, symObjAddr: 0xCC8, symBinAddr: 0x100001888, symSize: 0x330 }
  - { offset: 0x42639, size: 0x8, addend: 0x0, symName: __Z13DFS_RECURSIONiPSt6vectorIiSaIiEERS1_, symObjAddr: 0xBBC, symBinAddr: 0x10000177C, symSize: 0x10C }
  - { offset: 0x426D3, size: 0x8, addend: 0x0, symName: __Z3BFSv, symObjAddr: 0x710, symBinAddr: 0x1000012D0, symSize: 0x4AC }
  - { offset: 0x428EC, size: 0x8, addend: 0x0, symName: __ZNSt5queueIiSt5dequeIiSaIiEEED1Ev, symObjAddr: 0x6F0, symBinAddr: 0x1000012B0, symSize: 0x20 }
  - { offset: 0x42915, size: 0x8, addend: 0x0, symName: __Z16storeGraphInListv, symObjAddr: 0x414, symBinAddr: 0x100000FD4, symSize: 0x2DC }
  - { offset: 0x429E3, size: 0x8, addend: 0x0, symName: __ZNSt6vectorIiSaIiEEC1Ev, symObjAddr: 0x3F4, symBinAddr: 0x100000FB4, symSize: 0x20 }
  - { offset: 0x42A23, size: 0x8, addend: 0x0, symName: __ZNSt12_Vector_baseIiSaIiEEC2Ev, symObjAddr: 0x3D4, symBinAddr: 0x100000F94, symSize: 0x20 }
  - { offset: 0x42A70, size: 0x8, addend: 0x0, symName: __ZNSt12_Vector_baseIiSaIiEE12_Vector_implD1Ev, symObjAddr: 0x3A8, symBinAddr: 0x100000F68, symSize: 0x2C }
  - { offset: 0x42ABC, size: 0x8, addend: 0x0, symName: __Z18storeGraphInMatrixv, symObjAddr: 0x110, symBinAddr: 0x100000CD0, symSize: 0x298 }
  - { offset: 0x42B7A, size: 0x8, addend: 0x0, symName: __ZNSt15_Rb_tree_header8_M_resetEv, symObjAddr: 0xD4, symBinAddr: 0x100000C94, symSize: 0x3C }
  - { offset: 0x42BBE, size: 0x8, addend: 0x0, symName: __ZNSt15_Rb_tree_headerC2Ev, symObjAddr: 0xAC, symBinAddr: 0x100000C6C, symSize: 0x28 }
  - { offset: 0x42BE0, size: 0x8, addend: 0x0, symName: __ZSt16__deque_buf_sizem, symObjAddr: 0x7C, symBinAddr: 0x100000C3C, symSize: 0x30 }
  - { offset: 0x42C09, size: 0x8, addend: 0x0, symName: __ZSt3minImERKT_S2_S2_, symObjAddr: 0x44, symBinAddr: 0x100000C04, symSize: 0x38 }
  - { offset: 0x42C52, size: 0x8, addend: 0x0, symName: __ZdlPvS_, symObjAddr: 0x2C, symBinAddr: 0x100000BEC, symSize: 0x18 }
  - { offset: 0x42C88, size: 0x8, addend: 0x0, symName: __ZnwmPv, symObjAddr: 0x14, symBinAddr: 0x100000BD4, symSize: 0x18 }
  - { offset: 0x42CBA, size: 0x8, addend: 0x0, symName: __ZSt17__size_to_integerm, symObjAddr: 0x0, symBinAddr: 0x100000BC0, symSize: 0x14 }
...
