---
triple:          'arm64-apple-darwin'
binary-path:     '/Users/lalitsiraswa/Documents/Daily-Practice/BinaryTree'
relocations:
  - { offsetInCU: 0x383E4, offset: 0x383E4, size: 0x8, addend: 0x0, symName: __ZStL8__ioinit, symObjAddr: 0x16B368, symBinAddr: 0x100034000, symSize: 0x0 }
  - { offsetInCU: 0x3A4F0, offset: 0x3A4F0, size: 0x8, addend: 0x0, symName: __ZNSt10_Head_baseILm0ERKiLb0EE7_M_headERS2_, symObjAddr: 0x189F8, symBinAddr: 0x10001B0C0, symSize: 0x18 }
  - { offsetInCU: 0x3A545, offset: 0x3A545, size: 0x8, addend: 0x0, symName: __ZNSt11__copy_moveILb0ELb0ESt26random_access_iterator_tagE12__assign_oneIPSt4pairIP8TreeNodeS3_IiiEES8_EEvPT_PT0_, symObjAddr: 0x189D0, symBinAddr: 0x10001B098, symSize: 0x28 }
  - { offsetInCU: 0x3A5A8, offset: 0x3A5A8, size: 0x8, addend: 0x0, symName: __ZNSt11_Tuple_implILm0EJRKiEE7_M_headERS2_, symObjAddr: 0x189B4, symBinAddr: 0x10001B07C, symSize: 0x1C }
  - { offsetInCU: 0x3A5FE, offset: 0x3A5FE, size: 0x8, addend: 0x0, symName: __ZNSt20__copy_move_backwardILb0ELb1ESt26random_access_iterator_tagE13__copy_move_bIPSt4pairIP8TreeNodeS3_IiiEES8_EEPT0_PT_SC_SA_, symObjAddr: 0x18908, symBinAddr: 0x10001AFD0, symSize: 0xAC }
  - { offsetInCU: 0x3A66D, offset: 0x3A66D, size: 0x8, addend: 0x0, symName: __ZNSt11__copy_moveILb0ELb1ESt26random_access_iterator_tagE8__copy_mIPSt4pairIP8TreeNodeS3_IiiEES8_EEPT0_PT_SC_SA_, symObjAddr: 0x18878, symBinAddr: 0x10001AF40, symSize: 0x90 }
  - { offsetInCU: 0x3A6DC, offset: 0x3A6DC, size: 0x8, addend: 0x0, symName: __ZNSt11__copy_moveILb1ELb1ESt26random_access_iterator_tagE8__copy_mIiiEEPT0_PT_S6_S4_, symObjAddr: 0x187E8, symBinAddr: 0x10001AEB0, symSize: 0x90 }
  - { offsetInCU: 0x3A761, offset: 0x3A761, size: 0x8, addend: 0x0, symName: __ZSt12__get_helperILm0ERKiJEERT0_RSt11_Tuple_implIXT_EJS2_DpT1_EE, symObjAddr: 0x187CC, symBinAddr: 0x10001AE94, symSize: 0x1C }
  - { offsetInCU: 0x3A7A3, offset: 0x3A7A3, size: 0x8, addend: 0x0, symName: __ZNSt11__copy_moveILb0ELb0ESt26random_access_iterator_tagE12__assign_oneIPiS3_EEvPT_PT0_, symObjAddr: 0x187A4, symBinAddr: 0x10001AE6C, symSize: 0x28 }
  - { offsetInCU: 0x3A7F0, offset: 0x3A7F0, size: 0x8, addend: 0x0, symName: __ZNSt11__copy_moveILb0ELb0ESt26random_access_iterator_tagE12__assign_oneIPSt4pairIP8TreeNodeiES7_EEvPT_PT0_, symObjAddr: 0x1877C, symBinAddr: 0x10001AE44, symSize: 0x28 }
  - { offsetInCU: 0x3A884, offset: 0x3A884, size: 0x8, addend: 0x0, symName: __ZNSt4pairIiiEC1IiiLb1EEEv, symObjAddr: 0x18758, symBinAddr: 0x10001AE20, symSize: 0x24 }
  - { offsetInCU: 0x3A94A, offset: 0x3A94A, size: 0x8, addend: 0x0, symName: __ZNSt8_Rb_treeIiiSt9_IdentityIiESt4lessIiESaIiEE13_Rb_tree_implIS3_Lb1EEC1Ev, symObjAddr: 0x18714, symBinAddr: 0x10001ADDC, symSize: 0x44 }
  - { offsetInCU: 0x3A9F7, offset: 0x3A9F7, size: 0x8, addend: 0x0, symName: __ZNSt8_Rb_treeIiSt4pairIKiSt8multisetIiSt4lessIiESaIiEEESt10_Select1stIS7_ES4_SaIS7_EE13_Rb_tree_implIS4_Lb1EEC1Ev, symObjAddr: 0x186D0, symBinAddr: 0x10001AD98, symSize: 0x44 }
  - { offsetInCU: 0x3A9F1, offset: 0x3A9F1, size: 0x8, addend: 0x0, symName: __ZSt23__copy_move_backward_a2ILb0EPPSt4pairIP8TreeNodeS0_IiiEES6_ET1_T0_S8_S7_, symObjAddr: 0x186A4, symBinAddr: 0x10001AD6C, symSize: 0x2C }
  - { offsetInCU: 0x3AA59, offset: 0x3AA59, size: 0x8, addend: 0x0, symName: __ZSt14__copy_move_a2ILb0EPPSt4pairIP8TreeNodeS0_IiiEES6_ET1_T0_S8_S7_, symObjAddr: 0x18678, symBinAddr: 0x10001AD40, symSize: 0x2C }
  - { offsetInCU: 0x3AAC1, offset: 0x3AAC1, size: 0x8, addend: 0x0, symName: __ZSt14__copy_move_a2ILb1EPiS0_ET1_T0_S2_S1_, symObjAddr: 0x1864C, symBinAddr: 0x10001AD14, symSize: 0x2C }
  - { offsetInCU: 0x3ABB1, offset: 0x3ABB1, size: 0x8, addend: 0x0, symName: __ZNSt8_Rb_treeIiSt4pairIKiSt6vectorIiSaIiEEESt10_Select1stIS5_ESt4lessIiESaIS5_EE13_Rb_tree_implIS9_Lb1EEC1Ev, symObjAddr: 0x18608, symBinAddr: 0x10001ACD0, symSize: 0x44 }
  - { offsetInCU: 0x3ABB0, offset: 0x3ABB0, size: 0x8, addend: 0x0, symName: __ZSt3getILm0EJRKiEERNSt13tuple_elementIXT_ESt5tupleIJDpT0_EEE4typeERS6_, symObjAddr: 0x185EC, symBinAddr: 0x10001ACB4, symSize: 0x1C }
  - { offsetInCU: 0x3ABEF, offset: 0x3ABEF, size: 0x8, addend: 0x0, symName: __ZNSt20__copy_move_backwardILb0ELb1ESt26random_access_iterator_tagE13__copy_move_bIPiS3_EEPT0_PT_S7_S5_, symObjAddr: 0x18540, symBinAddr: 0x10001AC08, symSize: 0xAC }
  - { offsetInCU: 0x3AC5E, offset: 0x3AC5E, size: 0x8, addend: 0x0, symName: __ZNSt11__copy_moveILb0ELb1ESt26random_access_iterator_tagE8__copy_mIPiS3_EEPT0_PT_S7_S5_, symObjAddr: 0x184B0, symBinAddr: 0x10001AB78, symSize: 0x90 }
  - { offsetInCU: 0x3ACCD, offset: 0x3ACCD, size: 0x8, addend: 0x0, symName: __ZNSt11__copy_moveILb0ELb0ESt26random_access_iterator_tagE12__assign_oneIPP8TreeNodeS5_EEvPT_PT0_, symObjAddr: 0x18488, symBinAddr: 0x10001AB50, symSize: 0x28 }
  - { offsetInCU: 0x3AD1A, offset: 0x3AD1A, size: 0x8, addend: 0x0, symName: __ZNSt20__copy_move_backwardILb0ELb1ESt26random_access_iterator_tagE13__copy_move_bIPSt4pairIP8TreeNodeiES7_EEPT0_PT_SB_S9_, symObjAddr: 0x183DC, symBinAddr: 0x10001AAA4, symSize: 0xAC }
  - { offsetInCU: 0x3AD89, offset: 0x3AD89, size: 0x8, addend: 0x0, symName: __ZNSt11__copy_moveILb0ELb1ESt26random_access_iterator_tagE8__copy_mIPSt4pairIP8TreeNodeiES7_EEPT0_PT_SB_S9_, symObjAddr: 0x1834C, symBinAddr: 0x10001AA14, symSize: 0x90 }
  - { offsetInCU: 0x3ADF8, offset: 0x3ADF8, size: 0x8, addend: 0x0, symName: __ZSt12__niter_baseIPKiSt6vectorIiSaIiEEET_N9__gnu_cxx17__normal_iteratorIS5_T0_EE, symObjAddr: 0x1832C, symBinAddr: 0x10001A9F4, symSize: 0x20 }
  - { offsetInCU: 0x3AF09, offset: 0x3AF09, size: 0x8, addend: 0x0, symName: __ZNSt4pairIKiiEC1IJRS0_EJLm0EEJEJEEERSt5tupleIJDpT_EERS4_IJDpT1_EESt12_Index_tupleIJXspT0_EEESD_IJXspT2_EEE, symObjAddr: 0x182E4, symBinAddr: 0x10001A9AC, symSize: 0x48 }
  - { offsetInCU: 0x3AFEA, offset: 0x3AFEA, size: 0x8, addend: 0x0, symName: __ZNSt4pairIKiS_IiiEEC1IJRS0_EJLm0EEJEJEEERSt5tupleIJDpT_EERS5_IJDpT1_EESt12_Index_tupleIJXspT0_EEESE_IJXspT2_EEE, symObjAddr: 0x18298, symBinAddr: 0x10001A960, symSize: 0x4C }
  - { offsetInCU: 0x3B121, offset: 0x3B121, size: 0x8, addend: 0x0, symName: __ZNSt4pairIKiSt8multisetIiSt4lessIiESaIiEEEC1IJRS0_EJLm0EEJEJEEERSt5tupleIJDpT_EERS9_IJDpT1_EESt12_Index_tupleIJXspT0_EEESI_IJXspT2_EEE, symObjAddr: 0x18238, symBinAddr: 0x10001A900, symSize: 0x60 }
  - { offsetInCU: 0x3B14B, offset: 0x3B14B, size: 0x8, addend: 0x0, symName: __ZNSt8multisetIiSt4lessIiESaIiEEC1Ev, symObjAddr: 0x18218, symBinAddr: 0x10001A8E0, symSize: 0x20 }
  - { offsetInCU: 0x3B19B, offset: 0x3B19B, size: 0x8, addend: 0x0, symName: __ZNSt8_Rb_treeIiiSt9_IdentityIiESt4lessIiESaIiEEC1Ev, symObjAddr: 0x181F8, symBinAddr: 0x10001A8C0, symSize: 0x20 }
  - { offsetInCU: 0x3B297, offset: 0x3B297, size: 0x8, addend: 0x0, symName: __ZNSt4pairIKiSt3mapIiSt8multisetIiSt4lessIiESaIiEES4_SaIS_IS0_S6_EEEEC1IJRS0_EJLm0EEJEJEEERSt5tupleIJDpT_EERSD_IJDpT1_EESt12_Index_tupleIJXspT0_EEESM_IJXspT2_EEE, symObjAddr: 0x18198, symBinAddr: 0x10001A860, symSize: 0x60 }
  - { offsetInCU: 0x3B2C5, offset: 0x3B2C5, size: 0x8, addend: 0x0, symName: __ZNSt3mapIiSt8multisetIiSt4lessIiESaIiEES2_SaISt4pairIKiS4_EEEC1Ev, symObjAddr: 0x18178, symBinAddr: 0x10001A840, symSize: 0x20 }
  - { offsetInCU: 0x3B31D, offset: 0x3B31D, size: 0x8, addend: 0x0, symName: __ZNSt8_Rb_treeIiSt4pairIKiSt8multisetIiSt4lessIiESaIiEEESt10_Select1stIS7_ES4_SaIS7_EEC1Ev, symObjAddr: 0x18158, symBinAddr: 0x10001A820, symSize: 0x20 }
  - { offsetInCU: 0x3B2E8, offset: 0x3B2E8, size: 0x8, addend: 0x0, symName: __ZSt23__copy_move_backward_a1ILb0EPPSt4pairIP8TreeNodeS0_IiiEES6_ET1_T0_S8_S7_, symObjAddr: 0x1812C, symBinAddr: 0x10001A7F4, symSize: 0x2C }
  - { offsetInCU: 0x3B350, offset: 0x3B350, size: 0x8, addend: 0x0, symName: __ZSt12__niter_wrapIPPSt4pairIP8TreeNodeS0_IiiEEET_RKS7_S7_, symObjAddr: 0x18114, symBinAddr: 0x10001A7DC, symSize: 0x18 }
  - { offsetInCU: 0x3B38C, offset: 0x3B38C, size: 0x8, addend: 0x0, symName: __ZSt14__copy_move_a1ILb0EPPSt4pairIP8TreeNodeS0_IiiEES6_ET1_T0_S8_S7_, symObjAddr: 0x180E8, symBinAddr: 0x10001A7B0, symSize: 0x2C }
  - { offsetInCU: 0x3B3F4, offset: 0x3B3F4, size: 0x8, addend: 0x0, symName: __ZSt12__niter_baseIPPSt4pairIP8TreeNodeS0_IiiEEET_S7_, symObjAddr: 0x180D4, symBinAddr: 0x10001A79C, symSize: 0x14 }
  - { offsetInCU: 0x3B427, offset: 0x3B427, size: 0x8, addend: 0x0, symName: __ZSt14__copy_move_a1ILb1EPiS0_ET1_T0_S2_S1_, symObjAddr: 0x180A8, symBinAddr: 0x10001A770, symSize: 0x2C }
  - { offsetInCU: 0x3B493, offset: 0x3B493, size: 0x8, addend: 0x0, symName: __ZNKSt13move_iteratorIPiE4baseEv, symObjAddr: 0x18090, symBinAddr: 0x10001A758, symSize: 0x18 }
  - { offsetInCU: 0x3B529, offset: 0x3B529, size: 0x8, addend: 0x0, symName: __ZNSt15__new_allocatorISt13_Rb_tree_nodeISt4pairIKiSt6vectorIiSaIiEEEEED2Ev, symObjAddr: 0x1807C, symBinAddr: 0x10001A744, symSize: 0x14 }
  - { offsetInCU: 0x3B512, offset: 0x3B512, size: 0x8, addend: 0x0, symName: __ZNK9__gnu_cxx5__ops14_Iter_less_valclINS_17__normal_iteratorIPiSt6vectorIiSaIiEEEEiEEbT_RT0_, symObjAddr: 0x18040, symBinAddr: 0x10001A708, symSize: 0x3C }
  - { offsetInCU: 0x3B64F, offset: 0x3B64F, size: 0x8, addend: 0x0, symName: __ZNSt4pairIKiSt6vectorIiSaIiEEEC1IJRS0_EJLm0EEJEJEEERSt5tupleIJDpT_EERS7_IJDpT1_EESt12_Index_tupleIJXspT0_EEESG_IJXspT2_EEE, symObjAddr: 0x17FE4, symBinAddr: 0x10001A6AC, symSize: 0x5C }
  - { offsetInCU: 0x3B74C, offset: 0x3B74C, size: 0x8, addend: 0x0, symName: __ZNSt4pairIKiSt3mapIiSt6vectorIiSaIiEESt4lessIiESaIS_IS0_S4_EEEEC1IJRS0_EJLm0EEJEJEEERSt5tupleIJDpT_EERSD_IJDpT1_EESt12_Index_tupleIJXspT0_EEESM_IJXspT2_EEE, symObjAddr: 0x17F84, symBinAddr: 0x10001A64C, symSize: 0x60 }
  - { offsetInCU: 0x3B77A, offset: 0x3B77A, size: 0x8, addend: 0x0, symName: __ZNSt3mapIiSt6vectorIiSaIiEESt4lessIiESaISt4pairIKiS2_EEEC1Ev, symObjAddr: 0x17F64, symBinAddr: 0x10001A62C, symSize: 0x20 }
  - { offsetInCU: 0x3B7D2, offset: 0x3B7D2, size: 0x8, addend: 0x0, symName: __ZNSt8_Rb_treeIiSt4pairIKiSt6vectorIiSaIiEEESt10_Select1stIS5_ESt4lessIiESaIS5_EEC1Ev, symObjAddr: 0x17F44, symBinAddr: 0x10001A60C, symSize: 0x20 }
  - { offsetInCU: 0x3B7A2, offset: 0x3B7A2, size: 0x8, addend: 0x0, symName: __ZSt23__copy_move_backward_a2ILb0EPPiS1_ET1_T0_S3_S2_, symObjAddr: 0x17F18, symBinAddr: 0x10001A5E0, symSize: 0x2C }
  - { offsetInCU: 0x3B80A, offset: 0x3B80A, size: 0x8, addend: 0x0, symName: __ZSt14__copy_move_a2ILb0EPPiS1_ET1_T0_S3_S2_, symObjAddr: 0x17EEC, symBinAddr: 0x10001A5B4, symSize: 0x2C }
  - { offsetInCU: 0x3B872, offset: 0x3B872, size: 0x8, addend: 0x0, symName: __ZSt9__fill_a1IPiiEN9__gnu_cxx11__enable_ifIXsrSt11__is_scalarIT0_E7__valueEvE6__typeET_S8_RKS4_, symObjAddr: 0x17E94, symBinAddr: 0x10001A55C, symSize: 0x58 }
  - { offsetInCU: 0x3B8E1, offset: 0x3B8E1, size: 0x8, addend: 0x0, symName: __ZNSt20__copy_move_backwardILb0ELb1ESt26random_access_iterator_tagE13__copy_move_bIPP8TreeNodeS5_EEPT0_PT_S9_S7_, symObjAddr: 0x17DE8, symBinAddr: 0x10001A4B0, symSize: 0xAC }
  - { offsetInCU: 0x3B950, offset: 0x3B950, size: 0x8, addend: 0x0, symName: __ZNSt11__copy_moveILb0ELb1ESt26random_access_iterator_tagE8__copy_mIPP8TreeNodeS5_EEPT0_PT_S9_S7_, symObjAddr: 0x17D58, symBinAddr: 0x10001A420, symSize: 0x90 }
  - { offsetInCU: 0x3B9BF, offset: 0x3B9BF, size: 0x8, addend: 0x0, symName: __ZSt23__copy_move_backward_a2ILb0EPPSt4pairIP8TreeNodeiES5_ET1_T0_S7_S6_, symObjAddr: 0x17D2C, symBinAddr: 0x10001A3F4, symSize: 0x2C }
  - { offsetInCU: 0x3BA27, offset: 0x3BA27, size: 0x8, addend: 0x0, symName: __ZSt14__copy_move_a2ILb0EPPSt4pairIP8TreeNodeiES5_ET1_T0_S7_S6_, symObjAddr: 0x17D00, symBinAddr: 0x10001A3C8, symSize: 0x2C }
  - { offsetInCU: 0x3BA8F, offset: 0x3BA8F, size: 0x8, addend: 0x0, symName: __ZSt13__copy_move_aILb0EN9__gnu_cxx17__normal_iteratorIPKiSt6vectorIiSaIiEEEEPiET1_T0_SA_S9_, symObjAddr: 0x17CA0, symBinAddr: 0x10001A368, symSize: 0x60 }
  - { offsetInCU: 0x3BAF7, offset: 0x3BAF7, size: 0x8, addend: 0x0, symName: __ZSt12__miter_baseIN9__gnu_cxx17__normal_iteratorIPKiSt6vectorIiSaIiEEEEET_S8_, symObjAddr: 0x17C8C, symBinAddr: 0x10001A354, symSize: 0x14 }
  - { offsetInCU: 0x3BBC7, offset: 0x3BBC7, size: 0x8, addend: 0x0, symName: __ZNSt4pairIKiiEC1IJRS0_EJEEESt21piecewise_construct_tSt5tupleIJDpT_EES5_IJDpT0_EE, symObjAddr: 0x17C50, symBinAddr: 0x10001A318, symSize: 0x3C }
  - { offsetInCU: 0x3BC69, offset: 0x3BC69, size: 0x8, addend: 0x0, symName: __ZNSt4pairIKiS_IiiEEC1IJRS0_EJEEESt21piecewise_construct_tSt5tupleIJDpT_EES6_IJDpT0_EE, symObjAddr: 0x17C14, symBinAddr: 0x10001A2DC, symSize: 0x3C }
  - { offsetInCU: 0x3BC68, offset: 0x3BC68, size: 0x8, addend: 0x0, symName: __ZNKSt23_Rb_tree_const_iteratorIiEdeEv, symObjAddr: 0x17BF4, symBinAddr: 0x10001A2BC, symSize: 0x20 }
  - { offsetInCU: 0x3BC92, offset: 0x3BC92, size: 0x8, addend: 0x0, symName: __ZNSt8_Rb_treeIiSt4pairIKiSt8multisetIiSt4lessIiESaIiEEESt10_Select1stIS7_ES4_SaIS7_EE17_M_construct_nodeIJRKS7_EEEvPSt13_Rb_tree_nodeIS7_EDpOT_, symObjAddr: 0x17AF0, symBinAddr: 0x10001A1B8, symSize: 0x104 }
  - { offsetInCU: 0x3BD8F, offset: 0x3BD8F, size: 0x8, addend: 0x0, symName: __ZNSt15__new_allocatorISt13_Rb_tree_nodeIiEE8allocateEmPKv, symObjAddr: 0x17A60, symBinAddr: 0x10001A128, symSize: 0x90 }
  - { offsetInCU: 0x3BED0, offset: 0x3BED0, size: 0x8, addend: 0x0, symName: __ZNSt4pairIKiSt8multisetIiSt4lessIiESaIiEEEC1IJRS0_EJEEESt21piecewise_construct_tSt5tupleIJDpT_EESA_IJDpT0_EE, symObjAddr: 0x17A24, symBinAddr: 0x10001A0EC, symSize: 0x3C }
  - { offsetInCU: 0x3BF87, offset: 0x3BF87, size: 0x8, addend: 0x0, symName: __ZNSt4pairIKiSt3mapIiSt8multisetIiSt4lessIiESaIiEES4_SaIS_IS0_S6_EEEEC1IJRS0_EJEEESt21piecewise_construct_tSt5tupleIJDpT_EESE_IJDpT0_EE, symObjAddr: 0x179E8, symBinAddr: 0x10001A0B0, symSize: 0x3C }
  - { offsetInCU: 0x3BF51, offset: 0x3BF51, size: 0x8, addend: 0x0, symName: __ZSt22__copy_move_backward_aILb0EPPSt4pairIP8TreeNodeS0_IiiEES6_ET1_T0_S8_S7_, symObjAddr: 0x17988, symBinAddr: 0x10001A050, symSize: 0x60 }
  - { offsetInCU: 0x3BFB9, offset: 0x3BFB9, size: 0x8, addend: 0x0, symName: __ZSt13__copy_move_aILb0EPPSt4pairIP8TreeNodeS0_IiiEES6_ET1_T0_S8_S7_, symObjAddr: 0x17928, symBinAddr: 0x100019FF0, symSize: 0x60 }
  - { offsetInCU: 0x3C021, offset: 0x3C021, size: 0x8, addend: 0x0, symName: __ZSt12__miter_baseIPPSt4pairIP8TreeNodeS0_IiiEEET_S7_, symObjAddr: 0x17914, symBinAddr: 0x100019FDC, symSize: 0x14 }
  - { offsetInCU: 0x3C06A, offset: 0x3C06A, size: 0x8, addend: 0x0, symName: __ZNSt11__copy_moveILb0ELb0ESt26random_access_iterator_tagE12__assign_oneIiiEEvPT_PT0_, symObjAddr: 0x178EC, symBinAddr: 0x100019FB4, symSize: 0x28 }
  - { offsetInCU: 0x3C0B7, offset: 0x3C0B7, size: 0x8, addend: 0x0, symName: __ZNSt11__copy_moveILb1ELb0ESt26random_access_iterator_tagE12__assign_oneIiiEEvPT_PT0_, symObjAddr: 0x178BC, symBinAddr: 0x100019F84, symSize: 0x30 }
  - { offsetInCU: 0x3C104, offset: 0x3C104, size: 0x8, addend: 0x0, symName: __ZSt13__copy_move_aILb1EPiS0_ET1_T0_S2_S1_, symObjAddr: 0x1785C, symBinAddr: 0x100019F24, symSize: 0x60 }
  - { offsetInCU: 0x3C16C, offset: 0x3C16C, size: 0x8, addend: 0x0, symName: __ZSt12__miter_baseIPiEDTcl12__miter_basecldtfp_4baseEEESt13move_iteratorIT_E, symObjAddr: 0x1783C, symBinAddr: 0x100019F04, symSize: 0x20 }
  - { offsetInCU: 0x3C1A3, offset: 0x3C1A3, size: 0x8, addend: 0x0, symName: __ZNSt8_Rb_treeIiSt4pairIKiSt6vectorIiSaIiEEESt10_Select1stIS5_ESt4lessIiESaIS5_EE8_M_eraseEPSt13_Rb_tree_nodeIS5_E, symObjAddr: 0x177D8, symBinAddr: 0x100019EA0, symSize: 0x64 }
  - { offsetInCU: 0x3C21E, offset: 0x3C21E, size: 0x8, addend: 0x0, symName: __ZNSt11__copy_moveILb0ELb0ESt26random_access_iterator_tagE12__assign_oneIiKiEEvPT_PT0_, symObjAddr: 0x177B0, symBinAddr: 0x100019E78, symSize: 0x28 }
  - { offsetInCU: 0x3C272, offset: 0x3C272, size: 0x8, addend: 0x0, symName: __ZSt11__push_heapIN9__gnu_cxx17__normal_iteratorIPiSt6vectorIiSaIiEEEEliNS0_5__ops14_Iter_less_valEEvT_T0_SA_T1_RT2_, symObjAddr: 0x1768C, symBinAddr: 0x100019D54, symSize: 0x124 }
  - { offsetInCU: 0x3C31E, offset: 0x3C31E, size: 0x8, addend: 0x0, symName: __ZSt4moveIRN9__gnu_cxx5__ops15_Iter_less_iterEEONSt16remove_referenceIT_E4typeEOS5_, symObjAddr: 0x17678, symBinAddr: 0x100019D40, symSize: 0x14 }
  - { offsetInCU: 0x3C3FD, offset: 0x3C3FD, size: 0x8, addend: 0x0, symName: __ZNSt4pairIKiSt6vectorIiSaIiEEEC1IJRS0_EJEEESt21piecewise_construct_tSt5tupleIJDpT_EES8_IJDpT0_EE, symObjAddr: 0x1763C, symBinAddr: 0x100019D04, symSize: 0x3C }
  - { offsetInCU: 0x3C4BB, offset: 0x3C4BB, size: 0x8, addend: 0x0, symName: __ZNSt4pairIKiSt3mapIiSt6vectorIiSaIiEESt4lessIiESaIS_IS0_S4_EEEEC1IJRS0_EJEEESt21piecewise_construct_tSt5tupleIJDpT_EESE_IJDpT0_EE, symObjAddr: 0x17600, symBinAddr: 0x100019CC8, symSize: 0x3C }
  - { offsetInCU: 0x3C4D7, offset: 0x3C4D7, size: 0x8, addend: 0x0, symName: __ZNSt11_Tuple_implILm0EJRKiEEC2EOS2_, symObjAddr: 0x175D8, symBinAddr: 0x100019CA0, symSize: 0x28 }
  - { offsetInCU: 0x3C4E1, offset: 0x3C4E1, size: 0x8, addend: 0x0, symName: __ZSt23__copy_move_backward_a1ILb0EPPiS1_ET1_T0_S3_S2_, symObjAddr: 0x175AC, symBinAddr: 0x100019C74, symSize: 0x2C }
  - { offsetInCU: 0x3C549, offset: 0x3C549, size: 0x8, addend: 0x0, symName: __ZSt12__niter_wrapIPPiET_RKS2_S2_, symObjAddr: 0x17594, symBinAddr: 0x100019C5C, symSize: 0x18 }
  - { offsetInCU: 0x3C585, offset: 0x3C585, size: 0x8, addend: 0x0, symName: __ZSt14__copy_move_a1ILb0EPPiS1_ET1_T0_S3_S2_, symObjAddr: 0x17568, symBinAddr: 0x100019C30, symSize: 0x2C }
  - { offsetInCU: 0x3C5ED, offset: 0x3C5ED, size: 0x8, addend: 0x0, symName: __ZSt12__niter_baseIPPiET_S2_, symObjAddr: 0x17554, symBinAddr: 0x100019C1C, symSize: 0x14 }
  - { offsetInCU: 0x3C620, offset: 0x3C620, size: 0x8, addend: 0x0, symName: __ZSt8__fill_aIPiiEvT_S1_RKT0_, symObjAddr: 0x17524, symBinAddr: 0x100019BEC, symSize: 0x30 }
  - { offsetInCU: 0x3C67E, offset: 0x3C67E, size: 0x8, addend: 0x0, symName: __ZSt23__copy_move_backward_a2ILb0EPPP8TreeNodeS3_ET1_T0_S5_S4_, symObjAddr: 0x174F8, symBinAddr: 0x100019BC0, symSize: 0x2C }
  - { offsetInCU: 0x3C6E6, offset: 0x3C6E6, size: 0x8, addend: 0x0, symName: __ZSt14__copy_move_a2ILb0EPPP8TreeNodeS3_ET1_T0_S5_S4_, symObjAddr: 0x174CC, symBinAddr: 0x100019B94, symSize: 0x2C }
  - { offsetInCU: 0x3C74E, offset: 0x3C74E, size: 0x8, addend: 0x0, symName: __ZSt23__copy_move_backward_a1ILb0EPPSt4pairIP8TreeNodeiES5_ET1_T0_S7_S6_, symObjAddr: 0x174A0, symBinAddr: 0x100019B68, symSize: 0x2C }
  - { offsetInCU: 0x3C7B6, offset: 0x3C7B6, size: 0x8, addend: 0x0, symName: __ZSt12__niter_wrapIPPSt4pairIP8TreeNodeiEET_RKS6_S6_, symObjAddr: 0x17488, symBinAddr: 0x100019B50, symSize: 0x18 }
  - { offsetInCU: 0x3C7F2, offset: 0x3C7F2, size: 0x8, addend: 0x0, symName: __ZSt14__copy_move_a1ILb0EPPSt4pairIP8TreeNodeiES5_ET1_T0_S7_S6_, symObjAddr: 0x1745C, symBinAddr: 0x100019B24, symSize: 0x2C }
  - { offsetInCU: 0x3C85A, offset: 0x3C85A, size: 0x8, addend: 0x0, symName: __ZSt12__niter_baseIPPSt4pairIP8TreeNodeiEET_S6_, symObjAddr: 0x17448, symBinAddr: 0x100019B10, symSize: 0x14 }
  - { offsetInCU: 0x3C902, offset: 0x3C902, size: 0x8, addend: 0x0, symName: __ZSt7forwardISt6vectorIiSaIiEEEOT_RNSt16remove_referenceIS3_E4typeE, symObjAddr: 0x17434, symBinAddr: 0x100019AFC, symSize: 0x14 }
  - { offsetInCU: 0x3C934, offset: 0x3C934, size: 0x8, addend: 0x0, symName: __ZSt4copyIN9__gnu_cxx17__normal_iteratorIPKiSt6vectorIiSaIiEEEEPiET0_T_SA_S9_, symObjAddr: 0x173EC, symBinAddr: 0x100019AB4, symSize: 0x48 }
  - { offsetInCU: 0x3C9FA, offset: 0x3C9FA, size: 0x8, addend: 0x0, symName: __ZNSt15__new_allocatorISt13_Rb_tree_nodeISt4pairIKiiEEE8allocateEmPKv, symObjAddr: 0x1735C, symBinAddr: 0x100019A24, symSize: 0x90 }
  - { offsetInCU: 0x3CA8A, offset: 0x3CA8A, size: 0x8, addend: 0x0, symName: __ZNK9__gnu_cxx16__aligned_membufISt4pairIKiiEE7_M_addrEv, symObjAddr: 0x17348, symBinAddr: 0x100019A10, symSize: 0x14 }
  - { offsetInCU: 0x3CB0A, offset: 0x3CB0A, size: 0x8, addend: 0x0, symName: __ZNSt15__new_allocatorISt13_Rb_tree_nodeISt4pairIKiS1_IiiEEEE8allocateEmPKv, symObjAddr: 0x172B8, symBinAddr: 0x100019980, symSize: 0x90 }
  - { offsetInCU: 0x3CB9A, offset: 0x3CB9A, size: 0x8, addend: 0x0, symName: __ZNK9__gnu_cxx16__aligned_membufISt4pairIKiS1_IiiEEE7_M_addrEv, symObjAddr: 0x172A4, symBinAddr: 0x10001996C, symSize: 0x14 }
  - { offsetInCU: 0x3CBC0, offset: 0x3CBC0, size: 0x8, addend: 0x0, symName: __ZSt13__copy_move_aILb0ESt23_Rb_tree_const_iteratorIiEPiET1_T0_S4_S3_, symObjAddr: 0x17244, symBinAddr: 0x10001990C, symSize: 0x60 }
  - { offsetInCU: 0x3CC28, offset: 0x3CC28, size: 0x8, addend: 0x0, symName: __ZNSt11__copy_moveILb0ELb0ESt26bidirectional_iterator_tagE8__copy_mISt23_Rb_tree_const_iteratorIiEPiEET0_T_S7_S6_, symObjAddr: 0x171E0, symBinAddr: 0x1000198A8, symSize: 0x64 }
  - { offsetInCU: 0x3CC8E, offset: 0x3CC8E, size: 0x8, addend: 0x0, symName: __ZN9__gnu_cxx16__aligned_membufIiE7_M_addrEv, symObjAddr: 0x171CC, symBinAddr: 0x100019894, symSize: 0x14 }
  - { offsetInCU: 0x3CCB8, offset: 0x3CCB8, size: 0x8, addend: 0x0, symName: __ZNSt8_Rb_treeIiSt4pairIKiSt8multisetIiSt4lessIiESaIiEEESt10_Select1stIS7_ES4_SaIS7_EE14_M_create_nodeIJRKS7_EEEPSt13_Rb_tree_nodeIS7_EDpOT_, symObjAddr: 0x1718C, symBinAddr: 0x100019854, symSize: 0x40 }
  - { offsetInCU: 0x3CD7A, offset: 0x3CD7A, size: 0x8, addend: 0x0, symName: __ZNK9__gnu_cxx16__aligned_membufIiE7_M_addrEv, symObjAddr: 0x17178, symBinAddr: 0x100019840, symSize: 0x14 }
  - { offsetInCU: 0x3CDA8, offset: 0x3CDA8, size: 0x8, addend: 0x0, symName: __ZNK9__gnu_cxx16__aligned_membufISt4pairIKiSt8multisetIiSt4lessIiESaIiEEEE7_M_addrEv, symObjAddr: 0x17164, symBinAddr: 0x10001982C, symSize: 0x14 }
  - { offsetInCU: 0x3CE28, offset: 0x3CE28, size: 0x8, addend: 0x0, symName: __ZNSt15__new_allocatorISt13_Rb_tree_nodeISt4pairIKiSt8multisetIiSt4lessIiESaIiEEEEE8allocateEmPKv, symObjAddr: 0x170C0, symBinAddr: 0x100019788, symSize: 0xA4 }
  - { offsetInCU: 0x3CEB8, offset: 0x3CEB8, size: 0x8, addend: 0x0, symName: __ZNK9__gnu_cxx16__aligned_membufISt4pairIKiSt3mapIiSt8multisetIiSt4lessIiESaIiEES6_SaIS1_IS2_S8_EEEEE7_M_addrEv, symObjAddr: 0x170AC, symBinAddr: 0x100019774, symSize: 0x14 }
  - { offsetInCU: 0x3CF38, offset: 0x3CF38, size: 0x8, addend: 0x0, symName: __ZNSt15__new_allocatorISt13_Rb_tree_nodeISt4pairIKiSt3mapIiSt8multisetIiSt4lessIiESaIiEES6_SaIS1_IS2_S8_EEEEEE8allocateEmPKv, symObjAddr: 0x17008, symBinAddr: 0x1000196D0, symSize: 0xA4 }
  - { offsetInCU: 0x3CFC0, offset: 0x3CFC0, size: 0x8, addend: 0x0, symName: __ZSt13copy_backwardIPPSt4pairIP8TreeNodeS0_IiiEES6_ET0_T_S8_S7_, symObjAddr: 0x16FC0, symBinAddr: 0x100019688, symSize: 0x48 }
  - { offsetInCU: 0x3D01E, offset: 0x3D01E, size: 0x8, addend: 0x0, symName: __ZSt4copyIPPSt4pairIP8TreeNodeS0_IiiEES6_ET0_T_S8_S7_, symObjAddr: 0x16F78, symBinAddr: 0x100019640, symSize: 0x48 }
  - { offsetInCU: 0x3D096, offset: 0x3D096, size: 0x8, addend: 0x0, symName: __ZNSt15__new_allocatorISt4pairIP8TreeNodeS0_IiiEEE8allocateEmPKv, symObjAddr: 0x16EFC, symBinAddr: 0x1000195C4, symSize: 0x7C }
  - { offsetInCU: 0x3D11E, offset: 0x3D11E, size: 0x8, addend: 0x0, symName: __ZSt13__copy_move_aILb0EN9__gnu_cxx17__normal_iteratorIPiSt6vectorIiSaIiEEEES2_ET1_T0_S8_S7_, symObjAddr: 0x16E9C, symBinAddr: 0x100019564, symSize: 0x60 }
  - { offsetInCU: 0x3D186, offset: 0x3D186, size: 0x8, addend: 0x0, symName: __ZNSt11__copy_moveILb0ELb1ESt26random_access_iterator_tagE8__copy_mIiiEEPT0_PT_S6_S4_, symObjAddr: 0x16E0C, symBinAddr: 0x1000194D4, symSize: 0x90 }
  - { offsetInCU: 0x3D1F5, offset: 0x3D1F5, size: 0x8, addend: 0x0, symName: __ZNSt20__copy_move_backwardILb1ELb1ESt26random_access_iterator_tagE13__copy_move_bIiiEEPT0_PT_S6_S4_, symObjAddr: 0x16D60, symBinAddr: 0x100019428, symSize: 0xAC }
  - { offsetInCU: 0x3D264, offset: 0x3D264, size: 0x8, addend: 0x0, symName: __ZSt4copyISt13move_iteratorIPiES1_ET0_T_S4_S3_, symObjAddr: 0x16D18, symBinAddr: 0x1000193E0, symSize: 0x48 }
  - { offsetInCU: 0x3D33C, offset: 0x3D33C, size: 0x8, addend: 0x0, symName: __ZNSt8_Rb_treeIiSt4pairIKiSt6vectorIiSaIiEEESt10_Select1stIS5_ESt4lessIiESaIS5_EED1Ev, symObjAddr: 0x16CE4, symBinAddr: 0x1000193AC, symSize: 0x34 }
  - { offsetInCU: 0x3D3A2, offset: 0x3D3A2, size: 0x8, addend: 0x0, symName: __ZNSt8_Rb_treeIiSt4pairIKiSt6vectorIiSaIiEEESt10_Select1stIS5_ESt4lessIiESaIS5_EE13_Rb_tree_implIS9_Lb1EED1Ev, symObjAddr: 0x16CB8, symBinAddr: 0x100019380, symSize: 0x2C }
  - { offsetInCU: 0x3D37E, offset: 0x3D37E, size: 0x8, addend: 0x0, symName: __ZNSt11__copy_moveILb0ELb1ESt26random_access_iterator_tagE8__copy_mIKiiEEPT0_PT_S7_S5_, symObjAddr: 0x16C28, symBinAddr: 0x1000192F0, symSize: 0x90 }
  - { offsetInCU: 0x3D3ED, offset: 0x3D3ED, size: 0x8, addend: 0x0, symName: __ZSt13__adjust_heapIN9__gnu_cxx17__normal_iteratorIPiSt6vectorIiSaIiEEEEliNS0_5__ops15_Iter_less_iterEEvT_T0_SA_T1_T2_, symObjAddr: 0x16A54, symBinAddr: 0x10001911C, symSize: 0x1D4 }
  - { offsetInCU: 0x3D4B3, offset: 0x3D4B3, size: 0x8, addend: 0x0, symName: __ZNSt15__new_allocatorISt13_Rb_tree_nodeISt4pairIKiSt6vectorIiSaIiEEEEE10deallocateEPS7_m, symObjAddr: 0x16A24, symBinAddr: 0x1000190EC, symSize: 0x30 }
  - { offsetInCU: 0x3D571, offset: 0x3D571, size: 0x8, addend: 0x0, symName: __ZNSt4pairIKiSt6vectorIiSaIiEEED1Ev, symObjAddr: 0x16A00, symBinAddr: 0x1000190C8, symSize: 0x24 }
  - { offsetInCU: 0x3D5CD, offset: 0x3D5CD, size: 0x8, addend: 0x0, symName: __ZNSt15__new_allocatorISt13_Rb_tree_nodeISt4pairIKiSt6vectorIiSaIiEEEEE8allocateEmPKv, symObjAddr: 0x16984, symBinAddr: 0x10001904C, symSize: 0x7C }
  - { offsetInCU: 0x3D65D, offset: 0x3D65D, size: 0x8, addend: 0x0, symName: __ZNK9__gnu_cxx16__aligned_membufISt4pairIKiSt6vectorIiSaIiEEEE7_M_addrEv, symObjAddr: 0x16970, symBinAddr: 0x100019038, symSize: 0x14 }
  - { offsetInCU: 0x3D712, offset: 0x3D712, size: 0x8, addend: 0x0, symName: __ZNSt5tupleIJRKiEEC1EOS2_, symObjAddr: 0x16948, symBinAddr: 0x100019010, symSize: 0x28 }
  - { offsetInCU: 0x3D72B, offset: 0x3D72B, size: 0x8, addend: 0x0, symName: __ZNSt15__new_allocatorISt13_Rb_tree_nodeISt4pairIKiSt3mapIiSt6vectorIiSaIiEESt4lessIiESaIS1_IS2_S6_EEEEEE8allocateEmPKv, symObjAddr: 0x168A4, symBinAddr: 0x100018F6C, symSize: 0xA4 }
  - { offsetInCU: 0x3D7BB, offset: 0x3D7BB, size: 0x8, addend: 0x0, symName: __ZNK9__gnu_cxx16__aligned_membufISt4pairIKiSt3mapIiSt6vectorIiSaIiEESt4lessIiESaIS1_IS2_S6_EEEEE7_M_addrEv, symObjAddr: 0x16890, symBinAddr: 0x100018F58, symSize: 0x14 }
  - { offsetInCU: 0x3D7E1, offset: 0x3D7E1, size: 0x8, addend: 0x0, symName: __ZSt22__copy_move_backward_aILb0EPPiS1_ET1_T0_S3_S2_, symObjAddr: 0x16830, symBinAddr: 0x100018EF8, symSize: 0x60 }
  - { offsetInCU: 0x3D849, offset: 0x3D849, size: 0x8, addend: 0x0, symName: __ZSt13__copy_move_aILb0EPPiS1_ET1_T0_S3_S2_, symObjAddr: 0x167D0, symBinAddr: 0x100018E98, symSize: 0x60 }
  - { offsetInCU: 0x3D8B1, offset: 0x3D8B1, size: 0x8, addend: 0x0, symName: __ZSt12__miter_baseIPPiET_S2_, symObjAddr: 0x167BC, symBinAddr: 0x100018E84, symSize: 0x14 }
  - { offsetInCU: 0x3D8E4, offset: 0x3D8E4, size: 0x8, addend: 0x0, symName: __ZSt10__fill_n_aIPimiET_S1_T0_RKT1_St26random_access_iterator_tag, symObjAddr: 0x16758, symBinAddr: 0x100018E20, symSize: 0x64 }
  - { offsetInCU: 0x3D96A, offset: 0x3D96A, size: 0x8, addend: 0x0, symName: __ZSt23__copy_move_backward_a1ILb0EPPP8TreeNodeS3_ET1_T0_S5_S4_, symObjAddr: 0x1672C, symBinAddr: 0x100018DF4, symSize: 0x2C }
  - { offsetInCU: 0x3D9D2, offset: 0x3D9D2, size: 0x8, addend: 0x0, symName: __ZSt12__niter_wrapIPPP8TreeNodeET_RKS4_S4_, symObjAddr: 0x16714, symBinAddr: 0x100018DDC, symSize: 0x18 }
  - { offsetInCU: 0x3DA0E, offset: 0x3DA0E, size: 0x8, addend: 0x0, symName: __ZSt14__copy_move_a1ILb0EPPP8TreeNodeS3_ET1_T0_S5_S4_, symObjAddr: 0x166E8, symBinAddr: 0x100018DB0, symSize: 0x2C }
  - { offsetInCU: 0x3DA76, offset: 0x3DA76, size: 0x8, addend: 0x0, symName: __ZSt12__niter_baseIPPP8TreeNodeET_S4_, symObjAddr: 0x166D4, symBinAddr: 0x100018D9C, symSize: 0x14 }
  - { offsetInCU: 0x3DAA9, offset: 0x3DAA9, size: 0x8, addend: 0x0, symName: __ZSt22__copy_move_backward_aILb0EPPSt4pairIP8TreeNodeiES5_ET1_T0_S7_S6_, symObjAddr: 0x16674, symBinAddr: 0x100018D3C, symSize: 0x60 }
  - { offsetInCU: 0x3DB11, offset: 0x3DB11, size: 0x8, addend: 0x0, symName: __ZSt13__copy_move_aILb0EPPSt4pairIP8TreeNodeiES5_ET1_T0_S7_S6_, symObjAddr: 0x16614, symBinAddr: 0x100018CDC, symSize: 0x60 }
  - { offsetInCU: 0x3DB79, offset: 0x3DB79, size: 0x8, addend: 0x0, symName: __ZSt12__miter_baseIPPSt4pairIP8TreeNodeiEET_S6_, symObjAddr: 0x16600, symBinAddr: 0x100018CC8, symSize: 0x14 }
  - { offsetInCU: 0x3DC3A, offset: 0x3DC3A, size: 0x8, addend: 0x0, symName: __ZSt4moveIRSt6vectorIiSaIiEEEONSt16remove_referenceIT_E4typeEOS5_, symObjAddr: 0x165EC, symBinAddr: 0x100018CB4, symSize: 0x14 }
  - { offsetInCU: 0x3DC82, offset: 0x3DC82, size: 0x8, addend: 0x0, symName: __ZNSt20__uninitialized_copyILb1EE13__uninit_copyIN9__gnu_cxx17__normal_iteratorIPKiSt6vectorIiSaIiEEEEPiEET0_T_SC_SB_, symObjAddr: 0x165C0, symBinAddr: 0x100018C88, symSize: 0x2C }
  - { offsetInCU: 0x3DCEB, offset: 0x3DCEB, size: 0x8, addend: 0x0, symName: __ZSt7forwardIRPSt13_Rb_tree_nodeISt4pairIKiiEEEOT_RNSt16remove_referenceIS7_E4typeE, symObjAddr: 0x165AC, symBinAddr: 0x100018C74, symSize: 0x14 }
  - { offsetInCU: 0x3DD9D, offset: 0x3DD9D, size: 0x8, addend: 0x0, symName: __ZNK9__gnu_cxx16__aligned_membufISt4pairIKiiEE6_M_ptrEv, symObjAddr: 0x16590, symBinAddr: 0x100018C58, symSize: 0x1C }
  - { offsetInCU: 0x3DDC7, offset: 0x3DDC7, size: 0x8, addend: 0x0, symName: __ZNSt15__new_allocatorISt13_Rb_tree_nodeISt4pairIKiiEEE10deallocateEPS4_m, symObjAddr: 0x16554, symBinAddr: 0x100018C1C, symSize: 0x3C }
  - { offsetInCU: 0x3DE3D, offset: 0x3DE3D, size: 0x8, addend: 0x0, symName: __ZNSt15__new_allocatorISt13_Rb_tree_nodeISt4pairIKiS1_IiiEEEE10deallocateEPS5_m, symObjAddr: 0x16518, symBinAddr: 0x100018BE0, symSize: 0x3C }
  - { offsetInCU: 0x3DEBD, offset: 0x3DEBD, size: 0x8, addend: 0x0, symName: __ZSt7forwardIRPSt13_Rb_tree_nodeISt4pairIKiS1_IiiEEEEOT_RNSt16remove_referenceIS8_E4typeE, symObjAddr: 0x16504, symBinAddr: 0x100018BCC, symSize: 0x14 }
  - { offsetInCU: 0x3DF6F, offset: 0x3DF6F, size: 0x8, addend: 0x0, symName: __ZNK9__gnu_cxx16__aligned_membufISt4pairIKiS1_IiiEEE6_M_ptrEv, symObjAddr: 0x164E8, symBinAddr: 0x100018BB0, symSize: 0x1C }
  - { offsetInCU: 0x3DF95, offset: 0x3DF95, size: 0x8, addend: 0x0, symName: __ZSt4copyISt23_Rb_tree_const_iteratorIiEPiET0_T_S4_S3_, symObjAddr: 0x164A0, symBinAddr: 0x100018B68, symSize: 0x48 }
  - { offsetInCU: 0x3DFF3, offset: 0x3DFF3, size: 0x8, addend: 0x0, symName: __ZSt14__copy_move_a2ILb0ESt23_Rb_tree_const_iteratorIiEPiET1_T0_S4_S3_, symObjAddr: 0x16474, symBinAddr: 0x100018B3C, symSize: 0x2C }
  - { offsetInCU: 0x3E05F, offset: 0x3E05F, size: 0x8, addend: 0x0, symName: __ZNSt15__new_allocatorISt13_Rb_tree_nodeIiEE10deallocateEPS1_m, symObjAddr: 0x16438, symBinAddr: 0x100018B00, symSize: 0x3C }
  - { offsetInCU: 0x3E0D5, offset: 0x3E0D5, size: 0x8, addend: 0x0, symName: __ZN9__gnu_cxx16__aligned_membufIiE6_M_ptrEv, symObjAddr: 0x1641C, symBinAddr: 0x100018AE4, symSize: 0x1C }
  - { offsetInCU: 0x3E0FF, offset: 0x3E0FF, size: 0x8, addend: 0x0, symName: __ZNSt15__new_allocatorISt13_Rb_tree_nodeISt4pairIKiSt8multisetIiSt4lessIiESaIiEEEEE10deallocateEPS9_m, symObjAddr: 0x163D8, symBinAddr: 0x100018AA0, symSize: 0x44 }
  - { offsetInCU: 0x3E180, offset: 0x3E180, size: 0x8, addend: 0x0, symName: __ZNKSt8_Rb_treeIiSt4pairIKiSt8multisetIiSt4lessIiESaIiEEESt10_Select1stIS7_ES4_SaIS7_EE11_Alloc_nodeclIRKS7_EEPSt13_Rb_tree_nodeIS7_EOT_, symObjAddr: 0x1639C, symBinAddr: 0x100018A64, symSize: 0x3C }
  - { offsetInCU: 0x3E1C7, offset: 0x3E1C7, size: 0x8, addend: 0x0, symName: __ZSt7forwardIRKSt4pairIKiSt8multisetIiSt4lessIiESaIiEEEEOT_RNSt16remove_referenceISA_E4typeE, symObjAddr: 0x16388, symBinAddr: 0x100018A50, symSize: 0x14 }
  - { offsetInCU: 0x3E1FD, offset: 0x3E1FD, size: 0x8, addend: 0x0, symName: __ZNSt8_Rb_treeIiiSt9_IdentityIiESt4lessIiESaIiEE17_M_construct_nodeIJRKiEEEvPSt13_Rb_tree_nodeIiEDpOT_, symObjAddr: 0x162D8, symBinAddr: 0x1000189A0, symSize: 0xB0 }
  - { offsetInCU: 0x3E2C0, offset: 0x3E2C0, size: 0x8, addend: 0x0, symName: __ZNSt8_Rb_treeIiiSt9_IdentityIiESt4lessIiESaIiEE11_M_get_nodeEv, symObjAddr: 0x1629C, symBinAddr: 0x100018964, symSize: 0x3C }
  - { offsetInCU: 0x3E317, offset: 0x3E317, size: 0x8, addend: 0x0, symName: __ZNK9__gnu_cxx16__aligned_membufIiE6_M_ptrEv, symObjAddr: 0x16280, symBinAddr: 0x100018948, symSize: 0x1C }
  - { offsetInCU: 0x3E341, offset: 0x3E341, size: 0x8, addend: 0x0, symName: __ZNK9__gnu_cxx16__aligned_membufISt4pairIKiSt8multisetIiSt4lessIiESaIiEEEE6_M_ptrEv, symObjAddr: 0x16264, symBinAddr: 0x10001892C, symSize: 0x1C }
  - { offsetInCU: 0x3E375, offset: 0x3E375, size: 0x8, addend: 0x0, symName: __ZSt7forwardIRPSt13_Rb_tree_nodeISt4pairIKiSt8multisetIiSt4lessIiESaIiEEEEEOT_RNSt16remove_referenceISC_E4typeE, symObjAddr: 0x16250, symBinAddr: 0x100018918, symSize: 0x14 }
  - { offsetInCU: 0x3E427, offset: 0x3E427, size: 0x8, addend: 0x0, symName: __ZNK9__gnu_cxx16__aligned_membufISt4pairIKiSt3mapIiSt8multisetIiSt4lessIiESaIiEES6_SaIS1_IS2_S8_EEEEE6_M_ptrEv, symObjAddr: 0x16234, symBinAddr: 0x1000188FC, symSize: 0x1C }
  - { offsetInCU: 0x3E45B, offset: 0x3E45B, size: 0x8, addend: 0x0, symName: __ZSt7forwardIRPSt13_Rb_tree_nodeISt4pairIKiSt3mapIiSt8multisetIiSt4lessIiESaIiEES6_SaIS1_IS2_S8_EEEEEEOT_RNSt16remove_referenceISG_E4typeE, symObjAddr: 0x16220, symBinAddr: 0x1000188E8, symSize: 0x14 }
  - { offsetInCU: 0x3E50D, offset: 0x3E50D, size: 0x8, addend: 0x0, symName: __ZNSt5dequeISt4pairIP8TreeNodeS0_IiiEESaIS4_EE17_M_reallocate_mapEmb, symObjAddr: 0x15FDC, symBinAddr: 0x1000186A4, symSize: 0x244 }
  - { offsetInCU: 0x3E5BE, offset: 0x3E5BE, size: 0x8, addend: 0x0, symName: __ZNSt5dequeISt4pairIP8TreeNodeS0_IiiEESaIS4_EE11_S_max_sizeERKS5_, symObjAddr: 0x15F88, symBinAddr: 0x100018650, symSize: 0x54 }
  - { offsetInCU: 0x3E67C, offset: 0x3E67C, size: 0x8, addend: 0x0, symName: __ZStmiRKSt15_Deque_iteratorISt4pairIP8TreeNodeS0_IiiEERS4_PS4_ES9_, symObjAddr: 0x15EF4, symBinAddr: 0x1000185BC, symSize: 0x94 }
  - { offsetInCU: 0x3E6D1, offset: 0x3E6D1, size: 0x8, addend: 0x0, symName: __ZNSt15__new_allocatorISt4pairIP8TreeNodeS0_IiiEEE10deallocateEPS4_m, symObjAddr: 0x15EC4, symBinAddr: 0x10001858C, symSize: 0x30 }
  - { offsetInCU: 0x3E73F, offset: 0x3E73F, size: 0x8, addend: 0x0, symName: __ZNSt15__new_allocatorIPSt4pairIP8TreeNodeS0_IiiEEE8allocateEmPKv, symObjAddr: 0x15E48, symBinAddr: 0x100018510, symSize: 0x7C }
  - { offsetInCU: 0x3E7CB, offset: 0x3E7CB, size: 0x8, addend: 0x0, symName: __ZNSt15__new_allocatorISt13_Rb_tree_nodeISt4pairIKiSt3mapIiSt8multisetIiSt4lessIiESaIiEES6_SaIS1_IS2_S8_EEEEEE10deallocateEPSD_m, symObjAddr: 0x15E04, symBinAddr: 0x1000184CC, symSize: 0x44 }
  - { offsetInCU: 0x3E83D, offset: 0x3E83D, size: 0x8, addend: 0x0, symName: __ZSt4copyIN9__gnu_cxx17__normal_iteratorIPiSt6vectorIiSaIiEEEES2_ET0_T_S8_S7_, symObjAddr: 0x15DBC, symBinAddr: 0x100018484, symSize: 0x48 }
  - { offsetInCU: 0x3E89B, offset: 0x3E89B, size: 0x8, addend: 0x0, symName: __ZSt14__copy_move_a2ILb0EPiS0_ET1_T0_S2_S1_, symObjAddr: 0x15D90, symBinAddr: 0x100018458, symSize: 0x2C }
  - { offsetInCU: 0x3E903, offset: 0x3E903, size: 0x8, addend: 0x0, symName: __ZSt23__copy_move_backward_a2ILb1EPiS0_ET1_T0_S2_S1_, symObjAddr: 0x15D64, symBinAddr: 0x10001842C, symSize: 0x2C }
  - { offsetInCU: 0x3E96B, offset: 0x3E96B, size: 0x8, addend: 0x0, symName: __ZNSt20__uninitialized_copyILb1EE13__uninit_copyISt13move_iteratorIPiES3_EET0_T_S6_S5_, symObjAddr: 0x15D38, symBinAddr: 0x100018400, symSize: 0x2C }
  - { offsetInCU: 0x3E9CA, offset: 0x3E9CA, size: 0x8, addend: 0x0, symName: __ZNSt15__new_allocatorISt13_Rb_tree_nodeISt4pairIKiSt3mapIiSt6vectorIiSaIiEESt4lessIiESaIS1_IS2_S6_EEEEEE10deallocateEPSD_m, symObjAddr: 0x15CF4, symBinAddr: 0x1000183BC, symSize: 0x44 }
  - { offsetInCU: 0x3EAA9, offset: 0x3EAA9, size: 0x8, addend: 0x0, symName: __ZNSt4pairIKiSt3mapIiSt6vectorIiSaIiEESt4lessIiESaIS_IS0_S4_EEEED1Ev, symObjAddr: 0x15CD0, symBinAddr: 0x100018398, symSize: 0x24 }
  - { offsetInCU: 0x3EAEC, offset: 0x3EAEC, size: 0x8, addend: 0x0, symName: __ZNSt3mapIiSt6vectorIiSaIiEESt4lessIiESaISt4pairIKiS2_EEED1Ev, symObjAddr: 0x15CB0, symBinAddr: 0x100018378, symSize: 0x20 }
  - { offsetInCU: 0x3EAD4, offset: 0x3EAD4, size: 0x8, addend: 0x0, symName: __ZSt14__copy_move_a2ILb0EPKiPiET1_T0_S4_S3_, symObjAddr: 0x15C84, symBinAddr: 0x10001834C, symSize: 0x2C }
  - { offsetInCU: 0x3EB4B, offset: 0x3EB4B, size: 0x8, addend: 0x0, symName: __ZNK9__gnu_cxx5__ops14_Val_less_iterclIiNS_17__normal_iteratorIPiSt6vectorIiSaIiEEEEEEbRT_T0_, symObjAddr: 0x15C40, symBinAddr: 0x100018308, symSize: 0x44 }
  - { offsetInCU: 0x3EBA3, offset: 0x3EBA3, size: 0x8, addend: 0x0, symName: __ZSt22__copy_move_backward_aILb1EN9__gnu_cxx17__normal_iteratorIPiSt6vectorIiSaIiEEEES6_ET1_T0_S8_S7_, symObjAddr: 0x15BE0, symBinAddr: 0x1000182A8, symSize: 0x60 }
  - { offsetInCU: 0x3EC0B, offset: 0x3EC0B, size: 0x8, addend: 0x0, symName: __ZSt10__pop_heapIN9__gnu_cxx17__normal_iteratorIPiSt6vectorIiSaIiEEEENS0_5__ops15_Iter_less_iterEEvT_S9_S9_RT0_, symObjAddr: 0x15B50, symBinAddr: 0x100018218, symSize: 0x90 }
  - { offsetInCU: 0x3ECA1, offset: 0x3ECA1, size: 0x8, addend: 0x0, symName: __ZSt11__make_heapIN9__gnu_cxx17__normal_iteratorIPiSt6vectorIiSaIiEEEENS0_5__ops15_Iter_less_iterEEvT_S9_RT0_, symObjAddr: 0x15A70, symBinAddr: 0x100018138, symSize: 0xE0 }
  - { offsetInCU: 0x3ED66, offset: 0x3ED66, size: 0x8, addend: 0x0, symName: __ZSt7forwardIRPSt13_Rb_tree_nodeISt4pairIKiSt6vectorIiSaIiEEEEEOT_RNSt16remove_referenceISA_E4typeE, symObjAddr: 0x15A5C, symBinAddr: 0x100018124, symSize: 0x14 }
  - { offsetInCU: 0x3EE77, offset: 0x3EE77, size: 0x8, addend: 0x0, symName: __ZNSt8_Rb_treeIiSt4pairIKiSt6vectorIiSaIiEEESt10_Select1stIS5_ESt4lessIiESaIS5_EE21_M_get_Node_allocatorEv, symObjAddr: 0x15A48, symBinAddr: 0x100018110, symSize: 0x14 }
  - { offsetInCU: 0x3EEA1, offset: 0x3EEA1, size: 0x8, addend: 0x0, symName: __ZNK9__gnu_cxx16__aligned_membufISt4pairIKiSt6vectorIiSaIiEEEE6_M_ptrEv, symObjAddr: 0x15A2C, symBinAddr: 0x1000180F4, symSize: 0x1C }
  - { offsetInCU: 0x3EED5, offset: 0x3EED5, size: 0x8, addend: 0x0, symName: __ZSt7forwardIRPSt13_Rb_tree_nodeISt4pairIKiSt3mapIiSt6vectorIiSaIiEESt4lessIiESaIS1_IS2_S6_EEEEEEOT_RNSt16remove_referenceISG_E4typeE, symObjAddr: 0x15A18, symBinAddr: 0x1000180E0, symSize: 0x14 }
  - { offsetInCU: 0x3EF87, offset: 0x3EF87, size: 0x8, addend: 0x0, symName: __ZNK9__gnu_cxx16__aligned_membufISt4pairIKiSt3mapIiSt6vectorIiSaIiEESt4lessIiESaIS1_IS2_S6_EEEEE6_M_ptrEv, symObjAddr: 0x159FC, symBinAddr: 0x1000180C4, symSize: 0x1C }
  - { offsetInCU: 0x3EFC7, offset: 0x3EFC7, size: 0x8, addend: 0x0, symName: __ZNSt15__new_allocatorIPiE8allocateEmPKv, symObjAddr: 0x15980, symBinAddr: 0x100018048, symSize: 0x7C }
  - { offsetInCU: 0x3F04F, offset: 0x3F04F, size: 0x8, addend: 0x0, symName: __ZSt13copy_backwardIPPiS1_ET0_T_S3_S2_, symObjAddr: 0x15938, symBinAddr: 0x100018000, symSize: 0x48 }
  - { offsetInCU: 0x3F0AD, offset: 0x3F0AD, size: 0x8, addend: 0x0, symName: __ZSt4copyIPPiS1_ET0_T_S3_S2_, symObjAddr: 0x158F0, symBinAddr: 0x100017FB8, symSize: 0x48 }
  - { offsetInCU: 0x3F10B, offset: 0x3F10B, size: 0x8, addend: 0x0, symName: __ZSt6fill_nIPimiET_S1_T0_RKT1_, symObjAddr: 0x158A8, symBinAddr: 0x100017F70, symSize: 0x48 }
  - { offsetInCU: 0x3F193, offset: 0x3F193, size: 0x8, addend: 0x0, symName: __ZSt10_ConstructIiJEEvPT_DpOT0_, symObjAddr: 0x1587C, symBinAddr: 0x100017F44, symSize: 0x2C }
  - { offsetInCU: 0x3F1CF, offset: 0x3F1CF, size: 0x8, addend: 0x0, symName: __ZSt11__addressofIiEPT_RS0_, symObjAddr: 0x15868, symBinAddr: 0x100017F30, symSize: 0x14 }
  - { offsetInCU: 0x3F201, offset: 0x3F201, size: 0x8, addend: 0x0, symName: __ZSt22__copy_move_backward_aILb0EPPP8TreeNodeS3_ET1_T0_S5_S4_, symObjAddr: 0x15808, symBinAddr: 0x100017ED0, symSize: 0x60 }
  - { offsetInCU: 0x3F269, offset: 0x3F269, size: 0x8, addend: 0x0, symName: __ZSt13__copy_move_aILb0EPPP8TreeNodeS3_ET1_T0_S5_S4_, symObjAddr: 0x157A8, symBinAddr: 0x100017E70, symSize: 0x60 }
  - { offsetInCU: 0x3F2D1, offset: 0x3F2D1, size: 0x8, addend: 0x0, symName: __ZSt12__miter_baseIPPP8TreeNodeET_S4_, symObjAddr: 0x15794, symBinAddr: 0x100017E5C, symSize: 0x14 }
  - { offsetInCU: 0x3F31E, offset: 0x3F31E, size: 0x8, addend: 0x0, symName: __ZNSt15__new_allocatorISt4pairIP8TreeNodeiEE8allocateEmPKv, symObjAddr: 0x15718, symBinAddr: 0x100017DE0, symSize: 0x7C }
  - { offsetInCU: 0x3F3A6, offset: 0x3F3A6, size: 0x8, addend: 0x0, symName: __ZSt13copy_backwardIPPSt4pairIP8TreeNodeiES5_ET0_T_S7_S6_, symObjAddr: 0x156D0, symBinAddr: 0x100017D98, symSize: 0x48 }
  - { offsetInCU: 0x3F404, offset: 0x3F404, size: 0x8, addend: 0x0, symName: __ZSt4copyIPPSt4pairIP8TreeNodeiES5_ET0_T_S7_S6_, symObjAddr: 0x15688, symBinAddr: 0x100017D50, symSize: 0x48 }
  - { offsetInCU: 0x3F492, offset: 0x3F492, size: 0x8, addend: 0x0, symName: __ZNSt15__new_allocatorISt4pairIP8TreeNodeiEE10deallocateEPS3_m, symObjAddr: 0x15658, symBinAddr: 0x100017D20, symSize: 0x30 }
  - { offsetInCU: 0x3F4DC, offset: 0x3F4DC, size: 0x8, addend: 0x0, symName: __ZNSt15__new_allocatorIPSt4pairIP8TreeNodeiEE8allocateEmPKv, symObjAddr: 0x155DC, symBinAddr: 0x100017CA4, symSize: 0x7C }
  - { offsetInCU: 0x3F564, offset: 0x3F564, size: 0x8, addend: 0x0, symName: __ZSt19__relocate_object_aISt6vectorIiSaIiEES2_SaIS2_EEvPT_PT0_RT1_, symObjAddr: 0x1550C, symBinAddr: 0x100017BD4, symSize: 0xD0 }
  - { offsetInCU: 0x3F6AC, offset: 0x3F6AC, size: 0x8, addend: 0x0, symName: __ZSt18uninitialized_copyIN9__gnu_cxx17__normal_iteratorIPKiSt6vectorIiSaIiEEEEPiET0_T_SA_S9_, symObjAddr: 0x154D0, symBinAddr: 0x100017B98, symSize: 0x3C }
  - { offsetInCU: 0x3F7DC, offset: 0x3F7DC, size: 0x8, addend: 0x0, symName: __ZNSt4pairIPSt18_Rb_tree_node_baseS1_EC1IRPSt13_Rb_tree_nodeIS_IKiiEERS1_Lb1EEEOT_OT0_, symObjAddr: 0x15488, symBinAddr: 0x100017B50, symSize: 0x48 }
  - { offsetInCU: 0x3F7D3, offset: 0x3F7D3, size: 0x8, addend: 0x0, symName: __ZNSt8_Rb_treeIiSt4pairIKiiESt10_Select1stIS2_ESt4lessIiESaIS2_EE17_M_construct_nodeIJRKSt21piecewise_construct_tSt5tupleIJRS1_EESD_IJEEEEEvPSt13_Rb_tree_nodeIS2_EDpOT_, symObjAddr: 0x1530C, symBinAddr: 0x1000179D4, symSize: 0x17C }
  - { offsetInCU: 0x3F8D4, offset: 0x3F8D4, size: 0x8, addend: 0x0, symName: __ZNSt8_Rb_treeIiSt4pairIKiiESt10_Select1stIS2_ESt4lessIiESaIS2_EE11_M_get_nodeEv, symObjAddr: 0x152D0, symBinAddr: 0x100017998, symSize: 0x3C }
  - { offsetInCU: 0x3F92B, offset: 0x3F92B, size: 0x8, addend: 0x0, symName: __ZNKSt10_Select1stISt4pairIKiiEEclERKS2_, symObjAddr: 0x152B8, symBinAddr: 0x100017980, symSize: 0x18 }
  - { offsetInCU: 0x3F966, offset: 0x3F966, size: 0x8, addend: 0x0, symName: __ZNKSt13_Rb_tree_nodeISt4pairIKiiEE9_M_valptrEv, symObjAddr: 0x15298, symBinAddr: 0x100017960, symSize: 0x20 }
  - { offsetInCU: 0x3F9EF, offset: 0x3F9EF, size: 0x8, addend: 0x0, symName: __ZNSt8_Rb_treeIiSt4pairIKiiESt10_Select1stIS2_ESt4lessIiESaIS2_EE21_M_get_Node_allocatorEv, symObjAddr: 0x15284, symBinAddr: 0x10001794C, symSize: 0x14 }
  - { offsetInCU: 0x3FA78, offset: 0x3FA78, size: 0x8, addend: 0x0, symName: __ZNSt8_Rb_treeIiSt4pairIKiS0_IiiEESt10_Select1stIS3_ESt4lessIiESaIS3_EE21_M_get_Node_allocatorEv, symObjAddr: 0x15270, symBinAddr: 0x100017938, symSize: 0x14 }
  - { offsetInCU: 0x3FB42, offset: 0x3FB42, size: 0x8, addend: 0x0, symName: __ZNSt4pairIPSt18_Rb_tree_node_baseS1_EC1IRPSt13_Rb_tree_nodeIS_IKiS_IiiEEERS1_Lb1EEEOT_OT0_, symObjAddr: 0x15228, symBinAddr: 0x1000178F0, symSize: 0x48 }
  - { offsetInCU: 0x3FB34, offset: 0x3FB34, size: 0x8, addend: 0x0, symName: __ZNSt8_Rb_treeIiSt4pairIKiS0_IiiEESt10_Select1stIS3_ESt4lessIiESaIS3_EE17_M_construct_nodeIJRKSt21piecewise_construct_tSt5tupleIJRS1_EESE_IJEEEEEvPSt13_Rb_tree_nodeIS3_EDpOT_, symObjAddr: 0x150AC, symBinAddr: 0x100017774, symSize: 0x17C }
  - { offsetInCU: 0x3FC35, offset: 0x3FC35, size: 0x8, addend: 0x0, symName: __ZNSt8_Rb_treeIiSt4pairIKiS0_IiiEESt10_Select1stIS3_ESt4lessIiESaIS3_EE11_M_get_nodeEv, symObjAddr: 0x15070, symBinAddr: 0x100017738, symSize: 0x3C }
  - { offsetInCU: 0x3FC8C, offset: 0x3FC8C, size: 0x8, addend: 0x0, symName: __ZNKSt10_Select1stISt4pairIKiS0_IiiEEEclERKS3_, symObjAddr: 0x15058, symBinAddr: 0x100017720, symSize: 0x18 }
  - { offsetInCU: 0x3FCC7, offset: 0x3FCC7, size: 0x8, addend: 0x0, symName: __ZNKSt13_Rb_tree_nodeISt4pairIKiS0_IiiEEE9_M_valptrEv, symObjAddr: 0x15038, symBinAddr: 0x100017700, symSize: 0x20 }
  - { offsetInCU: 0x3FCED, offset: 0x3FCED, size: 0x8, addend: 0x0, symName: __ZNSt20__uninitialized_copyILb1EE13__uninit_copyISt23_Rb_tree_const_iteratorIiEPiEET0_T_S6_S5_, symObjAddr: 0x1500C, symBinAddr: 0x1000176D4, symSize: 0x2C }
  - { offsetInCU: 0x3FD4C, offset: 0x3FD4C, size: 0x8, addend: 0x0, symName: __ZNSt23_Rb_tree_const_iteratorIiEmmEv, symObjAddr: 0x14FDC, symBinAddr: 0x1000176A4, symSize: 0x30 }
  - { offsetInCU: 0x3FD72, offset: 0x3FD72, size: 0x8, addend: 0x0, symName: __ZSt14__copy_move_a1ILb0ESt23_Rb_tree_const_iteratorIiEPiET1_T0_S4_S3_, symObjAddr: 0x14FB0, symBinAddr: 0x100017678, symSize: 0x2C }
  - { offsetInCU: 0x3FDDA, offset: 0x3FDDA, size: 0x8, addend: 0x0, symName: __ZSt12__niter_baseISt23_Rb_tree_const_iteratorIiEET_S2_, symObjAddr: 0x14F9C, symBinAddr: 0x100017664, symSize: 0x14 }
  - { offsetInCU: 0x3FE11, offset: 0x3FE11, size: 0x8, addend: 0x0, symName: __ZNSt23_Rb_tree_const_iteratorIiEppEv, symObjAddr: 0x14F6C, symBinAddr: 0x100017634, symSize: 0x30 }
  - { offsetInCU: 0x3FE9A, offset: 0x3FE9A, size: 0x8, addend: 0x0, symName: __ZNSt13_Rb_tree_nodeIiE9_M_valptrEv, symObjAddr: 0x14F4C, symBinAddr: 0x100017614, symSize: 0x20 }
  - { offsetInCU: 0x3FEC4, offset: 0x3FEC4, size: 0x8, addend: 0x0, symName: __ZNSt8_Rb_treeIiiSt9_IdentityIiESt4lessIiESaIiEE21_M_get_Node_allocatorEv, symObjAddr: 0x14F38, symBinAddr: 0x100017600, symSize: 0x14 }
  - { offsetInCU: 0x3FEF5, offset: 0x3FEF5, size: 0x8, addend: 0x0, symName: __ZNSt8_Rb_treeIiiSt9_IdentityIiESt4lessIiESaIiEE13_M_clone_nodeILb0ENS5_11_Alloc_nodeEEEPSt13_Rb_tree_nodeIiESA_RT0_, symObjAddr: 0x14EDC, symBinAddr: 0x1000175A4, symSize: 0x5C }
  - { offsetInCU: 0x3FFC4, offset: 0x3FFC4, size: 0x8, addend: 0x0, symName: __ZNSt8_Rb_treeIiSt4pairIKiSt8multisetIiSt4lessIiESaIiEEESt10_Select1stIS7_ES4_SaIS7_EE21_M_get_Node_allocatorEv, symObjAddr: 0x14EC8, symBinAddr: 0x100017590, symSize: 0x14 }
  - { offsetInCU: 0x3FFF5, offset: 0x3FFF5, size: 0x8, addend: 0x0, symName: __ZNSt8_Rb_treeIiSt4pairIKiSt8multisetIiSt4lessIiESaIiEEESt10_Select1stIS7_ES4_SaIS7_EE13_M_clone_nodeILb0ENSB_11_Alloc_nodeEEEPSt13_Rb_tree_nodeIS7_ESG_RT0_, symObjAddr: 0x14E6C, symBinAddr: 0x100017534, symSize: 0x5C }
  - { offsetInCU: 0x40065, offset: 0x40065, size: 0x8, addend: 0x0, symName: __ZNSt8_Rb_treeIiiSt9_IdentityIiESt4lessIiESaIiEE14_M_create_nodeIJRKiEEEPSt13_Rb_tree_nodeIiEDpOT_, symObjAddr: 0x14E2C, symBinAddr: 0x1000174F4, symSize: 0x40 }
  - { offsetInCU: 0x400C5, offset: 0x400C5, size: 0x8, addend: 0x0, symName: __ZSt7forwardIRPSt13_Rb_tree_nodeIiEEOT_RNSt16remove_referenceIS4_E4typeE, symObjAddr: 0x14E18, symBinAddr: 0x1000174E0, symSize: 0x14 }
  - { offsetInCU: 0x400FB, offset: 0x400FB, size: 0x8, addend: 0x0, symName: __ZNKSt13_Rb_tree_nodeIiE9_M_valptrEv, symObjAddr: 0x14DF8, symBinAddr: 0x1000174C0, symSize: 0x20 }
  - { offsetInCU: 0x40125, offset: 0x40125, size: 0x8, addend: 0x0, symName: __ZNKSt10_Select1stISt4pairIKiSt8multisetIiSt4lessIiESaIiEEEEclERKS7_, symObjAddr: 0x14DE0, symBinAddr: 0x1000174A8, symSize: 0x18 }
  - { offsetInCU: 0x40160, offset: 0x40160, size: 0x8, addend: 0x0, symName: __ZNKSt13_Rb_tree_nodeISt4pairIKiSt8multisetIiSt4lessIiESaIiEEEE9_M_valptrEv, symObjAddr: 0x14DC0, symBinAddr: 0x100017488, symSize: 0x20 }
  - { offsetInCU: 0x40241, offset: 0x40241, size: 0x8, addend: 0x0, symName: __ZNSt4pairIPSt18_Rb_tree_node_baseS1_EC1IRPSt13_Rb_tree_nodeIS_IKiSt8multisetIiSt4lessIiESaIiEEEERS1_Lb1EEEOT_OT0_, symObjAddr: 0x14D78, symBinAddr: 0x100017440, symSize: 0x48 }
  - { offsetInCU: 0x4021C, offset: 0x4021C, size: 0x8, addend: 0x0, symName: __ZNSt8_Rb_treeIiSt4pairIKiSt8multisetIiSt4lessIiESaIiEEESt10_Select1stIS7_ES4_SaIS7_EE17_M_construct_nodeIJRKSt21piecewise_construct_tSt5tupleIJRS1_EESG_IJEEEEEvPSt13_Rb_tree_nodeIS7_EDpOT_, symObjAddr: 0x14BFC, symBinAddr: 0x1000172C4, symSize: 0x17C }
  - { offsetInCU: 0x4031D, offset: 0x4031D, size: 0x8, addend: 0x0, symName: __ZNSt8_Rb_treeIiSt4pairIKiSt8multisetIiSt4lessIiESaIiEEESt10_Select1stIS7_ES4_SaIS7_EE11_M_get_nodeEv, symObjAddr: 0x14BC0, symBinAddr: 0x100017288, symSize: 0x3C }
  - { offsetInCU: 0x40374, offset: 0x40374, size: 0x8, addend: 0x0, symName: __ZNKSt10_Select1stISt4pairIKiSt3mapIiSt8multisetIiSt4lessIiESaIiEES5_SaIS0_IS1_S7_EEEEEclERKSB_, symObjAddr: 0x14BA8, symBinAddr: 0x100017270, symSize: 0x18 }
  - { offsetInCU: 0x403AF, offset: 0x403AF, size: 0x8, addend: 0x0, symName: __ZNKSt13_Rb_tree_nodeISt4pairIKiSt3mapIiSt8multisetIiSt4lessIiESaIiEES5_SaIS0_IS1_S7_EEEEE9_M_valptrEv, symObjAddr: 0x14B88, symBinAddr: 0x100017250, symSize: 0x20 }
  - { offsetInCU: 0x404AA, offset: 0x404AA, size: 0x8, addend: 0x0, symName: __ZNSt4pairIPSt18_Rb_tree_node_baseS1_EC1IRPSt13_Rb_tree_nodeIS_IKiSt3mapIiSt8multisetIiSt4lessIiESaIiEES9_SaIS_IS5_SB_EEEEERS1_Lb1EEEOT_OT0_, symObjAddr: 0x14B40, symBinAddr: 0x100017208, symSize: 0x48 }
  - { offsetInCU: 0x4046B, offset: 0x4046B, size: 0x8, addend: 0x0, symName: __ZNSt8_Rb_treeIiSt4pairIKiSt3mapIiSt8multisetIiSt4lessIiESaIiEES5_SaIS0_IS1_S7_EEEESt10_Select1stISB_ES5_SaISB_EE17_M_construct_nodeIJRKSt21piecewise_construct_tSt5tupleIJRS1_EESK_IJEEEEEvPSt13_Rb_tree_nodeISB_EDpOT_, symObjAddr: 0x149C4, symBinAddr: 0x10001708C, symSize: 0x17C }
  - { offsetInCU: 0x4056C, offset: 0x4056C, size: 0x8, addend: 0x0, symName: __ZNSt8_Rb_treeIiSt4pairIKiSt3mapIiSt8multisetIiSt4lessIiESaIiEES5_SaIS0_IS1_S7_EEEESt10_Select1stISB_ES5_SaISB_EE11_M_get_nodeEv, symObjAddr: 0x14988, symBinAddr: 0x100017050, symSize: 0x3C }
  - { offsetInCU: 0x405C3, offset: 0x405C3, size: 0x8, addend: 0x0, symName: __ZNSt15_Deque_iteratorISt4pairIP8TreeNodeS0_IiiEERS4_PS4_EmmEv, symObjAddr: 0x1491C, symBinAddr: 0x100016FE4, symSize: 0x6C }
  - { offsetInCU: 0x405ED, offset: 0x405ED, size: 0x8, addend: 0x0, symName: __ZNSt5dequeISt4pairIP8TreeNodeS0_IiiEESaIS4_EE22_M_reserve_map_at_backEm, symObjAddr: 0x148BC, symBinAddr: 0x100016F84, symSize: 0x60 }
  - { offsetInCU: 0x40628, offset: 0x40628, size: 0x8, addend: 0x0, symName: __ZNKSt5dequeISt4pairIP8TreeNodeS0_IiiEESaIS4_EE8max_sizeEv, symObjAddr: 0x1489C, symBinAddr: 0x100016F64, symSize: 0x20 }
  - { offsetInCU: 0x40652, offset: 0x40652, size: 0x8, addend: 0x0, symName: __ZNKSt5dequeISt4pairIP8TreeNodeS0_IiiEESaIS4_EE4sizeEv, symObjAddr: 0x1486C, symBinAddr: 0x100016F34, symSize: 0x30 }
  - { offsetInCU: 0x406BE, offset: 0x406BE, size: 0x8, addend: 0x0, symName: __ZNSt15__new_allocatorIPSt4pairIP8TreeNodeS0_IiiEEE10deallocateEPS5_m, symObjAddr: 0x1483C, symBinAddr: 0x100016F04, symSize: 0x30 }
  - { offsetInCU: 0x40760, offset: 0x40760, size: 0x8, addend: 0x0, symName: __ZNSt15__new_allocatorIPSt4pairIP8TreeNodeS0_IiiEEED2Ev, symObjAddr: 0x14828, symBinAddr: 0x100016EF0, symSize: 0x14 }
  - { offsetInCU: 0x40776, offset: 0x40776, size: 0x8, addend: 0x0, symName: __ZNKSt11_Deque_baseISt4pairIP8TreeNodeS0_IiiEESaIS4_EE19_M_get_Tp_allocatorEv, symObjAddr: 0x14814, symBinAddr: 0x100016EDC, symSize: 0x14 }
  - { offsetInCU: 0x407CF, offset: 0x407CF, size: 0x8, addend: 0x0, symName: __ZNSt15_Deque_iteratorISt4pairIP8TreeNodeS0_IiiEERS4_PS4_E14_S_buffer_sizeEv, symObjAddr: 0x147FC, symBinAddr: 0x100016EC4, symSize: 0x18 }
  - { offsetInCU: 0x407EA, offset: 0x407EA, size: 0x8, addend: 0x0, symName: __ZNSt11_Deque_baseISt4pairIP8TreeNodeS0_IiiEESaIS4_EE16_M_allocate_nodeEv, symObjAddr: 0x147B8, symBinAddr: 0x100016E80, symSize: 0x44 }
  - { offsetInCU: 0x408BA, offset: 0x408BA, size: 0x8, addend: 0x0, symName: __ZNSt15_Deque_iteratorISt4pairIP8TreeNodeS0_IiiEERS4_PS4_EC1Ev, symObjAddr: 0x14784, symBinAddr: 0x100016E4C, symSize: 0x34 }
  - { offsetInCU: 0x4091A, offset: 0x4091A, size: 0x8, addend: 0x0, symName: __ZNSt8_Rb_treeIiSt4pairIKiSt3mapIiSt8multisetIiSt4lessIiESaIiEES5_SaIS0_IS1_S7_EEEESt10_Select1stISB_ES5_SaISB_EE21_M_get_Node_allocatorEv, symObjAddr: 0x14770, symBinAddr: 0x100016E38, symSize: 0x14 }
  - { offsetInCU: 0x40940, offset: 0x40940, size: 0x8, addend: 0x0, symName: __ZNSt20__uninitialized_copyILb1EE13__uninit_copyIN9__gnu_cxx17__normal_iteratorIPiSt6vectorIiSaIiEEEES4_EET0_T_SA_S9_, symObjAddr: 0x14744, symBinAddr: 0x100016E0C, symSize: 0x2C }
  - { offsetInCU: 0x4099F, offset: 0x4099F, size: 0x8, addend: 0x0, symName: __ZN9__gnu_cxx17__normal_iteratorIPiSt6vectorIiSaIiEEEpLEl, symObjAddr: 0x14710, symBinAddr: 0x100016DD8, symSize: 0x34 }
  - { offsetInCU: 0x409D6, offset: 0x409D6, size: 0x8, addend: 0x0, symName: __ZSt12__niter_wrapIN9__gnu_cxx17__normal_iteratorIPiSt6vectorIiSaIiEEEES2_ET_S7_T0_, symObjAddr: 0x146C8, symBinAddr: 0x100016D90, symSize: 0x48 }
  - { offsetInCU: 0x40A23, offset: 0x40A23, size: 0x8, addend: 0x0, symName: __ZSt14__copy_move_a1ILb0EPiS0_ET1_T0_S2_S1_, symObjAddr: 0x1469C, symBinAddr: 0x100016D64, symSize: 0x2C }
  - { offsetInCU: 0x40A8B, offset: 0x40A8B, size: 0x8, addend: 0x0, symName: __ZSt12__niter_baseIPiSt6vectorIiSaIiEEET_N9__gnu_cxx17__normal_iteratorIS4_T0_EE, symObjAddr: 0x1467C, symBinAddr: 0x100016D44, symSize: 0x20 }
  - { offsetInCU: 0x40AC7, offset: 0x40AC7, size: 0x8, addend: 0x0, symName: __ZSt23__copy_move_backward_a1ILb1EPiS0_ET1_T0_S2_S1_, symObjAddr: 0x14650, symBinAddr: 0x100016D18, symSize: 0x2C }
  - { offsetInCU: 0x40B2F, offset: 0x40B2F, size: 0x8, addend: 0x0, symName: __ZSt18uninitialized_copyISt13move_iteratorIPiES1_ET0_T_S4_S3_, symObjAddr: 0x14614, symBinAddr: 0x100016CDC, symSize: 0x3C }
  - { offsetInCU: 0x40BF1, offset: 0x40BF1, size: 0x8, addend: 0x0, symName: __ZNSt13move_iteratorIPiEC1ES0_, symObjAddr: 0x145E4, symBinAddr: 0x100016CAC, symSize: 0x30 }
  - { offsetInCU: 0x40C08, offset: 0x40C08, size: 0x8, addend: 0x0, symName: __ZSt4moveIRPiEONSt16remove_referenceIT_E4typeEOS3_, symObjAddr: 0x145D0, symBinAddr: 0x100016C98, symSize: 0x14 }
  - { offsetInCU: 0x40C9D, offset: 0x40C9D, size: 0x8, addend: 0x0, symName: __ZNSt8_Rb_treeIiSt4pairIKiSt3mapIiSt6vectorIiSaIiEESt4lessIiESaIS0_IS1_S5_EEEESt10_Select1stISB_ES7_SaISB_EE21_M_get_Node_allocatorEv, symObjAddr: 0x145BC, symBinAddr: 0x100016C84, symSize: 0x14 }
  - { offsetInCU: 0x40CC3, offset: 0x40CC3, size: 0x8, addend: 0x0, symName: __ZNSt20__uninitialized_copyILb1EE13__uninit_copyIPKiPiEET0_T_S6_S5_, symObjAddr: 0x14590, symBinAddr: 0x100016C58, symSize: 0x2C }
  - { offsetInCU: 0x40D1E, offset: 0x40D1E, size: 0x8, addend: 0x0, symName: __ZSt12__niter_wrapIPiET_RKS1_S1_, symObjAddr: 0x14578, symBinAddr: 0x100016C40, symSize: 0x18 }
  - { offsetInCU: 0x40D5A, offset: 0x40D5A, size: 0x8, addend: 0x0, symName: __ZSt14__copy_move_a1ILb0EPKiPiET1_T0_S4_S3_, symObjAddr: 0x1454C, symBinAddr: 0x100016C14, symSize: 0x2C }
  - { offsetInCU: 0x40DC2, offset: 0x40DC2, size: 0x8, addend: 0x0, symName: __ZSt12__niter_baseIPKiET_S2_, symObjAddr: 0x14538, symBinAddr: 0x100016C00, symSize: 0x14 }
  - { offsetInCU: 0x40DF5, offset: 0x40DF5, size: 0x8, addend: 0x0, symName: __ZSt25__unguarded_linear_insertIN9__gnu_cxx17__normal_iteratorIPiSt6vectorIiSaIiEEEENS0_5__ops14_Val_less_iterEEvT_T0_, symObjAddr: 0x1448C, symBinAddr: 0x100016B54, symSize: 0xAC }
  - { offsetInCU: 0x40E64, offset: 0x40E64, size: 0x8, addend: 0x0, symName: __ZSt13move_backwardIN9__gnu_cxx17__normal_iteratorIPiSt6vectorIiSaIiEEEES6_ET0_T_S8_S7_, symObjAddr: 0x14444, symBinAddr: 0x100016B0C, symSize: 0x48 }
  - { offsetInCU: 0x40ED1, offset: 0x40ED1, size: 0x8, addend: 0x0, symName: __ZNK9__gnu_cxx5__ops15_Iter_less_iterclINS_17__normal_iteratorIPiSt6vectorIiSaIiEEEES8_EEbT_T0_, symObjAddr: 0x143FC, symBinAddr: 0x100016AC4, symSize: 0x48 }
  - { offsetInCU: 0x40F29, offset: 0x40F29, size: 0x8, addend: 0x0, symName: __ZSt21__unguarded_partitionIN9__gnu_cxx17__normal_iteratorIPiSt6vectorIiSaIiEEEENS0_5__ops15_Iter_less_iterEET_S9_S9_S9_T0_, symObjAddr: 0x14344, symBinAddr: 0x100016A0C, symSize: 0xB8 }
  - { offsetInCU: 0x40F98, offset: 0x40F98, size: 0x8, addend: 0x0, symName: __ZSt22__move_median_to_firstIN9__gnu_cxx17__normal_iteratorIPiSt6vectorIiSaIiEEEENS0_5__ops15_Iter_less_iterEEvT_S9_S9_S9_T0_, symObjAddr: 0x14234, symBinAddr: 0x1000168FC, symSize: 0x110 }
  - { offsetInCU: 0x41017, offset: 0x41017, size: 0x8, addend: 0x0, symName: __ZNK9__gnu_cxx17__normal_iteratorIPiSt6vectorIiSaIiEEEmiEl, symObjAddr: 0x141F0, symBinAddr: 0x1000168B8, symSize: 0x44 }
  - { offsetInCU: 0x4104E, offset: 0x4104E, size: 0x8, addend: 0x0, symName: __ZSt11__sort_heapIN9__gnu_cxx17__normal_iteratorIPiSt6vectorIiSaIiEEEENS0_5__ops15_Iter_less_iterEEvT_S9_RT0_, symObjAddr: 0x14188, symBinAddr: 0x100016850, symSize: 0x68 }
  - { offsetInCU: 0x410AC, offset: 0x410AC, size: 0x8, addend: 0x0, symName: __ZSt13__heap_selectIN9__gnu_cxx17__normal_iteratorIPiSt6vectorIiSaIiEEEENS0_5__ops15_Iter_less_iterEEvT_S9_S9_T0_, symObjAddr: 0x140EC, symBinAddr: 0x1000167B4, symSize: 0x9C }
  - { offsetInCU: 0x411EE, offset: 0x411EE, size: 0x8, addend: 0x0, symName: __ZNSt4pairIPSt18_Rb_tree_node_baseS1_EC1IRPSt13_Rb_tree_nodeIS_IKiSt6vectorIiSaIiEEEERS1_Lb1EEEOT_OT0_, symObjAddr: 0x140A4, symBinAddr: 0x10001676C, symSize: 0x48 }
  - { offsetInCU: 0x411D5, offset: 0x411D5, size: 0x8, addend: 0x0, symName: __ZNSt8_Rb_treeIiSt4pairIKiSt6vectorIiSaIiEEESt10_Select1stIS5_ESt4lessIiESaIS5_EE11_M_put_nodeEPSt13_Rb_tree_nodeIS5_E, symObjAddr: 0x14058, symBinAddr: 0x100016720, symSize: 0x4C }
  - { offsetInCU: 0x41246, offset: 0x41246, size: 0x8, addend: 0x0, symName: __ZNSt8_Rb_treeIiSt4pairIKiSt6vectorIiSaIiEEESt10_Select1stIS5_ESt4lessIiESaIS5_EE15_M_destroy_nodeEPSt13_Rb_tree_nodeIS5_E, symObjAddr: 0x13FF8, symBinAddr: 0x1000166C0, symSize: 0x60 }
  - { offsetInCU: 0x412DB, offset: 0x412DB, size: 0x8, addend: 0x0, symName: __ZNSt8_Rb_treeIiSt4pairIKiSt6vectorIiSaIiEEESt10_Select1stIS5_ESt4lessIiESaIS5_EE17_M_construct_nodeIJRKSt21piecewise_construct_tSt5tupleIJRS1_EESG_IJEEEEEvPSt13_Rb_tree_nodeIS5_EDpOT_, symObjAddr: 0x13E7C, symBinAddr: 0x100016544, symSize: 0x17C }
  - { offsetInCU: 0x413DC, offset: 0x413DC, size: 0x8, addend: 0x0, symName: __ZNSt8_Rb_treeIiSt4pairIKiSt6vectorIiSaIiEEESt10_Select1stIS5_ESt4lessIiESaIS5_EE11_M_get_nodeEv, symObjAddr: 0x13E40, symBinAddr: 0x100016508, symSize: 0x3C }
  - { offsetInCU: 0x4142F, offset: 0x4142F, size: 0x8, addend: 0x0, symName: __ZNSt8_Rb_treeIiSt4pairIKiSt6vectorIiSaIiEEESt10_Select1stIS5_ESt4lessIiESaIS5_EE7_S_leftEPSt18_Rb_tree_node_base, symObjAddr: 0x13E28, symBinAddr: 0x1000164F0, symSize: 0x18 }
  - { offsetInCU: 0x4145D, offset: 0x4145D, size: 0x8, addend: 0x0, symName: __ZNKSt8_Rb_treeIiSt4pairIKiSt6vectorIiSaIiEEESt10_Select1stIS5_ESt4lessIiESaIS5_EE9_M_mbeginEv, symObjAddr: 0x13E10, symBinAddr: 0x1000164D8, symSize: 0x18 }
  - { offsetInCU: 0x41487, offset: 0x41487, size: 0x8, addend: 0x0, symName: __ZNKSt10_Select1stISt4pairIKiSt6vectorIiSaIiEEEEclERKS5_, symObjAddr: 0x13DF8, symBinAddr: 0x1000164C0, symSize: 0x18 }
  - { offsetInCU: 0x414C2, offset: 0x414C2, size: 0x8, addend: 0x0, symName: __ZNKSt13_Rb_tree_nodeISt4pairIKiSt6vectorIiSaIiEEEE9_M_valptrEv, symObjAddr: 0x13DD8, symBinAddr: 0x1000164A0, symSize: 0x20 }
  - { offsetInCU: 0x414EF, offset: 0x414EF, size: 0x8, addend: 0x0, symName: __ZSt7forwardIRPSt18_Rb_tree_node_baseEOT_RNSt16remove_referenceIS3_E4typeE, symObjAddr: 0x13DC4, symBinAddr: 0x10001648C, symSize: 0x14 }
  - { offsetInCU: 0x415F1, offset: 0x415F1, size: 0x8, addend: 0x0, symName: __ZNSt4pairIPSt18_Rb_tree_node_baseS1_EC1IRPSt13_Rb_tree_nodeIS_IKiSt3mapIiSt6vectorIiSaIiEESt4lessIiESaIS_IS5_S9_EEEEERS1_Lb1EEEOT_OT0_, symObjAddr: 0x13D7C, symBinAddr: 0x100016444, symSize: 0x48 }
  - { offsetInCU: 0x415B7, offset: 0x415B7, size: 0x8, addend: 0x0, symName: __ZNSt8_Rb_treeIiSt4pairIKiSt3mapIiSt6vectorIiSaIiEESt4lessIiESaIS0_IS1_S5_EEEESt10_Select1stISB_ES7_SaISB_EE17_M_construct_nodeIJRKSt21piecewise_construct_tSt5tupleIJRS1_EESK_IJEEEEEvPSt13_Rb_tree_nodeISB_EDpOT_, symObjAddr: 0x13C00, symBinAddr: 0x1000162C8, symSize: 0x17C }
  - { offsetInCU: 0x416B8, offset: 0x416B8, size: 0x8, addend: 0x0, symName: __ZNSt8_Rb_treeIiSt4pairIKiSt3mapIiSt6vectorIiSaIiEESt4lessIiESaIS0_IS1_S5_EEEESt10_Select1stISB_ES7_SaISB_EE11_M_get_nodeEv, symObjAddr: 0x13BC4, symBinAddr: 0x10001628C, symSize: 0x3C }
  - { offsetInCU: 0x4170F, offset: 0x4170F, size: 0x8, addend: 0x0, symName: __ZNKSt10_Select1stISt4pairIKiSt3mapIiSt6vectorIiSaIiEESt4lessIiESaIS0_IS1_S5_EEEEEclERKSB_, symObjAddr: 0x13BAC, symBinAddr: 0x100016274, symSize: 0x18 }
  - { offsetInCU: 0x4174A, offset: 0x4174A, size: 0x8, addend: 0x0, symName: __ZNKSt13_Rb_tree_nodeISt4pairIKiSt3mapIiSt6vectorIiSaIiEESt4lessIiESaIS0_IS1_S5_EEEEE9_M_valptrEv, symObjAddr: 0x13B8C, symBinAddr: 0x100016254, symSize: 0x20 }
  - { offsetInCU: 0x41774, offset: 0x41774, size: 0x8, addend: 0x0, symName: __ZNSt15__new_allocatorIPiE10deallocateEPS0_m, symObjAddr: 0x13B5C, symBinAddr: 0x100016224, symSize: 0x30 }
  - { offsetInCU: 0x417FD, offset: 0x417FD, size: 0x8, addend: 0x0, symName: __ZNSt15__new_allocatorIPiED2Ev, symObjAddr: 0x13B48, symBinAddr: 0x100016210, symSize: 0x14 }
  - { offsetInCU: 0x41888, offset: 0x41888, size: 0x8, addend: 0x0, symName: __ZNSt15_Deque_iteratorIiRiPiEC1Ev, symObjAddr: 0x13B14, symBinAddr: 0x1000161DC, symSize: 0x34 }
  - { offsetInCU: 0x4188D, offset: 0x4188D, size: 0x8, addend: 0x0, symName: __ZNSt15_Deque_iteratorIiRiPiE14_S_buffer_sizeEv, symObjAddr: 0x13AFC, symBinAddr: 0x1000161C4, symSize: 0x18 }
  - { offsetInCU: 0x418A8, offset: 0x418A8, size: 0x8, addend: 0x0, symName: __ZNSt5dequeIiSaIiEE17_M_reallocate_mapEmb, symObjAddr: 0x138B8, symBinAddr: 0x100015F80, symSize: 0x244 }
  - { offsetInCU: 0x4195D, offset: 0x4195D, size: 0x8, addend: 0x0, symName: __ZNKSt11_Deque_baseIiSaIiEE19_M_get_Tp_allocatorEv, symObjAddr: 0x138A4, symBinAddr: 0x100015F6C, symSize: 0x14 }
  - { offsetInCU: 0x41983, offset: 0x41983, size: 0x8, addend: 0x0, symName: __ZNSt5dequeIiSaIiEE11_S_max_sizeERKS0_, symObjAddr: 0x13850, symBinAddr: 0x100015F18, symSize: 0x54 }
  - { offsetInCU: 0x41A41, offset: 0x41A41, size: 0x8, addend: 0x0, symName: __ZStmiRKSt15_Deque_iteratorIiRiPiES4_, symObjAddr: 0x137BC, symBinAddr: 0x100015E84, symSize: 0x94 }
  - { offsetInCU: 0x41A7C, offset: 0x41A7C, size: 0x8, addend: 0x0, symName: __ZNSt27__uninitialized_default_n_1ILb1EE18__uninit_default_nIPimEET_S3_T0_, symObjAddr: 0x13758, symBinAddr: 0x100015E20, symSize: 0x64 }
  - { offsetInCU: 0x41B0D, offset: 0x41B0D, size: 0x8, addend: 0x0, symName: __ZNSt15__new_allocatorIP8TreeNodeE8allocateEmPKv, symObjAddr: 0x136DC, symBinAddr: 0x100015DA4, symSize: 0x7C }
  - { offsetInCU: 0x41B95, offset: 0x41B95, size: 0x8, addend: 0x0, symName: __ZSt13copy_backwardIPPP8TreeNodeS3_ET0_T_S5_S4_, symObjAddr: 0x13694, symBinAddr: 0x100015D5C, symSize: 0x48 }
  - { offsetInCU: 0x41BF3, offset: 0x41BF3, size: 0x8, addend: 0x0, symName: __ZSt4copyIPPP8TreeNodeS3_ET0_T_S5_S4_, symObjAddr: 0x1364C, symBinAddr: 0x100015D14, symSize: 0x48 }
  - { offsetInCU: 0x41C81, offset: 0x41C81, size: 0x8, addend: 0x0, symName: __ZNSt15__new_allocatorIP8TreeNodeE10deallocateEPS1_m, symObjAddr: 0x1361C, symBinAddr: 0x100015CE4, symSize: 0x30 }
  - { offsetInCU: 0x41CCB, offset: 0x41CCB, size: 0x8, addend: 0x0, symName: __ZNSt15__new_allocatorIPP8TreeNodeE8allocateEmPKv, symObjAddr: 0x135A0, symBinAddr: 0x100015C68, symSize: 0x7C }
  - { offsetInCU: 0x41D7B, offset: 0x41D7B, size: 0x8, addend: 0x0, symName: __ZNSt5dequeISt4pairIP8TreeNodeiESaIS3_EE17_M_reallocate_mapEmb, symObjAddr: 0x1335C, symBinAddr: 0x100015A24, symSize: 0x244 }
  - { offsetInCU: 0x41E2C, offset: 0x41E2C, size: 0x8, addend: 0x0, symName: __ZNSt5dequeISt4pairIP8TreeNodeiESaIS3_EE11_S_max_sizeERKS4_, symObjAddr: 0x13308, symBinAddr: 0x1000159D0, symSize: 0x54 }
  - { offsetInCU: 0x41EEA, offset: 0x41EEA, size: 0x8, addend: 0x0, symName: __ZStmiRKSt15_Deque_iteratorISt4pairIP8TreeNodeiERS3_PS3_ES8_, symObjAddr: 0x13274, symBinAddr: 0x10001593C, symSize: 0x94 }
  - { offsetInCU: 0x41F6B, offset: 0x41F6B, size: 0x8, addend: 0x0, symName: __ZNSt15__new_allocatorIPSt4pairIP8TreeNodeiEE10deallocateEPS4_m, symObjAddr: 0x13244, symBinAddr: 0x10001590C, symSize: 0x30 }
  - { offsetInCU: 0x42007, offset: 0x42007, size: 0x8, addend: 0x0, symName: __ZNSt15__new_allocatorIPSt4pairIP8TreeNodeiEED2Ev, symObjAddr: 0x13230, symBinAddr: 0x1000158F8, symSize: 0x14 }
  - { offsetInCU: 0x42023, offset: 0x42023, size: 0x8, addend: 0x0, symName: __ZNKSt11_Deque_baseISt4pairIP8TreeNodeiESaIS3_EE19_M_get_Tp_allocatorEv, symObjAddr: 0x1321C, symBinAddr: 0x1000158E4, symSize: 0x14 }
  - { offsetInCU: 0x4207C, offset: 0x4207C, size: 0x8, addend: 0x0, symName: __ZNSt15_Deque_iteratorISt4pairIP8TreeNodeiERS3_PS3_E14_S_buffer_sizeEv, symObjAddr: 0x13204, symBinAddr: 0x1000158CC, symSize: 0x18 }
  - { offsetInCU: 0x4210A, offset: 0x4210A, size: 0x8, addend: 0x0, symName: __ZNSt15_Deque_iteratorISt4pairIP8TreeNodeiERS3_PS3_EC1Ev, symObjAddr: 0x131D0, symBinAddr: 0x100015898, symSize: 0x34 }
  - { offsetInCU: 0x4210D, offset: 0x4210D, size: 0x8, addend: 0x0, symName: __ZSt14__relocate_a_1IPSt6vectorIiSaIiEES3_SaIS2_EET0_T_S6_S5_RT1_, symObjAddr: 0x1314C, symBinAddr: 0x100015814, symSize: 0x84 }
  - { offsetInCU: 0x42196, offset: 0x42196, size: 0x8, addend: 0x0, symName: __ZSt12__niter_baseIPSt6vectorIiSaIiEEET_S4_, symObjAddr: 0x13138, symBinAddr: 0x100015800, symSize: 0x14 }
  - { offsetInCU: 0x421CD, offset: 0x421CD, size: 0x8, addend: 0x0, symName: __ZNSt15__new_allocatorISt6vectorIiSaIiEEE8allocateEmPKv, symObjAddr: 0x130A8, symBinAddr: 0x100015770, symSize: 0x90 }
  - { offsetInCU: 0x42259, offset: 0x42259, size: 0x8, addend: 0x0, symName: __ZNKSt12_Vector_baseISt6vectorIiSaIiEESaIS2_EE19_M_get_Tp_allocatorEv, symObjAddr: 0x13094, symBinAddr: 0x10001575C, symSize: 0x14 }
  - { offsetInCU: 0x4227F, offset: 0x4227F, size: 0x8, addend: 0x0, symName: __ZNSt6vectorIS_IiSaIiEESaIS1_EE11_S_max_sizeERKS2_, symObjAddr: 0x13038, symBinAddr: 0x100015700, symSize: 0x5C }
  - { offsetInCU: 0x42336, offset: 0x42336, size: 0x8, addend: 0x0, symName: __ZSt22__uninitialized_copy_aIN9__gnu_cxx17__normal_iteratorIPKiSt6vectorIiSaIiEEEEPiiET0_T_SA_S9_RSaIT1_E, symObjAddr: 0x13008, symBinAddr: 0x1000156D0, symSize: 0x30 }
  - { offsetInCU: 0x423AA, offset: 0x423AA, size: 0x8, addend: 0x0, symName: __ZNKSt6vectorIiSaIiEE3endEv, symObjAddr: 0x12FE0, symBinAddr: 0x1000156A8, symSize: 0x28 }
  - { offsetInCU: 0x423D4, offset: 0x423D4, size: 0x8, addend: 0x0, symName: __ZNKSt6vectorIiSaIiEE5beginEv, symObjAddr: 0x12FBC, symBinAddr: 0x100015684, symSize: 0x24 }
  - { offsetInCU: 0x42451, offset: 0x42451, size: 0x8, addend: 0x0, symName: __ZSt8_DestroyISt6vectorIiSaIiEEEvPT_, symObjAddr: 0x12F9C, symBinAddr: 0x100015664, symSize: 0x20 }
  - { offsetInCU: 0x42483, offset: 0x42483, size: 0x8, addend: 0x0, symName: __ZSt11__addressofISt6vectorIiSaIiEEEPT_RS3_, symObjAddr: 0x12F88, symBinAddr: 0x100015650, symSize: 0x14 }
  - { offsetInCU: 0x424B5, offset: 0x424B5, size: 0x8, addend: 0x0, symName: __ZSt14__relocate_a_1IiiENSt9enable_ifIXsrSt24__is_bitwise_relocatableIT_vE5valueEPS2_E4typeES4_S4_S4_RSaIT0_E, symObjAddr: 0x12F24, symBinAddr: 0x1000155EC, symSize: 0x64 }
  - { offsetInCU: 0x42535, offset: 0x42535, size: 0x8, addend: 0x0, symName: __ZSt12__niter_baseIPiET_S1_, symObjAddr: 0x12F10, symBinAddr: 0x1000155D8, symSize: 0x14 }
  - { offsetInCU: 0x4256C, offset: 0x4256C, size: 0x8, addend: 0x0, symName: __ZNSt15__new_allocatorIiE8allocateEmPKv, symObjAddr: 0x12E94, symBinAddr: 0x10001555C, symSize: 0x7C }
  - { offsetInCU: 0x425F8, offset: 0x425F8, size: 0x8, addend: 0x0, symName: __ZNKSt12_Vector_baseIiSaIiEE19_M_get_Tp_allocatorEv, symObjAddr: 0x12E80, symBinAddr: 0x100015548, symSize: 0x14 }
  - { offsetInCU: 0x42626, offset: 0x42626, size: 0x8, addend: 0x0, symName: __ZN9__gnu_cxx16__aligned_membufISt4pairIKiiEE7_M_addrEv, symObjAddr: 0x12E6C, symBinAddr: 0x100015534, symSize: 0x14 }
  - { offsetInCU: 0x42650, offset: 0x42650, size: 0x8, addend: 0x0, symName: __ZNSt8_Rb_treeIiSt4pairIKiiESt10_Select1stIS2_ESt4lessIiESaIS2_EE14_M_insert_nodeEPSt18_Rb_tree_node_baseSA_PSt13_Rb_tree_nodeIS2_E, symObjAddr: 0x12D9C, symBinAddr: 0x100015464, symSize: 0xD0 }
  - { offsetInCU: 0x426BE, offset: 0x426BE, size: 0x8, addend: 0x0, symName: __ZNSt17_Rb_tree_iteratorISt4pairIKiiEEmmEv, symObjAddr: 0x12D6C, symBinAddr: 0x100015434, symSize: 0x30 }
  - { offsetInCU: 0x426E8, offset: 0x426E8, size: 0x8, addend: 0x0, symName: __ZNSt8_Rb_treeIiSt4pairIKiiESt10_Select1stIS2_ESt4lessIiESaIS2_EE11_M_leftmostEv, symObjAddr: 0x12D54, symBinAddr: 0x10001541C, symSize: 0x18 }
  - { offsetInCU: 0x42712, offset: 0x42712, size: 0x8, addend: 0x0, symName: __ZNSt8_Rb_treeIiSt4pairIKiiESt10_Select1stIS2_ESt4lessIiESaIS2_EE24_M_get_insert_unique_posERS1_, symObjAddr: 0x12BFC, symBinAddr: 0x1000152C4, symSize: 0x158 }
  - { offsetInCU: 0x42796, offset: 0x42796, size: 0x8, addend: 0x0, symName: __ZNSt8_Rb_treeIiSt4pairIKiiESt10_Select1stIS2_ESt4lessIiESaIS2_EE12_M_rightmostEv, symObjAddr: 0x12BE4, symBinAddr: 0x1000152AC, symSize: 0x18 }
  - { offsetInCU: 0x427C0, offset: 0x427C0, size: 0x8, addend: 0x0, symName: __ZNKSt8_Rb_treeIiSt4pairIKiiESt10_Select1stIS2_ESt4lessIiESaIS2_EE4sizeEv, symObjAddr: 0x12BCC, symBinAddr: 0x100015294, symSize: 0x18 }
  - { offsetInCU: 0x427EA, offset: 0x427EA, size: 0x8, addend: 0x0, symName: __ZNKSt23_Rb_tree_const_iteratorISt4pairIKiiEE13_M_const_castEv, symObjAddr: 0x12BA4, symBinAddr: 0x10001526C, symSize: 0x28 }
  - { offsetInCU: 0x42814, offset: 0x42814, size: 0x8, addend: 0x0, symName: __ZNSt8_Rb_treeIiSt4pairIKiiESt10_Select1stIS2_ESt4lessIiESaIS2_EE14_M_create_nodeIJRKSt21piecewise_construct_tSt5tupleIJRS1_EESD_IJEEEEEPSt13_Rb_tree_nodeIS2_EDpOT_, symObjAddr: 0x12B34, symBinAddr: 0x1000151FC, symSize: 0x70 }
  - { offsetInCU: 0x42882, offset: 0x42882, size: 0x8, addend: 0x0, symName: __ZNSt8_Rb_treeIiSt4pairIKiiESt10_Select1stIS2_ESt4lessIiESaIS2_EE6_S_keyEPKSt13_Rb_tree_nodeIS2_E, symObjAddr: 0x12B0C, symBinAddr: 0x1000151D4, symSize: 0x28 }
  - { offsetInCU: 0x428B0, offset: 0x428B0, size: 0x8, addend: 0x0, symName: __ZNSt8_Rb_treeIiSt4pairIKiiESt10_Select1stIS2_ESt4lessIiESaIS2_EE11_M_put_nodeEPSt13_Rb_tree_nodeIS2_E, symObjAddr: 0x12AC0, symBinAddr: 0x100015188, symSize: 0x4C }
  - { offsetInCU: 0x42921, offset: 0x42921, size: 0x8, addend: 0x0, symName: __ZNSt8_Rb_treeIiSt4pairIKiiESt10_Select1stIS2_ESt4lessIiESaIS2_EE15_M_destroy_nodeEPSt13_Rb_tree_nodeIS2_E, symObjAddr: 0x12A68, symBinAddr: 0x100015130, symSize: 0x58 }
  - { offsetInCU: 0x429BA, offset: 0x429BA, size: 0x8, addend: 0x0, symName: __ZN9__gnu_cxx16__aligned_membufISt4pairIKiS1_IiiEEE7_M_addrEv, symObjAddr: 0x12A54, symBinAddr: 0x10001511C, symSize: 0x14 }
  - { offsetInCU: 0x429E4, offset: 0x429E4, size: 0x8, addend: 0x0, symName: __ZNSt8_Rb_treeIiSt4pairIKiS0_IiiEESt10_Select1stIS3_ESt4lessIiESaIS3_EE11_M_put_nodeEPSt13_Rb_tree_nodeIS3_E, symObjAddr: 0x12A08, symBinAddr: 0x1000150D0, symSize: 0x4C }
  - { offsetInCU: 0x42A55, offset: 0x42A55, size: 0x8, addend: 0x0, symName: __ZNSt8_Rb_treeIiSt4pairIKiS0_IiiEESt10_Select1stIS3_ESt4lessIiESaIS3_EE15_M_destroy_nodeEPSt13_Rb_tree_nodeIS3_E, symObjAddr: 0x129B0, symBinAddr: 0x100015078, symSize: 0x58 }
  - { offsetInCU: 0x42AEA, offset: 0x42AEA, size: 0x8, addend: 0x0, symName: __ZNSt8_Rb_treeIiSt4pairIKiS0_IiiEESt10_Select1stIS3_ESt4lessIiESaIS3_EE14_M_insert_nodeEPSt18_Rb_tree_node_baseSB_PSt13_Rb_tree_nodeIS3_E, symObjAddr: 0x128E0, symBinAddr: 0x100014FA8, symSize: 0xD0 }
  - { offsetInCU: 0x42B58, offset: 0x42B58, size: 0x8, addend: 0x0, symName: __ZNSt17_Rb_tree_iteratorISt4pairIKiS0_IiiEEEmmEv, symObjAddr: 0x128B0, symBinAddr: 0x100014F78, symSize: 0x30 }
  - { offsetInCU: 0x42B82, offset: 0x42B82, size: 0x8, addend: 0x0, symName: __ZNSt8_Rb_treeIiSt4pairIKiS0_IiiEESt10_Select1stIS3_ESt4lessIiESaIS3_EE11_M_leftmostEv, symObjAddr: 0x12898, symBinAddr: 0x100014F60, symSize: 0x18 }
  - { offsetInCU: 0x42BAC, offset: 0x42BAC, size: 0x8, addend: 0x0, symName: __ZNSt8_Rb_treeIiSt4pairIKiS0_IiiEESt10_Select1stIS3_ESt4lessIiESaIS3_EE24_M_get_insert_unique_posERS1_, symObjAddr: 0x12740, symBinAddr: 0x100014E08, symSize: 0x158 }
  - { offsetInCU: 0x42C30, offset: 0x42C30, size: 0x8, addend: 0x0, symName: __ZNSt8_Rb_treeIiSt4pairIKiS0_IiiEESt10_Select1stIS3_ESt4lessIiESaIS3_EE12_M_rightmostEv, symObjAddr: 0x12728, symBinAddr: 0x100014DF0, symSize: 0x18 }
  - { offsetInCU: 0x42C5A, offset: 0x42C5A, size: 0x8, addend: 0x0, symName: __ZNKSt8_Rb_treeIiSt4pairIKiS0_IiiEESt10_Select1stIS3_ESt4lessIiESaIS3_EE4sizeEv, symObjAddr: 0x12710, symBinAddr: 0x100014DD8, symSize: 0x18 }
  - { offsetInCU: 0x42C84, offset: 0x42C84, size: 0x8, addend: 0x0, symName: __ZNKSt23_Rb_tree_const_iteratorISt4pairIKiS0_IiiEEE13_M_const_castEv, symObjAddr: 0x126E8, symBinAddr: 0x100014DB0, symSize: 0x28 }
  - { offsetInCU: 0x42CAE, offset: 0x42CAE, size: 0x8, addend: 0x0, symName: __ZNSt8_Rb_treeIiSt4pairIKiS0_IiiEESt10_Select1stIS3_ESt4lessIiESaIS3_EE14_M_create_nodeIJRKSt21piecewise_construct_tSt5tupleIJRS1_EESE_IJEEEEEPSt13_Rb_tree_nodeIS3_EDpOT_, symObjAddr: 0x12678, symBinAddr: 0x100014D40, symSize: 0x70 }
  - { offsetInCU: 0x42D1C, offset: 0x42D1C, size: 0x8, addend: 0x0, symName: __ZNSt8_Rb_treeIiSt4pairIKiS0_IiiEESt10_Select1stIS3_ESt4lessIiESaIS3_EE8_S_rightEPKSt18_Rb_tree_node_base, symObjAddr: 0x12660, symBinAddr: 0x100014D28, symSize: 0x18 }
  - { offsetInCU: 0x42D46, offset: 0x42D46, size: 0x8, addend: 0x0, symName: __ZNSt8_Rb_treeIiSt4pairIKiS0_IiiEESt10_Select1stIS3_ESt4lessIiESaIS3_EE7_S_leftEPKSt18_Rb_tree_node_base, symObjAddr: 0x12648, symBinAddr: 0x100014D10, symSize: 0x18 }
  - { offsetInCU: 0x42D70, offset: 0x42D70, size: 0x8, addend: 0x0, symName: __ZNSt8_Rb_treeIiSt4pairIKiS0_IiiEESt10_Select1stIS3_ESt4lessIiESaIS3_EE6_S_keyEPKSt13_Rb_tree_nodeIS3_E, symObjAddr: 0x12620, symBinAddr: 0x100014CE8, symSize: 0x28 }
  - { offsetInCU: 0x42D9A, offset: 0x42D9A, size: 0x8, addend: 0x0, symName: __ZSt18uninitialized_copyISt23_Rb_tree_const_iteratorIiEPiET0_T_S4_S3_, symObjAddr: 0x125E4, symBinAddr: 0x100014CAC, symSize: 0x3C }
  - { offsetInCU: 0x42E1C, offset: 0x42E1C, size: 0x8, addend: 0x0, symName: __ZSt9__advanceISt23_Rb_tree_const_iteratorIiElEvRT_T0_St26bidirectional_iterator_tag, symObjAddr: 0x12558, symBinAddr: 0x100014C20, symSize: 0x8C }
  - { offsetInCU: 0x42E70, offset: 0x42E70, size: 0x8, addend: 0x0, symName: __ZSt13__copy_move_aILb0ESt23_Rb_tree_const_iteratorIiEN9__gnu_cxx17__normal_iteratorIPiSt6vectorIiSaIiEEEEET1_T0_SA_S9_, symObjAddr: 0x124F8, symBinAddr: 0x100014BC0, symSize: 0x60 }
  - { offsetInCU: 0x42ED8, offset: 0x42ED8, size: 0x8, addend: 0x0, symName: __ZSt12__miter_baseISt23_Rb_tree_const_iteratorIiEET_S2_, symObjAddr: 0x124E4, symBinAddr: 0x100014BAC, symSize: 0x14 }
  - { offsetInCU: 0x42F0B, offset: 0x42F0B, size: 0x8, addend: 0x0, symName: __ZSt10__distanceISt23_Rb_tree_const_iteratorIiEENSt15iterator_traitsIT_E15difference_typeES3_S3_St18input_iterator_tag, symObjAddr: 0x12490, symBinAddr: 0x100014B58, symSize: 0x54 }
  - { offsetInCU: 0x42F6A, offset: 0x42F6A, size: 0x8, addend: 0x0, symName: __ZNSt8_Rb_treeIiiSt9_IdentityIiESt4lessIiESaIiEE11_M_put_nodeEPSt13_Rb_tree_nodeIiE, symObjAddr: 0x12444, symBinAddr: 0x100014B0C, symSize: 0x4C }
  - { offsetInCU: 0x42FDB, offset: 0x42FDB, size: 0x8, addend: 0x0, symName: __ZNSt8_Rb_treeIiiSt9_IdentityIiESt4lessIiESaIiEE15_M_destroy_nodeEPSt13_Rb_tree_nodeIiE, symObjAddr: 0x123EC, symBinAddr: 0x100014AB4, symSize: 0x58 }
  - { offsetInCU: 0x4306C, offset: 0x4306C, size: 0x8, addend: 0x0, symName: __ZNSt8_Rb_treeIiiSt9_IdentityIiESt4lessIiESaIiEE10_S_maximumEPSt18_Rb_tree_node_base, symObjAddr: 0x123D0, symBinAddr: 0x100014A98, symSize: 0x1C }
  - { offsetInCU: 0x4309A, offset: 0x4309A, size: 0x8, addend: 0x0, symName: __ZNSt8_Rb_treeIiiSt9_IdentityIiESt4lessIiESaIiEE12_M_rightmostEv, symObjAddr: 0x123B8, symBinAddr: 0x100014A80, symSize: 0x18 }
  - { offsetInCU: 0x430C0, offset: 0x430C0, size: 0x8, addend: 0x0, symName: __ZNSt8_Rb_treeIiiSt9_IdentityIiESt4lessIiESaIiEE10_S_minimumEPSt18_Rb_tree_node_base, symObjAddr: 0x1239C, symBinAddr: 0x100014A64, symSize: 0x1C }
  - { offsetInCU: 0x430EE, offset: 0x430EE, size: 0x8, addend: 0x0, symName: __ZNSt8_Rb_treeIiiSt9_IdentityIiESt4lessIiESaIiEE11_M_leftmostEv, symObjAddr: 0x12384, symBinAddr: 0x100014A4C, symSize: 0x18 }
  - { offsetInCU: 0x43118, offset: 0x43118, size: 0x8, addend: 0x0, symName: __ZNSt8_Rb_treeIiiSt9_IdentityIiESt4lessIiESaIiEE7_M_copyILb0ENS5_11_Alloc_nodeEEEPSt13_Rb_tree_nodeIiESA_PSt18_Rb_tree_node_baseRT0_, symObjAddr: 0x1223C, symBinAddr: 0x100014904, symSize: 0x148 }
  - { offsetInCU: 0x431F2, offset: 0x431F2, size: 0x8, addend: 0x0, symName: __ZN9__gnu_cxx16__aligned_membufISt4pairIKiSt8multisetIiSt4lessIiESaIiEEEE7_M_addrEv, symObjAddr: 0x12228, symBinAddr: 0x1000148F0, symSize: 0x14 }
  - { offsetInCU: 0x4321C, offset: 0x4321C, size: 0x8, addend: 0x0, symName: __ZNSt8_Rb_treeIiSt4pairIKiSt8multisetIiSt4lessIiESaIiEEESt10_Select1stIS7_ES4_SaIS7_EE11_M_put_nodeEPSt13_Rb_tree_nodeIS7_E, symObjAddr: 0x121DC, symBinAddr: 0x1000148A4, symSize: 0x4C }
  - { offsetInCU: 0x4328D, offset: 0x4328D, size: 0x8, addend: 0x0, symName: __ZNSt8_Rb_treeIiSt4pairIKiSt8multisetIiSt4lessIiESaIiEEESt10_Select1stIS7_ES4_SaIS7_EE15_M_destroy_nodeEPSt13_Rb_tree_nodeIS7_E, symObjAddr: 0x1217C, symBinAddr: 0x100014844, symSize: 0x60 }
  - { offsetInCU: 0x4331E, offset: 0x4331E, size: 0x8, addend: 0x0, symName: __ZNSt8_Rb_treeIiSt4pairIKiSt8multisetIiSt4lessIiESaIiEEESt10_Select1stIS7_ES4_SaIS7_EE10_S_maximumEPSt18_Rb_tree_node_base, symObjAddr: 0x12160, symBinAddr: 0x100014828, symSize: 0x1C }
  - { offsetInCU: 0x43348, offset: 0x43348, size: 0x8, addend: 0x0, symName: __ZNSt8_Rb_treeIiSt4pairIKiSt8multisetIiSt4lessIiESaIiEEESt10_Select1stIS7_ES4_SaIS7_EE10_S_minimumEPSt18_Rb_tree_node_base, symObjAddr: 0x12144, symBinAddr: 0x10001480C, symSize: 0x1C }
  - { offsetInCU: 0x43376, offset: 0x43376, size: 0x8, addend: 0x0, symName: __ZNSt8_Rb_treeIiSt4pairIKiSt8multisetIiSt4lessIiESaIiEEESt10_Select1stIS7_ES4_SaIS7_EE7_M_copyILb0ENSB_11_Alloc_nodeEEEPSt13_Rb_tree_nodeIS7_ESG_PSt18_Rb_tree_node_baseRT0_, symObjAddr: 0x11FFC, symBinAddr: 0x1000146C4, symSize: 0x148 }
  - { offsetInCU: 0x43450, offset: 0x43450, size: 0x8, addend: 0x0, symName: __ZN9__gnu_cxx16__aligned_membufISt4pairIKiSt3mapIiSt8multisetIiSt4lessIiESaIiEES6_SaIS1_IS2_S8_EEEEE7_M_addrEv, symObjAddr: 0x11FE8, symBinAddr: 0x1000146B0, symSize: 0x14 }
  - { offsetInCU: 0x434D4, offset: 0x434D4, size: 0x8, addend: 0x0, symName: __ZNSt17_Rb_tree_iteratorIiEC1EPSt18_Rb_tree_node_base, symObjAddr: 0x11FC4, symBinAddr: 0x10001468C, symSize: 0x24 }
  - { offsetInCU: 0x434DC, offset: 0x434DC, size: 0x8, addend: 0x0, symName: __ZNKSt8_Rb_treeIiiSt9_IdentityIiESt4lessIiESaIiEE11_Alloc_nodeclIRKiEEPSt13_Rb_tree_nodeIiEOT_, symObjAddr: 0x11F88, symBinAddr: 0x100014650, symSize: 0x3C }
  - { offsetInCU: 0x4351C, offset: 0x4351C, size: 0x8, addend: 0x0, symName: __ZNSt8_Rb_treeIiiSt9_IdentityIiESt4lessIiESaIiEE6_S_keyEPKSt18_Rb_tree_node_base, symObjAddr: 0x11F6C, symBinAddr: 0x100014634, symSize: 0x1C }
  - { offsetInCU: 0x435DF, offset: 0x435DF, size: 0x8, addend: 0x0, symName: __ZNSt4pairIPSt18_Rb_tree_node_baseS1_EC1IRPSt13_Rb_tree_nodeIiERS1_Lb1EEEOT_OT0_, symObjAddr: 0x11F24, symBinAddr: 0x1000145EC, symSize: 0x48 }
  - { offsetInCU: 0x435D8, offset: 0x435D8, size: 0x8, addend: 0x0, symName: __ZNSt8_Rb_treeIiiSt9_IdentityIiESt4lessIiESaIiEE6_S_keyEPKSt13_Rb_tree_nodeIiE, symObjAddr: 0x11EFC, symBinAddr: 0x1000145C4, symSize: 0x28 }
  - { offsetInCU: 0x43606, offset: 0x43606, size: 0x8, addend: 0x0, symName: __ZNSt8_Rb_treeIiiSt9_IdentityIiESt4lessIiESaIiEE6_M_endEv, symObjAddr: 0x11EE4, symBinAddr: 0x1000145AC, symSize: 0x18 }
  - { offsetInCU: 0x43630, offset: 0x43630, size: 0x8, addend: 0x0, symName: __ZNSt8_Rb_treeIiSt4pairIKiSt8multisetIiSt4lessIiESaIiEEESt10_Select1stIS7_ES4_SaIS7_EE14_M_insert_nodeEPSt18_Rb_tree_node_baseSD_PSt13_Rb_tree_nodeIS7_E, symObjAddr: 0x11E14, symBinAddr: 0x1000144DC, symSize: 0xD0 }
  - { offsetInCU: 0x4369A, offset: 0x4369A, size: 0x8, addend: 0x0, symName: __ZNSt8_Rb_treeIiSt4pairIKiSt8multisetIiSt4lessIiESaIiEEESt10_Select1stIS7_ES4_SaIS7_EE6_S_keyEPKSt13_Rb_tree_nodeIS7_E, symObjAddr: 0x11DEC, symBinAddr: 0x1000144B4, symSize: 0x28 }
  - { offsetInCU: 0x436C8, offset: 0x436C8, size: 0x8, addend: 0x0, symName: __ZNSt17_Rb_tree_iteratorISt4pairIKiSt8multisetIiSt4lessIiESaIiEEEEmmEv, symObjAddr: 0x11DBC, symBinAddr: 0x100014484, symSize: 0x30 }
  - { offsetInCU: 0x436F2, offset: 0x436F2, size: 0x8, addend: 0x0, symName: __ZNSt8_Rb_treeIiSt4pairIKiSt8multisetIiSt4lessIiESaIiEEESt10_Select1stIS7_ES4_SaIS7_EE11_M_leftmostEv, symObjAddr: 0x11DA4, symBinAddr: 0x10001446C, symSize: 0x18 }
  - { offsetInCU: 0x4371C, offset: 0x4371C, size: 0x8, addend: 0x0, symName: __ZNSt8_Rb_treeIiSt4pairIKiSt8multisetIiSt4lessIiESaIiEEESt10_Select1stIS7_ES4_SaIS7_EE24_M_get_insert_unique_posERS1_, symObjAddr: 0x11C4C, symBinAddr: 0x100014314, symSize: 0x158 }
  - { offsetInCU: 0x4379C, offset: 0x4379C, size: 0x8, addend: 0x0, symName: __ZNSt8_Rb_treeIiSt4pairIKiSt8multisetIiSt4lessIiESaIiEEESt10_Select1stIS7_ES4_SaIS7_EE6_S_keyEPKSt18_Rb_tree_node_base, symObjAddr: 0x11C30, symBinAddr: 0x1000142F8, symSize: 0x1C }
  - { offsetInCU: 0x437CA, offset: 0x437CA, size: 0x8, addend: 0x0, symName: __ZNSt8_Rb_treeIiSt4pairIKiSt8multisetIiSt4lessIiESaIiEEESt10_Select1stIS7_ES4_SaIS7_EE12_M_rightmostEv, symObjAddr: 0x11C18, symBinAddr: 0x1000142E0, symSize: 0x18 }
  - { offsetInCU: 0x437F4, offset: 0x437F4, size: 0x8, addend: 0x0, symName: __ZNKSt8_Rb_treeIiSt4pairIKiSt8multisetIiSt4lessIiESaIiEEESt10_Select1stIS7_ES4_SaIS7_EE4sizeEv, symObjAddr: 0x11C00, symBinAddr: 0x1000142C8, symSize: 0x18 }
  - { offsetInCU: 0x4381E, offset: 0x4381E, size: 0x8, addend: 0x0, symName: __ZNKSt23_Rb_tree_const_iteratorISt4pairIKiSt8multisetIiSt4lessIiESaIiEEEE13_M_const_castEv, symObjAddr: 0x11BD8, symBinAddr: 0x1000142A0, symSize: 0x28 }
  - { offsetInCU: 0x43848, offset: 0x43848, size: 0x8, addend: 0x0, symName: __ZNSt8_Rb_treeIiSt4pairIKiSt8multisetIiSt4lessIiESaIiEEESt10_Select1stIS7_ES4_SaIS7_EE14_M_create_nodeIJRKSt21piecewise_construct_tSt5tupleIJRS1_EESG_IJEEEEEPSt13_Rb_tree_nodeIS7_EDpOT_, symObjAddr: 0x11B68, symBinAddr: 0x100014230, symSize: 0x70 }
  - { offsetInCU: 0x438BA, offset: 0x438BA, size: 0x8, addend: 0x0, symName: __ZNSt8_Rb_treeIiSt4pairIKiSt8multisetIiSt4lessIiESaIiEEESt10_Select1stIS7_ES4_SaIS7_EE14_M_lower_boundEPSt13_Rb_tree_nodeIS7_EPSt18_Rb_tree_node_baseRS1_, symObjAddr: 0x11ACC, symBinAddr: 0x100014194, symSize: 0x9C }
  - { offsetInCU: 0x43917, offset: 0x43917, size: 0x8, addend: 0x0, symName: __ZNSt8_Rb_treeIiSt4pairIKiSt8multisetIiSt4lessIiESaIiEEESt10_Select1stIS7_ES4_SaIS7_EE6_M_endEv, symObjAddr: 0x11AB4, symBinAddr: 0x10001417C, symSize: 0x18 }
  - { offsetInCU: 0x43941, offset: 0x43941, size: 0x8, addend: 0x0, symName: __ZNSt8_Rb_treeIiSt4pairIKiSt3mapIiSt8multisetIiSt4lessIiESaIiEES5_SaIS0_IS1_S7_EEEESt10_Select1stISB_ES5_SaISB_EE14_M_insert_nodeEPSt18_Rb_tree_node_baseSH_PSt13_Rb_tree_nodeISB_E, symObjAddr: 0x119E4, symBinAddr: 0x1000140AC, symSize: 0xD0 }
  - { offsetInCU: 0x439AB, offset: 0x439AB, size: 0x8, addend: 0x0, symName: __ZNSt8_Rb_treeIiSt4pairIKiSt3mapIiSt8multisetIiSt4lessIiESaIiEES5_SaIS0_IS1_S7_EEEESt10_Select1stISB_ES5_SaISB_EE6_S_keyEPKSt13_Rb_tree_nodeISB_E, symObjAddr: 0x119BC, symBinAddr: 0x100014084, symSize: 0x28 }
  - { offsetInCU: 0x439D9, offset: 0x439D9, size: 0x8, addend: 0x0, symName: __ZNSt17_Rb_tree_iteratorISt4pairIKiSt3mapIiSt8multisetIiSt4lessIiESaIiEES5_SaIS0_IS1_S7_EEEEEmmEv, symObjAddr: 0x1198C, symBinAddr: 0x100014054, symSize: 0x30 }
  - { offsetInCU: 0x43A03, offset: 0x43A03, size: 0x8, addend: 0x0, symName: __ZNSt8_Rb_treeIiSt4pairIKiSt3mapIiSt8multisetIiSt4lessIiESaIiEES5_SaIS0_IS1_S7_EEEESt10_Select1stISB_ES5_SaISB_EE11_M_leftmostEv, symObjAddr: 0x11974, symBinAddr: 0x10001403C, symSize: 0x18 }
  - { offsetInCU: 0x43A2D, offset: 0x43A2D, size: 0x8, addend: 0x0, symName: __ZNSt8_Rb_treeIiSt4pairIKiSt3mapIiSt8multisetIiSt4lessIiESaIiEES5_SaIS0_IS1_S7_EEEESt10_Select1stISB_ES5_SaISB_EE24_M_get_insert_unique_posERS1_, symObjAddr: 0x1181C, symBinAddr: 0x100013EE4, symSize: 0x158 }
  - { offsetInCU: 0x43AAD, offset: 0x43AAD, size: 0x8, addend: 0x0, symName: __ZNSt8_Rb_treeIiSt4pairIKiSt3mapIiSt8multisetIiSt4lessIiESaIiEES5_SaIS0_IS1_S7_EEEESt10_Select1stISB_ES5_SaISB_EE6_S_keyEPKSt18_Rb_tree_node_base, symObjAddr: 0x11800, symBinAddr: 0x100013EC8, symSize: 0x1C }
  - { offsetInCU: 0x43ADB, offset: 0x43ADB, size: 0x8, addend: 0x0, symName: __ZNSt8_Rb_treeIiSt4pairIKiSt3mapIiSt8multisetIiSt4lessIiESaIiEES5_SaIS0_IS1_S7_EEEESt10_Select1stISB_ES5_SaISB_EE12_M_rightmostEv, symObjAddr: 0x117E8, symBinAddr: 0x100013EB0, symSize: 0x18 }
  - { offsetInCU: 0x43B05, offset: 0x43B05, size: 0x8, addend: 0x0, symName: __ZNKSt8_Rb_treeIiSt4pairIKiSt3mapIiSt8multisetIiSt4lessIiESaIiEES5_SaIS0_IS1_S7_EEEESt10_Select1stISB_ES5_SaISB_EE4sizeEv, symObjAddr: 0x117D0, symBinAddr: 0x100013E98, symSize: 0x18 }
  - { offsetInCU: 0x43B2F, offset: 0x43B2F, size: 0x8, addend: 0x0, symName: __ZNKSt23_Rb_tree_const_iteratorISt4pairIKiSt3mapIiSt8multisetIiSt4lessIiESaIiEES5_SaIS0_IS1_S7_EEEEE13_M_const_castEv, symObjAddr: 0x117A8, symBinAddr: 0x100013E70, symSize: 0x28 }
  - { offsetInCU: 0x43B59, offset: 0x43B59, size: 0x8, addend: 0x0, symName: __ZNSt8_Rb_treeIiSt4pairIKiSt3mapIiSt8multisetIiSt4lessIiESaIiEES5_SaIS0_IS1_S7_EEEESt10_Select1stISB_ES5_SaISB_EE14_M_create_nodeIJRKSt21piecewise_construct_tSt5tupleIJRS1_EESK_IJEEEEEPSt13_Rb_tree_nodeISB_EDpOT_, symObjAddr: 0x11738, symBinAddr: 0x100013E00, symSize: 0x70 }
  - { offsetInCU: 0x43BCB, offset: 0x43BCB, size: 0x8, addend: 0x0, symName: __ZNSt8_Rb_treeIiSt4pairIKiSt3mapIiSt8multisetIiSt4lessIiESaIiEES5_SaIS0_IS1_S7_EEEESt10_Select1stISB_ES5_SaISB_EE14_M_lower_boundEPSt13_Rb_tree_nodeISB_EPSt18_Rb_tree_node_baseRS1_, symObjAddr: 0x1169C, symBinAddr: 0x100013D64, symSize: 0x9C }
  - { offsetInCU: 0x43C28, offset: 0x43C28, size: 0x8, addend: 0x0, symName: __ZNSt8_Rb_treeIiSt4pairIKiSt3mapIiSt8multisetIiSt4lessIiESaIiEES5_SaIS0_IS1_S7_EEEESt10_Select1stISB_ES5_SaISB_EE6_M_endEv, symObjAddr: 0x11684, symBinAddr: 0x100013D4C, symSize: 0x18 }
  - { offsetInCU: 0x43C7E, offset: 0x43C7E, size: 0x8, addend: 0x0, symName: __ZNSt5dequeISt4pairIP8TreeNodeS0_IiiEESaIS4_EE4backEv, symObjAddr: 0x11650, symBinAddr: 0x100013D18, symSize: 0x34 }
  - { offsetInCU: 0x43CB9, offset: 0x43CB9, size: 0x8, addend: 0x0, symName: __ZNSt5dequeISt4pairIP8TreeNodeS0_IiiEESaIS4_EE16_M_push_back_auxIJS4_EEEvDpOT_, symObjAddr: 0x11530, symBinAddr: 0x100013BF8, symSize: 0x120 }
  - { offsetInCU: 0x43DB1, offset: 0x43DB1, size: 0x8, addend: 0x0, symName: __ZSt7forwardISt4pairIP8TreeNodeS0_IiiEEEOT_RNSt16remove_referenceIS5_E4typeE, symObjAddr: 0x1151C, symBinAddr: 0x100013BE4, symSize: 0x14 }
  - { offsetInCU: 0x43E39, offset: 0x43E39, size: 0x8, addend: 0x0, symName: __ZNKSt11_Deque_baseISt4pairIP8TreeNodeS0_IiiEESaIS4_EE20_M_get_map_allocatorEv, symObjAddr: 0x114D4, symBinAddr: 0x100013B9C, symSize: 0x48 }
  - { offsetInCU: 0x43EB3, offset: 0x43EB3, size: 0x8, addend: 0x0, symName: __ZNSt11_Deque_baseISt4pairIP8TreeNodeS0_IiiEESaIS4_EE18_M_deallocate_nodeEPS4_, symObjAddr: 0x1147C, symBinAddr: 0x100013B44, symSize: 0x58 }
  - { offsetInCU: 0x43F24, offset: 0x43F24, size: 0x8, addend: 0x0, symName: __ZNSt15_Deque_iteratorISt4pairIP8TreeNodeS0_IiiEERS4_PS4_E11_M_set_nodeEPS6_, symObjAddr: 0x11420, symBinAddr: 0x100013AE8, symSize: 0x5C }
  - { offsetInCU: 0x43F5F, offset: 0x43F5F, size: 0x8, addend: 0x0, symName: __ZNSt11_Deque_baseISt4pairIP8TreeNodeS0_IiiEESaIS4_EE15_M_create_nodesEPPS4_S8_, symObjAddr: 0x11394, symBinAddr: 0x100013A5C, symSize: 0x8C }
  - { offsetInCU: 0x43FBC, offset: 0x43FBC, size: 0x8, addend: 0x0, symName: __ZNSt11_Deque_baseISt4pairIP8TreeNodeS0_IiiEESaIS4_EE15_M_allocate_mapEm, symObjAddr: 0x11314, symBinAddr: 0x1000139DC, symSize: 0x80 }
  - { offsetInCU: 0x440CB, offset: 0x440CB, size: 0x8, addend: 0x0, symName: __ZNSt15__new_allocatorISt4pairIP8TreeNodeS0_IiiEEED2Ev, symObjAddr: 0x11300, symBinAddr: 0x1000139C8, symSize: 0x14 }
  - { offsetInCU: 0x44120, offset: 0x44120, size: 0x8, addend: 0x0, symName: __ZNSt11_Deque_baseISt4pairIP8TreeNodeS0_IiiEESaIS4_EE16_Deque_impl_dataC2Ev, symObjAddr: 0x112C0, symBinAddr: 0x100013988, symSize: 0x40 }
  - { offsetInCU: 0x44114, offset: 0x44114, size: 0x8, addend: 0x0, symName: __ZNSt8_Rb_treeIiSt4pairIKiSt3mapIiSt8multisetIiSt4lessIiESaIiEES5_SaIS0_IS1_S7_EEEESt10_Select1stISB_ES5_SaISB_EE11_M_put_nodeEPSt13_Rb_tree_nodeISB_E, symObjAddr: 0x11274, symBinAddr: 0x10001393C, symSize: 0x4C }
  - { offsetInCU: 0x44185, offset: 0x44185, size: 0x8, addend: 0x0, symName: __ZNSt8_Rb_treeIiSt4pairIKiSt3mapIiSt8multisetIiSt4lessIiESaIiEES5_SaIS0_IS1_S7_EEEESt10_Select1stISB_ES5_SaISB_EE15_M_destroy_nodeEPSt13_Rb_tree_nodeISB_E, symObjAddr: 0x11214, symBinAddr: 0x1000138DC, symSize: 0x60 }
  - { offsetInCU: 0x44216, offset: 0x44216, size: 0x8, addend: 0x0, symName: __ZSt32__make_move_if_noexcept_iteratorIiSt13move_iteratorIPiEET0_PT_, symObjAddr: 0x111F0, symBinAddr: 0x1000138B8, symSize: 0x24 }
  - { offsetInCU: 0x44252, offset: 0x44252, size: 0x8, addend: 0x0, symName: __ZSt18uninitialized_copyIN9__gnu_cxx17__normal_iteratorIPiSt6vectorIiSaIiEEEES2_ET0_T_S8_S7_, symObjAddr: 0x111B4, symBinAddr: 0x10001387C, symSize: 0x3C }
  - { offsetInCU: 0x442CD, offset: 0x442CD, size: 0x8, addend: 0x0, symName: __ZSt9__advanceIN9__gnu_cxx17__normal_iteratorIPiSt6vectorIiSaIiEEEElEvRT_T0_St26random_access_iterator_tag, symObjAddr: 0x11188, symBinAddr: 0x100013850, symSize: 0x2C }
  - { offsetInCU: 0x44321, offset: 0x44321, size: 0x8, addend: 0x0, symName: __ZSt13__copy_move_aILb0EN9__gnu_cxx17__normal_iteratorIPiSt6vectorIiSaIiEEEES6_ET1_T0_S8_S7_, symObjAddr: 0x11128, symBinAddr: 0x1000137F0, symSize: 0x60 }
  - { offsetInCU: 0x44389, offset: 0x44389, size: 0x8, addend: 0x0, symName: __ZSt12__miter_baseIN9__gnu_cxx17__normal_iteratorIPiSt6vectorIiSaIiEEEEET_S7_, symObjAddr: 0x11114, symBinAddr: 0x1000137DC, symSize: 0x14 }
  - { offsetInCU: 0x443BC, offset: 0x443BC, size: 0x8, addend: 0x0, symName: __ZSt22__copy_move_backward_aILb1EPiS0_ET1_T0_S2_S1_, symObjAddr: 0x110B4, symBinAddr: 0x10001377C, symSize: 0x60 }
  - { offsetInCU: 0x44424, offset: 0x44424, size: 0x8, addend: 0x0, symName: __ZSt12__miter_baseIPiET_S1_, symObjAddr: 0x110A0, symBinAddr: 0x100013768, symSize: 0x14 }
  - { offsetInCU: 0x44457, offset: 0x44457, size: 0x8, addend: 0x0, symName: __ZSt22__uninitialized_copy_aISt13move_iteratorIPiES1_iET0_T_S4_S3_RSaIT1_E, symObjAddr: 0x11070, symBinAddr: 0x100013738, symSize: 0x30 }
  - { offsetInCU: 0x444C7, offset: 0x444C7, size: 0x8, addend: 0x0, symName: __ZSt18make_move_iteratorIPiESt13move_iteratorIT_ES2_, symObjAddr: 0x11044, symBinAddr: 0x10001370C, symSize: 0x2C }
  - { offsetInCU: 0x44502, offset: 0x44502, size: 0x8, addend: 0x0, symName: __ZN9__gnu_cxx16__aligned_membufISt4pairIKiSt6vectorIiSaIiEEEE7_M_addrEv, symObjAddr: 0x11030, symBinAddr: 0x1000136F8, symSize: 0x14 }
  - { offsetInCU: 0x44530, offset: 0x44530, size: 0x8, addend: 0x0, symName: __ZN9__gnu_cxx16__aligned_membufISt4pairIKiSt3mapIiSt6vectorIiSaIiEESt4lessIiESaIS1_IS2_S6_EEEEE7_M_addrEv, symObjAddr: 0x1101C, symBinAddr: 0x1000136E4, symSize: 0x14 }
  - { offsetInCU: 0x4455A, offset: 0x4455A, size: 0x8, addend: 0x0, symName: __ZNSt8_Rb_treeIiSt4pairIKiSt3mapIiSt6vectorIiSaIiEESt4lessIiESaIS0_IS1_S5_EEEESt10_Select1stISB_ES7_SaISB_EE11_M_put_nodeEPSt13_Rb_tree_nodeISB_E, symObjAddr: 0x10FD0, symBinAddr: 0x100013698, symSize: 0x4C }
  - { offsetInCU: 0x445CB, offset: 0x445CB, size: 0x8, addend: 0x0, symName: __ZNSt8_Rb_treeIiSt4pairIKiSt3mapIiSt6vectorIiSaIiEESt4lessIiESaIS0_IS1_S5_EEEESt10_Select1stISB_ES7_SaISB_EE15_M_destroy_nodeEPSt13_Rb_tree_nodeISB_E, symObjAddr: 0x10F70, symBinAddr: 0x100013638, symSize: 0x60 }
  - { offsetInCU: 0x4465C, offset: 0x4465C, size: 0x8, addend: 0x0, symName: __ZSt18uninitialized_copyIPKiPiET0_T_S4_S3_, symObjAddr: 0x10F34, symBinAddr: 0x1000135FC, symSize: 0x3C }
  - { offsetInCU: 0x446DE, offset: 0x446DE, size: 0x8, addend: 0x0, symName: __ZSt9__advanceIPKilEvRT_T0_St26random_access_iterator_tag, symObjAddr: 0x10EFC, symBinAddr: 0x1000135C4, symSize: 0x38 }
  - { offsetInCU: 0x44732, offset: 0x44732, size: 0x8, addend: 0x0, symName: __ZSt13__copy_move_aILb0EPKiPiET1_T0_S4_S3_, symObjAddr: 0x10E9C, symBinAddr: 0x100013564, symSize: 0x60 }
  - { offsetInCU: 0x4479A, offset: 0x4479A, size: 0x8, addend: 0x0, symName: __ZSt12__miter_baseIPKiET_S2_, symObjAddr: 0x10E88, symBinAddr: 0x100013550, symSize: 0x14 }
  - { offsetInCU: 0x447CD, offset: 0x447CD, size: 0x8, addend: 0x0, symName: __ZSt26__unguarded_insertion_sortIN9__gnu_cxx17__normal_iteratorIPiSt6vectorIiSaIiEEEENS0_5__ops15_Iter_less_iterEEvT_S9_T0_, symObjAddr: 0x10E1C, symBinAddr: 0x1000134E4, symSize: 0x6C }
  - { offsetInCU: 0x4484F, offset: 0x4484F, size: 0x8, addend: 0x0, symName: __ZSt16__insertion_sortIN9__gnu_cxx17__normal_iteratorIPiSt6vectorIiSaIiEEEENS0_5__ops15_Iter_less_iterEEvT_S9_T0_, symObjAddr: 0x10D20, symBinAddr: 0x1000133E8, symSize: 0xFC }
  - { offsetInCU: 0x448F5, offset: 0x448F5, size: 0x8, addend: 0x0, symName: __ZSt27__unguarded_partition_pivotIN9__gnu_cxx17__normal_iteratorIPiSt6vectorIiSaIiEEEENS0_5__ops15_Iter_less_iterEET_S9_S9_T0_, symObjAddr: 0x10C7C, symBinAddr: 0x100013344, symSize: 0xA4 }
  - { offsetInCU: 0x44964, offset: 0x44964, size: 0x8, addend: 0x0, symName: __ZSt14__partial_sortIN9__gnu_cxx17__normal_iteratorIPiSt6vectorIiSaIiEEEENS0_5__ops15_Iter_less_iterEEvT_S9_S9_T0_, symObjAddr: 0x10C30, symBinAddr: 0x1000132F8, symSize: 0x4C }
  - { offsetInCU: 0x449D7, offset: 0x449D7, size: 0x8, addend: 0x0, symName: __ZNSt8_Rb_treeIiSt4pairIKiSt6vectorIiSaIiEEESt10_Select1stIS5_ESt4lessIiESaIS5_EE14_M_insert_nodeEPSt18_Rb_tree_node_baseSD_PSt13_Rb_tree_nodeIS5_E, symObjAddr: 0x10B60, symBinAddr: 0x100013228, symSize: 0xD0 }
  - { offsetInCU: 0x44A41, offset: 0x44A41, size: 0x8, addend: 0x0, symName: __ZNSt8_Rb_treeIiSt4pairIKiSt6vectorIiSaIiEEESt10_Select1stIS5_ESt4lessIiESaIS5_EE8_S_rightEPSt18_Rb_tree_node_base, symObjAddr: 0x10B48, symBinAddr: 0x100013210, symSize: 0x18 }
  - { offsetInCU: 0x44A6F, offset: 0x44A6F, size: 0x8, addend: 0x0, symName: __ZNSt17_Rb_tree_iteratorISt4pairIKiSt6vectorIiSaIiEEEEmmEv, symObjAddr: 0x10B18, symBinAddr: 0x1000131E0, symSize: 0x30 }
  - { offsetInCU: 0x44A99, offset: 0x44A99, size: 0x8, addend: 0x0, symName: __ZNSt8_Rb_treeIiSt4pairIKiSt6vectorIiSaIiEEESt10_Select1stIS5_ESt4lessIiESaIS5_EE11_M_leftmostEv, symObjAddr: 0x10B00, symBinAddr: 0x1000131C8, symSize: 0x18 }
  - { offsetInCU: 0x44AC3, offset: 0x44AC3, size: 0x8, addend: 0x0, symName: __ZNSt8_Rb_treeIiSt4pairIKiSt6vectorIiSaIiEEESt10_Select1stIS5_ESt4lessIiESaIS5_EE24_M_get_insert_unique_posERS1_, symObjAddr: 0x109A8, symBinAddr: 0x100013070, symSize: 0x158 }
  - { offsetInCU: 0x44B47, offset: 0x44B47, size: 0x8, addend: 0x0, symName: __ZNSt8_Rb_treeIiSt4pairIKiSt6vectorIiSaIiEEESt10_Select1stIS5_ESt4lessIiESaIS5_EE12_M_rightmostEv, symObjAddr: 0x10990, symBinAddr: 0x100013058, symSize: 0x18 }
  - { offsetInCU: 0x44B71, offset: 0x44B71, size: 0x8, addend: 0x0, symName: __ZNKSt8_Rb_treeIiSt4pairIKiSt6vectorIiSaIiEEESt10_Select1stIS5_ESt4lessIiESaIS5_EE4sizeEv, symObjAddr: 0x10978, symBinAddr: 0x100013040, symSize: 0x18 }
  - { offsetInCU: 0x44B9B, offset: 0x44B9B, size: 0x8, addend: 0x0, symName: __ZNKSt23_Rb_tree_const_iteratorISt4pairIKiSt6vectorIiSaIiEEEE13_M_const_castEv, symObjAddr: 0x10950, symBinAddr: 0x100013018, symSize: 0x28 }
  - { offsetInCU: 0x44BC5, offset: 0x44BC5, size: 0x8, addend: 0x0, symName: __ZNSt8_Rb_treeIiSt4pairIKiSt6vectorIiSaIiEEESt10_Select1stIS5_ESt4lessIiESaIS5_EE12_M_drop_nodeEPSt13_Rb_tree_nodeIS5_E, symObjAddr: 0x1091C, symBinAddr: 0x100012FE4, symSize: 0x34 }
  - { offsetInCU: 0x44C00, offset: 0x44C00, size: 0x8, addend: 0x0, symName: __ZNSt8_Rb_treeIiSt4pairIKiSt6vectorIiSaIiEEESt10_Select1stIS5_ESt4lessIiESaIS5_EE14_M_create_nodeIJRKSt21piecewise_construct_tSt5tupleIJRS1_EESG_IJEEEEEPSt13_Rb_tree_nodeIS5_EDpOT_, symObjAddr: 0x108AC, symBinAddr: 0x100012F74, symSize: 0x70 }
  - { offsetInCU: 0x44C72, offset: 0x44C72, size: 0x8, addend: 0x0, symName: __ZNSt8_Rb_treeIiSt4pairIKiSt6vectorIiSaIiEEESt10_Select1stIS5_ESt4lessIiESaIS5_EE14_M_lower_boundEPSt13_Rb_tree_nodeIS5_EPSt18_Rb_tree_node_baseRS1_, symObjAddr: 0x10810, symBinAddr: 0x100012ED8, symSize: 0x9C }
  - { offsetInCU: 0x44CCF, offset: 0x44CCF, size: 0x8, addend: 0x0, symName: __ZNSt8_Rb_treeIiSt4pairIKiSt6vectorIiSaIiEEESt10_Select1stIS5_ESt4lessIiESaIS5_EE6_M_endEv, symObjAddr: 0x107F8, symBinAddr: 0x100012EC0, symSize: 0x18 }
  - { offsetInCU: 0x44CF9, offset: 0x44CF9, size: 0x8, addend: 0x0, symName: __ZNSt8_Rb_treeIiSt4pairIKiSt6vectorIiSaIiEEESt10_Select1stIS5_ESt4lessIiESaIS5_EE8_M_beginEv, symObjAddr: 0x107DC, symBinAddr: 0x100012EA4, symSize: 0x1C }
  - { offsetInCU: 0x44D1F, offset: 0x44D1F, size: 0x8, addend: 0x0, symName: __ZNSt8_Rb_treeIiSt4pairIKiSt6vectorIiSaIiEEESt10_Select1stIS5_ESt4lessIiESaIS5_EE8_S_rightEPKSt18_Rb_tree_node_base, symObjAddr: 0x107C4, symBinAddr: 0x100012E8C, symSize: 0x18 }
  - { offsetInCU: 0x44D49, offset: 0x44D49, size: 0x8, addend: 0x0, symName: __ZNSt8_Rb_treeIiSt4pairIKiSt6vectorIiSaIiEEESt10_Select1stIS5_ESt4lessIiESaIS5_EE7_S_leftEPKSt18_Rb_tree_node_base, symObjAddr: 0x107AC, symBinAddr: 0x100012E74, symSize: 0x18 }
  - { offsetInCU: 0x44D73, offset: 0x44D73, size: 0x8, addend: 0x0, symName: __ZNSt8_Rb_treeIiSt4pairIKiSt6vectorIiSaIiEEESt10_Select1stIS5_ESt4lessIiESaIS5_EE6_S_keyEPKSt13_Rb_tree_nodeIS5_E, symObjAddr: 0x10784, symBinAddr: 0x100012E4C, symSize: 0x28 }
  - { offsetInCU: 0x44DA1, offset: 0x44DA1, size: 0x8, addend: 0x0, symName: __ZNSt8_Rb_treeIiSt4pairIKiSt3mapIiSt6vectorIiSaIiEESt4lessIiESaIS0_IS1_S5_EEEESt10_Select1stISB_ES7_SaISB_EE14_M_insert_nodeEPSt18_Rb_tree_node_baseSH_PSt13_Rb_tree_nodeISB_E, symObjAddr: 0x106B4, symBinAddr: 0x100012D7C, symSize: 0xD0 }
  - { offsetInCU: 0x44E0F, offset: 0x44E0F, size: 0x8, addend: 0x0, symName: __ZNSt17_Rb_tree_iteratorISt4pairIKiSt3mapIiSt6vectorIiSaIiEESt4lessIiESaIS0_IS1_S5_EEEEEmmEv, symObjAddr: 0x10684, symBinAddr: 0x100012D4C, symSize: 0x30 }
  - { offsetInCU: 0x44EBB, offset: 0x44EBB, size: 0x8, addend: 0x0, symName: __ZNSt4pairIPSt18_Rb_tree_node_baseS1_EC1IRS1_S4_Lb1EEEOT_OT0_, symObjAddr: 0x1063C, symBinAddr: 0x100012D04, symSize: 0x48 }
  - { offsetInCU: 0x44ECB, offset: 0x44ECB, size: 0x8, addend: 0x0, symName: __ZNSt8_Rb_treeIiSt4pairIKiSt3mapIiSt6vectorIiSaIiEESt4lessIiESaIS0_IS1_S5_EEEESt10_Select1stISB_ES7_SaISB_EE11_M_leftmostEv, symObjAddr: 0x10624, symBinAddr: 0x100012CEC, symSize: 0x18 }
  - { offsetInCU: 0x44EF5, offset: 0x44EF5, size: 0x8, addend: 0x0, symName: __ZNSt8_Rb_treeIiSt4pairIKiSt3mapIiSt6vectorIiSaIiEESt4lessIiESaIS0_IS1_S5_EEEESt10_Select1stISB_ES7_SaISB_EE24_M_get_insert_unique_posERS1_, symObjAddr: 0x104CC, symBinAddr: 0x100012B94, symSize: 0x158 }
  - { offsetInCU: 0x44FFB, offset: 0x44FFB, size: 0x8, addend: 0x0, symName: __ZNSt4pairIPSt18_Rb_tree_node_baseS1_EC1IS1_S1_Lb1EEERKS1_S5_, symObjAddr: 0x10490, symBinAddr: 0x100012B58, symSize: 0x3C }
  - { offsetInCU: 0x4500B, offset: 0x4500B, size: 0x8, addend: 0x0, symName: __ZNSt8_Rb_treeIiSt4pairIKiSt3mapIiSt6vectorIiSaIiEESt4lessIiESaIS0_IS1_S5_EEEESt10_Select1stISB_ES7_SaISB_EE12_M_rightmostEv, symObjAddr: 0x10478, symBinAddr: 0x100012B40, symSize: 0x18 }
  - { offsetInCU: 0x45035, offset: 0x45035, size: 0x8, addend: 0x0, symName: __ZNKSt8_Rb_treeIiSt4pairIKiSt3mapIiSt6vectorIiSaIiEESt4lessIiESaIS0_IS1_S5_EEEESt10_Select1stISB_ES7_SaISB_EE4sizeEv, symObjAddr: 0x10460, symBinAddr: 0x100012B28, symSize: 0x18 }
  - { offsetInCU: 0x4505F, offset: 0x4505F, size: 0x8, addend: 0x0, symName: __ZNKSt23_Rb_tree_const_iteratorISt4pairIKiSt3mapIiSt6vectorIiSaIiEESt4lessIiESaIS0_IS1_S5_EEEEE13_M_const_castEv, symObjAddr: 0x10438, symBinAddr: 0x100012B00, symSize: 0x28 }
  - { offsetInCU: 0x45089, offset: 0x45089, size: 0x8, addend: 0x0, symName: __ZNSt8_Rb_treeIiSt4pairIKiSt3mapIiSt6vectorIiSaIiEESt4lessIiESaIS0_IS1_S5_EEEESt10_Select1stISB_ES7_SaISB_EE14_M_create_nodeIJRKSt21piecewise_construct_tSt5tupleIJRS1_EESK_IJEEEEEPSt13_Rb_tree_nodeISB_EDpOT_, symObjAddr: 0x103C8, symBinAddr: 0x100012A90, symSize: 0x70 }
  - { offsetInCU: 0x45143, offset: 0x45143, size: 0x8, addend: 0x0, symName: __ZNSt10_Head_baseILm0ERKiLb0EEC2ES1_, symObjAddr: 0x103A4, symBinAddr: 0x100012A6C, symSize: 0x24 }
  - { offsetInCU: 0x45151, offset: 0x45151, size: 0x8, addend: 0x0, symName: __ZNSt8_Rb_treeIiSt4pairIKiSt3mapIiSt6vectorIiSaIiEESt4lessIiESaIS0_IS1_S5_EEEESt10_Select1stISB_ES7_SaISB_EE14_M_lower_boundEPSt13_Rb_tree_nodeISB_EPSt18_Rb_tree_node_baseRS1_, symObjAddr: 0x10308, symBinAddr: 0x1000129D0, symSize: 0x9C }
  - { offsetInCU: 0x451AE, offset: 0x451AE, size: 0x8, addend: 0x0, symName: __ZNSt8_Rb_treeIiSt4pairIKiSt3mapIiSt6vectorIiSaIiEESt4lessIiESaIS0_IS1_S5_EEEESt10_Select1stISB_ES7_SaISB_EE6_M_endEv, symObjAddr: 0x102F0, symBinAddr: 0x1000129B8, symSize: 0x18 }
  - { offsetInCU: 0x451D4, offset: 0x451D4, size: 0x8, addend: 0x0, symName: __ZNSt8_Rb_treeIiSt4pairIKiSt3mapIiSt6vectorIiSaIiEESt4lessIiESaIS0_IS1_S5_EEEESt10_Select1stISB_ES7_SaISB_EE8_S_rightEPKSt18_Rb_tree_node_base, symObjAddr: 0x102D8, symBinAddr: 0x1000129A0, symSize: 0x18 }
  - { offsetInCU: 0x451FE, offset: 0x451FE, size: 0x8, addend: 0x0, symName: __ZNSt8_Rb_treeIiSt4pairIKiSt3mapIiSt6vectorIiSaIiEESt4lessIiESaIS0_IS1_S5_EEEESt10_Select1stISB_ES7_SaISB_EE7_S_leftEPKSt18_Rb_tree_node_base, symObjAddr: 0x102C0, symBinAddr: 0x100012988, symSize: 0x18 }
  - { offsetInCU: 0x45228, offset: 0x45228, size: 0x8, addend: 0x0, symName: __ZNSt8_Rb_treeIiSt4pairIKiSt3mapIiSt6vectorIiSaIiEESt4lessIiESaIS0_IS1_S5_EEEESt10_Select1stISB_ES7_SaISB_EE6_S_keyEPKSt13_Rb_tree_nodeISB_E, symObjAddr: 0x10298, symBinAddr: 0x100012960, symSize: 0x28 }
  - { offsetInCU: 0x452D4, offset: 0x452D4, size: 0x8, addend: 0x0, symName: __ZNKSt11_Deque_baseIiSaIiEE20_M_get_map_allocatorEv, symObjAddr: 0x10250, symBinAddr: 0x100012918, symSize: 0x48 }
  - { offsetInCU: 0x4534E, offset: 0x4534E, size: 0x8, addend: 0x0, symName: __ZNSt11_Deque_baseIiSaIiEE15_M_create_nodesEPPiS3_, symObjAddr: 0x101C4, symBinAddr: 0x10001288C, symSize: 0x8C }
  - { offsetInCU: 0x453AB, offset: 0x453AB, size: 0x8, addend: 0x0, symName: __ZNSt11_Deque_baseIiSaIiEE15_M_allocate_mapEm, symObjAddr: 0x10144, symBinAddr: 0x10001280C, symSize: 0x80 }
  - { offsetInCU: 0x454AA, offset: 0x454AA, size: 0x8, addend: 0x0, symName: __ZNSt11_Deque_baseIiSaIiEE16_Deque_impl_dataC2Ev, symObjAddr: 0x10104, symBinAddr: 0x1000127CC, symSize: 0x40 }
  - { offsetInCU: 0x454A3, offset: 0x454A3, size: 0x8, addend: 0x0, symName: __ZNSt11_Deque_baseIiSaIiEE18_M_deallocate_nodeEPi, symObjAddr: 0x100AC, symBinAddr: 0x100012774, symSize: 0x58 }
  - { offsetInCU: 0x45514, offset: 0x45514, size: 0x8, addend: 0x0, symName: __ZNSt15_Deque_iteratorIiRiPiE11_M_set_nodeEPS1_, symObjAddr: 0x10050, symBinAddr: 0x100012718, symSize: 0x5C }
  - { offsetInCU: 0x4554F, offset: 0x4554F, size: 0x8, addend: 0x0, symName: __ZNSt11_Deque_baseIiSaIiEE16_M_allocate_nodeEv, symObjAddr: 0x1000C, symBinAddr: 0x1000126D4, symSize: 0x44 }
  - { offsetInCU: 0x455A6, offset: 0x455A6, size: 0x8, addend: 0x0, symName: __ZNSt5dequeIiSaIiEE22_M_reserve_map_at_backEm, symObjAddr: 0xFFAC, symBinAddr: 0x100012674, symSize: 0x60 }
  - { offsetInCU: 0x455E1, offset: 0x455E1, size: 0x8, addend: 0x0, symName: __ZNKSt5dequeIiSaIiEE8max_sizeEv, symObjAddr: 0xFF8C, symBinAddr: 0x100012654, symSize: 0x20 }
  - { offsetInCU: 0x4560B, offset: 0x4560B, size: 0x8, addend: 0x0, symName: __ZNKSt5dequeIiSaIiEE4sizeEv, symObjAddr: 0xFF5C, symBinAddr: 0x100012624, symSize: 0x30 }
  - { offsetInCU: 0x45631, offset: 0x45631, size: 0x8, addend: 0x0, symName: __ZSt25__uninitialized_default_nIPimET_S1_T0_, symObjAddr: 0xFF30, symBinAddr: 0x1000125F8, symSize: 0x2C }
  - { offsetInCU: 0x456CD, offset: 0x456CD, size: 0x8, addend: 0x0, symName: __ZNSt5dequeIP8TreeNodeSaIS1_EE17_M_reallocate_mapEmb, symObjAddr: 0xFCEC, symBinAddr: 0x1000123B4, symSize: 0x244 }
  - { offsetInCU: 0x4577E, offset: 0x4577E, size: 0x8, addend: 0x0, symName: __ZNSt5dequeIP8TreeNodeSaIS1_EE11_S_max_sizeERKS2_, symObjAddr: 0xFC98, symBinAddr: 0x100012360, symSize: 0x54 }
  - { offsetInCU: 0x45839, offset: 0x45839, size: 0x8, addend: 0x0, symName: __ZNSt15__new_allocatorIPP8TreeNodeE10deallocateEPS2_m, symObjAddr: 0xFC68, symBinAddr: 0x100012330, symSize: 0x30 }
  - { offsetInCU: 0x458CB, offset: 0x458CB, size: 0x8, addend: 0x0, symName: __ZNSt15__new_allocatorIPP8TreeNodeED2Ev, symObjAddr: 0xFC54, symBinAddr: 0x10001231C, symSize: 0x14 }
  - { offsetInCU: 0x458F1, offset: 0x458F1, size: 0x8, addend: 0x0, symName: __ZNKSt11_Deque_baseIP8TreeNodeSaIS1_EE19_M_get_Tp_allocatorEv, symObjAddr: 0xFC40, symBinAddr: 0x100012308, symSize: 0x14 }
  - { offsetInCU: 0x459B6, offset: 0x459B6, size: 0x8, addend: 0x0, symName: __ZNSt15_Deque_iteratorIP8TreeNodeRS1_PS1_EC1Ev, symObjAddr: 0xFC0C, symBinAddr: 0x1000122D4, symSize: 0x34 }
  - { offsetInCU: 0x459C3, offset: 0x459C3, size: 0x8, addend: 0x0, symName: __ZSt4swapIiENSt9enable_ifIXsrSt6__and_IJSt6__not_ISt15__is_tuple_likeIT_EESt21is_move_constructibleIS4_ESt18is_move_assignableIS4_EEE5valueEvE4typeERS4_SE_, symObjAddr: 0xFBB8, symBinAddr: 0x100012280, symSize: 0x54 }
  - { offsetInCU: 0x45A1C, offset: 0x45A1C, size: 0x8, addend: 0x0, symName: __ZSt4moveIRiEONSt16remove_referenceIT_E4typeEOS2_, symObjAddr: 0xFBA4, symBinAddr: 0x10001226C, symSize: 0x14 }
  - { offsetInCU: 0x45A52, offset: 0x45A52, size: 0x8, addend: 0x0, symName: __ZNK9__gnu_cxx17__normal_iteratorIPiSt6vectorIiSaIiEEEdeEv, symObjAddr: 0xFB8C, symBinAddr: 0x100012254, symSize: 0x18 }
  - { offsetInCU: 0x45A7C, offset: 0x45A7C, size: 0x8, addend: 0x0, symName: __ZNSt11_Deque_baseISt4pairIP8TreeNodeiESaIS3_EE16_M_allocate_nodeEv, symObjAddr: 0xFB48, symBinAddr: 0x100012210, symSize: 0x44 }
  - { offsetInCU: 0x45AD3, offset: 0x45AD3, size: 0x8, addend: 0x0, symName: __ZNSt5dequeISt4pairIP8TreeNodeiESaIS3_EE22_M_reserve_map_at_backEm, symObjAddr: 0xFAE8, symBinAddr: 0x1000121B0, symSize: 0x60 }
  - { offsetInCU: 0x45B0E, offset: 0x45B0E, size: 0x8, addend: 0x0, symName: __ZNKSt5dequeISt4pairIP8TreeNodeiESaIS3_EE8max_sizeEv, symObjAddr: 0xFAC8, symBinAddr: 0x100012190, symSize: 0x20 }
  - { offsetInCU: 0x45B38, offset: 0x45B38, size: 0x8, addend: 0x0, symName: __ZNKSt5dequeISt4pairIP8TreeNodeiESaIS3_EE4sizeEv, symObjAddr: 0xFA98, symBinAddr: 0x100012160, symSize: 0x30 }
  - { offsetInCU: 0x45BA7, offset: 0x45BA7, size: 0x8, addend: 0x0, symName: __ZSt7forwardIRKSt4pairIP8TreeNodeiEEOT_RNSt16remove_referenceIS6_E4typeE, symObjAddr: 0xFA84, symBinAddr: 0x10001214C, symSize: 0x14 }
  - { offsetInCU: 0x45C09, offset: 0x45C09, size: 0x8, addend: 0x0, symName: __ZNSt5dequeISt4pairIP8TreeNodeiESaIS3_EE16_M_push_back_auxIJS3_EEEvDpOT_, symObjAddr: 0xF964, symBinAddr: 0x10001202C, symSize: 0x120 }
  - { offsetInCU: 0x45D01, offset: 0x45D01, size: 0x8, addend: 0x0, symName: __ZSt7forwardISt4pairIP8TreeNodeiEEOT_RNSt16remove_referenceIS4_E4typeE, symObjAddr: 0xF950, symBinAddr: 0x100012018, symSize: 0x14 }
  - { offsetInCU: 0x45D89, offset: 0x45D89, size: 0x8, addend: 0x0, symName: __ZNKSt11_Deque_baseISt4pairIP8TreeNodeiESaIS3_EE20_M_get_map_allocatorEv, symObjAddr: 0xF908, symBinAddr: 0x100011FD0, symSize: 0x48 }
  - { offsetInCU: 0x45E03, offset: 0x45E03, size: 0x8, addend: 0x0, symName: __ZNSt11_Deque_baseISt4pairIP8TreeNodeiESaIS3_EE18_M_deallocate_nodeEPS3_, symObjAddr: 0xF8B0, symBinAddr: 0x100011F78, symSize: 0x58 }
  - { offsetInCU: 0x45E74, offset: 0x45E74, size: 0x8, addend: 0x0, symName: __ZNSt15_Deque_iteratorISt4pairIP8TreeNodeiERS3_PS3_E11_M_set_nodeEPS5_, symObjAddr: 0xF854, symBinAddr: 0x100011F1C, symSize: 0x5C }
  - { offsetInCU: 0x45EAF, offset: 0x45EAF, size: 0x8, addend: 0x0, symName: __ZNSt11_Deque_baseISt4pairIP8TreeNodeiESaIS3_EE15_M_create_nodesEPPS3_S7_, symObjAddr: 0xF7C8, symBinAddr: 0x100011E90, symSize: 0x8C }
  - { offsetInCU: 0x45F0C, offset: 0x45F0C, size: 0x8, addend: 0x0, symName: __ZNSt11_Deque_baseISt4pairIP8TreeNodeiESaIS3_EE15_M_allocate_mapEm, symObjAddr: 0xF748, symBinAddr: 0x100011E10, symSize: 0x80 }
  - { offsetInCU: 0x46015, offset: 0x46015, size: 0x8, addend: 0x0, symName: __ZNSt15__new_allocatorISt4pairIP8TreeNodeiEED2Ev, symObjAddr: 0xF734, symBinAddr: 0x100011DFC, symSize: 0x14 }
  - { offsetInCU: 0x4606A, offset: 0x4606A, size: 0x8, addend: 0x0, symName: __ZNSt11_Deque_baseISt4pairIP8TreeNodeiESaIS3_EE16_Deque_impl_dataC2Ev, symObjAddr: 0xF6F4, symBinAddr: 0x100011DBC, symSize: 0x40 }
  - { offsetInCU: 0x46060, offset: 0x46060, size: 0x8, addend: 0x0, symName: __ZSt12__relocate_aIPSt6vectorIiSaIiEES3_SaIS2_EET0_T_S6_S5_RT1_, symObjAddr: 0xF698, symBinAddr: 0x100011D60, symSize: 0x5C }
  - { offsetInCU: 0x46100, offset: 0x46100, size: 0x8, addend: 0x0, symName: __ZNK9__gnu_cxx17__normal_iteratorIPSt6vectorIiSaIiEES1_IS3_SaIS3_EEE4baseEv, symObjAddr: 0xF684, symBinAddr: 0x100011D4C, symSize: 0x14 }
  - { offsetInCU: 0x4619A, offset: 0x4619A, size: 0x8, addend: 0x0, symName: __ZN9__gnu_cxx17__normal_iteratorIPSt6vectorIiSaIiEES1_IS3_SaIS3_EEEC1ERKS4_, symObjAddr: 0xF65C, symBinAddr: 0x100011D24, symSize: 0x28 }
  - { offsetInCU: 0x46181, offset: 0x46181, size: 0x8, addend: 0x0, symName: __ZNKSt6vectorIS_IiSaIiEESaIS1_EE4sizeEv, symObjAddr: 0xF628, symBinAddr: 0x100011CF0, symSize: 0x34 }
  - { offsetInCU: 0x461AB, offset: 0x461AB, size: 0x8, addend: 0x0, symName: __ZNKSt6vectorIS_IiSaIiEESaIS1_EE8max_sizeEv, symObjAddr: 0xF608, symBinAddr: 0x100011CD0, symSize: 0x20 }
  - { offsetInCU: 0x46216, offset: 0x46216, size: 0x8, addend: 0x0, symName: __ZNSt6vectorIiSaIiEEC1ERKS1_, symObjAddr: 0xF4F4, symBinAddr: 0x100011BBC, symSize: 0x114 }
  - { offsetInCU: 0x46310, offset: 0x46310, size: 0x8, addend: 0x0, symName: __ZNSt5dequeIP8TreeNodeSaIS1_EE16_M_push_back_auxIJS1_EEEvDpOT_, symObjAddr: 0xF3D4, symBinAddr: 0x100011A9C, symSize: 0x120 }
  - { offsetInCU: 0x46408, offset: 0x46408, size: 0x8, addend: 0x0, symName: __ZSt7forwardIP8TreeNodeEOT_RNSt16remove_referenceIS2_E4typeE, symObjAddr: 0xF3C0, symBinAddr: 0x100011A88, symSize: 0x14 }
  - { offsetInCU: 0x4643A, offset: 0x4643A, size: 0x8, addend: 0x0, symName: __ZNSt12_Destroy_auxILb0EE9__destroyIPSt6vectorIiSaIiEEEEvT_S6_, symObjAddr: 0xF374, symBinAddr: 0x100011A3C, symSize: 0x4C }
  - { offsetInCU: 0x46480, offset: 0x46480, size: 0x8, addend: 0x0, symName: __ZNSt15__new_allocatorISt6vectorIiSaIiEEE10deallocateEPS2_m, symObjAddr: 0xF338, symBinAddr: 0x100011A00, symSize: 0x3C }
  - { offsetInCU: 0x464C6, offset: 0x464C6, size: 0x8, addend: 0x0, symName: __ZNSt12_Destroy_auxILb1EE9__destroyIPiEEvT_S3_, symObjAddr: 0xF320, symBinAddr: 0x1000119E8, symSize: 0x18 }
  - { offsetInCU: 0x464FA, offset: 0x464FA, size: 0x8, addend: 0x0, symName: __ZSt12__relocate_aIPiS0_SaIiEET0_T_S3_S2_RT1_, symObjAddr: 0xF2C4, symBinAddr: 0x10001198C, symSize: 0x5C }
  - { offsetInCU: 0x46576, offset: 0x46576, size: 0x8, addend: 0x0, symName: __ZNSt15__new_allocatorIiE10deallocateEPim, symObjAddr: 0xF294, symBinAddr: 0x10001195C, symSize: 0x30 }
  - { offsetInCU: 0x465E4, offset: 0x465E4, size: 0x8, addend: 0x0, symName: __ZNKSt6vectorIiSaIiEE8max_sizeEv, symObjAddr: 0xF274, symBinAddr: 0x10001193C, symSize: 0x20 }
  - { offsetInCU: 0x4660A, offset: 0x4660A, size: 0x8, addend: 0x0, symName: __ZSt13__countl_zeroImEiT_, symObjAddr: 0xF220, symBinAddr: 0x1000118E8, symSize: 0x54 }
  - { offsetInCU: 0x466A3, offset: 0x466A3, size: 0x8, addend: 0x0, symName: __ZNSt8_Rb_treeIiSt4pairIKiS0_IiiEESt10_Select1stIS3_ESt4lessIiESaIS3_EE14_M_lower_boundEPSt13_Rb_tree_nodeIS3_EPSt18_Rb_tree_node_baseRS1_, symObjAddr: 0xF184, symBinAddr: 0x10001184C, symSize: 0x9C }
  - { offsetInCU: 0x46700, offset: 0x46700, size: 0x8, addend: 0x0, symName: __ZNSt8_Rb_treeIiSt4pairIKiS0_IiiEESt10_Select1stIS3_ESt4lessIiESaIS3_EE6_M_endEv, symObjAddr: 0xF16C, symBinAddr: 0x100011834, symSize: 0x18 }
  - { offsetInCU: 0x4672A, offset: 0x4672A, size: 0x8, addend: 0x0, symName: __ZN9__gnu_cxx16__aligned_membufISt4pairIKiiEE6_M_ptrEv, symObjAddr: 0xF150, symBinAddr: 0x100011818, symSize: 0x1C }
  - { offsetInCU: 0x46754, offset: 0x46754, size: 0x8, addend: 0x0, symName: __ZNSt8_Rb_treeIiSt4pairIKiiESt10_Select1stIS2_ESt4lessIiESaIS2_EE10_Auto_node9_M_insertES0_IPSt18_Rb_tree_node_baseSB_E, symObjAddr: 0xF104, symBinAddr: 0x1000117CC, symSize: 0x4C }
  - { offsetInCU: 0x467A0, offset: 0x467A0, size: 0x8, addend: 0x0, symName: __ZNKSt8_Rb_treeIiSt4pairIKiiESt10_Select1stIS2_ESt4lessIiESaIS2_EE10_Auto_node6_M_keyEv, symObjAddr: 0xF0E4, symBinAddr: 0x1000117AC, symSize: 0x20 }
  - { offsetInCU: 0x467CA, offset: 0x467CA, size: 0x8, addend: 0x0, symName: __ZNSt8_Rb_treeIiSt4pairIKiiESt10_Select1stIS2_ESt4lessIiESaIS2_EE29_M_get_insert_hint_unique_posESt23_Rb_tree_const_iteratorIS2_ERS1_, symObjAddr: 0xEDC0, symBinAddr: 0x100011488, symSize: 0x324 }
  - { offsetInCU: 0x468E7, offset: 0x468E7, size: 0x8, addend: 0x0, symName: __ZNSt8_Rb_treeIiSt4pairIKiiESt10_Select1stIS2_ESt4lessIiESaIS2_EE10_Auto_nodeD1Ev, symObjAddr: 0xED7C, symBinAddr: 0x100011444, symSize: 0x44 }
  - { offsetInCU: 0x4699E, offset: 0x4699E, size: 0x8, addend: 0x0, symName: __ZNSt8_Rb_treeIiSt4pairIKiiESt10_Select1stIS2_ESt4lessIiESaIS2_EE10_Auto_nodeC1IJRKSt21piecewise_construct_tSt5tupleIJRS1_EESE_IJEEEEERS8_DpOT_, symObjAddr: 0xED00, symBinAddr: 0x1000113C8, symSize: 0x7C }
  - { offsetInCU: 0x46978, offset: 0x46978, size: 0x8, addend: 0x0, symName: __ZNKSt8_Rb_treeIiSt4pairIKiiESt10_Select1stIS2_ESt4lessIiESaIS2_EE8key_compEv, symObjAddr: 0xECE8, symBinAddr: 0x1000113B0, symSize: 0x18 }
  - { offsetInCU: 0x469A2, offset: 0x469A2, size: 0x8, addend: 0x0, symName: __ZNSt8_Rb_treeIiSt4pairIKiiESt10_Select1stIS2_ESt4lessIiESaIS2_EE11lower_boundERS1_, symObjAddr: 0xECA0, symBinAddr: 0x100011368, symSize: 0x48 }
  - { offsetInCU: 0x46A42, offset: 0x46A42, size: 0x8, addend: 0x0, symName: __ZNSt17_Rb_tree_iteratorISt4pairIKiiEEC1EPSt18_Rb_tree_node_base, symObjAddr: 0xEC7C, symBinAddr: 0x100011344, symSize: 0x24 }
  - { offsetInCU: 0x46A30, offset: 0x46A30, size: 0x8, addend: 0x0, symName: __ZNSt8_Rb_treeIiSt4pairIKiiESt10_Select1stIS2_ESt4lessIiESaIS2_EE6_S_keyEPKSt18_Rb_tree_node_base, symObjAddr: 0xEC60, symBinAddr: 0x100011328, symSize: 0x1C }
  - { offsetInCU: 0x46A5E, offset: 0x46A5E, size: 0x8, addend: 0x0, symName: __ZNSt8_Rb_treeIiSt4pairIKiiESt10_Select1stIS2_ESt4lessIiESaIS2_EE14_M_lower_boundEPSt13_Rb_tree_nodeIS2_EPSt18_Rb_tree_node_baseRS1_, symObjAddr: 0xEBC4, symBinAddr: 0x10001128C, symSize: 0x9C }
  - { offsetInCU: 0x46ABB, offset: 0x46ABB, size: 0x8, addend: 0x0, symName: __ZNSt8_Rb_treeIiSt4pairIKiiESt10_Select1stIS2_ESt4lessIiESaIS2_EE6_M_endEv, symObjAddr: 0xEBAC, symBinAddr: 0x100011274, symSize: 0x18 }
  - { offsetInCU: 0x46AE5, offset: 0x46AE5, size: 0x8, addend: 0x0, symName: __ZNSt5dequeISt4pairIP8TreeNodeiESaIS3_EE16_M_pop_front_auxEv, symObjAddr: 0xEB18, symBinAddr: 0x1000111E0, symSize: 0x94 }
  - { offsetInCU: 0x46B69, offset: 0x46B69, size: 0x8, addend: 0x0, symName: __ZNKSt8_Rb_treeIiSt4pairIKiiESt10_Select1stIS2_ESt4lessIiESaIS2_EE9_M_mbeginEv, symObjAddr: 0xEB00, symBinAddr: 0x1000111C8, symSize: 0x18 }
  - { offsetInCU: 0x46B93, offset: 0x46B93, size: 0x8, addend: 0x0, symName: __ZNSt8_Rb_treeIiSt4pairIKiiESt10_Select1stIS2_ESt4lessIiESaIS2_EE12_M_drop_nodeEPSt13_Rb_tree_nodeIS2_E, symObjAddr: 0xEACC, symBinAddr: 0x100011194, symSize: 0x34 }
  - { offsetInCU: 0x46BCA, offset: 0x46BCA, size: 0x8, addend: 0x0, symName: __ZNSt8_Rb_treeIiSt4pairIKiiESt10_Select1stIS2_ESt4lessIiESaIS2_EE7_S_leftEPSt18_Rb_tree_node_base, symObjAddr: 0xEAB4, symBinAddr: 0x10001117C, symSize: 0x18 }
  - { offsetInCU: 0x46BF4, offset: 0x46BF4, size: 0x8, addend: 0x0, symName: __ZNSt8_Rb_treeIiSt4pairIKiiESt10_Select1stIS2_ESt4lessIiESaIS2_EE8_S_rightEPSt18_Rb_tree_node_base, symObjAddr: 0xEA9C, symBinAddr: 0x100011164, symSize: 0x18 }
  - { offsetInCU: 0x46C38, offset: 0x46C38, size: 0x8, addend: 0x0, symName: __ZN9__gnu_cxx16__aligned_membufISt4pairIKiS1_IiiEEE6_M_ptrEv, symObjAddr: 0xEA80, symBinAddr: 0x100011148, symSize: 0x1C }
  - { offsetInCU: 0x46C62, offset: 0x46C62, size: 0x8, addend: 0x0, symName: __ZNKSt8_Rb_treeIiSt4pairIKiS0_IiiEESt10_Select1stIS3_ESt4lessIiESaIS3_EE9_M_mbeginEv, symObjAddr: 0xEA68, symBinAddr: 0x100011130, symSize: 0x18 }
  - { offsetInCU: 0x46C8C, offset: 0x46C8C, size: 0x8, addend: 0x0, symName: __ZNSt8_Rb_treeIiSt4pairIKiS0_IiiEESt10_Select1stIS3_ESt4lessIiESaIS3_EE12_M_drop_nodeEPSt13_Rb_tree_nodeIS3_E, symObjAddr: 0xEA34, symBinAddr: 0x1000110FC, symSize: 0x34 }
  - { offsetInCU: 0x46CC3, offset: 0x46CC3, size: 0x8, addend: 0x0, symName: __ZNSt8_Rb_treeIiSt4pairIKiS0_IiiEESt10_Select1stIS3_ESt4lessIiESaIS3_EE7_S_leftEPSt18_Rb_tree_node_base, symObjAddr: 0xEA1C, symBinAddr: 0x1000110E4, symSize: 0x18 }
  - { offsetInCU: 0x46CED, offset: 0x46CED, size: 0x8, addend: 0x0, symName: __ZNSt8_Rb_treeIiSt4pairIKiS0_IiiEESt10_Select1stIS3_ESt4lessIiESaIS3_EE8_S_rightEPSt18_Rb_tree_node_base, symObjAddr: 0xEA04, symBinAddr: 0x1000110CC, symSize: 0x18 }
  - { offsetInCU: 0x46D9C, offset: 0x46D9C, size: 0x8, addend: 0x0, symName: __ZNSt17_Rb_tree_iteratorISt4pairIKiS0_IiiEEEC1EPSt18_Rb_tree_node_base, symObjAddr: 0xE9E0, symBinAddr: 0x1000110A8, symSize: 0x24 }
  - { offsetInCU: 0x46D88, offset: 0x46D88, size: 0x8, addend: 0x0, symName: __ZNSt8_Rb_treeIiSt4pairIKiS0_IiiEESt10_Select1stIS3_ESt4lessIiESaIS3_EE10_Auto_node9_M_insertES0_IPSt18_Rb_tree_node_baseSC_E, symObjAddr: 0xE994, symBinAddr: 0x10001105C, symSize: 0x4C }
  - { offsetInCU: 0x46DD4, offset: 0x46DD4, size: 0x8, addend: 0x0, symName: __ZNKSt8_Rb_treeIiSt4pairIKiS0_IiiEESt10_Select1stIS3_ESt4lessIiESaIS3_EE10_Auto_node6_M_keyEv, symObjAddr: 0xE974, symBinAddr: 0x10001103C, symSize: 0x20 }
  - { offsetInCU: 0x46DFE, offset: 0x46DFE, size: 0x8, addend: 0x0, symName: __ZNSt8_Rb_treeIiSt4pairIKiS0_IiiEESt10_Select1stIS3_ESt4lessIiESaIS3_EE29_M_get_insert_hint_unique_posESt23_Rb_tree_const_iteratorIS3_ERS1_, symObjAddr: 0xE650, symBinAddr: 0x100010D18, symSize: 0x324 }
  - { offsetInCU: 0x46F21, offset: 0x46F21, size: 0x8, addend: 0x0, symName: __ZNSt8_Rb_treeIiSt4pairIKiS0_IiiEESt10_Select1stIS3_ESt4lessIiESaIS3_EE10_Auto_nodeD1Ev, symObjAddr: 0xE60C, symBinAddr: 0x100010CD4, symSize: 0x44 }
  - { offsetInCU: 0x46FD8, offset: 0x46FD8, size: 0x8, addend: 0x0, symName: __ZNSt8_Rb_treeIiSt4pairIKiS0_IiiEESt10_Select1stIS3_ESt4lessIiESaIS3_EE10_Auto_nodeC1IJRKSt21piecewise_construct_tSt5tupleIJRS1_EESF_IJEEEEERS9_DpOT_, symObjAddr: 0xE590, symBinAddr: 0x100010C58, symSize: 0x7C }
  - { offsetInCU: 0x46FAC, offset: 0x46FAC, size: 0x8, addend: 0x0, symName: __ZNKSt8_Rb_treeIiSt4pairIKiS0_IiiEESt10_Select1stIS3_ESt4lessIiESaIS3_EE8key_compEv, symObjAddr: 0xE578, symBinAddr: 0x100010C40, symSize: 0x18 }
  - { offsetInCU: 0x46FD6, offset: 0x46FD6, size: 0x8, addend: 0x0, symName: __ZNSt8_Rb_treeIiSt4pairIKiS0_IiiEESt10_Select1stIS3_ESt4lessIiESaIS3_EE11lower_boundERS1_, symObjAddr: 0xE530, symBinAddr: 0x100010BF8, symSize: 0x48 }
  - { offsetInCU: 0x47083, offset: 0x47083, size: 0x8, addend: 0x0, symName: __ZNSt23_Rb_tree_const_iteratorISt4pairIKiS0_IiiEEEC1EPKSt18_Rb_tree_node_base, symObjAddr: 0xE50C, symBinAddr: 0x100010BD4, symSize: 0x24 }
  - { offsetInCU: 0x47064, offset: 0x47064, size: 0x8, addend: 0x0, symName: __ZNSt8_Rb_treeIiSt4pairIKiS0_IiiEESt10_Select1stIS3_ESt4lessIiESaIS3_EE6_S_keyEPKSt18_Rb_tree_node_base, symObjAddr: 0xE4F0, symBinAddr: 0x100010BB8, symSize: 0x1C }
  - { offsetInCU: 0x47092, offset: 0x47092, size: 0x8, addend: 0x0, symName: __ZNKSt8_Rb_treeIiSt4pairIKiS0_IiiEESt10_Select1stIS3_ESt4lessIiESaIS3_EE14_M_lower_boundEPKSt13_Rb_tree_nodeIS3_EPKSt18_Rb_tree_node_baseRS1_, symObjAddr: 0xE454, symBinAddr: 0x100010B1C, symSize: 0x9C }
  - { offsetInCU: 0x470EF, offset: 0x470EF, size: 0x8, addend: 0x0, symName: __ZNKSt8_Rb_treeIiSt4pairIKiS0_IiiEESt10_Select1stIS3_ESt4lessIiESaIS3_EE6_M_endEv, symObjAddr: 0xE43C, symBinAddr: 0x100010B04, symSize: 0x18 }
  - { offsetInCU: 0x47119, offset: 0x47119, size: 0x8, addend: 0x0, symName: __ZNKSt8_Rb_treeIiSt4pairIKiS0_IiiEESt10_Select1stIS3_ESt4lessIiESaIS3_EE8_M_beginEv, symObjAddr: 0xE424, symBinAddr: 0x100010AEC, symSize: 0x18 }
  - { offsetInCU: 0x4713F, offset: 0x4713F, size: 0x8, addend: 0x0, symName: __ZSt22__uninitialized_copy_aISt23_Rb_tree_const_iteratorIiEPiiET0_T_S4_S3_RSaIT1_E, symObjAddr: 0xE3F4, symBinAddr: 0x100010ABC, symSize: 0x30 }
  - { offsetInCU: 0x471F0, offset: 0x471F0, size: 0x8, addend: 0x0, symName: __ZSt4copyISt23_Rb_tree_const_iteratorIiEN9__gnu_cxx17__normal_iteratorIPiSt6vectorIiSaIiEEEEET0_T_SA_S9_, symObjAddr: 0xE3AC, symBinAddr: 0x100010A74, symSize: 0x48 }
  - { offsetInCU: 0x47280, offset: 0x47280, size: 0x8, addend: 0x0, symName: __ZStneRKSt23_Rb_tree_const_iteratorIiES2_, symObjAddr: 0xE37C, symBinAddr: 0x100010A44, symSize: 0x30 }
  - { offsetInCU: 0x47320, offset: 0x47320, size: 0x8, addend: 0x0, symName: __ZNSt23_Rb_tree_const_iteratorIiEC1EPKSt18_Rb_tree_node_base, symObjAddr: 0xE358, symBinAddr: 0x100010A20, symSize: 0x24 }
  - { offsetInCU: 0x47316, offset: 0x47316, size: 0x8, addend: 0x0, symName: __ZNKSt8_Rb_treeIiiSt9_IdentityIiESt4lessIiESaIiEE9_M_mbeginEv, symObjAddr: 0xE340, symBinAddr: 0x100010A08, symSize: 0x18 }
  - { offsetInCU: 0x47340, offset: 0x47340, size: 0x8, addend: 0x0, symName: __ZNSt8_Rb_treeIiiSt9_IdentityIiESt4lessIiESaIiEE12_M_drop_nodeEPSt13_Rb_tree_nodeIiE, symObjAddr: 0xE30C, symBinAddr: 0x1000109D4, symSize: 0x34 }
  - { offsetInCU: 0x47377, offset: 0x47377, size: 0x8, addend: 0x0, symName: __ZNSt8_Rb_treeIiiSt9_IdentityIiESt4lessIiESaIiEE7_S_leftEPSt18_Rb_tree_node_base, symObjAddr: 0xE2F4, symBinAddr: 0x1000109BC, symSize: 0x18 }
  - { offsetInCU: 0x473A1, offset: 0x473A1, size: 0x8, addend: 0x0, symName: __ZNSt8_Rb_treeIiiSt9_IdentityIiESt4lessIiESaIiEE8_S_rightEPSt18_Rb_tree_node_base, symObjAddr: 0xE2DC, symBinAddr: 0x1000109A4, symSize: 0x18 }
  - { offsetInCU: 0x473CF, offset: 0x473CF, size: 0x8, addend: 0x0, symName: __ZNSt8_Rb_treeIiiSt9_IdentityIiESt4lessIiESaIiEE7_M_copyILb0ENS5_11_Alloc_nodeEEEPSt13_Rb_tree_nodeIiERKS5_RT0_, symObjAddr: 0xE248, symBinAddr: 0x100010910, symSize: 0x94 }
  - { offsetInCU: 0x47490, offset: 0x47490, size: 0x8, addend: 0x0, symName: __ZNSt15__new_allocatorISt13_Rb_tree_nodeIiEED2Ev, symObjAddr: 0xE234, symBinAddr: 0x1000108FC, symSize: 0x14 }
  - { offsetInCU: 0x474C1, offset: 0x474C1, size: 0x8, addend: 0x0, symName: __ZN9__gnu_cxx16__aligned_membufISt4pairIKiSt8multisetIiSt4lessIiESaIiEEEE6_M_ptrEv, symObjAddr: 0xE218, symBinAddr: 0x1000108E0, symSize: 0x1C }
  - { offsetInCU: 0x474EB, offset: 0x474EB, size: 0x8, addend: 0x0, symName: __ZNKSt8_Rb_treeIiSt4pairIKiSt8multisetIiSt4lessIiESaIiEEESt10_Select1stIS7_ES4_SaIS7_EE9_M_mbeginEv, symObjAddr: 0xE200, symBinAddr: 0x1000108C8, symSize: 0x18 }
  - { offsetInCU: 0x47515, offset: 0x47515, size: 0x8, addend: 0x0, symName: __ZNSt8_Rb_treeIiSt4pairIKiSt8multisetIiSt4lessIiESaIiEEESt10_Select1stIS7_ES4_SaIS7_EE12_M_drop_nodeEPSt13_Rb_tree_nodeIS7_E, symObjAddr: 0xE1CC, symBinAddr: 0x100010894, symSize: 0x34 }
  - { offsetInCU: 0x4754C, offset: 0x4754C, size: 0x8, addend: 0x0, symName: __ZNSt8_Rb_treeIiSt4pairIKiSt8multisetIiSt4lessIiESaIiEEESt10_Select1stIS7_ES4_SaIS7_EE7_S_leftEPSt18_Rb_tree_node_base, symObjAddr: 0xE1B4, symBinAddr: 0x10001087C, symSize: 0x18 }
  - { offsetInCU: 0x47576, offset: 0x47576, size: 0x8, addend: 0x0, symName: __ZNSt8_Rb_treeIiSt4pairIKiSt8multisetIiSt4lessIiESaIiEEESt10_Select1stIS7_ES4_SaIS7_EE8_S_rightEPSt18_Rb_tree_node_base, symObjAddr: 0xE19C, symBinAddr: 0x100010864, symSize: 0x18 }
  - { offsetInCU: 0x475A4, offset: 0x475A4, size: 0x8, addend: 0x0, symName: __ZNSt8_Rb_treeIiSt4pairIKiSt8multisetIiSt4lessIiESaIiEEESt10_Select1stIS7_ES4_SaIS7_EE7_M_copyILb0ENSB_11_Alloc_nodeEEEPSt13_Rb_tree_nodeIS7_ERKSB_RT0_, symObjAddr: 0xE108, symBinAddr: 0x1000107D0, symSize: 0x94 }
  - { offsetInCU: 0x476A3, offset: 0x476A3, size: 0x8, addend: 0x0, symName: __ZNSt8_Rb_treeIiSt4pairIKiSt8multisetIiSt4lessIiESaIiEEESt10_Select1stIS7_ES4_SaIS7_EE11_Alloc_nodeC1ERSB_, symObjAddr: 0xE0E4, symBinAddr: 0x1000107AC, symSize: 0x24 }
  - { offsetInCU: 0x476E3, offset: 0x476E3, size: 0x8, addend: 0x0, symName: __ZNSt15__new_allocatorISt13_Rb_tree_nodeISt4pairIKiSt8multisetIiSt4lessIiESaIiEEEEED2Ev, symObjAddr: 0xE0D0, symBinAddr: 0x100010798, symSize: 0x14 }
  - { offsetInCU: 0x47708, offset: 0x47708, size: 0x8, addend: 0x0, symName: __ZNSt20_Rb_tree_key_compareISt4lessIiEEC2ERKS1_, symObjAddr: 0xE0B8, symBinAddr: 0x100010780, symSize: 0x18 }
  - { offsetInCU: 0x47743, offset: 0x47743, size: 0x8, addend: 0x0, symName: __ZN9__gnu_cxx16__aligned_membufISt4pairIKiSt3mapIiSt8multisetIiSt4lessIiESaIiEES6_SaIS1_IS2_S8_EEEEE6_M_ptrEv, symObjAddr: 0xE09C, symBinAddr: 0x100010764, symSize: 0x1C }
  - { offsetInCU: 0x4776D, offset: 0x4776D, size: 0x8, addend: 0x0, symName: __ZNSt8_Rb_treeIiiSt9_IdentityIiESt4lessIiESaIiEE10_M_insert_IRKiNS5_11_Alloc_nodeEEESt17_Rb_tree_iteratorIiEPSt18_Rb_tree_node_baseSD_OT_RT0_, symObjAddr: 0xDFAC, symBinAddr: 0x100010674, symSize: 0xF0 }
  - { offsetInCU: 0x47879, offset: 0x47879, size: 0x8, addend: 0x0, symName: __ZNSt8_Rb_treeIiiSt9_IdentityIiESt4lessIiESaIiEE11_Alloc_nodeC1ERS5_, symObjAddr: 0xDF88, symBinAddr: 0x100010650, symSize: 0x24 }
  - { offsetInCU: 0x47867, offset: 0x47867, size: 0x8, addend: 0x0, symName: __ZNKSt9_IdentityIiEclERKi, symObjAddr: 0xDF70, symBinAddr: 0x100010638, symSize: 0x18 }
  - { offsetInCU: 0x478A2, offset: 0x478A2, size: 0x8, addend: 0x0, symName: __ZNSt8_Rb_treeIiiSt9_IdentityIiESt4lessIiESaIiEE23_M_get_insert_equal_posERKi, symObjAddr: 0xDECC, symBinAddr: 0x100010594, symSize: 0xA4 }
  - { offsetInCU: 0x47980, offset: 0x47980, size: 0x8, addend: 0x0, symName: __ZNSt17_Rb_tree_iteratorISt4pairIKiSt8multisetIiSt4lessIiESaIiEEEEC1EPSt18_Rb_tree_node_base, symObjAddr: 0xDEA8, symBinAddr: 0x100010570, symSize: 0x24 }
  - { offsetInCU: 0x47956, offset: 0x47956, size: 0x8, addend: 0x0, symName: __ZNSt8_Rb_treeIiSt4pairIKiSt8multisetIiSt4lessIiESaIiEEESt10_Select1stIS7_ES4_SaIS7_EE10_Auto_node9_M_insertES0_IPSt18_Rb_tree_node_baseSE_E, symObjAddr: 0xDE5C, symBinAddr: 0x100010524, symSize: 0x4C }
  - { offsetInCU: 0x479A2, offset: 0x479A2, size: 0x8, addend: 0x0, symName: __ZNKSt8_Rb_treeIiSt4pairIKiSt8multisetIiSt4lessIiESaIiEEESt10_Select1stIS7_ES4_SaIS7_EE10_Auto_node6_M_keyEv, symObjAddr: 0xDE3C, symBinAddr: 0x100010504, symSize: 0x20 }
  - { offsetInCU: 0x479CC, offset: 0x479CC, size: 0x8, addend: 0x0, symName: __ZNSt8_Rb_treeIiSt4pairIKiSt8multisetIiSt4lessIiESaIiEEESt10_Select1stIS7_ES4_SaIS7_EE29_M_get_insert_hint_unique_posESt23_Rb_tree_const_iteratorIS7_ERS1_, symObjAddr: 0xDB18, symBinAddr: 0x1000101E0, symSize: 0x324 }
  - { offsetInCU: 0x47AFE, offset: 0x47AFE, size: 0x8, addend: 0x0, symName: __ZNSt8_Rb_treeIiSt4pairIKiSt8multisetIiSt4lessIiESaIiEEESt10_Select1stIS7_ES4_SaIS7_EE10_Auto_nodeD1Ev, symObjAddr: 0xDAD4, symBinAddr: 0x10001019C, symSize: 0x44 }
  - { offsetInCU: 0x47BB5, offset: 0x47BB5, size: 0x8, addend: 0x0, symName: __ZNSt8_Rb_treeIiSt4pairIKiSt8multisetIiSt4lessIiESaIiEEESt10_Select1stIS7_ES4_SaIS7_EE10_Auto_nodeC1IJRKSt21piecewise_construct_tSt5tupleIJRS1_EESH_IJEEEEERSB_DpOT_, symObjAddr: 0xDA58, symBinAddr: 0x100010120, symSize: 0x7C }
  - { offsetInCU: 0x47B7A, offset: 0x47B7A, size: 0x8, addend: 0x0, symName: __ZNKSt8_Rb_treeIiSt4pairIKiSt8multisetIiSt4lessIiESaIiEEESt10_Select1stIS7_ES4_SaIS7_EE8key_compEv, symObjAddr: 0xDA40, symBinAddr: 0x100010108, symSize: 0x18 }
  - { offsetInCU: 0x47BA4, offset: 0x47BA4, size: 0x8, addend: 0x0, symName: __ZNSt8_Rb_treeIiSt4pairIKiSt8multisetIiSt4lessIiESaIiEEESt10_Select1stIS7_ES4_SaIS7_EE11lower_boundERS1_, symObjAddr: 0xD9F8, symBinAddr: 0x1000100C0, symSize: 0x48 }
  - { offsetInCU: 0x47C7B, offset: 0x47C7B, size: 0x8, addend: 0x0, symName: __ZNSt17_Rb_tree_iteratorISt4pairIKiSt3mapIiSt8multisetIiSt4lessIiESaIiEES5_SaIS0_IS1_S7_EEEEEC1EPSt18_Rb_tree_node_base, symObjAddr: 0xD9D4, symBinAddr: 0x10001009C, symSize: 0x24 }
  - { offsetInCU: 0x47C36, offset: 0x47C36, size: 0x8, addend: 0x0, symName: __ZNSt8_Rb_treeIiSt4pairIKiSt3mapIiSt8multisetIiSt4lessIiESaIiEES5_SaIS0_IS1_S7_EEEESt10_Select1stISB_ES5_SaISB_EE10_Auto_node9_M_insertES0_IPSt18_Rb_tree_node_baseSI_E, symObjAddr: 0xD988, symBinAddr: 0x100010050, symSize: 0x4C }
  - { offsetInCU: 0x47C82, offset: 0x47C82, size: 0x8, addend: 0x0, symName: __ZNKSt8_Rb_treeIiSt4pairIKiSt3mapIiSt8multisetIiSt4lessIiESaIiEES5_SaIS0_IS1_S7_EEEESt10_Select1stISB_ES5_SaISB_EE10_Auto_node6_M_keyEv, symObjAddr: 0xD968, symBinAddr: 0x100010030, symSize: 0x20 }
  - { offsetInCU: 0x47CAC, offset: 0x47CAC, size: 0x8, addend: 0x0, symName: __ZNSt8_Rb_treeIiSt4pairIKiSt3mapIiSt8multisetIiSt4lessIiESaIiEES5_SaIS0_IS1_S7_EEEESt10_Select1stISB_ES5_SaISB_EE29_M_get_insert_hint_unique_posESt23_Rb_tree_const_iteratorISB_ERS1_, symObjAddr: 0xD644, symBinAddr: 0x10000FD0C, symSize: 0x324 }
  - { offsetInCU: 0x47DF9, offset: 0x47DF9, size: 0x8, addend: 0x0, symName: __ZNSt8_Rb_treeIiSt4pairIKiSt3mapIiSt8multisetIiSt4lessIiESaIiEES5_SaIS0_IS1_S7_EEEESt10_Select1stISB_ES5_SaISB_EE10_Auto_nodeD1Ev, symObjAddr: 0xD600, symBinAddr: 0x10000FCC8, symSize: 0x44 }
  - { offsetInCU: 0x47EB0, offset: 0x47EB0, size: 0x8, addend: 0x0, symName: __ZNSt8_Rb_treeIiSt4pairIKiSt3mapIiSt8multisetIiSt4lessIiESaIiEES5_SaIS0_IS1_S7_EEEESt10_Select1stISB_ES5_SaISB_EE10_Auto_nodeC1IJRKSt21piecewise_construct_tSt5tupleIJRS1_EESL_IJEEEEERSF_DpOT_, symObjAddr: 0xD584, symBinAddr: 0x10000FC4C, symSize: 0x7C }
  - { offsetInCU: 0x47E5A, offset: 0x47E5A, size: 0x8, addend: 0x0, symName: __ZNKSt8_Rb_treeIiSt4pairIKiSt3mapIiSt8multisetIiSt4lessIiESaIiEES5_SaIS0_IS1_S7_EEEESt10_Select1stISB_ES5_SaISB_EE8key_compEv, symObjAddr: 0xD56C, symBinAddr: 0x10000FC34, symSize: 0x18 }
  - { offsetInCU: 0x47E84, offset: 0x47E84, size: 0x8, addend: 0x0, symName: __ZNSt8_Rb_treeIiSt4pairIKiSt3mapIiSt8multisetIiSt4lessIiESaIiEES5_SaIS0_IS1_S7_EEEESt10_Select1stISB_ES5_SaISB_EE11lower_boundERS1_, symObjAddr: 0xD524, symBinAddr: 0x10000FBEC, symSize: 0x48 }
  - { offsetInCU: 0x47EBF, offset: 0x47EBF, size: 0x8, addend: 0x0, symName: __ZNSt5dequeISt4pairIP8TreeNodeS0_IiiEESaIS4_EE16_M_pop_front_auxEv, symObjAddr: 0xD490, symBinAddr: 0x10000FB58, symSize: 0x94 }
  - { offsetInCU: 0x47F70, offset: 0x47F70, size: 0x8, addend: 0x0, symName: __ZNKSt15_Deque_iteratorISt4pairIP8TreeNodeS0_IiiEERS4_PS4_EdeEv, symObjAddr: 0xD478, symBinAddr: 0x10000FB40, symSize: 0x18 }
  - { offsetInCU: 0x47F96, offset: 0x47F96, size: 0x8, addend: 0x0, symName: __ZSteqRKSt15_Deque_iteratorISt4pairIP8TreeNodeS0_IiiEERS4_PS4_ES9_, symObjAddr: 0xD448, symBinAddr: 0x10000FB10, symSize: 0x30 }
  - { offsetInCU: 0x47FD5, offset: 0x47FD5, size: 0x8, addend: 0x0, symName: __ZNSt5dequeISt4pairIP8TreeNodeS0_IiiEESaIS4_EE12emplace_backIJS4_EEERS4_DpOT_, symObjAddr: 0xD36C, symBinAddr: 0x10000FA34, symSize: 0xDC }
  - { offsetInCU: 0x480EA, offset: 0x480EA, size: 0x8, addend: 0x0, symName: __ZNSt15_Deque_iteratorISt4pairIP8TreeNodeS0_IiiEERS4_PS4_EC1ERKS7_, symObjAddr: 0xD314, symBinAddr: 0x10000F9DC, symSize: 0x58 }
  - { offsetInCU: 0x480DA, offset: 0x480DA, size: 0x8, addend: 0x0, symName: __ZNSt11_Deque_baseISt4pairIP8TreeNodeS0_IiiEESaIS4_EE17_M_deallocate_mapEPPS4_m, symObjAddr: 0xD2B4, symBinAddr: 0x10000F97C, symSize: 0x60 }
  - { offsetInCU: 0x4818B, offset: 0x4818B, size: 0x8, addend: 0x0, symName: __ZNSt11_Deque_baseISt4pairIP8TreeNodeS0_IiiEESaIS4_EE16_M_destroy_nodesEPPS4_S8_, symObjAddr: 0xD254, symBinAddr: 0x10000F91C, symSize: 0x60 }
  - { offsetInCU: 0x481FB, offset: 0x481FB, size: 0x8, addend: 0x0, symName: __ZNSt11_Deque_baseISt4pairIP8TreeNodeS0_IiiEESaIS4_EE17_M_initialize_mapEm, symObjAddr: 0xD0C8, symBinAddr: 0x10000F790, symSize: 0x18C }
  - { offsetInCU: 0x482E6, offset: 0x482E6, size: 0x8, addend: 0x0, symName: __ZNSt11_Deque_baseISt4pairIP8TreeNodeS0_IiiEESaIS4_EE11_Deque_implC1Ev, symObjAddr: 0xD090, symBinAddr: 0x10000F758, symSize: 0x38 }
  - { offsetInCU: 0x48310, offset: 0x48310, size: 0x8, addend: 0x0, symName: __ZNKSt8_Rb_treeIiSt4pairIKiSt3mapIiSt8multisetIiSt4lessIiESaIiEES5_SaIS0_IS1_S7_EEEESt10_Select1stISB_ES5_SaISB_EE9_M_mbeginEv, symObjAddr: 0xD078, symBinAddr: 0x10000F740, symSize: 0x18 }
  - { offsetInCU: 0x4833A, offset: 0x4833A, size: 0x8, addend: 0x0, symName: __ZNSt8_Rb_treeIiSt4pairIKiSt3mapIiSt8multisetIiSt4lessIiESaIiEES5_SaIS0_IS1_S7_EEEESt10_Select1stISB_ES5_SaISB_EE12_M_drop_nodeEPSt13_Rb_tree_nodeISB_E, symObjAddr: 0xD044, symBinAddr: 0x10000F70C, symSize: 0x34 }
  - { offsetInCU: 0x48371, offset: 0x48371, size: 0x8, addend: 0x0, symName: __ZNSt8_Rb_treeIiSt4pairIKiSt3mapIiSt8multisetIiSt4lessIiESaIiEES5_SaIS0_IS1_S7_EEEESt10_Select1stISB_ES5_SaISB_EE7_S_leftEPSt18_Rb_tree_node_base, symObjAddr: 0xD02C, symBinAddr: 0x10000F6F4, symSize: 0x18 }
  - { offsetInCU: 0x4839B, offset: 0x4839B, size: 0x8, addend: 0x0, symName: __ZNSt8_Rb_treeIiSt4pairIKiSt3mapIiSt8multisetIiSt4lessIiESaIiEES5_SaIS0_IS1_S7_EEEESt10_Select1stISB_ES5_SaISB_EE8_S_rightEPSt18_Rb_tree_node_base, symObjAddr: 0xD014, symBinAddr: 0x10000F6DC, symSize: 0x18 }
  - { offsetInCU: 0x483DB, offset: 0x483DB, size: 0x8, addend: 0x0, symName: __ZSt34__uninitialized_move_if_noexcept_aIPiS0_SaIiEET0_T_S3_S2_RT1_, symObjAddr: 0xCFC4, symBinAddr: 0x10000F68C, symSize: 0x50 }
  - { offsetInCU: 0x48453, offset: 0x48453, size: 0x8, addend: 0x0, symName: __ZSt22__uninitialized_copy_aIN9__gnu_cxx17__normal_iteratorIPiSt6vectorIiSaIiEEEES2_iET0_T_S8_S7_RSaIT1_E, symObjAddr: 0xCF94, symBinAddr: 0x10000F65C, symSize: 0x30 }
  - { offsetInCU: 0x48504, offset: 0x48504, size: 0x8, addend: 0x0, symName: __ZSt4copyIN9__gnu_cxx17__normal_iteratorIPiSt6vectorIiSaIiEEEES6_ET0_T_S8_S7_, symObjAddr: 0xCF4C, symBinAddr: 0x10000F614, symSize: 0x48 }
  - { offsetInCU: 0x48562, offset: 0x48562, size: 0x8, addend: 0x0, symName: __ZSt13move_backwardIPiS0_ET0_T_S2_S1_, symObjAddr: 0xCF04, symBinAddr: 0x10000F5CC, symSize: 0x48 }
  - { offsetInCU: 0x485C0, offset: 0x485C0, size: 0x8, addend: 0x0, symName: __ZSt22__uninitialized_move_aIPiS0_SaIiEET0_T_S3_S2_RT1_, symObjAddr: 0xCEB4, symBinAddr: 0x10000F57C, symSize: 0x50 }
  - { offsetInCU: 0x4866C, offset: 0x4866C, size: 0x8, addend: 0x0, symName: __ZNK9__gnu_cxx17__normal_iteratorIPKiSt6vectorIiSaIiEEE4baseEv, symObjAddr: 0xCEA0, symBinAddr: 0x10000F568, symSize: 0x14 }
  - { offsetInCU: 0x486F9, offset: 0x486F9, size: 0x8, addend: 0x0, symName: __ZN9__gnu_cxx17__normal_iteratorIPKiSt6vectorIiSaIiEEEC1ERKS2_, symObjAddr: 0xCE78, symBinAddr: 0x10000F540, symSize: 0x28 }
  - { offsetInCU: 0x486ED, offset: 0x486ED, size: 0x8, addend: 0x0, symName: __ZN9__gnu_cxx16__aligned_membufISt4pairIKiSt6vectorIiSaIiEEEE6_M_ptrEv, symObjAddr: 0xCE5C, symBinAddr: 0x10000F524, symSize: 0x1C }
  - { offsetInCU: 0x48717, offset: 0x48717, size: 0x8, addend: 0x0, symName: __ZN9__gnu_cxx16__aligned_membufISt4pairIKiSt3mapIiSt6vectorIiSaIiEESt4lessIiESaIS1_IS2_S6_EEEEE6_M_ptrEv, symObjAddr: 0xCE40, symBinAddr: 0x10000F508, symSize: 0x1C }
  - { offsetInCU: 0x48741, offset: 0x48741, size: 0x8, addend: 0x0, symName: __ZNKSt8_Rb_treeIiSt4pairIKiSt3mapIiSt6vectorIiSaIiEESt4lessIiESaIS0_IS1_S5_EEEESt10_Select1stISB_ES7_SaISB_EE9_M_mbeginEv, symObjAddr: 0xCE28, symBinAddr: 0x10000F4F0, symSize: 0x18 }
  - { offsetInCU: 0x4876B, offset: 0x4876B, size: 0x8, addend: 0x0, symName: __ZNSt8_Rb_treeIiSt4pairIKiSt3mapIiSt6vectorIiSaIiEESt4lessIiESaIS0_IS1_S5_EEEESt10_Select1stISB_ES7_SaISB_EE12_M_drop_nodeEPSt13_Rb_tree_nodeISB_E, symObjAddr: 0xCDF4, symBinAddr: 0x10000F4BC, symSize: 0x34 }
  - { offsetInCU: 0x487A2, offset: 0x487A2, size: 0x8, addend: 0x0, symName: __ZNSt8_Rb_treeIiSt4pairIKiSt3mapIiSt6vectorIiSaIiEESt4lessIiESaIS0_IS1_S5_EEEESt10_Select1stISB_ES7_SaISB_EE7_S_leftEPSt18_Rb_tree_node_base, symObjAddr: 0xCDDC, symBinAddr: 0x10000F4A4, symSize: 0x18 }
  - { offsetInCU: 0x487CC, offset: 0x487CC, size: 0x8, addend: 0x0, symName: __ZNSt8_Rb_treeIiSt4pairIKiSt3mapIiSt6vectorIiSaIiEESt4lessIiESaIS0_IS1_S5_EEEESt10_Select1stISB_ES7_SaISB_EE8_S_rightEPSt18_Rb_tree_node_base, symObjAddr: 0xCDC4, symBinAddr: 0x10000F48C, symSize: 0x18 }
  - { offsetInCU: 0x4880C, offset: 0x4880C, size: 0x8, addend: 0x0, symName: __ZSt22__uninitialized_copy_aIPKiPiiET0_T_S4_S3_RSaIT1_E, symObjAddr: 0xCD94, symBinAddr: 0x10000F45C, symSize: 0x30 }
  - { offsetInCU: 0x488BD, offset: 0x488BD, size: 0x8, addend: 0x0, symName: __ZSt4copyIPKiPiET0_T_S4_S3_, symObjAddr: 0xCD4C, symBinAddr: 0x10000F414, symSize: 0x48 }
  - { offsetInCU: 0x4891F, offset: 0x4891F, size: 0x8, addend: 0x0, symName: __ZNSt6vectorIiSaIiEE20_M_allocate_and_copyIPKiEEPimT_S6_, symObjAddr: 0xCCC8, symBinAddr: 0x10000F390, symSize: 0x84 }
  - { offsetInCU: 0x48996, offset: 0x48996, size: 0x8, addend: 0x0, symName: __ZNKSt6vectorIiSaIiEE8capacityEv, symObjAddr: 0xCCA0, symBinAddr: 0x10000F368, symSize: 0x28 }
  - { offsetInCU: 0x48A06, offset: 0x48A06, size: 0x8, addend: 0x0, symName: __ZNKSt16initializer_listIiE4sizeEv, symObjAddr: 0xCC88, symBinAddr: 0x10000F350, symSize: 0x18 }
  - { offsetInCU: 0x48A2C, offset: 0x48A2C, size: 0x8, addend: 0x0, symName: __ZSt22__final_insertion_sortIN9__gnu_cxx17__normal_iteratorIPiSt6vectorIiSaIiEEEENS0_5__ops15_Iter_less_iterEEvT_S9_T0_, symObjAddr: 0xCBEC, symBinAddr: 0x10000F2B4, symSize: 0x9C }
  - { offsetInCU: 0x48A8A, offset: 0x48A8A, size: 0x8, addend: 0x0, symName: __ZSt16__introsort_loopIN9__gnu_cxx17__normal_iteratorIPiSt6vectorIiSaIiEEEElNS0_5__ops15_Iter_less_iterEEvT_S9_T0_T1_, symObjAddr: 0xCB34, symBinAddr: 0x10000F1FC, symSize: 0xB8 }
  - { offsetInCU: 0x48B26, offset: 0x48B26, size: 0x8, addend: 0x0, symName: __ZSt4__lgIlET_S0_, symObjAddr: 0xCB10, symBinAddr: 0x10000F1D8, symSize: 0x24 }
  - { offsetInCU: 0x48B60, offset: 0x48B60, size: 0x8, addend: 0x0, symName: __ZN9__gnu_cxxneIPiSt6vectorIiSaIiEEEEbRKNS_17__normal_iteratorIT_T0_EESA_, symObjAddr: 0xCACC, symBinAddr: 0x10000F194, symSize: 0x44 }
  - { offsetInCU: 0x48C26, offset: 0x48C26, size: 0x8, addend: 0x0, symName: __ZNSt17_Rb_tree_iteratorISt4pairIKiSt6vectorIiSaIiEEEEC1EPSt18_Rb_tree_node_base, symObjAddr: 0xCAA8, symBinAddr: 0x10000F170, symSize: 0x24 }
  - { offsetInCU: 0x48C08, offset: 0x48C08, size: 0x8, addend: 0x0, symName: __ZNSt8_Rb_treeIiSt4pairIKiSt6vectorIiSaIiEEESt10_Select1stIS5_ESt4lessIiESaIS5_EE10_Auto_node9_M_insertES0_IPSt18_Rb_tree_node_baseSE_E, symObjAddr: 0xCA5C, symBinAddr: 0x10000F124, symSize: 0x4C }
  - { offsetInCU: 0x48C54, offset: 0x48C54, size: 0x8, addend: 0x0, symName: __ZNKSt8_Rb_treeIiSt4pairIKiSt6vectorIiSaIiEEESt10_Select1stIS5_ESt4lessIiESaIS5_EE10_Auto_node6_M_keyEv, symObjAddr: 0xCA3C, symBinAddr: 0x10000F104, symSize: 0x20 }
  - { offsetInCU: 0x48C7E, offset: 0x48C7E, size: 0x8, addend: 0x0, symName: __ZNSt8_Rb_treeIiSt4pairIKiSt6vectorIiSaIiEEESt10_Select1stIS5_ESt4lessIiESaIS5_EE29_M_get_insert_hint_unique_posESt23_Rb_tree_const_iteratorIS5_ERS1_, symObjAddr: 0xC718, symBinAddr: 0x10000EDE0, symSize: 0x324 }
  - { offsetInCU: 0x48DAB, offset: 0x48DAB, size: 0x8, addend: 0x0, symName: __ZNSt8_Rb_treeIiSt4pairIKiSt6vectorIiSaIiEEESt10_Select1stIS5_ESt4lessIiESaIS5_EE10_Auto_nodeD1Ev, symObjAddr: 0xC6D4, symBinAddr: 0x10000ED9C, symSize: 0x44 }
  - { offsetInCU: 0x48E62, offset: 0x48E62, size: 0x8, addend: 0x0, symName: __ZNSt8_Rb_treeIiSt4pairIKiSt6vectorIiSaIiEEESt10_Select1stIS5_ESt4lessIiESaIS5_EE10_Auto_nodeC1IJRKSt21piecewise_construct_tSt5tupleIJRS1_EESH_IJEEEEERSB_DpOT_, symObjAddr: 0xC658, symBinAddr: 0x10000ED20, symSize: 0x7C }
  - { offsetInCU: 0x48E2C, offset: 0x48E2C, size: 0x8, addend: 0x0, symName: __ZNKSt8_Rb_treeIiSt4pairIKiSt6vectorIiSaIiEEESt10_Select1stIS5_ESt4lessIiESaIS5_EE8key_compEv, symObjAddr: 0xC640, symBinAddr: 0x10000ED08, symSize: 0x18 }
  - { offsetInCU: 0x48E56, offset: 0x48E56, size: 0x8, addend: 0x0, symName: __ZNSt8_Rb_treeIiSt4pairIKiSt6vectorIiSaIiEEESt10_Select1stIS5_ESt4lessIiESaIS5_EE11lower_boundERS1_, symObjAddr: 0xC5F8, symBinAddr: 0x10000ECC0, symSize: 0x48 }
  - { offsetInCU: 0x48F0D, offset: 0x48F0D, size: 0x8, addend: 0x0, symName: __ZNSt23_Rb_tree_const_iteratorISt4pairIKiSt6vectorIiSaIiEEEEC1EPKSt18_Rb_tree_node_base, symObjAddr: 0xC5D4, symBinAddr: 0x10000EC9C, symSize: 0x24 }
  - { offsetInCU: 0x48EE4, offset: 0x48EE4, size: 0x8, addend: 0x0, symName: __ZNSt8_Rb_treeIiSt4pairIKiSt6vectorIiSaIiEEESt10_Select1stIS5_ESt4lessIiESaIS5_EE6_S_keyEPKSt18_Rb_tree_node_base, symObjAddr: 0xC5B8, symBinAddr: 0x10000EC80, symSize: 0x1C }
  - { offsetInCU: 0x48F12, offset: 0x48F12, size: 0x8, addend: 0x0, symName: __ZNKSt8_Rb_treeIiSt4pairIKiSt6vectorIiSaIiEEESt10_Select1stIS5_ESt4lessIiESaIS5_EE14_M_lower_boundEPKSt13_Rb_tree_nodeIS5_EPKSt18_Rb_tree_node_baseRS1_, symObjAddr: 0xC51C, symBinAddr: 0x10000EBE4, symSize: 0x9C }
  - { offsetInCU: 0x48F6F, offset: 0x48F6F, size: 0x8, addend: 0x0, symName: __ZNKSt8_Rb_treeIiSt4pairIKiSt6vectorIiSaIiEEESt10_Select1stIS5_ESt4lessIiESaIS5_EE6_M_endEv, symObjAddr: 0xC504, symBinAddr: 0x10000EBCC, symSize: 0x18 }
  - { offsetInCU: 0x48F99, offset: 0x48F99, size: 0x8, addend: 0x0, symName: __ZNKSt8_Rb_treeIiSt4pairIKiSt6vectorIiSaIiEEESt10_Select1stIS5_ESt4lessIiESaIS5_EE8_M_beginEv, symObjAddr: 0xC4EC, symBinAddr: 0x10000EBB4, symSize: 0x18 }
  - { offsetInCU: 0x4905A, offset: 0x4905A, size: 0x8, addend: 0x0, symName: __ZNSt17_Rb_tree_iteratorISt4pairIKiSt3mapIiSt6vectorIiSaIiEESt4lessIiESaIS0_IS1_S5_EEEEEC1EPSt18_Rb_tree_node_base, symObjAddr: 0xC4C8, symBinAddr: 0x10000EB90, symSize: 0x24 }
  - { offsetInCU: 0x4901A, offset: 0x4901A, size: 0x8, addend: 0x0, symName: __ZNSt8_Rb_treeIiSt4pairIKiSt3mapIiSt6vectorIiSaIiEESt4lessIiESaIS0_IS1_S5_EEEESt10_Select1stISB_ES7_SaISB_EE10_Auto_node9_M_insertES0_IPSt18_Rb_tree_node_baseSI_E, symObjAddr: 0xC47C, symBinAddr: 0x10000EB44, symSize: 0x4C }
  - { offsetInCU: 0x49066, offset: 0x49066, size: 0x8, addend: 0x0, symName: __ZNKSt8_Rb_treeIiSt4pairIKiSt3mapIiSt6vectorIiSaIiEESt4lessIiESaIS0_IS1_S5_EEEESt10_Select1stISB_ES7_SaISB_EE10_Auto_node6_M_keyEv, symObjAddr: 0xC45C, symBinAddr: 0x10000EB24, symSize: 0x20 }
  - { offsetInCU: 0x49090, offset: 0x49090, size: 0x8, addend: 0x0, symName: __ZNSt8_Rb_treeIiSt4pairIKiSt3mapIiSt6vectorIiSaIiEESt4lessIiESaIS0_IS1_S5_EEEESt10_Select1stISB_ES7_SaISB_EE29_M_get_insert_hint_unique_posESt23_Rb_tree_const_iteratorISB_ERS1_, symObjAddr: 0xC138, symBinAddr: 0x10000E800, symSize: 0x324 }
  - { offsetInCU: 0x491D8, offset: 0x491D8, size: 0x8, addend: 0x0, symName: __ZNSt8_Rb_treeIiSt4pairIKiSt3mapIiSt6vectorIiSaIiEESt4lessIiESaIS0_IS1_S5_EEEESt10_Select1stISB_ES7_SaISB_EE10_Auto_nodeD1Ev, symObjAddr: 0xC0F4, symBinAddr: 0x10000E7BC, symSize: 0x44 }
  - { offsetInCU: 0x4928F, offset: 0x4928F, size: 0x8, addend: 0x0, symName: __ZNSt8_Rb_treeIiSt4pairIKiSt3mapIiSt6vectorIiSaIiEESt4lessIiESaIS0_IS1_S5_EEEESt10_Select1stISB_ES7_SaISB_EE10_Auto_nodeC1IJRKSt21piecewise_construct_tSt5tupleIJRS1_EESL_IJEEEEERSF_DpOT_, symObjAddr: 0xC078, symBinAddr: 0x10000E740, symSize: 0x7C }
  - { offsetInCU: 0x49241, offset: 0x49241, size: 0x8, addend: 0x0, symName: __ZSt7forwardISt5tupleIJEEEOT_RNSt16remove_referenceIS2_E4typeE, symObjAddr: 0xC064, symBinAddr: 0x10000E72C, symSize: 0x14 }
  - { offsetInCU: 0x4927A, offset: 0x4927A, size: 0x8, addend: 0x0, symName: __ZSt7forwardISt5tupleIJRKiEEEOT_RNSt16remove_referenceIS4_E4typeE, symObjAddr: 0xC050, symBinAddr: 0x10000E718, symSize: 0x14 }
  - { offsetInCU: 0x492B3, offset: 0x492B3, size: 0x8, addend: 0x0, symName: __ZSt7forwardIRKSt21piecewise_construct_tEOT_RNSt16remove_referenceIS3_E4typeE, symObjAddr: 0xC03C, symBinAddr: 0x10000E704, symSize: 0x14 }
  - { offsetInCU: 0x49331, offset: 0x49331, size: 0x8, addend: 0x0, symName: __ZNSt11_Tuple_implILm0EJRKiEEC2ES1_, symObjAddr: 0xC014, symBinAddr: 0x10000E6DC, symSize: 0x28 }
  - { offsetInCU: 0x49340, offset: 0x49340, size: 0x8, addend: 0x0, symName: __ZNKSt8_Rb_treeIiSt4pairIKiSt3mapIiSt6vectorIiSaIiEESt4lessIiESaIS0_IS1_S5_EEEESt10_Select1stISB_ES7_SaISB_EE8key_compEv, symObjAddr: 0xBFFC, symBinAddr: 0x10000E6C4, symSize: 0x18 }
  - { offsetInCU: 0x4936A, offset: 0x4936A, size: 0x8, addend: 0x0, symName: __ZNSt8_Rb_treeIiSt4pairIKiSt3mapIiSt6vectorIiSaIiEESt4lessIiESaIS0_IS1_S5_EEEESt10_Select1stISB_ES7_SaISB_EE11lower_boundERS1_, symObjAddr: 0xBFB4, symBinAddr: 0x10000E67C, symSize: 0x48 }
  - { offsetInCU: 0x49443, offset: 0x49443, size: 0x8, addend: 0x0, symName: __ZNSt23_Rb_tree_const_iteratorISt4pairIKiSt3mapIiSt6vectorIiSaIiEESt4lessIiESaIS0_IS1_S5_EEEEEC1EPKSt18_Rb_tree_node_base, symObjAddr: 0xBF90, symBinAddr: 0x10000E658, symSize: 0x24 }
  - { offsetInCU: 0x493F8, offset: 0x493F8, size: 0x8, addend: 0x0, symName: __ZNSt8_Rb_treeIiSt4pairIKiSt3mapIiSt6vectorIiSaIiEESt4lessIiESaIS0_IS1_S5_EEEESt10_Select1stISB_ES7_SaISB_EE6_S_keyEPKSt18_Rb_tree_node_base, symObjAddr: 0xBF74, symBinAddr: 0x10000E63C, symSize: 0x1C }
  - { offsetInCU: 0x49426, offset: 0x49426, size: 0x8, addend: 0x0, symName: __ZNKSt8_Rb_treeIiSt4pairIKiSt3mapIiSt6vectorIiSaIiEESt4lessIiESaIS0_IS1_S5_EEEESt10_Select1stISB_ES7_SaISB_EE14_M_lower_boundEPKSt13_Rb_tree_nodeISB_EPKSt18_Rb_tree_node_baseRS1_, symObjAddr: 0xBED8, symBinAddr: 0x10000E5A0, symSize: 0x9C }
  - { offsetInCU: 0x49483, offset: 0x49483, size: 0x8, addend: 0x0, symName: __ZNKSt8_Rb_treeIiSt4pairIKiSt3mapIiSt6vectorIiSaIiEESt4lessIiESaIS0_IS1_S5_EEEESt10_Select1stISB_ES7_SaISB_EE6_M_endEv, symObjAddr: 0xBEC0, symBinAddr: 0x10000E588, symSize: 0x18 }
  - { offsetInCU: 0x494AD, offset: 0x494AD, size: 0x8, addend: 0x0, symName: __ZNKSt8_Rb_treeIiSt4pairIKiSt3mapIiSt6vectorIiSaIiEESt4lessIiESaIS0_IS1_S5_EEEESt10_Select1stISB_ES7_SaISB_EE8_M_beginEv, symObjAddr: 0xBEA8, symBinAddr: 0x10000E570, symSize: 0x18 }
  - { offsetInCU: 0x494D7, offset: 0x494D7, size: 0x8, addend: 0x0, symName: __ZNSt5dequeIiSaIiEE15_M_pop_back_auxEv, symObjAddr: 0xBE10, symBinAddr: 0x10000E4D8, symSize: 0x98 }
  - { offsetInCU: 0x49588, offset: 0x49588, size: 0x8, addend: 0x0, symName: __ZNKSt15_Deque_iteratorIiRiPiEdeEv, symObjAddr: 0xBDF8, symBinAddr: 0x10000E4C0, symSize: 0x18 }
  - { offsetInCU: 0x495B2, offset: 0x495B2, size: 0x8, addend: 0x0, symName: __ZNSt15_Deque_iteratorIiRiPiEmmEv, symObjAddr: 0xBD8C, symBinAddr: 0x10000E454, symSize: 0x6C }
  - { offsetInCU: 0x495D8, offset: 0x495D8, size: 0x8, addend: 0x0, symName: __ZSteqRKSt15_Deque_iteratorIiRiPiES4_, symObjAddr: 0xBD5C, symBinAddr: 0x10000E424, symSize: 0x30 }
  - { offsetInCU: 0x49660, offset: 0x49660, size: 0x8, addend: 0x0, symName: __ZNSt15_Deque_iteratorIiRiPiEC1ERKS2_, symObjAddr: 0xBD04, symBinAddr: 0x10000E3CC, symSize: 0x58 }
  - { offsetInCU: 0x4966D, offset: 0x4966D, size: 0x8, addend: 0x0, symName: __ZNSt11_Deque_baseIiSaIiEE17_M_deallocate_mapEPPim, symObjAddr: 0xBCA4, symBinAddr: 0x10000E36C, symSize: 0x60 }
  - { offsetInCU: 0x4971E, offset: 0x4971E, size: 0x8, addend: 0x0, symName: __ZNSt11_Deque_baseIiSaIiEE16_M_destroy_nodesEPPiS3_, symObjAddr: 0xBC44, symBinAddr: 0x10000E30C, symSize: 0x60 }
  - { offsetInCU: 0x4978E, offset: 0x4978E, size: 0x8, addend: 0x0, symName: __ZNSt11_Deque_baseIiSaIiEE17_M_initialize_mapEm, symObjAddr: 0xBAB8, symBinAddr: 0x10000E180, symSize: 0x18C }
  - { offsetInCU: 0x4983E, offset: 0x4983E, size: 0x8, addend: 0x0, symName: __ZNSt11_Deque_baseIiSaIiEE11_Deque_implC1Ev, symObjAddr: 0xBA80, symBinAddr: 0x10000E148, symSize: 0x38 }
  - { offsetInCU: 0x49883, offset: 0x49883, size: 0x8, addend: 0x0, symName: __ZNSt5dequeIiSaIiEE16_M_push_back_auxIJRKiEEEvDpOT_, symObjAddr: 0xB960, symBinAddr: 0x10000E028, symSize: 0x120 }
  - { offsetInCU: 0x49930, offset: 0x49930, size: 0x8, addend: 0x0, symName: __ZSt27__uninitialized_default_n_aIPimiET_S1_T0_RSaIT1_E, symObjAddr: 0xB938, symBinAddr: 0x10000E000, symSize: 0x28 }
  - { offsetInCU: 0x49993, offset: 0x49993, size: 0x8, addend: 0x0, symName: __ZNSt12_Vector_baseIiSaIiEE17_M_create_storageEm, symObjAddr: 0xB8D8, symBinAddr: 0x10000DFA0, symSize: 0x60 }
  - { offsetInCU: 0x49A23, offset: 0x49A23, size: 0x8, addend: 0x0, symName: __ZNSt12_Vector_baseIiSaIiEE12_Vector_implC1ERKS0_, symObjAddr: 0xB88C, symBinAddr: 0x10000DF54, symSize: 0x4C }
  - { offsetInCU: 0x49A78, offset: 0x49A78, size: 0x8, addend: 0x0, symName: __ZNSt6vectorIiSaIiEE11_S_max_sizeERKS0_, symObjAddr: 0xB838, symBinAddr: 0x10000DF00, symSize: 0x54 }
  - { offsetInCU: 0x49B33, offset: 0x49B33, size: 0x8, addend: 0x0, symName: __ZNSt5dequeIP8TreeNodeSaIS1_EE23_M_reserve_map_at_frontEm, symObjAddr: 0xB7E4, symBinAddr: 0x10000DEAC, symSize: 0x54 }
  - { offsetInCU: 0x49B97, offset: 0x49B97, size: 0x8, addend: 0x0, symName: __ZNSt15_Deque_iteratorIP8TreeNodeRS1_PS1_E14_S_buffer_sizeEv, symObjAddr: 0xB7CC, symBinAddr: 0x10000DE94, symSize: 0x18 }
  - { offsetInCU: 0x49BB2, offset: 0x49BB2, size: 0x8, addend: 0x0, symName: __ZNSt11_Deque_baseIP8TreeNodeSaIS1_EE16_M_allocate_nodeEv, symObjAddr: 0xB788, symBinAddr: 0x10000DE50, symSize: 0x44 }
  - { offsetInCU: 0x49C09, offset: 0x49C09, size: 0x8, addend: 0x0, symName: __ZNSt5dequeIP8TreeNodeSaIS1_EE22_M_reserve_map_at_backEm, symObjAddr: 0xB728, symBinAddr: 0x10000DDF0, symSize: 0x60 }
  - { offsetInCU: 0x49C44, offset: 0x49C44, size: 0x8, addend: 0x0, symName: __ZNKSt5dequeIP8TreeNodeSaIS1_EE8max_sizeEv, symObjAddr: 0xB708, symBinAddr: 0x10000DDD0, symSize: 0x20 }
  - { offsetInCU: 0x49CB3, offset: 0x49CB3, size: 0x8, addend: 0x0, symName: __ZSt7forwardIRKP8TreeNodeEOT_RNSt16remove_referenceIS4_E4typeE, symObjAddr: 0xB6F4, symBinAddr: 0x10000DDBC, symSize: 0x14 }
  - { offsetInCU: 0x49D3B, offset: 0x49D3B, size: 0x8, addend: 0x0, symName: __ZNKSt11_Deque_baseIP8TreeNodeSaIS1_EE20_M_get_map_allocatorEv, symObjAddr: 0xB6AC, symBinAddr: 0x10000DD74, symSize: 0x48 }
  - { offsetInCU: 0x49DB5, offset: 0x49DB5, size: 0x8, addend: 0x0, symName: __ZNSt11_Deque_baseIP8TreeNodeSaIS1_EE18_M_deallocate_nodeEPS1_, symObjAddr: 0xB654, symBinAddr: 0x10000DD1C, symSize: 0x58 }
  - { offsetInCU: 0x49E26, offset: 0x49E26, size: 0x8, addend: 0x0, symName: __ZNSt15_Deque_iteratorIP8TreeNodeRS1_PS1_E11_M_set_nodeEPS3_, symObjAddr: 0xB5F8, symBinAddr: 0x10000DCC0, symSize: 0x5C }
  - { offsetInCU: 0x49E61, offset: 0x49E61, size: 0x8, addend: 0x0, symName: __ZNSt11_Deque_baseIP8TreeNodeSaIS1_EE15_M_create_nodesEPPS1_S5_, symObjAddr: 0xB56C, symBinAddr: 0x10000DC34, symSize: 0x8C }
  - { offsetInCU: 0x49EBE, offset: 0x49EBE, size: 0x8, addend: 0x0, symName: __ZNSt11_Deque_baseIP8TreeNodeSaIS1_EE15_M_allocate_mapEm, symObjAddr: 0xB4EC, symBinAddr: 0x10000DBB4, symSize: 0x80 }
  - { offsetInCU: 0x49FBD, offset: 0x49FBD, size: 0x8, addend: 0x0, symName: __ZNSt15__new_allocatorIP8TreeNodeED2Ev, symObjAddr: 0xB4D8, symBinAddr: 0x10000DBA0, symSize: 0x14 }
  - { offsetInCU: 0x4A012, offset: 0x4A012, size: 0x8, addend: 0x0, symName: __ZNSt11_Deque_baseIP8TreeNodeSaIS1_EE16_Deque_impl_dataC2Ev, symObjAddr: 0xB498, symBinAddr: 0x10000DB60, symSize: 0x40 }
  - { offsetInCU: 0x4A016, offset: 0x4A016, size: 0x8, addend: 0x0, symName: __ZN9__gnu_cxx17__normal_iteratorIPiSt6vectorIiSaIiEEEppEv, symObjAddr: 0xB470, symBinAddr: 0x10000DB38, symSize: 0x28 }
  - { offsetInCU: 0x4A03C, offset: 0x4A03C, size: 0x8, addend: 0x0, symName: __ZSt9iter_swapIN9__gnu_cxx17__normal_iteratorIPiSt6vectorIiSaIiEEEES6_EvT_T0_, symObjAddr: 0xB42C, symBinAddr: 0x10000DAF4, symSize: 0x44 }
  - { offsetInCU: 0x4A087, offset: 0x4A087, size: 0x8, addend: 0x0, symName: __ZN9__gnu_cxxltIPiSt6vectorIiSaIiEEEEbRKNS_17__normal_iteratorIT_T0_EESA_, symObjAddr: 0xB3E8, symBinAddr: 0x10000DAB0, symSize: 0x44 }
  - { offsetInCU: 0x4A0D8, offset: 0x4A0D8, size: 0x8, addend: 0x0, symName: __ZN9__gnu_cxx17__normal_iteratorIPiSt6vectorIiSaIiEEEmmEv, symObjAddr: 0xB3C0, symBinAddr: 0x10000DA88, symSize: 0x28 }
  - { offsetInCU: 0x4A0FE, offset: 0x4A0FE, size: 0x8, addend: 0x0, symName: __ZN9__gnu_cxxeqIPiSt6vectorIiSaIiEEEEbRKNS_17__normal_iteratorIT_T0_EESA_, symObjAddr: 0xB37C, symBinAddr: 0x10000DA44, symSize: 0x44 }
  - { offsetInCU: 0x4A14F, offset: 0x4A14F, size: 0x8, addend: 0x0, symName: __ZNSt5dequeISt4pairIP8TreeNodeiESaIS3_EE16_M_push_back_auxIJRKS3_EEEvDpOT_, symObjAddr: 0xB25C, symBinAddr: 0x10000D924, symSize: 0x120 }
  - { offsetInCU: 0x4A244, offset: 0x4A244, size: 0x8, addend: 0x0, symName: __ZNSt5dequeISt4pairIP8TreeNodeiESaIS3_EE15_M_pop_back_auxEv, symObjAddr: 0xB1C4, symBinAddr: 0x10000D88C, symSize: 0x98 }
  - { offsetInCU: 0x4A2F5, offset: 0x4A2F5, size: 0x8, addend: 0x0, symName: __ZNKSt15_Deque_iteratorISt4pairIP8TreeNodeiERS3_PS3_EdeEv, symObjAddr: 0xB1AC, symBinAddr: 0x10000D874, symSize: 0x18 }
  - { offsetInCU: 0x4A31F, offset: 0x4A31F, size: 0x8, addend: 0x0, symName: __ZNSt15_Deque_iteratorISt4pairIP8TreeNodeiERS3_PS3_EmmEv, symObjAddr: 0xB140, symBinAddr: 0x10000D808, symSize: 0x6C }
  - { offsetInCU: 0x4A345, offset: 0x4A345, size: 0x8, addend: 0x0, symName: __ZSteqRKSt15_Deque_iteratorISt4pairIP8TreeNodeiERS3_PS3_ES8_, symObjAddr: 0xB110, symBinAddr: 0x10000D7D8, symSize: 0x30 }
  - { offsetInCU: 0x4A384, offset: 0x4A384, size: 0x8, addend: 0x0, symName: __ZNSt5dequeISt4pairIP8TreeNodeiESaIS3_EE12emplace_backIJS3_EEERS3_DpOT_, symObjAddr: 0xB034, symBinAddr: 0x10000D6FC, symSize: 0xDC }
  - { offsetInCU: 0x4A493, offset: 0x4A493, size: 0x8, addend: 0x0, symName: __ZNSt15_Deque_iteratorISt4pairIP8TreeNodeiERS3_PS3_EC1ERKS6_, symObjAddr: 0xAFDC, symBinAddr: 0x10000D6A4, symSize: 0x58 }
  - { offsetInCU: 0x4A489, offset: 0x4A489, size: 0x8, addend: 0x0, symName: __ZNSt11_Deque_baseISt4pairIP8TreeNodeiESaIS3_EE17_M_deallocate_mapEPPS3_m, symObjAddr: 0xAF7C, symBinAddr: 0x10000D644, symSize: 0x60 }
  - { offsetInCU: 0x4A53A, offset: 0x4A53A, size: 0x8, addend: 0x0, symName: __ZNSt11_Deque_baseISt4pairIP8TreeNodeiESaIS3_EE16_M_destroy_nodesEPPS3_S7_, symObjAddr: 0xAF1C, symBinAddr: 0x10000D5E4, symSize: 0x60 }
  - { offsetInCU: 0x4A5AA, offset: 0x4A5AA, size: 0x8, addend: 0x0, symName: __ZNSt11_Deque_baseISt4pairIP8TreeNodeiESaIS3_EE17_M_initialize_mapEm, symObjAddr: 0xAD90, symBinAddr: 0x10000D458, symSize: 0x18C }
  - { offsetInCU: 0x4A68F, offset: 0x4A68F, size: 0x8, addend: 0x0, symName: __ZNSt11_Deque_baseISt4pairIP8TreeNodeiESaIS3_EE11_Deque_implC1Ev, symObjAddr: 0xAD58, symBinAddr: 0x10000D420, symSize: 0x38 }
  - { offsetInCU: 0x4A6BB, offset: 0x4A6BB, size: 0x8, addend: 0x0, symName: __ZNSt6vectorIS_IiSaIiEESaIS1_EE11_S_relocateEPS1_S4_S4_RS2_, symObjAddr: 0xAD24, symBinAddr: 0x10000D3EC, symSize: 0x34 }
  - { offsetInCU: 0x4A718, offset: 0x4A718, size: 0x8, addend: 0x0, symName: __ZSt12__to_addressISt6vectorIiSaIiEEEPT_S4_, symObjAddr: 0xAD10, symBinAddr: 0x10000D3D8, symSize: 0x14 }
  - { offsetInCU: 0x4A74E, offset: 0x4A74E, size: 0x8, addend: 0x0, symName: __ZNSt12_Vector_baseISt6vectorIiSaIiEESaIS2_EE11_M_allocateEm, symObjAddr: 0xACC0, symBinAddr: 0x10000D388, symSize: 0x50 }
  - { offsetInCU: 0x4A7B9, offset: 0x4A7B9, size: 0x8, addend: 0x0, symName: __ZN9__gnu_cxxmiIPSt6vectorIiSaIiEES1_IS3_SaIS3_EEEENS_17__normal_iteratorIT_T0_E15difference_typeERKSA_SD_, symObjAddr: 0xAC74, symBinAddr: 0x10000D33C, symSize: 0x4C }
  - { offsetInCU: 0x4A80A, offset: 0x4A80A, size: 0x8, addend: 0x0, symName: __ZNSt6vectorIS_IiSaIiEESaIS1_EE5beginEv, symObjAddr: 0xAC50, symBinAddr: 0x10000D318, symSize: 0x24 }
  - { offsetInCU: 0x4A834, offset: 0x4A834, size: 0x8, addend: 0x0, symName: __ZNSt6vectorIS_IiSaIiEESaIS1_EE3endEv, symObjAddr: 0xAC28, symBinAddr: 0x10000D2F0, symSize: 0x28 }
  - { offsetInCU: 0x4A85E, offset: 0x4A85E, size: 0x8, addend: 0x0, symName: __ZNKSt6vectorIS_IiSaIiEESaIS1_EE12_M_check_lenEmPKc, symObjAddr: 0xAB58, symBinAddr: 0x10000D220, symSize: 0xD0 }
  - { offsetInCU: 0x4A900, offset: 0x4A900, size: 0x8, addend: 0x0, symName: __ZSt7forwardIRKSt6vectorIiSaIiEEEOT_RNSt16remove_referenceIS5_E4typeE, symObjAddr: 0xAB44, symBinAddr: 0x10000D20C, symSize: 0x14 }
  - { offsetInCU: 0x4A936, offset: 0x4A936, size: 0x8, addend: 0x0, symName: __ZNSt5dequeIP8TreeNodeSaIS1_EE12emplace_backIJS1_EEERS1_DpOT_, symObjAddr: 0xAA68, symBinAddr: 0x10000D130, symSize: 0xDC }
  - { offsetInCU: 0x4A9FC, offset: 0x4A9FC, size: 0x8, addend: 0x0, symName: __ZSt8_DestroyIPSt6vectorIiSaIiEEEvT_S4_, symObjAddr: 0xAA40, symBinAddr: 0x10000D108, symSize: 0x28 }
  - { offsetInCU: 0x4AAE0, offset: 0x4AAE0, size: 0x8, addend: 0x0, symName: __ZNSt15_Deque_iteratorIP8TreeNodeRS1_PS1_EC1ERKS4_, symObjAddr: 0xA9E8, symBinAddr: 0x10000D0B0, symSize: 0x58 }
  - { offsetInCU: 0x4AAF7, offset: 0x4AAF7, size: 0x8, addend: 0x0, symName: __ZSt8_DestroyIPiEvT_S1_, symObjAddr: 0xA9C0, symBinAddr: 0x10000D088, symSize: 0x28 }
  - { offsetInCU: 0x4AB39, offset: 0x4AB39, size: 0x8, addend: 0x0, symName: __ZNSt6vectorIiSaIiEE11_S_relocateEPiS2_S2_RS0_, symObjAddr: 0xA98C, symBinAddr: 0x10000D054, symSize: 0x34 }
  - { offsetInCU: 0x4AB96, offset: 0x4AB96, size: 0x8, addend: 0x0, symName: __ZSt12__to_addressIiEPT_S1_, symObjAddr: 0xA978, symBinAddr: 0x10000D040, symSize: 0x14 }
  - { offsetInCU: 0x4ABFE, offset: 0x4ABFE, size: 0x8, addend: 0x0, symName: __ZNSt12_Vector_baseIiSaIiEE11_M_allocateEm, symObjAddr: 0xA928, symBinAddr: 0x10000CFF0, symSize: 0x50 }
  - { offsetInCU: 0x4AC62, offset: 0x4AC62, size: 0x8, addend: 0x0, symName: __ZN9__gnu_cxxmiIPiSt6vectorIiSaIiEEEENS_17__normal_iteratorIT_T0_E15difference_typeERKS8_SB_, symObjAddr: 0xA8E8, symBinAddr: 0x10000CFB0, symSize: 0x40 }
  - { offsetInCU: 0x4ACB3, offset: 0x4ACB3, size: 0x8, addend: 0x0, symName: __ZNKSt6vectorIiSaIiEE12_M_check_lenEmPKc, symObjAddr: 0xA818, symBinAddr: 0x10000CEE0, symSize: 0xD0 }
  - { offsetInCU: 0x4AD55, offset: 0x4AD55, size: 0x8, addend: 0x0, symName: __ZSt7forwardIRKiEOT_RNSt16remove_referenceIS2_E4typeE, symObjAddr: 0xA804, symBinAddr: 0x10000CECC, symSize: 0x14 }
  - { offsetInCU: 0x4AD87, offset: 0x4AD87, size: 0x8, addend: 0x0, symName: __ZSt11__bit_widthImEiT_, symObjAddr: 0xA7D4, symBinAddr: 0x10000CE9C, symSize: 0x30 }
  - { offsetInCU: 0x4ADCF, offset: 0x4ADCF, size: 0x8, addend: 0x0, symName: __ZNSt8_Rb_treeIiSt4pairIKiS0_IiiEESt10_Select1stIS3_ESt4lessIiESaIS3_EE4findERS1_, symObjAddr: 0xA72C, symBinAddr: 0x10000CDF4, symSize: 0xA8 }
  - { offsetInCU: 0x4AE1B, offset: 0x4AE1B, size: 0x8, addend: 0x0, symName: __ZNSt13_Rb_tree_nodeISt4pairIKiiEE9_M_valptrEv, symObjAddr: 0xA70C, symBinAddr: 0x10000CDD4, symSize: 0x20 }
  - { offsetInCU: 0x4AE45, offset: 0x4AE45, size: 0x8, addend: 0x0, symName: __ZNSt8_Rb_treeIiSt4pairIKiiESt10_Select1stIS2_ESt4lessIiESaIS2_EE5beginEv, symObjAddr: 0xA6E4, symBinAddr: 0x10000CDAC, symSize: 0x28 }
  - { offsetInCU: 0x4AE6F, offset: 0x4AE6F, size: 0x8, addend: 0x0, symName: __ZNSt8_Rb_treeIiSt4pairIKiiESt10_Select1stIS2_ESt4lessIiESaIS2_EE22_M_emplace_hint_uniqueIJRKSt21piecewise_construct_tSt5tupleIJRS1_EESD_IJEEEEESt17_Rb_tree_iteratorIS2_ESt23_Rb_tree_const_iteratorIS2_EDpOT_, symObjAddr: 0xA60C, symBinAddr: 0x10000CCD4, symSize: 0xD8 }
  - { offsetInCU: 0x4AF76, offset: 0x4AF76, size: 0x8, addend: 0x0, symName: __ZNSt23_Rb_tree_const_iteratorISt4pairIKiiEEC1ERKSt17_Rb_tree_iteratorIS2_E, symObjAddr: 0xA5E4, symBinAddr: 0x10000CCAC, symSize: 0x28 }
  - { offsetInCU: 0x4AF5D, offset: 0x4AF5D, size: 0x8, addend: 0x0, symName: __ZNKSt3mapIiiSt4lessIiESaISt4pairIKiiEEE8key_compEv, symObjAddr: 0xA5B8, symBinAddr: 0x10000CC80, symSize: 0x2C }
  - { offsetInCU: 0x4AF87, offset: 0x4AF87, size: 0x8, addend: 0x0, symName: __ZNSt3mapIiiSt4lessIiESaISt4pairIKiiEEE11lower_boundERS3_, symObjAddr: 0xA594, symBinAddr: 0x10000CC5C, symSize: 0x24 }
  - { offsetInCU: 0x4AFC2, offset: 0x4AFC2, size: 0x8, addend: 0x0, symName: __ZNSt8_Rb_treeIiSt4pairIKiiESt10_Select1stIS2_ESt4lessIiESaIS2_EE3endEv, symObjAddr: 0xA56C, symBinAddr: 0x10000CC34, symSize: 0x28 }
  - { offsetInCU: 0x4AFEC, offset: 0x4AFEC, size: 0x8, addend: 0x0, symName: __ZNSt8_Rb_treeIiSt4pairIKiiESt10_Select1stIS2_ESt4lessIiESaIS2_EE4findERS1_, symObjAddr: 0xA4C4, symBinAddr: 0x10000CB8C, symSize: 0xA8 }
  - { offsetInCU: 0x4B038, offset: 0x4B038, size: 0x8, addend: 0x0, symName: __ZNSt5dequeISt4pairIP8TreeNodeiESaIS3_EE9pop_frontEv, symObjAddr: 0xA43C, symBinAddr: 0x10000CB04, symSize: 0x88 }
  - { offsetInCU: 0x4B0BC, offset: 0x4B0BC, size: 0x8, addend: 0x0, symName: __ZNSt5dequeISt4pairIP8TreeNodeiESaIS3_EE5frontEv, symObjAddr: 0xA410, symBinAddr: 0x10000CAD8, symSize: 0x2C }
  - { offsetInCU: 0x4B0E6, offset: 0x4B0E6, size: 0x8, addend: 0x0, symName: __ZNSt8_Rb_treeIiSt4pairIKiiESt10_Select1stIS2_ESt4lessIiESaIS2_EE8_M_beginEv, symObjAddr: 0xA3F4, symBinAddr: 0x10000CABC, symSize: 0x1C }
  - { offsetInCU: 0x4B110, offset: 0x4B110, size: 0x8, addend: 0x0, symName: __ZNSt8_Rb_treeIiSt4pairIKiiESt10_Select1stIS2_ESt4lessIiESaIS2_EE8_M_eraseEPSt13_Rb_tree_nodeIS2_E, symObjAddr: 0xA390, symBinAddr: 0x10000CA58, symSize: 0x64 }
  - { offsetInCU: 0x4B1CB, offset: 0x4B1CB, size: 0x8, addend: 0x0, symName: __ZNSt15__new_allocatorISt13_Rb_tree_nodeISt4pairIKiiEEED2Ev, symObjAddr: 0xA37C, symBinAddr: 0x10000CA44, symSize: 0x14 }
  - { offsetInCU: 0x4B1CF, offset: 0x4B1CF, size: 0x8, addend: 0x0, symName: __ZNSt13_Rb_tree_nodeISt4pairIKiS0_IiiEEE9_M_valptrEv, symObjAddr: 0xA35C, symBinAddr: 0x10000CA24, symSize: 0x20 }
  - { offsetInCU: 0x4B1F9, offset: 0x4B1F9, size: 0x8, addend: 0x0, symName: __ZNSt8_Rb_treeIiSt4pairIKiS0_IiiEESt10_Select1stIS3_ESt4lessIiESaIS3_EE3endEv, symObjAddr: 0xA334, symBinAddr: 0x10000C9FC, symSize: 0x28 }
  - { offsetInCU: 0x4B223, offset: 0x4B223, size: 0x8, addend: 0x0, symName: __ZNSt8_Rb_treeIiSt4pairIKiS0_IiiEESt10_Select1stIS3_ESt4lessIiESaIS3_EE5beginEv, symObjAddr: 0xA30C, symBinAddr: 0x10000C9D4, symSize: 0x28 }
  - { offsetInCU: 0x4B24D, offset: 0x4B24D, size: 0x8, addend: 0x0, symName: __ZNSt8_Rb_treeIiSt4pairIKiS0_IiiEESt10_Select1stIS3_ESt4lessIiESaIS3_EE8_M_beginEv, symObjAddr: 0xA2F0, symBinAddr: 0x10000C9B8, symSize: 0x1C }
  - { offsetInCU: 0x4B277, offset: 0x4B277, size: 0x8, addend: 0x0, symName: __ZNSt8_Rb_treeIiSt4pairIKiS0_IiiEESt10_Select1stIS3_ESt4lessIiESaIS3_EE8_M_eraseEPSt13_Rb_tree_nodeIS3_E, symObjAddr: 0xA28C, symBinAddr: 0x10000C954, symSize: 0x64 }
  - { offsetInCU: 0x4B338, offset: 0x4B338, size: 0x8, addend: 0x0, symName: __ZNSt15__new_allocatorISt13_Rb_tree_nodeISt4pairIKiS1_IiiEEEED2Ev, symObjAddr: 0xA278, symBinAddr: 0x10000C940, symSize: 0x14 }
  - { offsetInCU: 0x4B339, offset: 0x4B339, size: 0x8, addend: 0x0, symName: __ZSt7forwardIRiEOT_RNSt16remove_referenceIS1_E4typeE, symObjAddr: 0xA264, symBinAddr: 0x10000C92C, symSize: 0x14 }
  - { offsetInCU: 0x4B36F, offset: 0x4B36F, size: 0x8, addend: 0x0, symName: __ZNSt8_Rb_treeIiSt4pairIKiS0_IiiEESt10_Select1stIS3_ESt4lessIiESaIS3_EE22_M_emplace_hint_uniqueIJRKSt21piecewise_construct_tSt5tupleIJRS1_EESE_IJEEEEESt17_Rb_tree_iteratorIS3_ESt23_Rb_tree_const_iteratorIS3_EDpOT_, symObjAddr: 0xA18C, symBinAddr: 0x10000C854, symSize: 0xD8 }
  - { offsetInCU: 0x4B47C, offset: 0x4B47C, size: 0x8, addend: 0x0, symName: __ZNSt23_Rb_tree_const_iteratorISt4pairIKiS0_IiiEEEC1ERKSt17_Rb_tree_iteratorIS3_E, symObjAddr: 0xA164, symBinAddr: 0x10000C82C, symSize: 0x28 }
  - { offsetInCU: 0x4B45D, offset: 0x4B45D, size: 0x8, addend: 0x0, symName: __ZNKSt3mapIiSt4pairIiiESt4lessIiESaIS0_IKiS1_EEE8key_compEv, symObjAddr: 0xA138, symBinAddr: 0x10000C800, symSize: 0x2C }
  - { offsetInCU: 0x4B487, offset: 0x4B487, size: 0x8, addend: 0x0, symName: __ZNSt3mapIiSt4pairIiiESt4lessIiESaIS0_IKiS1_EEE11lower_boundERS4_, symObjAddr: 0xA114, symBinAddr: 0x10000C7DC, symSize: 0x24 }
  - { offsetInCU: 0x4B4C5, offset: 0x4B4C5, size: 0x8, addend: 0x0, symName: __ZSteqRKSt23_Rb_tree_const_iteratorISt4pairIKiS0_IiiEEES6_, symObjAddr: 0xA0E4, symBinAddr: 0x10000C7AC, symSize: 0x30 }
  - { offsetInCU: 0x4B504, offset: 0x4B504, size: 0x8, addend: 0x0, symName: __ZNKSt8_Rb_treeIiSt4pairIKiS0_IiiEESt10_Select1stIS3_ESt4lessIiESaIS3_EE3endEv, symObjAddr: 0xA0BC, symBinAddr: 0x10000C784, symSize: 0x28 }
  - { offsetInCU: 0x4B52E, offset: 0x4B52E, size: 0x8, addend: 0x0, symName: __ZNKSt8_Rb_treeIiSt4pairIKiS0_IiiEESt10_Select1stIS3_ESt4lessIiESaIS3_EE4findERS1_, symObjAddr: 0xA014, symBinAddr: 0x10000C6DC, symSize: 0xA8 }
  - { offsetInCU: 0x4B57A, offset: 0x4B57A, size: 0x8, addend: 0x0, symName: __ZNSt6vectorIiSaIiEE15_M_range_insertISt23_Rb_tree_const_iteratorIiEEEvN9__gnu_cxx17__normal_iteratorIPiS1_EET_S9_St20forward_iterator_tag, symObjAddr: 0x9C10, symBinAddr: 0x10000C2D8, symSize: 0x404 }
  - { offsetInCU: 0x4B7E0, offset: 0x4B7E0, size: 0x8, addend: 0x0, symName: __ZNKSt8_Rb_treeIiiSt9_IdentityIiESt4lessIiESaIiEE3endEv, symObjAddr: 0x9BE8, symBinAddr: 0x10000C2B0, symSize: 0x28 }
  - { offsetInCU: 0x4B80A, offset: 0x4B80A, size: 0x8, addend: 0x0, symName: __ZNKSt8_Rb_treeIiiSt9_IdentityIiESt4lessIiESaIiEE5beginEv, symObjAddr: 0x9BC0, symBinAddr: 0x10000C288, symSize: 0x28 }
  - { offsetInCU: 0x4B834, offset: 0x4B834, size: 0x8, addend: 0x0, symName: __ZNSt8_Rb_treeIiiSt9_IdentityIiESt4lessIiESaIiEE8_M_beginEv, symObjAddr: 0x9BA4, symBinAddr: 0x10000C26C, symSize: 0x1C }
  - { offsetInCU: 0x4B85E, offset: 0x4B85E, size: 0x8, addend: 0x0, symName: __ZNSt8_Rb_treeIiiSt9_IdentityIiESt4lessIiESaIiEE8_M_eraseEPSt13_Rb_tree_nodeIiE, symObjAddr: 0x9B40, symBinAddr: 0x10000C208, symSize: 0x64 }
  - { offsetInCU: 0x4B8BD, offset: 0x4B8BD, size: 0x8, addend: 0x0, symName: __ZNSt8_Rb_treeIiiSt9_IdentityIiESt4lessIiESaIiEE7_M_copyERKS5_, symObjAddr: 0x9B08, symBinAddr: 0x10000C1D0, symSize: 0x38 }
  - { offsetInCU: 0x4B909, offset: 0x4B909, size: 0x8, addend: 0x0, symName: __ZNSt8_Rb_treeIiiSt9_IdentityIiESt4lessIiESaIiEE7_M_rootEv, symObjAddr: 0x9AF0, symBinAddr: 0x10000C1B8, symSize: 0x18 }
  - { offsetInCU: 0x4B933, offset: 0x4B933, size: 0x8, addend: 0x0, symName: __ZNKSt8_Rb_treeIiiSt9_IdentityIiESt4lessIiESaIiEE7_M_rootEv, symObjAddr: 0x9AD8, symBinAddr: 0x10000C1A0, symSize: 0x18 }
  - { offsetInCU: 0x4B9F2, offset: 0x4B9F2, size: 0x8, addend: 0x0, symName: __ZNSt8_Rb_treeIiiSt9_IdentityIiESt4lessIiESaIiEE13_Rb_tree_implIS3_Lb1EEC1ERKS7_, symObjAddr: 0x9A38, symBinAddr: 0x10000C100, symSize: 0xA0 }
  - { offsetInCU: 0x4BAEE, offset: 0x4BAEE, size: 0x8, addend: 0x0, symName: __ZNSt13_Rb_tree_nodeISt4pairIKiSt8multisetIiSt4lessIiESaIiEEEE9_M_valptrEv, symObjAddr: 0x9A18, symBinAddr: 0x10000C0E0, symSize: 0x20 }
  - { offsetInCU: 0x4BB18, offset: 0x4BB18, size: 0x8, addend: 0x0, symName: __ZNSt8_Rb_treeIiSt4pairIKiSt8multisetIiSt4lessIiESaIiEEESt10_Select1stIS7_ES4_SaIS7_EE3endEv, symObjAddr: 0x99F0, symBinAddr: 0x10000C0B8, symSize: 0x28 }
  - { offsetInCU: 0x4BB42, offset: 0x4BB42, size: 0x8, addend: 0x0, symName: __ZNSt8_Rb_treeIiSt4pairIKiSt8multisetIiSt4lessIiESaIiEEESt10_Select1stIS7_ES4_SaIS7_EE5beginEv, symObjAddr: 0x99C8, symBinAddr: 0x10000C090, symSize: 0x28 }
  - { offsetInCU: 0x4BB6C, offset: 0x4BB6C, size: 0x8, addend: 0x0, symName: __ZNSt8_Rb_treeIiSt4pairIKiSt8multisetIiSt4lessIiESaIiEEESt10_Select1stIS7_ES4_SaIS7_EE8_M_beginEv, symObjAddr: 0x99AC, symBinAddr: 0x10000C074, symSize: 0x1C }
  - { offsetInCU: 0x4BB96, offset: 0x4BB96, size: 0x8, addend: 0x0, symName: __ZNSt8_Rb_treeIiSt4pairIKiSt8multisetIiSt4lessIiESaIiEEESt10_Select1stIS7_ES4_SaIS7_EE8_M_eraseEPSt13_Rb_tree_nodeIS7_E, symObjAddr: 0x9948, symBinAddr: 0x10000C010, symSize: 0x64 }
  - { offsetInCU: 0x4BBF5, offset: 0x4BBF5, size: 0x8, addend: 0x0, symName: __ZNSt8_Rb_treeIiSt4pairIKiSt8multisetIiSt4lessIiESaIiEEESt10_Select1stIS7_ES4_SaIS7_EE7_M_copyERKSB_, symObjAddr: 0x9910, symBinAddr: 0x10000BFD8, symSize: 0x38 }
  - { offsetInCU: 0x4BC41, offset: 0x4BC41, size: 0x8, addend: 0x0, symName: __ZNSt8_Rb_treeIiSt4pairIKiSt8multisetIiSt4lessIiESaIiEEESt10_Select1stIS7_ES4_SaIS7_EE7_M_rootEv, symObjAddr: 0x98F8, symBinAddr: 0x10000BFC0, symSize: 0x18 }
  - { offsetInCU: 0x4BC6B, offset: 0x4BC6B, size: 0x8, addend: 0x0, symName: __ZNKSt8_Rb_treeIiSt4pairIKiSt8multisetIiSt4lessIiESaIiEEESt10_Select1stIS7_ES4_SaIS7_EE7_M_rootEv, symObjAddr: 0x98E0, symBinAddr: 0x10000BFA8, symSize: 0x18 }
  - { offsetInCU: 0x4BD50, offset: 0x4BD50, size: 0x8, addend: 0x0, symName: __ZNSt8_Rb_treeIiSt4pairIKiSt8multisetIiSt4lessIiESaIiEEESt10_Select1stIS7_ES4_SaIS7_EE13_Rb_tree_implIS4_Lb1EEC1ERKSD_, symObjAddr: 0x9840, symBinAddr: 0x10000BF08, symSize: 0xA0 }
  - { offsetInCU: 0x4BE26, offset: 0x4BE26, size: 0x8, addend: 0x0, symName: __ZNSt13_Rb_tree_nodeISt4pairIKiSt3mapIiSt8multisetIiSt4lessIiESaIiEES5_SaIS0_IS1_S7_EEEEE9_M_valptrEv, symObjAddr: 0x9820, symBinAddr: 0x10000BEE8, symSize: 0x20 }
  - { offsetInCU: 0x4BE50, offset: 0x4BE50, size: 0x8, addend: 0x0, symName: __ZNSt8_Rb_treeIiSt4pairIKiSt3mapIiSt8multisetIiSt4lessIiESaIiEES5_SaIS0_IS1_S7_EEEESt10_Select1stISB_ES5_SaISB_EE3endEv, symObjAddr: 0x97F8, symBinAddr: 0x10000BEC0, symSize: 0x28 }
  - { offsetInCU: 0x4BE7A, offset: 0x4BE7A, size: 0x8, addend: 0x0, symName: __ZNSt8_Rb_treeIiSt4pairIKiSt3mapIiSt8multisetIiSt4lessIiESaIiEES5_SaIS0_IS1_S7_EEEESt10_Select1stISB_ES5_SaISB_EE5beginEv, symObjAddr: 0x97D0, symBinAddr: 0x10000BE98, symSize: 0x28 }
  - { offsetInCU: 0x4BF07, offset: 0x4BF07, size: 0x8, addend: 0x0, symName: __ZNSt23_Rb_tree_const_iteratorIiEC1ERKSt17_Rb_tree_iteratorIiE, symObjAddr: 0x97A8, symBinAddr: 0x10000BE70, symSize: 0x28 }
  - { offsetInCU: 0x4BEFB, offset: 0x4BEFB, size: 0x8, addend: 0x0, symName: __ZNSt8_Rb_treeIiiSt9_IdentityIiESt4lessIiESaIiEE15_M_insert_equalIRKiEESt17_Rb_tree_iteratorIiEOT_, symObjAddr: 0x9730, symBinAddr: 0x10000BDF8, symSize: 0x78 }
  - { offsetInCU: 0x4BF61, offset: 0x4BF61, size: 0x8, addend: 0x0, symName: __ZNSt8_Rb_treeIiSt4pairIKiSt8multisetIiSt4lessIiESaIiEEESt10_Select1stIS7_ES4_SaIS7_EE22_M_emplace_hint_uniqueIJRKSt21piecewise_construct_tSt5tupleIJRS1_EESG_IJEEEEESt17_Rb_tree_iteratorIS7_ESt23_Rb_tree_const_iteratorIS7_EDpOT_, symObjAddr: 0x9658, symBinAddr: 0x10000BD20, symSize: 0xD8 }
  - { offsetInCU: 0x4C084, offset: 0x4C084, size: 0x8, addend: 0x0, symName: __ZNSt23_Rb_tree_const_iteratorISt4pairIKiSt8multisetIiSt4lessIiESaIiEEEEC1ERKSt17_Rb_tree_iteratorIS7_E, symObjAddr: 0x9630, symBinAddr: 0x10000BCF8, symSize: 0x28 }
  - { offsetInCU: 0x4C04F, offset: 0x4C04F, size: 0x8, addend: 0x0, symName: __ZNKSt3mapIiSt8multisetIiSt4lessIiESaIiEES2_SaISt4pairIKiS4_EEE8key_compEv, symObjAddr: 0x9604, symBinAddr: 0x10000BCCC, symSize: 0x2C }
  - { offsetInCU: 0x4C07C, offset: 0x4C07C, size: 0x8, addend: 0x0, symName: __ZSteqRKSt17_Rb_tree_iteratorISt4pairIKiSt8multisetIiSt4lessIiESaIiEEEESA_, symObjAddr: 0x95D4, symBinAddr: 0x10000BC9C, symSize: 0x30 }
  - { offsetInCU: 0x4C0BB, offset: 0x4C0BB, size: 0x8, addend: 0x0, symName: __ZNSt3mapIiSt8multisetIiSt4lessIiESaIiEES2_SaISt4pairIKiS4_EEE11lower_boundERS6_, symObjAddr: 0x95B0, symBinAddr: 0x10000BC78, symSize: 0x24 }
  - { offsetInCU: 0x4C0F6, offset: 0x4C0F6, size: 0x8, addend: 0x0, symName: __ZNSt8_Rb_treeIiSt4pairIKiSt3mapIiSt8multisetIiSt4lessIiESaIiEES5_SaIS0_IS1_S7_EEEESt10_Select1stISB_ES5_SaISB_EE22_M_emplace_hint_uniqueIJRKSt21piecewise_construct_tSt5tupleIJRS1_EESK_IJEEEEESt17_Rb_tree_iteratorISB_ESt23_Rb_tree_const_iteratorISB_EDpOT_, symObjAddr: 0x94D8, symBinAddr: 0x10000BBA0, symSize: 0xD8 }
  - { offsetInCU: 0x4C234, offset: 0x4C234, size: 0x8, addend: 0x0, symName: __ZNSt23_Rb_tree_const_iteratorISt4pairIKiSt3mapIiSt8multisetIiSt4lessIiESaIiEES5_SaIS0_IS1_S7_EEEEEC1ERKSt17_Rb_tree_iteratorISB_E, symObjAddr: 0x94B0, symBinAddr: 0x10000BB78, symSize: 0x28 }
  - { offsetInCU: 0x4C1E4, offset: 0x4C1E4, size: 0x8, addend: 0x0, symName: __ZNKSt3mapIiS_IiSt8multisetIiSt4lessIiESaIiEES2_SaISt4pairIKiS4_EEES2_SaIS5_IS6_S9_EEE8key_compEv, symObjAddr: 0x9484, symBinAddr: 0x10000BB4C, symSize: 0x2C }
  - { offsetInCU: 0x4C211, offset: 0x4C211, size: 0x8, addend: 0x0, symName: __ZSteqRKSt17_Rb_tree_iteratorISt4pairIKiSt3mapIiSt8multisetIiSt4lessIiESaIiEES5_SaIS0_IS1_S7_EEEEESE_, symObjAddr: 0x9454, symBinAddr: 0x10000BB1C, symSize: 0x30 }
  - { offsetInCU: 0x4C250, offset: 0x4C250, size: 0x8, addend: 0x0, symName: __ZNSt3mapIiS_IiSt8multisetIiSt4lessIiESaIiEES2_SaISt4pairIKiS4_EEES2_SaIS5_IS6_S9_EEE11lower_boundERS6_, symObjAddr: 0x9430, symBinAddr: 0x10000BAF8, symSize: 0x24 }
  - { offsetInCU: 0x4C28B, offset: 0x4C28B, size: 0x8, addend: 0x0, symName: __ZNSt5dequeISt4pairIP8TreeNodeS0_IiiEESaIS4_EE9pop_frontEv, symObjAddr: 0x93A8, symBinAddr: 0x10000BA70, symSize: 0x88 }
  - { offsetInCU: 0x4C30F, offset: 0x4C30F, size: 0x8, addend: 0x0, symName: __ZNSt5dequeISt4pairIP8TreeNodeS0_IiiEESaIS4_EE5frontEv, symObjAddr: 0x937C, symBinAddr: 0x10000BA44, symSize: 0x2C }
  - { offsetInCU: 0x4C339, offset: 0x4C339, size: 0x8, addend: 0x0, symName: __ZNKSt5dequeISt4pairIP8TreeNodeS0_IiiEESaIS4_EE5emptyEv, symObjAddr: 0x934C, symBinAddr: 0x10000BA14, symSize: 0x30 }
  - { offsetInCU: 0x4C363, offset: 0x4C363, size: 0x8, addend: 0x0, symName: __ZNSt5dequeISt4pairIP8TreeNodeS0_IiiEESaIS4_EE9push_backEOS4_, symObjAddr: 0x931C, symBinAddr: 0x10000B9E4, symSize: 0x30 }
  - { offsetInCU: 0x4C3A1, offset: 0x4C3A1, size: 0x8, addend: 0x0, symName: __ZSt4moveIRSt4pairIP8TreeNodeS0_IiiEEEONSt16remove_referenceIT_E4typeEOS7_, symObjAddr: 0x9308, symBinAddr: 0x10000B9D0, symSize: 0x14 }
  - { offsetInCU: 0x4C3D7, offset: 0x4C3D7, size: 0x8, addend: 0x0, symName: __ZNSt5dequeISt4pairIP8TreeNodeS0_IiiEESaIS4_EE15_M_destroy_dataESt15_Deque_iteratorIS4_RS4_PS4_ESA_RKS5_, symObjAddr: 0x92E8, symBinAddr: 0x10000B9B0, symSize: 0x20 }
  - { offsetInCU: 0x4C432, offset: 0x4C432, size: 0x8, addend: 0x0, symName: __ZNSt11_Deque_baseISt4pairIP8TreeNodeS0_IiiEESaIS4_EE19_M_get_Tp_allocatorEv, symObjAddr: 0x92D4, symBinAddr: 0x10000B99C, symSize: 0x14 }
  - { offsetInCU: 0x4C45C, offset: 0x4C45C, size: 0x8, addend: 0x0, symName: __ZNSt5dequeISt4pairIP8TreeNodeS0_IiiEESaIS4_EE3endEv, symObjAddr: 0x929C, symBinAddr: 0x10000B964, symSize: 0x38 }
  - { offsetInCU: 0x4C486, offset: 0x4C486, size: 0x8, addend: 0x0, symName: __ZNSt5dequeISt4pairIP8TreeNodeS0_IiiEESaIS4_EE5beginEv, symObjAddr: 0x9264, symBinAddr: 0x10000B92C, symSize: 0x38 }
  - { offsetInCU: 0x4C50A, offset: 0x4C50A, size: 0x8, addend: 0x0, symName: __ZNSt11_Deque_baseISt4pairIP8TreeNodeS0_IiiEESaIS4_EED2Ev, symObjAddr: 0x91F8, symBinAddr: 0x10000B8C0, symSize: 0x6C }
  - { offsetInCU: 0x4C54A, offset: 0x4C54A, size: 0x8, addend: 0x0, symName: __ZNSt11_Deque_baseISt4pairIP8TreeNodeS0_IiiEESaIS4_EEC2Ev, symObjAddr: 0x91B0, symBinAddr: 0x10000B878, symSize: 0x48 }
  - { offsetInCU: 0x4C5A5, offset: 0x4C5A5, size: 0x8, addend: 0x0, symName: __ZNSt11_Deque_baseISt4pairIP8TreeNodeS0_IiiEESaIS4_EE11_Deque_implD1Ev, symObjAddr: 0x9184, symBinAddr: 0x10000B84C, symSize: 0x2C }
  - { offsetInCU: 0x4C5AC, offset: 0x4C5AC, size: 0x8, addend: 0x0, symName: __ZNSt8_Rb_treeIiSt4pairIKiSt3mapIiSt8multisetIiSt4lessIiESaIiEES5_SaIS0_IS1_S7_EEEESt10_Select1stISB_ES5_SaISB_EE8_M_beginEv, symObjAddr: 0x9168, symBinAddr: 0x10000B830, symSize: 0x1C }
  - { offsetInCU: 0x4C5D6, offset: 0x4C5D6, size: 0x8, addend: 0x0, symName: __ZNSt8_Rb_treeIiSt4pairIKiSt3mapIiSt8multisetIiSt4lessIiESaIiEES5_SaIS0_IS1_S7_EEEESt10_Select1stISB_ES5_SaISB_EE8_M_eraseEPSt13_Rb_tree_nodeISB_E, symObjAddr: 0x9104, symBinAddr: 0x10000B7CC, symSize: 0x64 }
  - { offsetInCU: 0x4C6C8, offset: 0x4C6C8, size: 0x8, addend: 0x0, symName: __ZNSt15__new_allocatorISt13_Rb_tree_nodeISt4pairIKiSt3mapIiSt8multisetIiSt4lessIiESaIiEES6_SaIS1_IS2_S8_EEEEEED2Ev, symObjAddr: 0x90F0, symBinAddr: 0x10000B7B8, symSize: 0x14 }
  - { offsetInCU: 0x4C695, offset: 0x4C695, size: 0x8, addend: 0x0, symName: __ZNSt6vectorIiSaIiEE15_M_range_insertIN9__gnu_cxx17__normal_iteratorIPiS1_EEEEvS6_T_S7_St20forward_iterator_tag, symObjAddr: 0x8CDC, symBinAddr: 0x10000B3A4, symSize: 0x414 }
  - { offsetInCU: 0x4C948, offset: 0x4C948, size: 0x8, addend: 0x0, symName: __ZNK9__gnu_cxx17__normal_iteratorIPiSt6vectorIiSaIiEEEplEl, symObjAddr: 0x8C9C, symBinAddr: 0x10000B364, symSize: 0x40 }
  - { offsetInCU: 0x4C986, offset: 0x4C986, size: 0x8, addend: 0x0, symName: __ZN9__gnu_cxxmiIPKiSt6vectorIiSaIiEEEENS_17__normal_iteratorIT_T0_E15difference_typeERKS9_SC_, symObjAddr: 0x8C5C, symBinAddr: 0x10000B324, symSize: 0x40 }
  - { offsetInCU: 0x4C9D7, offset: 0x4C9D7, size: 0x8, addend: 0x0, symName: __ZNKSt6vectorIiSaIiEE6cbeginEv, symObjAddr: 0x8C38, symBinAddr: 0x10000B300, symSize: 0x24 }
  - { offsetInCU: 0x4CA01, offset: 0x4CA01, size: 0x8, addend: 0x0, symName: __ZNK9__gnu_cxx17__normal_iteratorIPiSt6vectorIiSaIiEEE4baseEv, symObjAddr: 0x8C24, symBinAddr: 0x10000B2EC, symSize: 0x14 }
  - { offsetInCU: 0x4CA2B, offset: 0x4CA2B, size: 0x8, addend: 0x0, symName: __ZNSt13_Rb_tree_nodeISt4pairIKiSt6vectorIiSaIiEEEE9_M_valptrEv, symObjAddr: 0x8C04, symBinAddr: 0x10000B2CC, symSize: 0x20 }
  - { offsetInCU: 0x4CA55, offset: 0x4CA55, size: 0x8, addend: 0x0, symName: __ZNSt8_Rb_treeIiSt4pairIKiSt6vectorIiSaIiEEESt10_Select1stIS5_ESt4lessIiESaIS5_EE3endEv, symObjAddr: 0x8BDC, symBinAddr: 0x10000B2A4, symSize: 0x28 }
  - { offsetInCU: 0x4CA7F, offset: 0x4CA7F, size: 0x8, addend: 0x0, symName: __ZNSt8_Rb_treeIiSt4pairIKiSt6vectorIiSaIiEEESt10_Select1stIS5_ESt4lessIiESaIS5_EE5beginEv, symObjAddr: 0x8BB4, symBinAddr: 0x10000B27C, symSize: 0x28 }
  - { offsetInCU: 0x4CAA9, offset: 0x4CAA9, size: 0x8, addend: 0x0, symName: __ZNSt13_Rb_tree_nodeISt4pairIKiSt3mapIiSt6vectorIiSaIiEESt4lessIiESaIS0_IS1_S5_EEEEE9_M_valptrEv, symObjAddr: 0x8B94, symBinAddr: 0x10000B25C, symSize: 0x20 }
  - { offsetInCU: 0x4CAD3, offset: 0x4CAD3, size: 0x8, addend: 0x0, symName: __ZNSt8_Rb_treeIiSt4pairIKiSt3mapIiSt6vectorIiSaIiEESt4lessIiESaIS0_IS1_S5_EEEESt10_Select1stISB_ES7_SaISB_EE3endEv, symObjAddr: 0x8B6C, symBinAddr: 0x10000B234, symSize: 0x28 }
  - { offsetInCU: 0x4CAFD, offset: 0x4CAFD, size: 0x8, addend: 0x0, symName: __ZNSt8_Rb_treeIiSt4pairIKiSt3mapIiSt6vectorIiSaIiEESt4lessIiESaIS0_IS1_S5_EEEESt10_Select1stISB_ES7_SaISB_EE5beginEv, symObjAddr: 0x8B44, symBinAddr: 0x10000B20C, symSize: 0x28 }
  - { offsetInCU: 0x4CB27, offset: 0x4CB27, size: 0x8, addend: 0x0, symName: __ZNSt8_Rb_treeIiSt4pairIKiSt3mapIiSt6vectorIiSaIiEESt4lessIiESaIS0_IS1_S5_EEEESt10_Select1stISB_ES7_SaISB_EE8_M_beginEv, symObjAddr: 0x8B28, symBinAddr: 0x10000B1F0, symSize: 0x1C }
  - { offsetInCU: 0x4CB51, offset: 0x4CB51, size: 0x8, addend: 0x0, symName: __ZNSt8_Rb_treeIiSt4pairIKiSt3mapIiSt6vectorIiSaIiEESt4lessIiESaIS0_IS1_S5_EEEESt10_Select1stISB_ES7_SaISB_EE8_M_eraseEPSt13_Rb_tree_nodeISB_E, symObjAddr: 0x8AC4, symBinAddr: 0x10000B18C, symSize: 0x64 }
  - { offsetInCU: 0x4CC3E, offset: 0x4CC3E, size: 0x8, addend: 0x0, symName: __ZNSt15__new_allocatorISt13_Rb_tree_nodeISt4pairIKiSt3mapIiSt6vectorIiSaIiEESt4lessIiESaIS1_IS2_S6_EEEEEED2Ev, symObjAddr: 0x8AB0, symBinAddr: 0x10000B178, symSize: 0x14 }
  - { offsetInCU: 0x4CC3C, offset: 0x4CC3C, size: 0x8, addend: 0x0, symName: __ZNSt20_Rb_tree_key_compareISt4lessIiEEC2Ev, symObjAddr: 0x8A9C, symBinAddr: 0x10000B164, symSize: 0x14 }
  - { offsetInCU: 0x4CC50, offset: 0x4CC50, size: 0x8, addend: 0x0, symName: __ZNSt6vectorIiSaIiEE13_M_assign_auxIPKiEEvT_S5_St20forward_iterator_tag, symObjAddr: 0x8850, symBinAddr: 0x10000AF18, symSize: 0x24C }
  - { offsetInCU: 0x4CE6E, offset: 0x4CE6E, size: 0x8, addend: 0x0, symName: __ZNKSt16initializer_listIiE3endEv, symObjAddr: 0x8818, symBinAddr: 0x10000AEE0, symSize: 0x38 }
  - { offsetInCU: 0x4CE98, offset: 0x4CE98, size: 0x8, addend: 0x0, symName: __ZNKSt16initializer_listIiE5beginEv, symObjAddr: 0x8800, symBinAddr: 0x10000AEC8, symSize: 0x18 }
  - { offsetInCU: 0x4CEBE, offset: 0x4CEBE, size: 0x8, addend: 0x0, symName: __ZSt6__sortIN9__gnu_cxx17__normal_iteratorIPiSt6vectorIiSaIiEEEENS0_5__ops15_Iter_less_iterEEvT_S9_T0_, symObjAddr: 0x8788, symBinAddr: 0x10000AE50, symSize: 0x78 }
  - { offsetInCU: 0x4CF20, offset: 0x4CF20, size: 0x8, addend: 0x0, symName: __ZNSt8_Rb_treeIiSt4pairIKiSt6vectorIiSaIiEEESt10_Select1stIS5_ESt4lessIiESaIS5_EE22_M_emplace_hint_uniqueIJRKSt21piecewise_construct_tSt5tupleIJRS1_EESG_IJEEEEESt17_Rb_tree_iteratorIS5_ESt23_Rb_tree_const_iteratorIS5_EDpOT_, symObjAddr: 0x86B0, symBinAddr: 0x10000AD78, symSize: 0xD8 }
  - { offsetInCU: 0x4D037, offset: 0x4D037, size: 0x8, addend: 0x0, symName: __ZNSt23_Rb_tree_const_iteratorISt4pairIKiSt6vectorIiSaIiEEEEC1ERKSt17_Rb_tree_iteratorIS5_E, symObjAddr: 0x8688, symBinAddr: 0x10000AD50, symSize: 0x28 }
  - { offsetInCU: 0x4D00E, offset: 0x4D00E, size: 0x8, addend: 0x0, symName: __ZNKSt3mapIiSt6vectorIiSaIiEESt4lessIiESaISt4pairIKiS2_EEE8key_compEv, symObjAddr: 0x865C, symBinAddr: 0x10000AD24, symSize: 0x2C }
  - { offsetInCU: 0x4D03B, offset: 0x4D03B, size: 0x8, addend: 0x0, symName: __ZSteqRKSt17_Rb_tree_iteratorISt4pairIKiSt6vectorIiSaIiEEEES8_, symObjAddr: 0x862C, symBinAddr: 0x10000ACF4, symSize: 0x30 }
  - { offsetInCU: 0x4D07A, offset: 0x4D07A, size: 0x8, addend: 0x0, symName: __ZNSt3mapIiSt6vectorIiSaIiEESt4lessIiESaISt4pairIKiS2_EEE11lower_boundERS6_, symObjAddr: 0x8608, symBinAddr: 0x10000ACD0, symSize: 0x24 }
  - { offsetInCU: 0x4D0B8, offset: 0x4D0B8, size: 0x8, addend: 0x0, symName: __ZSteqRKSt23_Rb_tree_const_iteratorISt4pairIKiSt6vectorIiSaIiEEEES8_, symObjAddr: 0x85D8, symBinAddr: 0x10000ACA0, symSize: 0x30 }
  - { offsetInCU: 0x4D0F7, offset: 0x4D0F7, size: 0x8, addend: 0x0, symName: __ZNKSt8_Rb_treeIiSt4pairIKiSt6vectorIiSaIiEEESt10_Select1stIS5_ESt4lessIiESaIS5_EE3endEv, symObjAddr: 0x85B0, symBinAddr: 0x10000AC78, symSize: 0x28 }
  - { offsetInCU: 0x4D121, offset: 0x4D121, size: 0x8, addend: 0x0, symName: __ZNKSt8_Rb_treeIiSt4pairIKiSt6vectorIiSaIiEEESt10_Select1stIS5_ESt4lessIiESaIS5_EE4findERS1_, symObjAddr: 0x8508, symBinAddr: 0x10000ABD0, symSize: 0xA8 }
  - { offsetInCU: 0x4D16D, offset: 0x4D16D, size: 0x8, addend: 0x0, symName: __ZNSt8_Rb_treeIiSt4pairIKiSt3mapIiSt6vectorIiSaIiEESt4lessIiESaIS0_IS1_S5_EEEESt10_Select1stISB_ES7_SaISB_EE22_M_emplace_hint_uniqueIJRKSt21piecewise_construct_tSt5tupleIJRS1_EESK_IJEEEEESt17_Rb_tree_iteratorISB_ESt23_Rb_tree_const_iteratorISB_EDpOT_, symObjAddr: 0x8430, symBinAddr: 0x10000AAF8, symSize: 0xD8 }
  - { offsetInCU: 0x4D2A6, offset: 0x4D2A6, size: 0x8, addend: 0x0, symName: __ZNSt23_Rb_tree_const_iteratorISt4pairIKiSt3mapIiSt6vectorIiSaIiEESt4lessIiESaIS0_IS1_S5_EEEEEC1ERKSt17_Rb_tree_iteratorISB_E, symObjAddr: 0x8408, symBinAddr: 0x10000AAD0, symSize: 0x28 }
  - { offsetInCU: 0x4D2AC, offset: 0x4D2AC, size: 0x8, addend: 0x0, symName: __ZNSt5tupleIJRKiEEC1ILb1ELb1EEES1_, symObjAddr: 0x83E0, symBinAddr: 0x10000AAA8, symSize: 0x28 }
  - { offsetInCU: 0x4D2C6, offset: 0x4D2C6, size: 0x8, addend: 0x0, symName: __ZNKSt4lessIiEclERKiS2_, symObjAddr: 0x83AC, symBinAddr: 0x10000AA74, symSize: 0x34 }
  - { offsetInCU: 0x4D312, offset: 0x4D312, size: 0x8, addend: 0x0, symName: __ZNKSt3mapIiS_IiSt6vectorIiSaIiEESt4lessIiESaISt4pairIKiS2_EEES4_SaIS5_IS6_S9_EEE8key_compEv, symObjAddr: 0x8380, symBinAddr: 0x10000AA48, symSize: 0x2C }
  - { offsetInCU: 0x4D33F, offset: 0x4D33F, size: 0x8, addend: 0x0, symName: __ZSteqRKSt17_Rb_tree_iteratorISt4pairIKiSt3mapIiSt6vectorIiSaIiEESt4lessIiESaIS0_IS1_S5_EEEEESE_, symObjAddr: 0x8350, symBinAddr: 0x10000AA18, symSize: 0x30 }
  - { offsetInCU: 0x4D37E, offset: 0x4D37E, size: 0x8, addend: 0x0, symName: __ZNSt3mapIiS_IiSt6vectorIiSaIiEESt4lessIiESaISt4pairIKiS2_EEES4_SaIS5_IS6_S9_EEE11lower_boundERS6_, symObjAddr: 0x832C, symBinAddr: 0x10000A9F4, symSize: 0x24 }
  - { offsetInCU: 0x4D3BC, offset: 0x4D3BC, size: 0x8, addend: 0x0, symName: __ZSteqRKSt23_Rb_tree_const_iteratorISt4pairIKiSt3mapIiSt6vectorIiSaIiEESt4lessIiESaIS0_IS1_S5_EEEEESE_, symObjAddr: 0x82FC, symBinAddr: 0x10000A9C4, symSize: 0x30 }
  - { offsetInCU: 0x4D3FB, offset: 0x4D3FB, size: 0x8, addend: 0x0, symName: __ZNKSt8_Rb_treeIiSt4pairIKiSt3mapIiSt6vectorIiSaIiEESt4lessIiESaIS0_IS1_S5_EEEESt10_Select1stISB_ES7_SaISB_EE3endEv, symObjAddr: 0x82D4, symBinAddr: 0x10000A99C, symSize: 0x28 }
  - { offsetInCU: 0x4D425, offset: 0x4D425, size: 0x8, addend: 0x0, symName: __ZNKSt8_Rb_treeIiSt4pairIKiSt3mapIiSt6vectorIiSaIiEESt4lessIiESaIS0_IS1_S5_EEEESt10_Select1stISB_ES7_SaISB_EE4findERS1_, symObjAddr: 0x822C, symBinAddr: 0x10000A8F4, symSize: 0xA8 }
  - { offsetInCU: 0x4D471, offset: 0x4D471, size: 0x8, addend: 0x0, symName: __ZNSt5dequeIiSaIiEE8pop_backEv, symObjAddr: 0x81A8, symBinAddr: 0x10000A870, symSize: 0x84 }
  - { offsetInCU: 0x4D4F5, offset: 0x4D4F5, size: 0x8, addend: 0x0, symName: __ZNSt5dequeIiSaIiEE4backEv, symObjAddr: 0x8174, symBinAddr: 0x10000A83C, symSize: 0x34 }
  - { offsetInCU: 0x4D530, offset: 0x4D530, size: 0x8, addend: 0x0, symName: __ZNKSt5dequeIiSaIiEE5emptyEv, symObjAddr: 0x8144, symBinAddr: 0x10000A80C, symSize: 0x30 }
  - { offsetInCU: 0x4D55A, offset: 0x4D55A, size: 0x8, addend: 0x0, symName: __ZNSt5dequeIiSaIiEE15_M_destroy_dataESt15_Deque_iteratorIiRiPiES5_RKS0_, symObjAddr: 0x8124, symBinAddr: 0x10000A7EC, symSize: 0x20 }
  - { offsetInCU: 0x4D5B5, offset: 0x4D5B5, size: 0x8, addend: 0x0, symName: __ZNSt11_Deque_baseIiSaIiEE19_M_get_Tp_allocatorEv, symObjAddr: 0x8110, symBinAddr: 0x10000A7D8, symSize: 0x14 }
  - { offsetInCU: 0x4D5DF, offset: 0x4D5DF, size: 0x8, addend: 0x0, symName: __ZNSt5dequeIiSaIiEE3endEv, symObjAddr: 0x80D8, symBinAddr: 0x10000A7A0, symSize: 0x38 }
  - { offsetInCU: 0x4D609, offset: 0x4D609, size: 0x8, addend: 0x0, symName: __ZNSt5dequeIiSaIiEE5beginEv, symObjAddr: 0x80A0, symBinAddr: 0x10000A768, symSize: 0x38 }
  - { offsetInCU: 0x4D672, offset: 0x4D672, size: 0x8, addend: 0x0, symName: __ZNSt11_Deque_baseIiSaIiEED2Ev, symObjAddr: 0x8034, symBinAddr: 0x10000A6FC, symSize: 0x6C }
  - { offsetInCU: 0x4D6B2, offset: 0x4D6B2, size: 0x8, addend: 0x0, symName: __ZNSt11_Deque_baseIiSaIiEEC2Ev, symObjAddr: 0x7FEC, symBinAddr: 0x10000A6B4, symSize: 0x48 }
  - { offsetInCU: 0x4D70D, offset: 0x4D70D, size: 0x8, addend: 0x0, symName: __ZNSt11_Deque_baseIiSaIiEE11_Deque_implD1Ev, symObjAddr: 0x7FC0, symBinAddr: 0x10000A688, symSize: 0x2C }
  - { offsetInCU: 0x4D72F, offset: 0x4D72F, size: 0x8, addend: 0x0, symName: __ZNSt5dequeIiSaIiEE9push_backERKi, symObjAddr: 0x7EF4, symBinAddr: 0x10000A5BC, symSize: 0xCC }
  - { offsetInCU: 0x4D7D6, offset: 0x4D7D6, size: 0x8, addend: 0x0, symName: __ZNSt6vectorIiSaIiEE21_M_default_initializeEm, symObjAddr: 0x7EA4, symBinAddr: 0x10000A56C, symSize: 0x50 }
  - { offsetInCU: 0x4D868, offset: 0x4D868, size: 0x8, addend: 0x0, symName: __ZNSt12_Vector_baseIiSaIiEEC2EmRKS0_, symObjAddr: 0x7E50, symBinAddr: 0x10000A518, symSize: 0x54 }
  - { offsetInCU: 0x4D87B, offset: 0x4D87B, size: 0x8, addend: 0x0, symName: __ZNSt6vectorIiSaIiEE17_S_check_init_lenEmRKS0_, symObjAddr: 0x7DCC, symBinAddr: 0x10000A494, symSize: 0x84 }
  - { offsetInCU: 0x4D947, offset: 0x4D947, size: 0x8, addend: 0x0, symName: __ZNSt5dequeIP8TreeNodeSaIS1_EE15_M_pop_back_auxEv, symObjAddr: 0x7D34, symBinAddr: 0x10000A3FC, symSize: 0x98 }
  - { offsetInCU: 0x4D9CB, offset: 0x4D9CB, size: 0x8, addend: 0x0, symName: __ZNSt5dequeIP8TreeNodeSaIS1_EE17_M_push_front_auxIJRKS1_EEEvDpOT_, symObjAddr: 0x7C10, symBinAddr: 0x10000A2D8, symSize: 0x124 }
  - { offsetInCU: 0x4DA7C, offset: 0x4DA7C, size: 0x8, addend: 0x0, symName: __ZNSt15_Deque_iteratorIP8TreeNodeRS1_PS1_EmmEv, symObjAddr: 0x7BA4, symBinAddr: 0x10000A26C, symSize: 0x6C }
  - { offsetInCU: 0x4DAA6, offset: 0x4DAA6, size: 0x8, addend: 0x0, symName: __ZNSt5dequeIP8TreeNodeSaIS1_EE16_M_pop_front_auxEv, symObjAddr: 0x7B10, symBinAddr: 0x10000A1D8, symSize: 0x94 }
  - { offsetInCU: 0x4DB57, offset: 0x4DB57, size: 0x8, addend: 0x0, symName: __ZNKSt15_Deque_iteratorIP8TreeNodeRS1_PS1_EdeEv, symObjAddr: 0x7AF8, symBinAddr: 0x10000A1C0, symSize: 0x18 }
  - { offsetInCU: 0x4DB84, offset: 0x4DB84, size: 0x8, addend: 0x0, symName: __ZStmiRKSt15_Deque_iteratorIP8TreeNodeRS1_PS1_ES6_, symObjAddr: 0x7A64, symBinAddr: 0x10000A12C, symSize: 0x94 }
  - { offsetInCU: 0x4DBBF, offset: 0x4DBBF, size: 0x8, addend: 0x0, symName: __ZSteqRKSt15_Deque_iteratorIP8TreeNodeRS1_PS1_ES6_, symObjAddr: 0x7A34, symBinAddr: 0x10000A0FC, symSize: 0x30 }
  - { offsetInCU: 0x4DBFE, offset: 0x4DBFE, size: 0x8, addend: 0x0, symName: __ZNSt5dequeIP8TreeNodeSaIS1_EE16_M_push_back_auxIJRKS1_EEEvDpOT_, symObjAddr: 0x7914, symBinAddr: 0x100009FDC, symSize: 0x120 }
  - { offsetInCU: 0x4DCF3, offset: 0x4DCF3, size: 0x8, addend: 0x0, symName: __ZNSt11_Deque_baseIP8TreeNodeSaIS1_EE17_M_deallocate_mapEPPS1_m, symObjAddr: 0x78B4, symBinAddr: 0x100009F7C, symSize: 0x60 }
  - { offsetInCU: 0x4DDA4, offset: 0x4DDA4, size: 0x8, addend: 0x0, symName: __ZNSt11_Deque_baseIP8TreeNodeSaIS1_EE16_M_destroy_nodesEPPS1_S5_, symObjAddr: 0x7854, symBinAddr: 0x100009F1C, symSize: 0x60 }
  - { offsetInCU: 0x4DE14, offset: 0x4DE14, size: 0x8, addend: 0x0, symName: __ZNSt11_Deque_baseIP8TreeNodeSaIS1_EE17_M_initialize_mapEm, symObjAddr: 0x76C8, symBinAddr: 0x100009D90, symSize: 0x18C }
  - { offsetInCU: 0x4DEEF, offset: 0x4DEEF, size: 0x8, addend: 0x0, symName: __ZNSt11_Deque_baseIP8TreeNodeSaIS1_EE11_Deque_implC1Ev, symObjAddr: 0x7690, symBinAddr: 0x100009D58, symSize: 0x38 }
  - { offsetInCU: 0x4DF25, offset: 0x4DF25, size: 0x8, addend: 0x0, symName: __ZSt9__reverseIN9__gnu_cxx17__normal_iteratorIPiSt6vectorIiSaIiEEEEEvT_S7_St26random_access_iterator_tag, symObjAddr: 0x7614, symBinAddr: 0x100009CDC, symSize: 0x7C }
  - { offsetInCU: 0x4DFEE, offset: 0x4DFEE, size: 0x8, addend: 0x0, symName: __ZN9__gnu_cxx17__normal_iteratorIPiSt6vectorIiSaIiEEEC1ERKS1_, symObjAddr: 0x75EC, symBinAddr: 0x100009CB4, symSize: 0x28 }
  - { offsetInCU: 0x4DFE3, offset: 0x4DFE3, size: 0x8, addend: 0x0, symName: __ZNSt5dequeISt4pairIP8TreeNodeiESaIS3_EE9push_backERKS3_, symObjAddr: 0x7520, symBinAddr: 0x100009BE8, symSize: 0xCC }
  - { offsetInCU: 0x4E08A, offset: 0x4E08A, size: 0x8, addend: 0x0, symName: __ZNSt5dequeISt4pairIP8TreeNodeiESaIS3_EE8pop_backEv, symObjAddr: 0x749C, symBinAddr: 0x100009B64, symSize: 0x84 }
  - { offsetInCU: 0x4E10E, offset: 0x4E10E, size: 0x8, addend: 0x0, symName: __ZNSt5dequeISt4pairIP8TreeNodeiESaIS3_EE4backEv, symObjAddr: 0x7468, symBinAddr: 0x100009B30, symSize: 0x34 }
  - { offsetInCU: 0x4E149, offset: 0x4E149, size: 0x8, addend: 0x0, symName: __ZNKSt5dequeISt4pairIP8TreeNodeiESaIS3_EE5emptyEv, symObjAddr: 0x7438, symBinAddr: 0x100009B00, symSize: 0x30 }
  - { offsetInCU: 0x4E173, offset: 0x4E173, size: 0x8, addend: 0x0, symName: __ZNSt5dequeISt4pairIP8TreeNodeiESaIS3_EE9push_backEOS3_, symObjAddr: 0x7408, symBinAddr: 0x100009AD0, symSize: 0x30 }
  - { offsetInCU: 0x4E1B1, offset: 0x4E1B1, size: 0x8, addend: 0x0, symName: __ZSt4moveIRSt4pairIP8TreeNodeiEEONSt16remove_referenceIT_E4typeEOS6_, symObjAddr: 0x73F4, symBinAddr: 0x100009ABC, symSize: 0x14 }
  - { offsetInCU: 0x4E1EA, offset: 0x4E1EA, size: 0x8, addend: 0x0, symName: __ZSt7forwardIRP8TreeNodeEOT_RNSt16remove_referenceIS3_E4typeE, symObjAddr: 0x73E0, symBinAddr: 0x100009AA8, symSize: 0x14 }
  - { offsetInCU: 0x4E220, offset: 0x4E220, size: 0x8, addend: 0x0, symName: __ZNSt5dequeISt4pairIP8TreeNodeiESaIS3_EE15_M_destroy_dataESt15_Deque_iteratorIS3_RS3_PS3_ES9_RKS4_, symObjAddr: 0x73C0, symBinAddr: 0x100009A88, symSize: 0x20 }
  - { offsetInCU: 0x4E27B, offset: 0x4E27B, size: 0x8, addend: 0x0, symName: __ZNSt11_Deque_baseISt4pairIP8TreeNodeiESaIS3_EE19_M_get_Tp_allocatorEv, symObjAddr: 0x73AC, symBinAddr: 0x100009A74, symSize: 0x14 }
  - { offsetInCU: 0x4E2A5, offset: 0x4E2A5, size: 0x8, addend: 0x0, symName: __ZNSt5dequeISt4pairIP8TreeNodeiESaIS3_EE3endEv, symObjAddr: 0x7374, symBinAddr: 0x100009A3C, symSize: 0x38 }
  - { offsetInCU: 0x4E2CF, offset: 0x4E2CF, size: 0x8, addend: 0x0, symName: __ZNSt5dequeISt4pairIP8TreeNodeiESaIS3_EE5beginEv, symObjAddr: 0x733C, symBinAddr: 0x100009A04, symSize: 0x38 }
  - { offsetInCU: 0x4E34D, offset: 0x4E34D, size: 0x8, addend: 0x0, symName: __ZNSt11_Deque_baseISt4pairIP8TreeNodeiESaIS3_EED2Ev, symObjAddr: 0x72D0, symBinAddr: 0x100009998, symSize: 0x6C }
  - { offsetInCU: 0x4E38D, offset: 0x4E38D, size: 0x8, addend: 0x0, symName: __ZNSt11_Deque_baseISt4pairIP8TreeNodeiESaIS3_EEC2Ev, symObjAddr: 0x7288, symBinAddr: 0x100009950, symSize: 0x48 }
  - { offsetInCU: 0x4E3E8, offset: 0x4E3E8, size: 0x8, addend: 0x0, symName: __ZNSt11_Deque_baseISt4pairIP8TreeNodeiESaIS3_EE11_Deque_implD1Ev, symObjAddr: 0x725C, symBinAddr: 0x100009924, symSize: 0x2C }
  - { offsetInCU: 0x4E3F5, offset: 0x4E3F5, size: 0x8, addend: 0x0, symName: __ZNSt6vectorIiSaIiEE15_M_erase_at_endEPi, symObjAddr: 0x71D4, symBinAddr: 0x10000989C, symSize: 0x88 }
  - { offsetInCU: 0x4E48A, offset: 0x4E48A, size: 0x8, addend: 0x0, symName: __ZNSt6vectorIS_IiSaIiEESaIS1_EE17_M_realloc_appendIJRKS1_EEEvDpOT_, symObjAddr: 0x6FAC, symBinAddr: 0x100009674, symSize: 0x228 }
  - { offsetInCU: 0x4E664, offset: 0x4E664, size: 0x8, addend: 0x0, symName: __ZZNSt6vectorIS_IiSaIiEESaIS1_EE17_M_realloc_appendIJRKS1_EEEvDpOT_EN6_GuardC1EPS1_mRS2_, symObjAddr: 0x6F08, symBinAddr: 0x1000095D0, symSize: 0x44 }
  - { offsetInCU: 0x4E6A2, offset: 0x4E6A2, size: 0x8, addend: 0x0, symName: __ZZNSt6vectorIS_IiSaIiEESaIS1_EE17_M_realloc_appendIJRKS1_EEEvDpOT_EN6_GuardD1Ev, symObjAddr: 0x6F4C, symBinAddr: 0x100009614, symSize: 0x60 }
  - { offsetInCU: 0x4E787, offset: 0x4E787, size: 0x8, addend: 0x0, symName: __ZNSt5dequeIP8TreeNodeSaIS1_EE9push_backEOS1_, symObjAddr: 0x6ED8, symBinAddr: 0x1000095A0, symSize: 0x30 }
  - { offsetInCU: 0x4E7C5, offset: 0x4E7C5, size: 0x8, addend: 0x0, symName: __ZSt4moveIRP8TreeNodeEONSt16remove_referenceIT_E4typeEOS4_, symObjAddr: 0x6EC4, symBinAddr: 0x10000958C, symSize: 0x14 }
  - { offsetInCU: 0x4E866, offset: 0x4E866, size: 0x8, addend: 0x0, symName: __ZNSt12_Vector_baseISt6vectorIiSaIiEESaIS2_EE17_Vector_impl_dataC2EOS5_, symObjAddr: 0x6E54, symBinAddr: 0x10000951C, symSize: 0x70 }
  - { offsetInCU: 0x4E87E, offset: 0x4E87E, size: 0x8, addend: 0x0, symName: __ZSt4moveIRNSt12_Vector_baseISt6vectorIiSaIiEESaIS3_EE12_Vector_implEEONSt16remove_referenceIT_E4typeEOS9_, symObjAddr: 0x6E40, symBinAddr: 0x100009508, symSize: 0x14 }
  - { offsetInCU: 0x4E8EF, offset: 0x4E8EF, size: 0x8, addend: 0x0, symName: __ZNSt12_Vector_baseISt6vectorIiSaIiEESaIS2_EE19_M_get_Tp_allocatorEv, symObjAddr: 0x6E2C, symBinAddr: 0x1000094F4, symSize: 0x14 }
  - { offsetInCU: 0x4E919, offset: 0x4E919, size: 0x8, addend: 0x0, symName: __ZNSt12_Vector_baseISt6vectorIiSaIiEESaIS2_EE13_M_deallocateEPS2_m, symObjAddr: 0x6DD4, symBinAddr: 0x10000949C, symSize: 0x58 }
  - { offsetInCU: 0x4E9E9, offset: 0x4E9E9, size: 0x8, addend: 0x0, symName: __ZNSt15__new_allocatorISt6vectorIiSaIiEEED2Ev, symObjAddr: 0x6DC0, symBinAddr: 0x100009488, symSize: 0x14 }
  - { offsetInCU: 0x4EA40, offset: 0x4EA40, size: 0x8, addend: 0x0, symName: __ZNSt12_Vector_baseISt6vectorIiSaIiEESaIS2_EE17_Vector_impl_dataC2Ev, symObjAddr: 0x6D94, symBinAddr: 0x10000945C, symSize: 0x2C }
  - { offsetInCU: 0x4EA3B, offset: 0x4EA3B, size: 0x8, addend: 0x0, symName: __ZNSt5dequeIP8TreeNodeSaIS1_EE15_M_destroy_dataESt15_Deque_iteratorIS1_RS1_PS1_ES7_RKS2_, symObjAddr: 0x6D74, symBinAddr: 0x10000943C, symSize: 0x20 }
  - { offsetInCU: 0x4EA96, offset: 0x4EA96, size: 0x8, addend: 0x0, symName: __ZNSt11_Deque_baseIP8TreeNodeSaIS1_EE19_M_get_Tp_allocatorEv, symObjAddr: 0x6D60, symBinAddr: 0x100009428, symSize: 0x14 }
  - { offsetInCU: 0x4EAC0, offset: 0x4EAC0, size: 0x8, addend: 0x0, symName: __ZNSt5dequeIP8TreeNodeSaIS1_EE3endEv, symObjAddr: 0x6D28, symBinAddr: 0x1000093F0, symSize: 0x38 }
  - { offsetInCU: 0x4EAEA, offset: 0x4EAEA, size: 0x8, addend: 0x0, symName: __ZNSt5dequeIP8TreeNodeSaIS1_EE5beginEv, symObjAddr: 0x6CF0, symBinAddr: 0x1000093B8, symSize: 0x38 }
  - { offsetInCU: 0x4EB6D, offset: 0x4EB6D, size: 0x8, addend: 0x0, symName: __ZNSt12_Vector_baseIiSaIiEE17_Vector_impl_dataC2EOS2_, symObjAddr: 0x6C80, symBinAddr: 0x100009348, symSize: 0x70 }
  - { offsetInCU: 0x4EB97, offset: 0x4EB97, size: 0x8, addend: 0x0, symName: __ZSt4moveIRNSt12_Vector_baseIiSaIiEE12_Vector_implEEONSt16remove_referenceIT_E4typeEOS6_, symObjAddr: 0x6C6C, symBinAddr: 0x100009334, symSize: 0x14 }
  - { offsetInCU: 0x4EC08, offset: 0x4EC08, size: 0x8, addend: 0x0, symName: __ZNSt12_Vector_baseIiSaIiEE19_M_get_Tp_allocatorEv, symObjAddr: 0x6C58, symBinAddr: 0x100009320, symSize: 0x14 }
  - { offsetInCU: 0x4EC32, offset: 0x4EC32, size: 0x8, addend: 0x0, symName: __ZNSt12_Vector_baseIiSaIiEE13_M_deallocateEPim, symObjAddr: 0x6C00, symBinAddr: 0x1000092C8, symSize: 0x58 }
  - { offsetInCU: 0x4ECF2, offset: 0x4ECF2, size: 0x8, addend: 0x0, symName: __ZNSt15__new_allocatorIiED2Ev, symObjAddr: 0x6BEC, symBinAddr: 0x1000092B4, symSize: 0x14 }
  - { offsetInCU: 0x4ED47, offset: 0x4ED47, size: 0x8, addend: 0x0, symName: __ZNSt12_Vector_baseIiSaIiEE17_Vector_impl_dataC2Ev, symObjAddr: 0x6BC0, symBinAddr: 0x100009288, symSize: 0x2C }
  - { offsetInCU: 0x4ED3E, offset: 0x4ED3E, size: 0x8, addend: 0x0, symName: __ZNSt6vectorIiSaIiEE17_M_realloc_appendIJRKiEEEvDpOT_, symObjAddr: 0x6A04, symBinAddr: 0x1000090CC, symSize: 0x1BC }
  - { offsetInCU: 0x4EF09, offset: 0x4EF09, size: 0x8, addend: 0x0, symName: __ZZNSt6vectorIiSaIiEE17_M_realloc_appendIJRKiEEEvDpOT_EN6_GuardC1EPimRS0_, symObjAddr: 0x6960, symBinAddr: 0x100009028, symSize: 0x44 }
  - { offsetInCU: 0x4EF49, offset: 0x4EF49, size: 0x8, addend: 0x0, symName: __ZZNSt6vectorIiSaIiEE17_M_realloc_appendIJRKiEEEvDpOT_EN6_GuardD1Ev, symObjAddr: 0x69A4, symBinAddr: 0x10000906C, symSize: 0x60 }
  - { offsetInCU: 0x4F07D, offset: 0x4F07D, size: 0x8, addend: 0x0, symName: __ZNSt15__new_allocatorIcED2Ev, symObjAddr: 0x694C, symBinAddr: 0x100009014, symSize: 0x14 }
  - { offsetInCU: 0x4F124, offset: 0x4F124, size: 0x8, addend: 0x0, symName: __ZNSt7__cxx1112basic_stringIcSt11char_traitsIcESaIcEEC1IS3_EEmcRKS3_, symObjAddr: 0x68D8, symBinAddr: 0x100008FA0, symSize: 0x74 }
  - { offsetInCU: 0x4F127, offset: 0x4F127, size: 0x8, addend: 0x0, symName: __ZSteqRKSt17_Rb_tree_iteratorISt4pairIKiS0_IiiEEES6_, symObjAddr: 0x68A8, symBinAddr: 0x100008F70, symSize: 0x30 }
  - { offsetInCU: 0x4F166, offset: 0x4F166, size: 0x8, addend: 0x0, symName: __ZNSt3mapIiSt4pairIiiESt4lessIiESaIS0_IKiS1_EEE4findERS4_, symObjAddr: 0x6884, symBinAddr: 0x100008F4C, symSize: 0x24 }
  - { offsetInCU: 0x4F1A1, offset: 0x4F1A1, size: 0x8, addend: 0x0, symName: __ZNKSt17_Rb_tree_iteratorISt4pairIKiiEEdeEv, symObjAddr: 0x6864, symBinAddr: 0x100008F2C, symSize: 0x20 }
  - { offsetInCU: 0x4F1CB, offset: 0x4F1CB, size: 0x8, addend: 0x0, symName: __ZNSt17_Rb_tree_iteratorISt4pairIKiiEEppEv, symObjAddr: 0x6834, symBinAddr: 0x100008EFC, symSize: 0x30 }
  - { offsetInCU: 0x4F1F8, offset: 0x4F1F8, size: 0x8, addend: 0x0, symName: __ZStneRKSt17_Rb_tree_iteratorISt4pairIKiiEES5_, symObjAddr: 0x6804, symBinAddr: 0x100008ECC, symSize: 0x30 }
  - { offsetInCU: 0x4F237, offset: 0x4F237, size: 0x8, addend: 0x0, symName: __ZNSt3mapIiiSt4lessIiESaISt4pairIKiiEEE5beginEv, symObjAddr: 0x67E8, symBinAddr: 0x100008EB0, symSize: 0x1C }
  - { offsetInCU: 0x4F261, offset: 0x4F261, size: 0x8, addend: 0x0, symName: __ZNSt3mapIiiSt4lessIiESaISt4pairIKiiEEEixERS3_, symObjAddr: 0x66FC, symBinAddr: 0x100008DC4, symSize: 0xEC }
  - { offsetInCU: 0x4F2A9, offset: 0x4F2A9, size: 0x8, addend: 0x0, symName: __ZSteqRKSt17_Rb_tree_iteratorISt4pairIKiiEES5_, symObjAddr: 0x66CC, symBinAddr: 0x100008D94, symSize: 0x30 }
  - { offsetInCU: 0x4F2E8, offset: 0x4F2E8, size: 0x8, addend: 0x0, symName: __ZNSt3mapIiiSt4lessIiESaISt4pairIKiiEEE3endEv, symObjAddr: 0x66B0, symBinAddr: 0x100008D78, symSize: 0x1C }
  - { offsetInCU: 0x4F312, offset: 0x4F312, size: 0x8, addend: 0x0, symName: __ZNSt3mapIiiSt4lessIiESaISt4pairIKiiEEE4findERS3_, symObjAddr: 0x668C, symBinAddr: 0x100008D54, symSize: 0x24 }
  - { offsetInCU: 0x4F34D, offset: 0x4F34D, size: 0x8, addend: 0x0, symName: __ZNSt5queueISt4pairIP8TreeNodeiESt5dequeIS3_SaIS3_EEE3popEv, symObjAddr: 0x666C, symBinAddr: 0x100008D34, symSize: 0x20 }
  - { offsetInCU: 0x4F377, offset: 0x4F377, size: 0x8, addend: 0x0, symName: __ZNSt5queueISt4pairIP8TreeNodeiESt5dequeIS3_SaIS3_EEE5frontEv, symObjAddr: 0x6650, symBinAddr: 0x100008D18, symSize: 0x1C }
  - { offsetInCU: 0x4F3A1, offset: 0x4F3A1, size: 0x8, addend: 0x0, symName: __ZNKSt5queueISt4pairIP8TreeNodeiESt5dequeIS3_SaIS3_EEE5emptyEv, symObjAddr: 0x6634, symBinAddr: 0x100008CFC, symSize: 0x1C }
  - { offsetInCU: 0x4F3CB, offset: 0x4F3CB, size: 0x8, addend: 0x0, symName: __ZNSt5queueISt4pairIP8TreeNodeiESt5dequeIS3_SaIS3_EEE4pushEOS3_, symObjAddr: 0x65F8, symBinAddr: 0x100008CC0, symSize: 0x3C }
  - { offsetInCU: 0x4F46A, offset: 0x4F46A, size: 0x8, addend: 0x0, symName: __ZNSt5queueISt4pairIP8TreeNodeiESt5dequeIS3_SaIS3_EEEC1IS6_vEEv, symObjAddr: 0x65BC, symBinAddr: 0x100008C84, symSize: 0x3C }
  - { offsetInCU: 0x4F4C8, offset: 0x4F4C8, size: 0x8, addend: 0x0, symName: __ZNSt8_Rb_treeIiSt4pairIKiiESt10_Select1stIS2_ESt4lessIiESaIS2_EED1Ev, symObjAddr: 0x6588, symBinAddr: 0x100008C50, symSize: 0x34 }
  - { offsetInCU: 0x4F540, offset: 0x4F540, size: 0x8, addend: 0x0, symName: __ZNSt8_Rb_treeIiSt4pairIKiiESt10_Select1stIS2_ESt4lessIiESaIS2_EE13_Rb_tree_implIS6_Lb1EEC1Ev, symObjAddr: 0x6544, symBinAddr: 0x100008C0C, symSize: 0x44 }
  - { offsetInCU: 0x4F553, offset: 0x4F553, size: 0x8, addend: 0x0, symName: __ZNKSt17_Rb_tree_iteratorISt4pairIKiS0_IiiEEEdeEv, symObjAddr: 0x6524, symBinAddr: 0x100008BEC, symSize: 0x20 }
  - { offsetInCU: 0x4F57D, offset: 0x4F57D, size: 0x8, addend: 0x0, symName: __ZNSt17_Rb_tree_iteratorISt4pairIKiS0_IiiEEEppEv, symObjAddr: 0x64F4, symBinAddr: 0x100008BBC, symSize: 0x30 }
  - { offsetInCU: 0x4F5A3, offset: 0x4F5A3, size: 0x8, addend: 0x0, symName: __ZStneRKSt17_Rb_tree_iteratorISt4pairIKiS0_IiiEEES6_, symObjAddr: 0x64C4, symBinAddr: 0x100008B8C, symSize: 0x30 }
  - { offsetInCU: 0x4F5E2, offset: 0x4F5E2, size: 0x8, addend: 0x0, symName: __ZNSt3mapIiSt4pairIiiESt4lessIiESaIS0_IKiS1_EEE3endEv, symObjAddr: 0x64A8, symBinAddr: 0x100008B70, symSize: 0x1C }
  - { offsetInCU: 0x4F60C, offset: 0x4F60C, size: 0x8, addend: 0x0, symName: __ZNSt3mapIiSt4pairIiiESt4lessIiESaIS0_IKiS1_EEE5beginEv, symObjAddr: 0x648C, symBinAddr: 0x100008B54, symSize: 0x1C }
  - { offsetInCU: 0x4F6A2, offset: 0x4F6A2, size: 0x8, addend: 0x0, symName: __ZNSt8_Rb_treeIiSt4pairIKiS0_IiiEESt10_Select1stIS3_ESt4lessIiESaIS3_EED1Ev, symObjAddr: 0x6458, symBinAddr: 0x100008B20, symSize: 0x34 }
  - { offsetInCU: 0x4F71A, offset: 0x4F71A, size: 0x8, addend: 0x0, symName: __ZNSt8_Rb_treeIiSt4pairIKiS0_IiiEESt10_Select1stIS3_ESt4lessIiESaIS3_EE13_Rb_tree_implIS7_Lb1EEC1Ev, symObjAddr: 0x6414, symBinAddr: 0x100008ADC, symSize: 0x44 }
  - { offsetInCU: 0x4F727, offset: 0x4F727, size: 0x8, addend: 0x0, symName: __ZNSt4pairIiiEaSEOS0_, symObjAddr: 0x63CC, symBinAddr: 0x100008A94, symSize: 0x48 }
  - { offsetInCU: 0x4F7CA, offset: 0x4F7CA, size: 0x8, addend: 0x0, symName: __ZNSt4pairIiiEC1IRiS2_Lb1EEEOT_OT0_, symObjAddr: 0x6384, symBinAddr: 0x100008A4C, symSize: 0x48 }
  - { offsetInCU: 0x4F7F4, offset: 0x4F7F4, size: 0x8, addend: 0x0, symName: __ZNSt3mapIiSt4pairIiiESt4lessIiESaIS0_IKiS1_EEEixERS4_, symObjAddr: 0x6298, symBinAddr: 0x100008960, symSize: 0xEC }
  - { offsetInCU: 0x4F840, offset: 0x4F840, size: 0x8, addend: 0x0, symName: __ZNKSt3mapIiSt4pairIiiESt4lessIiESaIS0_IKiS1_EEE5countERS4_, symObjAddr: 0x6240, symBinAddr: 0x100008908, symSize: 0x58 }
  - { offsetInCU: 0x4F87B, offset: 0x4F87B, size: 0x8, addend: 0x0, symName: __ZNSt6vectorIiSaIiEE6insertISt23_Rb_tree_const_iteratorIiEvEEN9__gnu_cxx17__normal_iteratorIPiS1_EENS6_IPKiS1_EET_SC_, symObjAddr: 0x61B0, symBinAddr: 0x100008878, symSize: 0x90 }
  - { offsetInCU: 0x4F915, offset: 0x4F915, size: 0x8, addend: 0x0, symName: __ZNKSt8multisetIiSt4lessIiESaIiEE3endEv, symObjAddr: 0x6194, symBinAddr: 0x10000885C, symSize: 0x1C }
  - { offsetInCU: 0x4F93F, offset: 0x4F93F, size: 0x8, addend: 0x0, symName: __ZNKSt8multisetIiSt4lessIiESaIiEE5beginEv, symObjAddr: 0x6178, symBinAddr: 0x100008840, symSize: 0x1C }
  - { offsetInCU: 0x4F9BE, offset: 0x4F9BE, size: 0x8, addend: 0x0, symName: __ZNSt8_Rb_treeIiiSt9_IdentityIiESt4lessIiESaIiEED1Ev, symObjAddr: 0x6144, symBinAddr: 0x10000880C, symSize: 0x34 }
  - { offsetInCU: 0x4FA10, offset: 0x4FA10, size: 0x8, addend: 0x0, symName: __ZNSt8_Rb_treeIiiSt9_IdentityIiESt4lessIiESaIiEEC1ERKS5_, symObjAddr: 0x60C0, symBinAddr: 0x100008788, symSize: 0x84 }
  - { offsetInCU: 0x4FA7B, offset: 0x4FA7B, size: 0x8, addend: 0x0, symName: __ZNSt8_Rb_treeIiiSt9_IdentityIiESt4lessIiESaIiEE13_Rb_tree_implIS3_Lb1EED1Ev, symObjAddr: 0x6094, symBinAddr: 0x10000875C, symSize: 0x2C }
  - { offsetInCU: 0x4FA7C, offset: 0x4FA7C, size: 0x8, addend: 0x0, symName: __ZNKSt17_Rb_tree_iteratorISt4pairIKiSt8multisetIiSt4lessIiESaIiEEEEdeEv, symObjAddr: 0x6074, symBinAddr: 0x10000873C, symSize: 0x20 }
  - { offsetInCU: 0x4FAA6, offset: 0x4FAA6, size: 0x8, addend: 0x0, symName: __ZNSt17_Rb_tree_iteratorISt4pairIKiSt8multisetIiSt4lessIiESaIiEEEEppEv, symObjAddr: 0x6044, symBinAddr: 0x10000870C, symSize: 0x30 }
  - { offsetInCU: 0x4FACC, offset: 0x4FACC, size: 0x8, addend: 0x0, symName: __ZStneRKSt17_Rb_tree_iteratorISt4pairIKiSt8multisetIiSt4lessIiESaIiEEEESA_, symObjAddr: 0x6014, symBinAddr: 0x1000086DC, symSize: 0x30 }
  - { offsetInCU: 0x4FB0B, offset: 0x4FB0B, size: 0x8, addend: 0x0, symName: __ZNSt3mapIiSt8multisetIiSt4lessIiESaIiEES2_SaISt4pairIKiS4_EEE3endEv, symObjAddr: 0x5FF8, symBinAddr: 0x1000086C0, symSize: 0x1C }
  - { offsetInCU: 0x4FB35, offset: 0x4FB35, size: 0x8, addend: 0x0, symName: __ZNSt3mapIiSt8multisetIiSt4lessIiESaIiEES2_SaISt4pairIKiS4_EEE5beginEv, symObjAddr: 0x5FDC, symBinAddr: 0x1000086A4, symSize: 0x1C }
  - { offsetInCU: 0x4FBDA, offset: 0x4FBDA, size: 0x8, addend: 0x0, symName: __ZNSt8_Rb_treeIiSt4pairIKiSt8multisetIiSt4lessIiESaIiEEESt10_Select1stIS7_ES4_SaIS7_EED1Ev, symObjAddr: 0x5FA8, symBinAddr: 0x100008670, symSize: 0x34 }
  - { offsetInCU: 0x4FC2C, offset: 0x4FC2C, size: 0x8, addend: 0x0, symName: __ZNSt8_Rb_treeIiSt4pairIKiSt8multisetIiSt4lessIiESaIiEEESt10_Select1stIS7_ES4_SaIS7_EEC1ERKSB_, symObjAddr: 0x5F24, symBinAddr: 0x1000085EC, symSize: 0x84 }
  - { offsetInCU: 0x4FC97, offset: 0x4FC97, size: 0x8, addend: 0x0, symName: __ZNSt8_Rb_treeIiSt4pairIKiSt8multisetIiSt4lessIiESaIiEEESt10_Select1stIS7_ES4_SaIS7_EE13_Rb_tree_implIS4_Lb1EED1Ev, symObjAddr: 0x5EF8, symBinAddr: 0x1000085C0, symSize: 0x2C }
  - { offsetInCU: 0x4FC72, offset: 0x4FC72, size: 0x8, addend: 0x0, symName: __ZNKSt17_Rb_tree_iteratorISt4pairIKiSt3mapIiSt8multisetIiSt4lessIiESaIiEES5_SaIS0_IS1_S7_EEEEEdeEv, symObjAddr: 0x5ED8, symBinAddr: 0x1000085A0, symSize: 0x20 }
  - { offsetInCU: 0x4FC9C, offset: 0x4FC9C, size: 0x8, addend: 0x0, symName: __ZNSt17_Rb_tree_iteratorISt4pairIKiSt3mapIiSt8multisetIiSt4lessIiESaIiEES5_SaIS0_IS1_S7_EEEEEppEv, symObjAddr: 0x5EA8, symBinAddr: 0x100008570, symSize: 0x30 }
  - { offsetInCU: 0x4FCC2, offset: 0x4FCC2, size: 0x8, addend: 0x0, symName: __ZStneRKSt17_Rb_tree_iteratorISt4pairIKiSt3mapIiSt8multisetIiSt4lessIiESaIiEES5_SaIS0_IS1_S7_EEEEESE_, symObjAddr: 0x5E78, symBinAddr: 0x100008540, symSize: 0x30 }
  - { offsetInCU: 0x4FD01, offset: 0x4FD01, size: 0x8, addend: 0x0, symName: __ZNSt3mapIiS_IiSt8multisetIiSt4lessIiESaIiEES2_SaISt4pairIKiS4_EEES2_SaIS5_IS6_S9_EEE3endEv, symObjAddr: 0x5E5C, symBinAddr: 0x100008524, symSize: 0x1C }
  - { offsetInCU: 0x4FD2B, offset: 0x4FD2B, size: 0x8, addend: 0x0, symName: __ZNSt3mapIiS_IiSt8multisetIiSt4lessIiESaIiEES2_SaISt4pairIKiS4_EEES2_SaIS5_IS6_S9_EEE5beginEv, symObjAddr: 0x5E40, symBinAddr: 0x100008508, symSize: 0x1C }
  - { offsetInCU: 0x4FD55, offset: 0x4FD55, size: 0x8, addend: 0x0, symName: __ZNSt8multisetIiSt4lessIiESaIiEE6insertERKi, symObjAddr: 0x5E08, symBinAddr: 0x1000084D0, symSize: 0x38 }
  - { offsetInCU: 0x4FD90, offset: 0x4FD90, size: 0x8, addend: 0x0, symName: __ZNSt3mapIiSt8multisetIiSt4lessIiESaIiEES2_SaISt4pairIKiS4_EEEixERS6_, symObjAddr: 0x5D1C, symBinAddr: 0x1000083E4, symSize: 0xEC }
  - { offsetInCU: 0x4FDDC, offset: 0x4FDDC, size: 0x8, addend: 0x0, symName: __ZNSt3mapIiS_IiSt8multisetIiSt4lessIiESaIiEES2_SaISt4pairIKiS4_EEES2_SaIS5_IS6_S9_EEEixERS6_, symObjAddr: 0x5C30, symBinAddr: 0x1000082F8, symSize: 0xEC }
  - { offsetInCU: 0x4FE28, offset: 0x4FE28, size: 0x8, addend: 0x0, symName: __ZNSt5queueISt4pairIP8TreeNodeS0_IiiEESt5dequeIS4_SaIS4_EEE3popEv, symObjAddr: 0x5C10, symBinAddr: 0x1000082D8, symSize: 0x20 }
  - { offsetInCU: 0x4FE52, offset: 0x4FE52, size: 0x8, addend: 0x0, symName: __ZNSt5queueISt4pairIP8TreeNodeS0_IiiEESt5dequeIS4_SaIS4_EEE5frontEv, symObjAddr: 0x5BF4, symBinAddr: 0x1000082BC, symSize: 0x1C }
  - { offsetInCU: 0x4FE7C, offset: 0x4FE7C, size: 0x8, addend: 0x0, symName: __ZNKSt5queueISt4pairIP8TreeNodeS0_IiiEESt5dequeIS4_SaIS4_EEE5emptyEv, symObjAddr: 0x5BD8, symBinAddr: 0x1000082A0, symSize: 0x1C }
  - { offsetInCU: 0x4FEA6, offset: 0x4FEA6, size: 0x8, addend: 0x0, symName: __ZNSt5queueISt4pairIP8TreeNodeS0_IiiEESt5dequeIS4_SaIS4_EEE4pushEOS4_, symObjAddr: 0x5B9C, symBinAddr: 0x100008264, symSize: 0x3C }
  - { offsetInCU: 0x4FF5B, offset: 0x4FF5B, size: 0x8, addend: 0x0, symName: __ZNSt4pairIP8TreeNodeS_IiiEEC1IS1_S2_Lb1EEERKS1_RKS2_, symObjAddr: 0x5B60, symBinAddr: 0x100008228, symSize: 0x3C }
  - { offsetInCU: 0x4FFD8, offset: 0x4FFD8, size: 0x8, addend: 0x0, symName: __ZNSt4pairIiiEC1IiiLb1EEEOT_OT0_, symObjAddr: 0x5B18, symBinAddr: 0x1000081E0, symSize: 0x48 }
  - { offsetInCU: 0x50058, offset: 0x50058, size: 0x8, addend: 0x0, symName: __ZNSt5dequeISt4pairIP8TreeNodeS0_IiiEESaIS4_EED1Ev, symObjAddr: 0x5AB0, symBinAddr: 0x100008178, symSize: 0x68 }
  - { offsetInCU: 0x500BA, offset: 0x500BA, size: 0x8, addend: 0x0, symName: __ZNSt5queueISt4pairIP8TreeNodeS0_IiiEESt5dequeIS4_SaIS4_EEEC1IS7_vEEv, symObjAddr: 0x5A74, symBinAddr: 0x10000813C, symSize: 0x3C }
  - { offsetInCU: 0x500F5, offset: 0x500F5, size: 0x8, addend: 0x0, symName: __ZNSt5dequeISt4pairIP8TreeNodeS0_IiiEESaIS4_EEC1Ev, symObjAddr: 0x5A54, symBinAddr: 0x10000811C, symSize: 0x20 }
  - { offsetInCU: 0x50182, offset: 0x50182, size: 0x8, addend: 0x0, symName: __ZNSt8_Rb_treeIiSt4pairIKiSt3mapIiSt8multisetIiSt4lessIiESaIiEES5_SaIS0_IS1_S7_EEEESt10_Select1stISB_ES5_SaISB_EED1Ev, symObjAddr: 0x5A20, symBinAddr: 0x1000080E8, symSize: 0x34 }
  - { offsetInCU: 0x501FA, offset: 0x501FA, size: 0x8, addend: 0x0, symName: __ZNSt8_Rb_treeIiSt4pairIKiSt3mapIiSt8multisetIiSt4lessIiESaIiEES5_SaIS0_IS1_S7_EEEESt10_Select1stISB_ES5_SaISB_EE13_Rb_tree_implIS5_Lb1EEC1Ev, symObjAddr: 0x59DC, symBinAddr: 0x1000080A4, symSize: 0x44 }
  - { offsetInCU: 0x501DD, offset: 0x501DD, size: 0x8, addend: 0x0, symName: __ZNSt6vectorIiSaIiEE6insertIN9__gnu_cxx17__normal_iteratorIPiS1_EEvEES6_NS4_IPKiS1_EET_SA_, symObjAddr: 0x594C, symBinAddr: 0x100008014, symSize: 0x90 }
  - { offsetInCU: 0x502F1, offset: 0x502F1, size: 0x8, addend: 0x0, symName: __ZN9__gnu_cxx17__normal_iteratorIPKiSt6vectorIiSaIiEEEC1IPivEERKNS0_IT_S5_EE, symObjAddr: 0x591C, symBinAddr: 0x100007FE4, symSize: 0x30 }
  - { offsetInCU: 0x502E0, offset: 0x502E0, size: 0x8, addend: 0x0, symName: __ZNKSt17_Rb_tree_iteratorISt4pairIKiSt6vectorIiSaIiEEEEdeEv, symObjAddr: 0x58FC, symBinAddr: 0x100007FC4, symSize: 0x20 }
  - { offsetInCU: 0x5030A, offset: 0x5030A, size: 0x8, addend: 0x0, symName: __ZNSt17_Rb_tree_iteratorISt4pairIKiSt6vectorIiSaIiEEEEppEv, symObjAddr: 0x58CC, symBinAddr: 0x100007F94, symSize: 0x30 }
  - { offsetInCU: 0x50330, offset: 0x50330, size: 0x8, addend: 0x0, symName: __ZStneRKSt17_Rb_tree_iteratorISt4pairIKiSt6vectorIiSaIiEEEES8_, symObjAddr: 0x589C, symBinAddr: 0x100007F64, symSize: 0x30 }
  - { offsetInCU: 0x5036F, offset: 0x5036F, size: 0x8, addend: 0x0, symName: __ZNSt3mapIiSt6vectorIiSaIiEESt4lessIiESaISt4pairIKiS2_EEE3endEv, symObjAddr: 0x5880, symBinAddr: 0x100007F48, symSize: 0x1C }
  - { offsetInCU: 0x50399, offset: 0x50399, size: 0x8, addend: 0x0, symName: __ZNSt3mapIiSt6vectorIiSaIiEESt4lessIiESaISt4pairIKiS2_EEE5beginEv, symObjAddr: 0x5864, symBinAddr: 0x100007F2C, symSize: 0x1C }
  - { offsetInCU: 0x503C3, offset: 0x503C3, size: 0x8, addend: 0x0, symName: __ZNKSt17_Rb_tree_iteratorISt4pairIKiSt3mapIiSt6vectorIiSaIiEESt4lessIiESaIS0_IS1_S5_EEEEEdeEv, symObjAddr: 0x5844, symBinAddr: 0x100007F0C, symSize: 0x20 }
  - { offsetInCU: 0x503ED, offset: 0x503ED, size: 0x8, addend: 0x0, symName: __ZNSt17_Rb_tree_iteratorISt4pairIKiSt3mapIiSt6vectorIiSaIiEESt4lessIiESaIS0_IS1_S5_EEEEEppEv, symObjAddr: 0x5814, symBinAddr: 0x100007EDC, symSize: 0x30 }
  - { offsetInCU: 0x50413, offset: 0x50413, size: 0x8, addend: 0x0, symName: __ZStneRKSt17_Rb_tree_iteratorISt4pairIKiSt3mapIiSt6vectorIiSaIiEESt4lessIiESaIS0_IS1_S5_EEEEESE_, symObjAddr: 0x57E4, symBinAddr: 0x100007EAC, symSize: 0x30 }
  - { offsetInCU: 0x50452, offset: 0x50452, size: 0x8, addend: 0x0, symName: __ZNSt3mapIiS_IiSt6vectorIiSaIiEESt4lessIiESaISt4pairIKiS2_EEES4_SaIS5_IS6_S9_EEE3endEv, symObjAddr: 0x57C8, symBinAddr: 0x100007E90, symSize: 0x1C }
  - { offsetInCU: 0x5047C, offset: 0x5047C, size: 0x8, addend: 0x0, symName: __ZNSt3mapIiS_IiSt6vectorIiSaIiEESt4lessIiESaISt4pairIKiS2_EEES4_SaIS5_IS6_S9_EEE5beginEv, symObjAddr: 0x57AC, symBinAddr: 0x100007E74, symSize: 0x1C }
  - { offsetInCU: 0x50537, offset: 0x50537, size: 0x8, addend: 0x0, symName: __ZNSt8_Rb_treeIiSt4pairIKiSt3mapIiSt6vectorIiSaIiEESt4lessIiESaIS0_IS1_S5_EEEESt10_Select1stISB_ES7_SaISB_EED1Ev, symObjAddr: 0x5778, symBinAddr: 0x100007E40, symSize: 0x34 }
  - { offsetInCU: 0x505AF, offset: 0x505AF, size: 0x8, addend: 0x0, symName: __ZNSt8_Rb_treeIiSt4pairIKiSt3mapIiSt6vectorIiSaIiEESt4lessIiESaIS0_IS1_S5_EEEESt10_Select1stISB_ES7_SaISB_EE13_Rb_tree_implIS7_Lb1EEC1Ev, symObjAddr: 0x5734, symBinAddr: 0x100007DFC, symSize: 0x44 }
  - { offsetInCU: 0x50597, offset: 0x50597, size: 0x8, addend: 0x0, symName: __ZNSt6vectorIiSaIiEEaSESt16initializer_listIiE, symObjAddr: 0x56E8, symBinAddr: 0x100007DB0, symSize: 0x4C }
  - { offsetInCU: 0x505CE, offset: 0x505CE, size: 0x8, addend: 0x0, symName: __ZSt4sortIN9__gnu_cxx17__normal_iteratorIPiSt6vectorIiSaIiEEEEEvT_S7_, symObjAddr: 0x56B0, symBinAddr: 0x100007D78, symSize: 0x38 }
  - { offsetInCU: 0x50616, offset: 0x50616, size: 0x8, addend: 0x0, symName: __ZNSt3mapIiSt6vectorIiSaIiEESt4lessIiESaISt4pairIKiS2_EEEixERS6_, symObjAddr: 0x55C4, symBinAddr: 0x100007C8C, symSize: 0xEC }
  - { offsetInCU: 0x50662, offset: 0x50662, size: 0x8, addend: 0x0, symName: __ZNKSt3mapIiSt6vectorIiSaIiEESt4lessIiESaISt4pairIKiS2_EEE5countERS6_, symObjAddr: 0x556C, symBinAddr: 0x100007C34, symSize: 0x58 }
  - { offsetInCU: 0x5069D, offset: 0x5069D, size: 0x8, addend: 0x0, symName: __ZNSt3mapIiS_IiSt6vectorIiSaIiEESt4lessIiESaISt4pairIKiS2_EEES4_SaIS5_IS6_S9_EEEixERS6_, symObjAddr: 0x5480, symBinAddr: 0x100007B48, symSize: 0xEC }
  - { offsetInCU: 0x506E9, offset: 0x506E9, size: 0x8, addend: 0x0, symName: __ZNKSt3mapIiS_IiSt6vectorIiSaIiEESt4lessIiESaISt4pairIKiS2_EEES4_SaIS5_IS6_S9_EEE5countERS6_, symObjAddr: 0x5428, symBinAddr: 0x100007AF0, symSize: 0x58 }
  - { offsetInCU: 0x50724, offset: 0x50724, size: 0x8, addend: 0x0, symName: __ZNKSt6vectorIiSaIiEE4sizeEv, symObjAddr: 0x5400, symBinAddr: 0x100007AC8, symSize: 0x28 }
  - { offsetInCU: 0x5074E, offset: 0x5074E, size: 0x8, addend: 0x0, symName: __ZNSt5stackIiSt5dequeIiSaIiEEE3popEv, symObjAddr: 0x53E0, symBinAddr: 0x100007AA8, symSize: 0x20 }
  - { offsetInCU: 0x50778, offset: 0x50778, size: 0x8, addend: 0x0, symName: __ZNSt5stackIiSt5dequeIiSaIiEEE3topEv, symObjAddr: 0x53C4, symBinAddr: 0x100007A8C, symSize: 0x1C }
  - { offsetInCU: 0x507A2, offset: 0x507A2, size: 0x8, addend: 0x0, symName: __ZNKSt5stackIiSt5dequeIiSaIiEEE5emptyEv, symObjAddr: 0x53A8, symBinAddr: 0x100007A70, symSize: 0x1C }
  - { offsetInCU: 0x50804, offset: 0x50804, size: 0x8, addend: 0x0, symName: __ZNSt5dequeIiSaIiEED1Ev, symObjAddr: 0x5340, symBinAddr: 0x100007A08, symSize: 0x68 }
  - { offsetInCU: 0x50864, offset: 0x50864, size: 0x8, addend: 0x0, symName: __ZNSt5stackIiSt5dequeIiSaIiEEEC1IS2_vEEv, symObjAddr: 0x5304, symBinAddr: 0x1000079CC, symSize: 0x3C }
  - { offsetInCU: 0x508A1, offset: 0x508A1, size: 0x8, addend: 0x0, symName: __ZNSt5dequeIiSaIiEEC1Ev, symObjAddr: 0x52E4, symBinAddr: 0x1000079AC, symSize: 0x20 }
  - { offsetInCU: 0x508B3, offset: 0x508B3, size: 0x8, addend: 0x0, symName: __ZNSt5stackIiSt5dequeIiSaIiEEE4pushERKi, symObjAddr: 0x52BC, symBinAddr: 0x100007984, symSize: 0x28 }
  - { offsetInCU: 0x508EE, offset: 0x508EE, size: 0x8, addend: 0x0, symName: __ZNSt6vectorIiSaIiEEixEm, symObjAddr: 0x5294, symBinAddr: 0x10000795C, symSize: 0x28 }
  - { offsetInCU: 0x50979, offset: 0x50979, size: 0x8, addend: 0x0, symName: __ZNSt6vectorIiSaIiEEC1EmRKS0_, symObjAddr: 0x522C, symBinAddr: 0x1000078F4, symSize: 0x68 }
  - { offsetInCU: 0x509AD, offset: 0x509AD, size: 0x8, addend: 0x0, symName: __ZNSt5dequeIP8TreeNodeSaIS1_EE8pop_backEv, symObjAddr: 0x51A8, symBinAddr: 0x100007870, symSize: 0x84 }
  - { offsetInCU: 0x50A31, offset: 0x50A31, size: 0x8, addend: 0x0, symName: __ZNSt5dequeIP8TreeNodeSaIS1_EE10push_frontERKS1_, symObjAddr: 0x50DC, symBinAddr: 0x1000077A4, symSize: 0xCC }
  - { offsetInCU: 0x50AD8, offset: 0x50AD8, size: 0x8, addend: 0x0, symName: __ZNSt5dequeIP8TreeNodeSaIS1_EE4backEv, symObjAddr: 0x50A8, symBinAddr: 0x100007770, symSize: 0x34 }
  - { offsetInCU: 0x50B13, offset: 0x50B13, size: 0x8, addend: 0x0, symName: __ZNSt5dequeIP8TreeNodeSaIS1_EE9pop_frontEv, symObjAddr: 0x5020, symBinAddr: 0x1000076E8, symSize: 0x88 }
  - { offsetInCU: 0x50B97, offset: 0x50B97, size: 0x8, addend: 0x0, symName: __ZNSt5dequeIP8TreeNodeSaIS1_EE5frontEv, symObjAddr: 0x4FF4, symBinAddr: 0x1000076BC, symSize: 0x2C }
  - { offsetInCU: 0x50BC1, offset: 0x50BC1, size: 0x8, addend: 0x0, symName: __ZNKSt5dequeIP8TreeNodeSaIS1_EE4sizeEv, symObjAddr: 0x4FC4, symBinAddr: 0x10000768C, symSize: 0x30 }
  - { offsetInCU: 0x50BEB, offset: 0x50BEB, size: 0x8, addend: 0x0, symName: __ZNKSt5dequeIP8TreeNodeSaIS1_EE5emptyEv, symObjAddr: 0x4F94, symBinAddr: 0x10000765C, symSize: 0x30 }
  - { offsetInCU: 0x50C15, offset: 0x50C15, size: 0x8, addend: 0x0, symName: __ZNSt5dequeIP8TreeNodeSaIS1_EE9push_backERKS1_, symObjAddr: 0x4EC8, symBinAddr: 0x100007590, symSize: 0xCC }
  - { offsetInCU: 0x50D06, offset: 0x50D06, size: 0x8, addend: 0x0, symName: __ZNSt11_Deque_baseIP8TreeNodeSaIS1_EED2Ev, symObjAddr: 0x4E5C, symBinAddr: 0x100007524, symSize: 0x6C }
  - { offsetInCU: 0x50D46, offset: 0x50D46, size: 0x8, addend: 0x0, symName: __ZNSt11_Deque_baseIP8TreeNodeSaIS1_EEC2Ev, symObjAddr: 0x4E14, symBinAddr: 0x1000074DC, symSize: 0x48 }
  - { offsetInCU: 0x50DA1, offset: 0x50DA1, size: 0x8, addend: 0x0, symName: __ZNSt11_Deque_baseIP8TreeNodeSaIS1_EE11_Deque_implD1Ev, symObjAddr: 0x4DE8, symBinAddr: 0x1000074B0, symSize: 0x2C }
  - { offsetInCU: 0x50DB4, offset: 0x50DB4, size: 0x8, addend: 0x0, symName: __ZSt7reverseIN9__gnu_cxx17__normal_iteratorIPiSt6vectorIiSaIiEEEEEvT_S7_, symObjAddr: 0x4DBC, symBinAddr: 0x100007484, symSize: 0x2C }
  - { offsetInCU: 0x50E1D, offset: 0x50E1D, size: 0x8, addend: 0x0, symName: __ZNSt6vectorIiSaIiEE3endEv, symObjAddr: 0x4D94, symBinAddr: 0x10000745C, symSize: 0x28 }
  - { offsetInCU: 0x50E47, offset: 0x50E47, size: 0x8, addend: 0x0, symName: __ZNSt6vectorIiSaIiEE5beginEv, symObjAddr: 0x4D70, symBinAddr: 0x100007438, symSize: 0x24 }
  - { offsetInCU: 0x50E71, offset: 0x50E71, size: 0x8, addend: 0x0, symName: __ZNSt5stackISt4pairIP8TreeNodeiESt5dequeIS3_SaIS3_EEE4pushERKS3_, symObjAddr: 0x4D48, symBinAddr: 0x100007410, symSize: 0x28 }
  - { offsetInCU: 0x50EAC, offset: 0x50EAC, size: 0x8, addend: 0x0, symName: __ZNSt5stackISt4pairIP8TreeNodeiESt5dequeIS3_SaIS3_EEE3popEv, symObjAddr: 0x4D28, symBinAddr: 0x1000073F0, symSize: 0x20 }
  - { offsetInCU: 0x50ED6, offset: 0x50ED6, size: 0x8, addend: 0x0, symName: __ZNSt5stackISt4pairIP8TreeNodeiESt5dequeIS3_SaIS3_EEE3topEv, symObjAddr: 0x4D0C, symBinAddr: 0x1000073D4, symSize: 0x1C }
  - { offsetInCU: 0x50F00, offset: 0x50F00, size: 0x8, addend: 0x0, symName: __ZNKSt5stackISt4pairIP8TreeNodeiESt5dequeIS3_SaIS3_EEE5emptyEv, symObjAddr: 0x4CF0, symBinAddr: 0x1000073B8, symSize: 0x1C }
  - { offsetInCU: 0x50F2A, offset: 0x50F2A, size: 0x8, addend: 0x0, symName: __ZNSt5stackISt4pairIP8TreeNodeiESt5dequeIS3_SaIS3_EEE4pushEOS3_, symObjAddr: 0x4CB4, symBinAddr: 0x10000737C, symSize: 0x3C }
  - { offsetInCU: 0x50FD6, offset: 0x50FD6, size: 0x8, addend: 0x0, symName: __ZNSt4pairIP8TreeNodeiEC1IRS1_iLb1EEEOT_OT0_, symObjAddr: 0x4C6C, symBinAddr: 0x100007334, symSize: 0x48 }
  - { offsetInCU: 0x51044, offset: 0x51044, size: 0x8, addend: 0x0, symName: __ZNSt5dequeISt4pairIP8TreeNodeiESaIS3_EED1Ev, symObjAddr: 0x4C04, symBinAddr: 0x1000072CC, symSize: 0x68 }
  - { offsetInCU: 0x510A6, offset: 0x510A6, size: 0x8, addend: 0x0, symName: __ZNSt5stackISt4pairIP8TreeNodeiESt5dequeIS3_SaIS3_EEEC1IS6_vEEv, symObjAddr: 0x4BC8, symBinAddr: 0x100007290, symSize: 0x3C }
  - { offsetInCU: 0x510E1, offset: 0x510E1, size: 0x8, addend: 0x0, symName: __ZNSt5dequeISt4pairIP8TreeNodeiESaIS3_EEC1Ev, symObjAddr: 0x4BA8, symBinAddr: 0x100007270, symSize: 0x20 }
  - { offsetInCU: 0x510DE, offset: 0x510DE, size: 0x8, addend: 0x0, symName: __ZNSt5queueIP8TreeNodeSt5dequeIS1_SaIS1_EEE3popEv, symObjAddr: 0x4B88, symBinAddr: 0x100007250, symSize: 0x20 }
  - { offsetInCU: 0x51108, offset: 0x51108, size: 0x8, addend: 0x0, symName: __ZNSt6vectorIiSaIiEE5clearEv, symObjAddr: 0x4B5C, symBinAddr: 0x100007224, symSize: 0x2C }
  - { offsetInCU: 0x51132, offset: 0x51132, size: 0x8, addend: 0x0, symName: __ZNKSt5queueIP8TreeNodeSt5dequeIS1_SaIS1_EEE4sizeEv, symObjAddr: 0x4B40, symBinAddr: 0x100007208, symSize: 0x1C }
  - { offsetInCU: 0x5115C, offset: 0x5115C, size: 0x8, addend: 0x0, symName: __ZNSt6vectorIS_IiSaIiEESaIS1_EE9push_backERKS1_, symObjAddr: 0x4A44, symBinAddr: 0x10000710C, symSize: 0xFC }
  - { offsetInCU: 0x511FB, offset: 0x511FB, size: 0x8, addend: 0x0, symName: __ZNSt5queueIP8TreeNodeSt5dequeIS1_SaIS1_EEE5frontEv, symObjAddr: 0x4A28, symBinAddr: 0x1000070F0, symSize: 0x1C }
  - { offsetInCU: 0x51225, offset: 0x51225, size: 0x8, addend: 0x0, symName: __ZNKSt5queueIP8TreeNodeSt5dequeIS1_SaIS1_EEE5emptyEv, symObjAddr: 0x4A0C, symBinAddr: 0x1000070D4, symSize: 0x1C }
  - { offsetInCU: 0x5124F, offset: 0x5124F, size: 0x8, addend: 0x0, symName: __ZNSt5queueIP8TreeNodeSt5dequeIS1_SaIS1_EEE4pushEOS1_, symObjAddr: 0x49D0, symBinAddr: 0x100007098, symSize: 0x3C }
  - { offsetInCU: 0x5128A, offset: 0x5128A, size: 0x8, addend: 0x0, symName: __ZNSt5queueIP8TreeNodeSt5dequeIS1_SaIS1_EEE4pushERKS1_, symObjAddr: 0x49A8, symBinAddr: 0x100007070, symSize: 0x28 }
  - { offsetInCU: 0x5132B, offset: 0x5132B, size: 0x8, addend: 0x0, symName: __ZNSt12_Vector_baseISt6vectorIiSaIiEESaIS2_EE12_Vector_implC1EOS5_, symObjAddr: 0x493C, symBinAddr: 0x100007004, symSize: 0x6C }
  - { offsetInCU: 0x513CD, offset: 0x513CD, size: 0x8, addend: 0x0, symName: __ZNSt5queueIP8TreeNodeSt5dequeIS1_SaIS1_EEEC1IS4_vEEv, symObjAddr: 0x4900, symBinAddr: 0x100006FC8, symSize: 0x3C }
  - { offsetInCU: 0x51413, offset: 0x51413, size: 0x8, addend: 0x0, symName: __ZNSt6vectorIS_IiSaIiEESaIS1_EED1Ev, symObjAddr: 0x48A4, symBinAddr: 0x100006F6C, symSize: 0x5C }
  - { offsetInCU: 0x514A1, offset: 0x514A1, size: 0x8, addend: 0x0, symName: __ZNSt12_Vector_baseISt6vectorIiSaIiEESaIS2_EED2Ev, symObjAddr: 0x4848, symBinAddr: 0x100006F10, symSize: 0x5C }
  - { offsetInCU: 0x5150F, offset: 0x5150F, size: 0x8, addend: 0x0, symName: __ZNSt12_Vector_baseISt6vectorIiSaIiEESaIS2_EE12_Vector_implC1Ev, symObjAddr: 0x4810, symBinAddr: 0x100006ED8, symSize: 0x38 }
  - { offsetInCU: 0x5153F, offset: 0x5153F, size: 0x8, addend: 0x0, symName: __ZNSt5stackIP8TreeNodeSt5dequeIS1_SaIS1_EEE3popEv, symObjAddr: 0x47F0, symBinAddr: 0x100006EB8, symSize: 0x20 }
  - { offsetInCU: 0x51569, offset: 0x51569, size: 0x8, addend: 0x0, symName: __ZNSt5stackIP8TreeNodeSt5dequeIS1_SaIS1_EEE3topEv, symObjAddr: 0x47D4, symBinAddr: 0x100006E9C, symSize: 0x1C }
  - { offsetInCU: 0x51593, offset: 0x51593, size: 0x8, addend: 0x0, symName: __ZNKSt5stackIP8TreeNodeSt5dequeIS1_SaIS1_EEE5emptyEv, symObjAddr: 0x47B8, symBinAddr: 0x100006E80, symSize: 0x1C }
  - { offsetInCU: 0x515BD, offset: 0x515BD, size: 0x8, addend: 0x0, symName: __ZNSt5stackIP8TreeNodeSt5dequeIS1_SaIS1_EEE4pushERKS1_, symObjAddr: 0x4790, symBinAddr: 0x100006E58, symSize: 0x28 }
  - { offsetInCU: 0x5163B, offset: 0x5163B, size: 0x8, addend: 0x0, symName: __ZNSt5dequeIP8TreeNodeSaIS1_EED1Ev, symObjAddr: 0x4728, symBinAddr: 0x100006DF0, symSize: 0x68 }
  - { offsetInCU: 0x5169D, offset: 0x5169D, size: 0x8, addend: 0x0, symName: __ZNSt5stackIP8TreeNodeSt5dequeIS1_SaIS1_EEEC1IS4_vEEv, symObjAddr: 0x46EC, symBinAddr: 0x100006DB4, symSize: 0x3C }
  - { offsetInCU: 0x516F3, offset: 0x516F3, size: 0x8, addend: 0x0, symName: __ZNSt12_Vector_baseIiSaIiEE12_Vector_implC1EOS2_, symObjAddr: 0x4680, symBinAddr: 0x100006D48, symSize: 0x6C }
  - { offsetInCU: 0x51786, offset: 0x51786, size: 0x8, addend: 0x0, symName: __ZNSt6vectorIiSaIiEED1Ev, symObjAddr: 0x4624, symBinAddr: 0x100006CEC, symSize: 0x5C }
  - { offsetInCU: 0x5180D, offset: 0x5180D, size: 0x8, addend: 0x0, symName: __ZNSt12_Vector_baseIiSaIiEED2Ev, symObjAddr: 0x45D4, symBinAddr: 0x100006C9C, symSize: 0x50 }
  - { offsetInCU: 0x5187B, offset: 0x5187B, size: 0x8, addend: 0x0, symName: __ZNSt12_Vector_baseIiSaIiEE12_Vector_implC1Ev, symObjAddr: 0x459C, symBinAddr: 0x100006C64, symSize: 0x38 }
  - { offsetInCU: 0x518BD, offset: 0x518BD, size: 0x8, addend: 0x0, symName: __ZNSt6vectorIiSaIiEE9push_backERKi, symObjAddr: 0x44D4, symBinAddr: 0x100006B9C, symSize: 0xC8 }
  - { offsetInCU: 0x51967, offset: 0x51967, size: 0x8, addend: 0x0, symName: __ZSt7forwardIiEOT_RNSt16remove_referenceIS0_E4typeE, symObjAddr: 0x44C0, symBinAddr: 0x100006B88, symSize: 0x14 }
  - { offsetInCU: 0x51999, offset: 0x51999, size: 0x8, addend: 0x0, symName: __ZSt3maxImERKT_S2_S2_, symObjAddr: 0x4488, symBinAddr: 0x100006B50, symSize: 0x38 }
  - { offsetInCU: 0x51A82, offset: 0x51A82, size: 0x8, addend: 0x0, symName: __ZNSt7__cxx1112basic_stringIcSt11char_traitsIcESaIcEE12_Alloc_hiderD1Ev, symObjAddr: 0x445C, symBinAddr: 0x100006B24, symSize: 0x2C }
  - { offsetInCU: 0x51A8D, offset: 0x51A8D, size: 0x8, addend: 0x0, symName: _main, symObjAddr: 0x413C, symBinAddr: 0x100006804, symSize: 0x320 }
  - { offsetInCU: 0x51C21, offset: 0x51C21, size: 0x8, addend: 0x0, symName: __Z11leftViewDFSP8TreeNode, symObjAddr: 0x40AC, symBinAddr: 0x100006774, symSize: 0x90 }
  - { offsetInCU: 0x51C88, offset: 0x51C88, size: 0x8, addend: 0x0, symName: __Z19leftSideViewDFSCallP8TreeNodeRSt6vectorIiSaIiEEi, symObjAddr: 0x4000, symBinAddr: 0x1000066C8, symSize: 0xAC }
  - { offsetInCU: 0x51CB5, offset: 0x51CB5, size: 0x8, addend: 0x0, symName: __Z8leftViewP8TreeNode, symObjAddr: 0x3DE0, symBinAddr: 0x1000064A8, symSize: 0x220 }
  - { offsetInCU: 0x51DC8, offset: 0x51DC8, size: 0x8, addend: 0x0, symName: __Z16rightSideViewBFSP8TreeNode, symObjAddr: 0x3BF4, symBinAddr: 0x1000062BC, symSize: 0x1EC }
  - { offsetInCU: 0x51EC4, offset: 0x51EC4, size: 0x8, addend: 0x0, symName: __Z13rightSideViewP8TreeNode, symObjAddr: 0x3B64, symBinAddr: 0x10000622C, symSize: 0x90 }
  - { offsetInCU: 0x51F29, offset: 0x51F29, size: 0x8, addend: 0x0, symName: __Z20rightSideViewDfsCallP8TreeNodeRSt6vectorIiSaIiEEi, symObjAddr: 0x3AB8, symBinAddr: 0x100006180, symSize: 0xAC }
  - { offsetInCU: 0x51F59, offset: 0x51F59, size: 0x8, addend: 0x0, symName: __Z10bottomViewP8TreeNode, symObjAddr: 0x39D0, symBinAddr: 0x100006098, symSize: 0xE8 }
  - { offsetInCU: 0x52039, offset: 0x52039, size: 0x8, addend: 0x0, symName: __Z17fillBottomViewMapP8TreeNodeRSt3mapIiSt4pairIiiESt4lessIiESaIS2_IKiS3_EEEii, symObjAddr: 0x38A0, symBinAddr: 0x100005F68, symSize: 0x130 }
  - { offsetInCU: 0x5206A, offset: 0x5206A, size: 0x8, addend: 0x0, symName: __Z13bottomViewTUFP8TreeNode, symObjAddr: 0x36B4, symBinAddr: 0x100005D7C, symSize: 0x1EC }
  - { offsetInCU: 0x52178, offset: 0x52178, size: 0x8, addend: 0x0, symName: __Z19topViewTUF_ORIGINALP8TreeNode, symObjAddr: 0x3494, symBinAddr: 0x100005B5C, symSize: 0x220 }
  - { offsetInCU: 0x522A1, offset: 0x522A1, size: 0x8, addend: 0x0, symName: __ZNSt5queueISt4pairIP8TreeNodeiESt5dequeIS3_SaIS3_EEED1Ev, symObjAddr: 0x3474, symBinAddr: 0x100005B3C, symSize: 0x20 }
  - { offsetInCU: 0x522DD, offset: 0x522DD, size: 0x8, addend: 0x0, symName: __ZNSt3mapIiiSt4lessIiESaISt4pairIKiiEEED1Ev, symObjAddr: 0x3454, symBinAddr: 0x100005B1C, symSize: 0x20 }
  - { offsetInCU: 0x5231D, offset: 0x5231D, size: 0x8, addend: 0x0, symName: __ZNSt3mapIiiSt4lessIiESaISt4pairIKiiEEEC1Ev, symObjAddr: 0x3434, symBinAddr: 0x100005AFC, symSize: 0x20 }
  - { offsetInCU: 0x52377, offset: 0x52377, size: 0x8, addend: 0x0, symName: __ZNSt8_Rb_treeIiSt4pairIKiiESt10_Select1stIS2_ESt4lessIiESaIS2_EEC1Ev, symObjAddr: 0x3414, symBinAddr: 0x100005ADC, symSize: 0x20 }
  - { offsetInCU: 0x523DD, offset: 0x523DD, size: 0x8, addend: 0x0, symName: __ZNSt8_Rb_treeIiSt4pairIKiiESt10_Select1stIS2_ESt4lessIiESaIS2_EE13_Rb_tree_implIS6_Lb1EED1Ev, symObjAddr: 0x33E8, symBinAddr: 0x100005AB0, symSize: 0x2C }
  - { offsetInCU: 0x523F9, offset: 0x523F9, size: 0x8, addend: 0x0, symName: __Z14topViewTUF_TRYP8TreeNode, symObjAddr: 0x30D0, symBinAddr: 0x100005798, symSize: 0x318 }
  - { offsetInCU: 0x524FE, offset: 0x524FE, size: 0x8, addend: 0x0, symName: __Z7topViewP8TreeNode, symObjAddr: 0x2FCC, symBinAddr: 0x100005694, symSize: 0x104 }
  - { offsetInCU: 0x525DC, offset: 0x525DC, size: 0x8, addend: 0x0, symName: __ZNSt3mapIiSt4pairIiiESt4lessIiESaIS0_IKiS1_EEED1Ev, symObjAddr: 0x2FAC, symBinAddr: 0x100005674, symSize: 0x20 }
  - { offsetInCU: 0x5261C, offset: 0x5261C, size: 0x8, addend: 0x0, symName: __ZNSt3mapIiSt4pairIiiESt4lessIiESaIS0_IKiS1_EEEC1Ev, symObjAddr: 0x2F8C, symBinAddr: 0x100005654, symSize: 0x20 }
  - { offsetInCU: 0x52674, offset: 0x52674, size: 0x8, addend: 0x0, symName: __ZNSt8_Rb_treeIiSt4pairIKiS0_IiiEESt10_Select1stIS3_ESt4lessIiESaIS3_EEC1Ev, symObjAddr: 0x2F6C, symBinAddr: 0x100005634, symSize: 0x20 }
  - { offsetInCU: 0x526DA, offset: 0x526DA, size: 0x8, addend: 0x0, symName: __ZNSt8_Rb_treeIiSt4pairIKiS0_IiiEESt10_Select1stIS3_ESt4lessIiESaIS3_EE13_Rb_tree_implIS7_Lb1EED1Ev, symObjAddr: 0x2F40, symBinAddr: 0x100005608, symSize: 0x2C }
  - { offsetInCU: 0x5270D, offset: 0x5270D, size: 0x8, addend: 0x0, symName: __Z7topViewP8TreeNodeRSt3mapIiSt4pairIiiESt4lessIiESaIS2_IKiS3_EEEii, symObjAddr: 0x2DD0, symBinAddr: 0x100005498, symSize: 0x170 }
  - { offsetInCU: 0x52751, offset: 0x52751, size: 0x8, addend: 0x0, symName: __Z20verticalTraversalDFSP8TreeNode, symObjAddr: 0x2BF8, symBinAddr: 0x1000052C0, symSize: 0x1D8 }
  - { offsetInCU: 0x5289A, offset: 0x5289A, size: 0x8, addend: 0x0, symName: __Z20verticalTraversalDFSP8TreeNodeRSt3mapIiS1_IiSt8multisetIiSt4lessIiESaIiEES4_SaISt4pairIKiS6_EEES4_SaIS7_IS8_SB_EEEii, symObjAddr: 0x2B34, symBinAddr: 0x1000051FC, symSize: 0xC4 }
  - { offsetInCU: 0x528BD, offset: 0x528BD, size: 0x8, addend: 0x0, symName: __Z20verticalTraversalTUFP8TreeNode, symObjAddr: 0x27D4, symBinAddr: 0x100004E9C, symSize: 0x360 }
  - { offsetInCU: 0x52A3C, offset: 0x52A3C, size: 0x8, addend: 0x0, symName: __ZNSt4pairIKiSt8multisetIiSt4lessIiESaIiEEED1Ev, symObjAddr: 0x27B0, symBinAddr: 0x100004E78, symSize: 0x24 }
  - { offsetInCU: 0x52A85, offset: 0x52A85, size: 0x8, addend: 0x0, symName: __ZNSt4pairIKiSt8multisetIiSt4lessIiESaIiEEEC1ERKS6_, symObjAddr: 0x2768, symBinAddr: 0x100004E30, symSize: 0x48 }
  - { offsetInCU: 0x52AC9, offset: 0x52AC9, size: 0x8, addend: 0x0, symName: __ZNSt8multisetIiSt4lessIiESaIiEED1Ev, symObjAddr: 0x2748, symBinAddr: 0x100004E10, symSize: 0x20 }
  - { offsetInCU: 0x52B12, offset: 0x52B12, size: 0x8, addend: 0x0, symName: __ZNSt8multisetIiSt4lessIiESaIiEEC1ERKS3_, symObjAddr: 0x2720, symBinAddr: 0x100004DE8, symSize: 0x28 }
  - { offsetInCU: 0x52B8A, offset: 0x52B8A, size: 0x8, addend: 0x0, symName: __ZNSt4pairIKiSt3mapIiSt8multisetIiSt4lessIiESaIiEES4_SaIS_IS0_S6_EEEED1Ev, symObjAddr: 0x26FC, symBinAddr: 0x100004DC4, symSize: 0x24 }
  - { offsetInCU: 0x52BD3, offset: 0x52BD3, size: 0x8, addend: 0x0, symName: __ZNSt4pairIKiSt3mapIiSt8multisetIiSt4lessIiESaIiEES4_SaIS_IS0_S6_EEEEC1ERKSA_, symObjAddr: 0x26B4, symBinAddr: 0x100004D7C, symSize: 0x48 }
  - { offsetInCU: 0x52C1B, offset: 0x52C1B, size: 0x8, addend: 0x0, symName: __ZNSt3mapIiSt8multisetIiSt4lessIiESaIiEES2_SaISt4pairIKiS4_EEED1Ev, symObjAddr: 0x2694, symBinAddr: 0x100004D5C, symSize: 0x20 }
  - { offsetInCU: 0x52C64, offset: 0x52C64, size: 0x8, addend: 0x0, symName: __ZNSt3mapIiSt8multisetIiSt4lessIiESaIiEES2_SaISt4pairIKiS4_EEEC1ERKS9_, symObjAddr: 0x266C, symBinAddr: 0x100004D34, symSize: 0x28 }
  - { offsetInCU: 0x52CB3, offset: 0x52CB3, size: 0x8, addend: 0x0, symName: __ZNSt5queueISt4pairIP8TreeNodeS0_IiiEESt5dequeIS4_SaIS4_EEED1Ev, symObjAddr: 0x264C, symBinAddr: 0x100004D14, symSize: 0x20 }
  - { offsetInCU: 0x52D17, offset: 0x52D17, size: 0x8, addend: 0x0, symName: __ZNSt3mapIiS_IiSt8multisetIiSt4lessIiESaIiEES2_SaISt4pairIKiS4_EEES2_SaIS5_IS6_S9_EEED1Ev, symObjAddr: 0x262C, symBinAddr: 0x100004CF4, symSize: 0x20 }
  - { offsetInCU: 0x52D57, offset: 0x52D57, size: 0x8, addend: 0x0, symName: __ZNSt3mapIiS_IiSt8multisetIiSt4lessIiESaIiEES2_SaISt4pairIKiS4_EEES2_SaIS5_IS6_S9_EEEC1Ev, symObjAddr: 0x260C, symBinAddr: 0x100004CD4, symSize: 0x20 }
  - { offsetInCU: 0x52DB3, offset: 0x52DB3, size: 0x8, addend: 0x0, symName: __ZNSt8_Rb_treeIiSt4pairIKiSt3mapIiSt8multisetIiSt4lessIiESaIiEES5_SaIS0_IS1_S7_EEEESt10_Select1stISB_ES5_SaISB_EEC1Ev, symObjAddr: 0x25EC, symBinAddr: 0x100004CB4, symSize: 0x20 }
  - { offsetInCU: 0x52E19, offset: 0x52E19, size: 0x8, addend: 0x0, symName: __ZNSt8_Rb_treeIiSt4pairIKiSt3mapIiSt8multisetIiSt4lessIiESaIiEES5_SaIS0_IS1_S7_EEEESt10_Select1stISB_ES5_SaISB_EE13_Rb_tree_implIS5_Lb1EED1Ev, symObjAddr: 0x25C0, symBinAddr: 0x100004C88, symSize: 0x2C }
  - { offsetInCU: 0x52DFE, offset: 0x52DFE, size: 0x8, addend: 0x0, symName: __Z17verticalTraversalP8TreeNode, symObjAddr: 0x242C, symBinAddr: 0x100004AF4, symSize: 0x194 }
  - { offsetInCU: 0x52F4F, offset: 0x52F4F, size: 0x8, addend: 0x0, symName: __ZNSt3mapIiS_IiSt6vectorIiSaIiEESt4lessIiESaISt4pairIKiS2_EEES4_SaIS5_IS6_S9_EEED1Ev, symObjAddr: 0x240C, symBinAddr: 0x100004AD4, symSize: 0x20 }
  - { offsetInCU: 0x52F8F, offset: 0x52F8F, size: 0x8, addend: 0x0, symName: __ZNSt3mapIiS_IiSt6vectorIiSaIiEESt4lessIiESaISt4pairIKiS2_EEES4_SaIS5_IS6_S9_EEEC1Ev, symObjAddr: 0x23EC, symBinAddr: 0x100004AB4, symSize: 0x20 }
  - { offsetInCU: 0x52FEB, offset: 0x52FEB, size: 0x8, addend: 0x0, symName: __ZNSt8_Rb_treeIiSt4pairIKiSt3mapIiSt6vectorIiSaIiEESt4lessIiESaIS0_IS1_S5_EEEESt10_Select1stISB_ES7_SaISB_EEC1Ev, symObjAddr: 0x23CC, symBinAddr: 0x100004A94, symSize: 0x20 }
  - { offsetInCU: 0x53051, offset: 0x53051, size: 0x8, addend: 0x0, symName: __ZNSt8_Rb_treeIiSt4pairIKiSt3mapIiSt6vectorIiSaIiEESt4lessIiESaIS0_IS1_S5_EEEESt10_Select1stISB_ES7_SaISB_EE13_Rb_tree_implIS7_Lb1EED1Ev, symObjAddr: 0x23A0, symBinAddr: 0x100004A68, symSize: 0x2C }
  - { offsetInCU: 0x53088, offset: 0x53088, size: 0x8, addend: 0x0, symName: __Z17verticalTraversalP8TreeNodeRSt3mapIiS1_IiSt6vectorIiSaIiEESt4lessIiESaISt4pairIKiS4_EEES6_SaIS7_IS8_SB_EEEii, symObjAddr: 0x2168, symBinAddr: 0x100004830, symSize: 0x238 }
  - { offsetInCU: 0x530A1, offset: 0x530A1, size: 0x8, addend: 0x0, symName: __Z11boundaryTUFP8TreeNode, symObjAddr: 0x20C4, symBinAddr: 0x10000478C, symSize: 0xA4 }
  - { offsetInCU: 0x530F2, offset: 0x530F2, size: 0x8, addend: 0x0, symName: __Z9addLeavesP8TreeNodeRSt6vectorIiSaIiEE, symObjAddr: 0x2044, symBinAddr: 0x10000470C, symSize: 0x80 }
  - { offsetInCU: 0x53144, offset: 0x53144, size: 0x8, addend: 0x0, symName: __Z16addRightBoundaryP8TreeNodeRSt6vectorIiSaIiEE, symObjAddr: 0x1F48, symBinAddr: 0x100004610, symSize: 0xFC }
  - { offsetInCU: 0x531CB, offset: 0x531CB, size: 0x8, addend: 0x0, symName: __Z15addLeftBoundaryP8TreeNodeRSt6vectorIiSaIiEE, symObjAddr: 0x1EB4, symBinAddr: 0x10000457C, symSize: 0x94 }
  - { offsetInCU: 0x53206, offset: 0x53206, size: 0x8, addend: 0x0, symName: __Z10isLeafNodeP8TreeNode, symObjAddr: 0x1E78, symBinAddr: 0x100004540, symSize: 0x3C }
  - { offsetInCU: 0x53237, offset: 0x53237, size: 0x8, addend: 0x0, symName: __Z8boundaryP8TreeNode, symObjAddr: 0x1D6C, symBinAddr: 0x100004434, symSize: 0x10C }
  - { offsetInCU: 0x532B8, offset: 0x532B8, size: 0x8, addend: 0x0, symName: __ZNSt5stackIiSt5dequeIiSaIiEEED1Ev, symObjAddr: 0x1D4C, symBinAddr: 0x100004414, symSize: 0x20 }
  - { offsetInCU: 0x53302, offset: 0x53302, size: 0x8, addend: 0x0, symName: __Z13rightBoundaryP8TreeNodeRSt5stackIiSt5dequeIiSaIiEEE, symObjAddr: 0x1CB4, symBinAddr: 0x10000437C, symSize: 0x98 }
  - { offsetInCU: 0x53341, offset: 0x53341, size: 0x8, addend: 0x0, symName: __Z16leafNodesInOrderP8TreeNodeRSt6vectorIiSaIiEE, symObjAddr: 0x1C38, symBinAddr: 0x100004300, symSize: 0x7C }
  - { offsetInCU: 0x5337C, offset: 0x5337C, size: 0x8, addend: 0x0, symName: __Z12leftBoundaryP8TreeNodeRSt6vectorIiSaIiEE, symObjAddr: 0x1BA0, symBinAddr: 0x100004268, symSize: 0x98 }
  - { offsetInCU: 0x533BA, offset: 0x533BA, size: 0x8, addend: 0x0, symName: __Z17zigzagLevelOrder3P8TreeNode, symObjAddr: 0x19B8, symBinAddr: 0x100004080, symSize: 0x1E8 }
  - { offsetInCU: 0x5352E, offset: 0x5352E, size: 0x8, addend: 0x0, symName: __Z17zigzagLevelOrder2P8TreeNode, symObjAddr: 0x17C4, symBinAddr: 0x100003E8C, symSize: 0x1F4 }
  - { offsetInCU: 0x53612, offset: 0x53612, size: 0x8, addend: 0x0, symName: __ZNSt5dequeIP8TreeNodeSaIS1_EEC1Ev, symObjAddr: 0x17A4, symBinAddr: 0x100003E6C, symSize: 0x20 }
  - { offsetInCU: 0x53649, offset: 0x53649, size: 0x8, addend: 0x0, symName: __Z16zigzagLevelOrderP8TreeNode, symObjAddr: 0x15F4, symBinAddr: 0x100003CBC, symSize: 0x1B0 }
  - { offsetInCU: 0x5371D, offset: 0x5371D, size: 0x8, addend: 0x0, symName: __Z10isSameTreeP8TreeNodeS0_, symObjAddr: 0x152C, symBinAddr: 0x100003BF4, symSize: 0xC8 }
  - { offsetInCU: 0x53761, offset: 0x53761, size: 0x8, addend: 0x0, symName: __Z10maxPathSumP8TreeNode, symObjAddr: 0x14E8, symBinAddr: 0x100003BB0, symSize: 0x44 }
  - { offsetInCU: 0x537C4, offset: 0x537C4, size: 0x8, addend: 0x0, symName: __Z23maxPathSumRecursiveCallP8TreeNodeRi, symObjAddr: 0x13B0, symBinAddr: 0x100003A78, symSize: 0x138 }
  - { offsetInCU: 0x53827, offset: 0x53827, size: 0x8, addend: 0x0, symName: __Z21diameterOfBinaryTree2P8TreeNode, symObjAddr: 0x1384, symBinAddr: 0x100003A4C, symSize: 0x2C }
  - { offsetInCU: 0x5387C, offset: 0x5387C, size: 0x8, addend: 0x0, symName: __Z27diameterOfBinaryTreeHelper2P8TreeNodeRi, symObjAddr: 0x12F0, symBinAddr: 0x1000039B8, symSize: 0x94 }
  - { offsetInCU: 0x538D5, offset: 0x538D5, size: 0x8, addend: 0x0, symName: __Z20diameterOfBinaryTreeP8TreeNode, symObjAddr: 0x12B0, symBinAddr: 0x100003978, symSize: 0x40 }
  - { offsetInCU: 0x5392A, offset: 0x5392A, size: 0x8, addend: 0x0, symName: __Z26diameterOfBinaryTreeHelperP8TreeNodeRi, symObjAddr: 0x1204, symBinAddr: 0x1000038CC, symSize: 0xAC }
  - { offsetInCU: 0x53971, offset: 0x53971, size: 0x8, addend: 0x0, symName: __Z10isBalancedP8TreeNode, symObjAddr: 0x11D4, symBinAddr: 0x10000389C, symSize: 0x30 }
  - { offsetInCU: 0x539B5, offset: 0x539B5, size: 0x8, addend: 0x0, symName: __Z9dfsHeightP8TreeNode, symObjAddr: 0x112C, symBinAddr: 0x1000037F4, symSize: 0xA8 }
  - { offsetInCU: 0x53A1E, offset: 0x53A1E, size: 0x8, addend: 0x0, symName: __Z17maxDepthRecursionP8TreeNode, symObjAddr: 0x10D0, symBinAddr: 0x100003798, symSize: 0x5C }
  - { offsetInCU: 0x53A40, offset: 0x53A40, size: 0x8, addend: 0x0, symName: __ZSt3maxIiERKT_S2_S2_, symObjAddr: 0x1098, symBinAddr: 0x100003760, symSize: 0x38 }
  - { offsetInCU: 0x53AA7, offset: 0x53AA7, size: 0x8, addend: 0x0, symName: __Z8maxDepthP8TreeNode, symObjAddr: 0xF70, symBinAddr: 0x100003638, symSize: 0x128 }
  - { offsetInCU: 0x53B82, offset: 0x53B82, size: 0x8, addend: 0x0, symName: __Z18preInPostTraversalP8TreeNode, symObjAddr: 0xD60, symBinAddr: 0x100003428, symSize: 0x210 }
  - { offsetInCU: 0x53C4F, offset: 0x53C4F, size: 0x8, addend: 0x0, symName: __ZNSt5stackISt4pairIP8TreeNodeiESt5dequeIS3_SaIS3_EEED1Ev, symObjAddr: 0xD40, symBinAddr: 0x100003408, symSize: 0x20 }
  - { offsetInCU: 0x53C65, offset: 0x53C65, size: 0x8, addend: 0x0, symName: __Z11levelOrder2P8TreeNode, symObjAddr: 0xBB8, symBinAddr: 0x100003280, symSize: 0x188 }
  - { offsetInCU: 0x53D27, offset: 0x53D27, size: 0x8, addend: 0x0, symName: __Z10levelOrderP8TreeNode, symObjAddr: 0xA20, symBinAddr: 0x1000030E8, symSize: 0x198 }
  - { offsetInCU: 0x53DC2, offset: 0x53DC2, size: 0x8, addend: 0x0, symName: __ZNSt6vectorIS_IiSaIiEESaIS1_EEC1EOS3_, symObjAddr: 0x9F8, symBinAddr: 0x1000030C0, symSize: 0x28 }
  - { offsetInCU: 0x53E1E, offset: 0x53E1E, size: 0x8, addend: 0x0, symName: __ZNSt12_Vector_baseISt6vectorIiSaIiEESaIS2_EEC2EOS4_, symObjAddr: 0x9D0, symBinAddr: 0x100003098, symSize: 0x28 }
  - { offsetInCU: 0x53E6F, offset: 0x53E6F, size: 0x8, addend: 0x0, symName: __ZNSt5queueIP8TreeNodeSt5dequeIS1_SaIS1_EEED1Ev, symObjAddr: 0x9B0, symBinAddr: 0x100003078, symSize: 0x20 }
  - { offsetInCU: 0x53EA3, offset: 0x53EA3, size: 0x8, addend: 0x0, symName: __ZNSt6vectorIS_IiSaIiEESaIS1_EEC1Ev, symObjAddr: 0x990, symBinAddr: 0x100003058, symSize: 0x20 }
  - { offsetInCU: 0x53EF1, offset: 0x53EF1, size: 0x8, addend: 0x0, symName: __ZNSt12_Vector_baseISt6vectorIiSaIiEESaIS2_EEC2Ev, symObjAddr: 0x970, symBinAddr: 0x100003038, symSize: 0x20 }
  - { offsetInCU: 0x53F4C, offset: 0x53F4C, size: 0x8, addend: 0x0, symName: __ZNSt12_Vector_baseISt6vectorIiSaIiEESaIS2_EE12_Vector_implD1Ev, symObjAddr: 0x944, symBinAddr: 0x10000300C, symSize: 0x2C }
  - { offsetInCU: 0x53F8F, offset: 0x53F8F, size: 0x8, addend: 0x0, symName: __Z19postorderTraversal2P8TreeNode, symObjAddr: 0x7E0, symBinAddr: 0x100002EA8, symSize: 0x164 }
  - { offsetInCU: 0x53FF4, offset: 0x53FF4, size: 0x8, addend: 0x0, symName: __Z18postorderTraversalP8TreeNode, symObjAddr: 0x790, symBinAddr: 0x100002E58, symSize: 0x50 }
  - { offsetInCU: 0x54052, offset: 0x54052, size: 0x8, addend: 0x0, symName: __Z24postorderTraversalHelperP8TreeNodeRSt6vectorIiSaIiEE, symObjAddr: 0x734, symBinAddr: 0x100002DFC, symSize: 0x5C }
  - { offsetInCU: 0x54076, offset: 0x54076, size: 0x8, addend: 0x0, symName: __Z17inorderTraversal2P8TreeNode, symObjAddr: 0x62C, symBinAddr: 0x100002CF4, symSize: 0x108 }
  - { offsetInCU: 0x540FE, offset: 0x540FE, size: 0x8, addend: 0x0, symName: __Z16inorderTraversalP8TreeNode, symObjAddr: 0x5DC, symBinAddr: 0x100002CA4, symSize: 0x50 }
  - { offsetInCU: 0x5415C, offset: 0x5415C, size: 0x8, addend: 0x0, symName: __Z22inorderTraversalHelperP8TreeNodeRSt6vectorIiSaIiEE, symObjAddr: 0x580, symBinAddr: 0x100002C48, symSize: 0x5C }
  - { offsetInCU: 0x54186, offset: 0x54186, size: 0x8, addend: 0x0, symName: __Z18preorderTraversal3P8TreeNode, symObjAddr: 0x478, symBinAddr: 0x100002B40, symSize: 0x108 }
  - { offsetInCU: 0x541ED, offset: 0x541ED, size: 0x8, addend: 0x0, symName: __Z18preorderTraversal2P8TreeNode, symObjAddr: 0x36C, symBinAddr: 0x100002A34, symSize: 0x10C }
  - { offsetInCU: 0x54285, offset: 0x54285, size: 0x8, addend: 0x0, symName: __ZNSt5stackIP8TreeNodeSt5dequeIS1_SaIS1_EEED1Ev, symObjAddr: 0x34C, symBinAddr: 0x100002A14, symSize: 0x20 }
  - { offsetInCU: 0x542B1, offset: 0x542B1, size: 0x8, addend: 0x0, symName: __Z17preorderTraversalP8TreeNode, symObjAddr: 0x2FC, symBinAddr: 0x1000029C4, symSize: 0x50 }
  - { offsetInCU: 0x542FA, offset: 0x542FA, size: 0x8, addend: 0x0, symName: __ZNSt6vectorIiSaIiEEC1EOS1_, symObjAddr: 0x2D4, symBinAddr: 0x10000299C, symSize: 0x28 }
  - { offsetInCU: 0x5434F, offset: 0x5434F, size: 0x8, addend: 0x0, symName: __ZNSt12_Vector_baseIiSaIiEEC2EOS1_, symObjAddr: 0x2AC, symBinAddr: 0x100002974, symSize: 0x28 }
  - { offsetInCU: 0x5438E, offset: 0x5438E, size: 0x8, addend: 0x0, symName: __ZNSt6vectorIiSaIiEEC1Ev, symObjAddr: 0x28C, symBinAddr: 0x100002954, symSize: 0x20 }
  - { offsetInCU: 0x543D5, offset: 0x543D5, size: 0x8, addend: 0x0, symName: __ZNSt12_Vector_baseIiSaIiEEC2Ev, symObjAddr: 0x26C, symBinAddr: 0x100002934, symSize: 0x20 }
  - { offsetInCU: 0x54430, offset: 0x54430, size: 0x8, addend: 0x0, symName: __ZNSt12_Vector_baseIiSaIiEE12_Vector_implD1Ev, symObjAddr: 0x240, symBinAddr: 0x100002908, symSize: 0x2C }
  - { offsetInCU: 0x5449B, offset: 0x5449B, size: 0x8, addend: 0x0, symName: __Z23preorderTraversalHelperP8TreeNodeRSt6vectorIiSaIiEE, symObjAddr: 0x1E4, symBinAddr: 0x1000028AC, symSize: 0x5C }
  - { offsetInCU: 0x544C3, offset: 0x544C3, size: 0x8, addend: 0x0, symName: __ZN8TreeNodeC1Ei, symObjAddr: 0x1B0, symBinAddr: 0x100002878, symSize: 0x34 }
  - { offsetInCU: 0x544E5, offset: 0x544E5, size: 0x8, addend: 0x0, symName: __ZNSt15_Rb_tree_header8_M_resetEv, symObjAddr: 0x174, symBinAddr: 0x10000283C, symSize: 0x3C }
  - { offsetInCU: 0x54540, offset: 0x54540, size: 0x8, addend: 0x0, symName: __ZNSt15_Rb_tree_headerC2Ev, symObjAddr: 0x14C, symBinAddr: 0x100002814, symSize: 0x28 }
  - { offsetInCU: 0x5454B, offset: 0x5454B, size: 0x8, addend: 0x0, symName: __ZNSt18_Rb_tree_node_base10_S_maximumEPS_, symObjAddr: 0x118, symBinAddr: 0x1000027E0, symSize: 0x34 }
  - { offsetInCU: 0x54574, offset: 0x54574, size: 0x8, addend: 0x0, symName: __ZNSt18_Rb_tree_node_base10_S_minimumEPS_, symObjAddr: 0xE4, symBinAddr: 0x1000027AC, symSize: 0x34 }
  - { offsetInCU: 0x5459D, offset: 0x5459D, size: 0x8, addend: 0x0, symName: __ZSt16__deque_buf_sizem, symObjAddr: 0xB4, symBinAddr: 0x10000277C, symSize: 0x30 }
  - { offsetInCU: 0x545C6, offset: 0x545C6, size: 0x8, addend: 0x0, symName: __ZSt3minImERKT_S2_S2_, symObjAddr: 0x7C, symBinAddr: 0x100002744, symSize: 0x38 }
  - { offsetInCU: 0x54615, offset: 0x54615, size: 0x8, addend: 0x0, symName: __ZdlPvS_, symObjAddr: 0x64, symBinAddr: 0x10000272C, symSize: 0x18 }
  - { offsetInCU: 0x5464A, offset: 0x5464A, size: 0x8, addend: 0x0, symName: __ZnwmPv, symObjAddr: 0x4C, symBinAddr: 0x100002714, symSize: 0x18 }
  - { offsetInCU: 0x54677, offset: 0x54677, size: 0x8, addend: 0x0, symName: __ZSt17__size_to_integerm, symObjAddr: 0x38, symBinAddr: 0x100002700, symSize: 0x14 }
  - { offsetInCU: 0x546A1, offset: 0x546A1, size: 0x8, addend: 0x0, symName: __ZN9__gnu_cxx5__ops15__val_comp_iterENS0_15_Iter_less_iterE, symObjAddr: 0x20, symBinAddr: 0x1000026E8, symSize: 0x18 }
  - { offsetInCU: 0x5471F, offset: 0x5471F, size: 0x8, addend: 0x0, symName: __ZN9__gnu_cxx5__ops14_Iter_less_valC1ENS0_15_Iter_less_iterE, symObjAddr: 0x8, symBinAddr: 0x1000026D0, symSize: 0x18 }
  - { offsetInCU: 0x54712, offset: 0x54712, size: 0x8, addend: 0x0, symName: __ZN9__gnu_cxx5__ops16__iter_less_iterEv, symObjAddr: 0x0, symBinAddr: 0x1000026C8, symSize: 0x8 }
...
