---
triple:          'arm64-apple-darwin'
binary-path:     '/Users/lalitsiraswa/Documents/Daily-Practice/TreePractice'
relocations:
  - { offset: 0x2B2FB, size: 0x8, addend: 0x0, symName: __ZStL8__ioinit, symObjAddr: 0xF4EEF, symBinAddr: 0x100020000, symSize: 0x0 }
  - { offset: 0x2C8A7, size: 0x8, addend: 0x0, symName: __ZNSt10_Head_baseILm0ERKiLb0EE7_M_headERS2_, symObjAddr: 0xCB30, symBinAddr: 0x100010444, symSize: 0x18 }
  - { offset: 0x2C8D0, size: 0x8, addend: 0x0, symName: __ZNSt11__copy_moveILb0ELb0ESt26random_access_iterator_tagE12__assign_oneIiKiEEvPT_PT0_, symObjAddr: 0xCB08, symBinAddr: 0x10001041C, symSize: 0x28 }
  - { offset: 0x2C949, size: 0x8, addend: 0x0, symName: __ZNSt11_Tuple_implILm0EJRKiEE7_M_headERS2_, symObjAddr: 0xCAEC, symBinAddr: 0x100010400, symSize: 0x1C }
  - { offset: 0x2C973, size: 0x8, addend: 0x0, symName: __ZNSt11__copy_moveILb0ELb0ESt26random_access_iterator_tagE12__assign_oneIPSt4pairIP8TreeNodeS3_IiiEES8_EEvPT_PT0_, symObjAddr: 0xCAC4, symBinAddr: 0x1000103D8, symSize: 0x28 }
  - { offset: 0x2C9C0, size: 0x8, addend: 0x0, symName: __ZNSt11__copy_moveILb0ELb1ESt26random_access_iterator_tagE8__copy_mIKiiEEPT0_PT_S7_S5_, symObjAddr: 0xCA34, symBinAddr: 0x100010348, symSize: 0x90 }
  - { offset: 0x2CA2F, size: 0x8, addend: 0x0, symName: __ZNSt11__copy_moveILb1ELb1ESt26random_access_iterator_tagE8__copy_mIiiEEPT0_PT_S6_S4_, symObjAddr: 0xC9A4, symBinAddr: 0x1000102B8, symSize: 0x90 }
  - { offset: 0x2CACA, size: 0x8, addend: 0x0, symName: __ZSt12__get_helperILm0ERKiJEERT0_RSt11_Tuple_implIXT_EJS2_DpT1_EE, symObjAddr: 0xC988, symBinAddr: 0x10001029C, symSize: 0x1C }
  - { offset: 0x2CB0C, size: 0x8, addend: 0x0, symName: __ZNSt20__copy_move_backwardILb0ELb1ESt26random_access_iterator_tagE13__copy_move_bIPSt4pairIP8TreeNodeS3_IiiEES8_EEPT0_PT_SC_SA_, symObjAddr: 0xC8DC, symBinAddr: 0x1000101F0, symSize: 0xAC }
  - { offset: 0x2CB7B, size: 0x8, addend: 0x0, symName: __ZNSt11__copy_moveILb0ELb1ESt26random_access_iterator_tagE8__copy_mIPSt4pairIP8TreeNodeS3_IiiEES8_EEPT0_PT_SC_SA_, symObjAddr: 0xC84C, symBinAddr: 0x100010160, symSize: 0x90 }
  - { offset: 0x2CBEA, size: 0x8, addend: 0x0, symName: __ZNSt11__copy_moveILb0ELb0ESt26random_access_iterator_tagE12__assign_oneIPiS3_EEvPT_PT0_, symObjAddr: 0xC824, symBinAddr: 0x100010138, symSize: 0x28 }
  - { offset: 0x2CC37, size: 0x8, addend: 0x0, symName: __ZSt14__copy_move_a2ILb0EPKiPiET1_T0_S4_S3_, symObjAddr: 0xC7F8, symBinAddr: 0x10001010C, symSize: 0x2C }
  - { offset: 0x2CC9F, size: 0x8, addend: 0x0, symName: __ZSt14__copy_move_a2ILb1EPiS0_ET1_T0_S2_S1_, symObjAddr: 0xC7CC, symBinAddr: 0x1000100E0, symSize: 0x2C }
  - { offset: 0x2CD67, size: 0x8, addend: 0x0, symName: __ZNSt8_Rb_treeIiiSt9_IdentityIiESt4lessIiESaIiEE13_Rb_tree_implIS3_Lb1EEC1Ev, symObjAddr: 0xC788, symBinAddr: 0x10001009C, symSize: 0x44 }
  - { offset: 0x2CDEE, size: 0x8, addend: 0x0, symName: __ZNSt8_Rb_treeIiSt4pairIKiSt8multisetIiSt4lessIiESaIiEEESt10_Select1stIS7_ES4_SaIS7_EE13_Rb_tree_implIS4_Lb1EEC1Ev, symObjAddr: 0xC744, symBinAddr: 0x100010058, symSize: 0x44 }
  - { offset: 0x2CE57, size: 0x8, addend: 0x0, symName: __ZSt3getILm0EJRKiEERNSt13tuple_elementIXT_ESt5tupleIJDpT0_EEE4typeERS6_, symObjAddr: 0xC728, symBinAddr: 0x10001003C, symSize: 0x1C }
  - { offset: 0x2CE96, size: 0x8, addend: 0x0, symName: __ZSt23__copy_move_backward_a2ILb0EPPSt4pairIP8TreeNodeS0_IiiEES6_ET1_T0_S8_S7_, symObjAddr: 0xC6FC, symBinAddr: 0x100010010, symSize: 0x2C }
  - { offset: 0x2CEFE, size: 0x8, addend: 0x0, symName: __ZSt14__copy_move_a2ILb0EPPSt4pairIP8TreeNodeS0_IiiEES6_ET1_T0_S8_S7_, symObjAddr: 0xC6D0, symBinAddr: 0x10000FFE4, symSize: 0x2C }
  - { offset: 0x2CF66, size: 0x8, addend: 0x0, symName: __ZNSt20__copy_move_backwardILb0ELb1ESt26random_access_iterator_tagE13__copy_move_bIPiS3_EEPT0_PT_S7_S5_, symObjAddr: 0xC624, symBinAddr: 0x10000FF38, symSize: 0xAC }
  - { offset: 0x2CFD5, size: 0x8, addend: 0x0, symName: __ZNSt11__copy_moveILb0ELb1ESt26random_access_iterator_tagE8__copy_mIPiS3_EEPT0_PT_S7_S5_, symObjAddr: 0xC594, symBinAddr: 0x10000FEA8, symSize: 0x90 }
  - { offset: 0x2D044, size: 0x8, addend: 0x0, symName: __ZSt14__copy_move_a1ILb0EPKiPiET1_T0_S4_S3_, symObjAddr: 0xC568, symBinAddr: 0x10000FE7C, symSize: 0x2C }
  - { offset: 0x2D0AC, size: 0x8, addend: 0x0, symName: __ZSt12__niter_baseIPKiSt6vectorIiSaIiEEET_N9__gnu_cxx17__normal_iteratorIS5_T0_EE, symObjAddr: 0xC548, symBinAddr: 0x10000FE5C, symSize: 0x20 }
  - { offset: 0x2D0E8, size: 0x8, addend: 0x0, symName: __ZNSt11__copy_moveILb0ELb0ESt26random_access_iterator_tagE12__assign_oneIPP8TreeNodeS5_EEvPT_PT0_, symObjAddr: 0xC520, symBinAddr: 0x10000FE34, symSize: 0x28 }
  - { offset: 0x2D13C, size: 0x8, addend: 0x0, symName: __ZSt4moveIRiEONSt16remove_referenceIT_E4typeEOS2_, symObjAddr: 0xC50C, symBinAddr: 0x10000FE20, symSize: 0x14 }
  - { offset: 0x2D16E, size: 0x8, addend: 0x0, symName: __ZSt14__copy_move_a1ILb1EPiS0_ET1_T0_S2_S1_, symObjAddr: 0xC4E0, symBinAddr: 0x10000FDF4, symSize: 0x2C }
  - { offset: 0x2D1DA, size: 0x8, addend: 0x0, symName: __ZNKSt13move_iteratorIPiE4baseEv, symObjAddr: 0xC4C8, symBinAddr: 0x10000FDDC, symSize: 0x18 }
  - { offset: 0x2D2B1, size: 0x8, addend: 0x0, symName: __ZNSt4pairIKiSt8multisetIiSt4lessIiESaIiEEEC1IJRS0_EJLm0EEJEJEEERSt5tupleIJDpT_EERS9_IJDpT1_EESt12_Index_tupleIJXspT0_EEESI_IJXspT2_EEE, symObjAddr: 0xC468, symBinAddr: 0x10000FD7C, symSize: 0x60 }
  - { offset: 0x2D33E, size: 0x8, addend: 0x0, symName: __ZNSt8multisetIiSt4lessIiESaIiEEC1Ev, symObjAddr: 0xC448, symBinAddr: 0x10000FD5C, symSize: 0x20 }
  - { offset: 0x2D37E, size: 0x8, addend: 0x0, symName: __ZNSt8_Rb_treeIiiSt9_IdentityIiESt4lessIiESaIiEEC1Ev, symObjAddr: 0xC428, symBinAddr: 0x10000FD3C, symSize: 0x20 }
  - { offset: 0x2D40D, size: 0x8, addend: 0x0, symName: __ZNSt4pairIKiSt3mapIiSt8multisetIiSt4lessIiESaIiEES4_SaIS_IS0_S6_EEEEC1IJRS0_EJLm0EEJEJEEERSt5tupleIJDpT_EERSD_IJDpT1_EESt12_Index_tupleIJXspT0_EEESM_IJXspT2_EEE, symObjAddr: 0xC3C8, symBinAddr: 0x10000FCDC, symSize: 0x60 }
  - { offset: 0x2D49A, size: 0x8, addend: 0x0, symName: __ZNSt3mapIiSt8multisetIiSt4lessIiESaIiEES2_SaISt4pairIKiS4_EEEC1Ev, symObjAddr: 0xC3A8, symBinAddr: 0x10000FCBC, symSize: 0x20 }
  - { offset: 0x2D4DA, size: 0x8, addend: 0x0, symName: __ZNSt8_Rb_treeIiSt4pairIKiSt8multisetIiSt4lessIiESaIiEEESt10_Select1stIS7_ES4_SaIS7_EEC1Ev, symObjAddr: 0xC388, symBinAddr: 0x10000FC9C, symSize: 0x20 }
  - { offset: 0x2D4FC, size: 0x8, addend: 0x0, symName: __ZSt23__copy_move_backward_a1ILb0EPPSt4pairIP8TreeNodeS0_IiiEES6_ET1_T0_S8_S7_, symObjAddr: 0xC35C, symBinAddr: 0x10000FC70, symSize: 0x2C }
  - { offset: 0x2D564, size: 0x8, addend: 0x0, symName: __ZSt12__niter_wrapIPPSt4pairIP8TreeNodeS0_IiiEEET_RKS7_S7_, symObjAddr: 0xC344, symBinAddr: 0x10000FC58, symSize: 0x18 }
  - { offset: 0x2D5A0, size: 0x8, addend: 0x0, symName: __ZSt14__copy_move_a1ILb0EPPSt4pairIP8TreeNodeS0_IiiEES6_ET1_T0_S8_S7_, symObjAddr: 0xC318, symBinAddr: 0x10000FC2C, symSize: 0x2C }
  - { offset: 0x2D608, size: 0x8, addend: 0x0, symName: __ZSt12__niter_baseIPPSt4pairIP8TreeNodeS0_IiiEEET_S7_, symObjAddr: 0xC304, symBinAddr: 0x10000FC18, symSize: 0x14 }
  - { offset: 0x2D63B, size: 0x8, addend: 0x0, symName: __ZSt23__copy_move_backward_a2ILb0EPPiS1_ET1_T0_S3_S2_, symObjAddr: 0xC2D8, symBinAddr: 0x10000FBEC, symSize: 0x2C }
  - { offset: 0x2D6A3, size: 0x8, addend: 0x0, symName: __ZSt14__copy_move_a2ILb0EPPiS1_ET1_T0_S3_S2_, symObjAddr: 0xC2AC, symBinAddr: 0x10000FBC0, symSize: 0x2C }
  - { offset: 0x2D70B, size: 0x8, addend: 0x0, symName: __ZSt9__fill_a1IPiiEN9__gnu_cxx11__enable_ifIXsrSt11__is_scalarIT0_E7__valueEvE6__typeET_S8_RKS4_, symObjAddr: 0xC254, symBinAddr: 0x10000FB68, symSize: 0x58 }
  - { offset: 0x2D77A, size: 0x8, addend: 0x0, symName: __ZSt13__copy_move_aILb0EN9__gnu_cxx17__normal_iteratorIPKiSt6vectorIiSaIiEEEEPiET1_T0_SA_S9_, symObjAddr: 0xC1F4, symBinAddr: 0x10000FB08, symSize: 0x60 }
  - { offset: 0x2D7E2, size: 0x8, addend: 0x0, symName: __ZSt12__miter_baseIN9__gnu_cxx17__normal_iteratorIPKiSt6vectorIiSaIiEEEEET_S8_, symObjAddr: 0xC1E0, symBinAddr: 0x10000FAF4, symSize: 0x14 }
  - { offset: 0x2D815, size: 0x8, addend: 0x0, symName: __ZNSt20__copy_move_backwardILb0ELb1ESt26random_access_iterator_tagE13__copy_move_bIPP8TreeNodeS5_EEPT0_PT_S9_S7_, symObjAddr: 0xC134, symBinAddr: 0x10000FA48, symSize: 0xAC }
  - { offset: 0x2D884, size: 0x8, addend: 0x0, symName: __ZNSt11__copy_moveILb0ELb1ESt26random_access_iterator_tagE8__copy_mIPP8TreeNodeS5_EEPT0_PT_S9_S7_, symObjAddr: 0xC0A4, symBinAddr: 0x10000F9B8, symSize: 0x90 }
  - { offset: 0x2D8F7, size: 0x8, addend: 0x0, symName: __ZNKSt23_Rb_tree_const_iteratorIiEdeEv, symObjAddr: 0xC084, symBinAddr: 0x10000F998, symSize: 0x20 }
  - { offset: 0x2D91D, size: 0x8, addend: 0x0, symName: __ZNSt11__copy_moveILb1ELb0ESt26random_access_iterator_tagE12__assign_oneIiiEEvPT_PT0_, symObjAddr: 0xC054, symBinAddr: 0x10000F968, symSize: 0x30 }
  - { offset: 0x2D96A, size: 0x8, addend: 0x0, symName: __ZSt13__copy_move_aILb1EPiS0_ET1_T0_S2_S1_, symObjAddr: 0xBFF4, symBinAddr: 0x10000F908, symSize: 0x60 }
  - { offset: 0x2D9D2, size: 0x8, addend: 0x0, symName: __ZSt12__miter_baseIPiEDTcl12__miter_basecldtfp_4baseEEESt13move_iteratorIT_E, symObjAddr: 0xBFD4, symBinAddr: 0x10000F8E8, symSize: 0x20 }
  - { offset: 0x2DA09, size: 0x8, addend: 0x0, symName: __ZNSt8_Rb_treeIiSt4pairIKiSt8multisetIiSt4lessIiESaIiEEESt10_Select1stIS7_ES4_SaIS7_EE17_M_construct_nodeIJRKS7_EEEvPSt13_Rb_tree_nodeIS7_EDpOT_, symObjAddr: 0xBED0, symBinAddr: 0x10000F7E4, symSize: 0x104 }
  - { offset: 0x2DB06, size: 0x8, addend: 0x0, symName: __ZNSt15__new_allocatorISt13_Rb_tree_nodeIiEE8allocateEmPKv, symObjAddr: 0xBE40, symBinAddr: 0x10000F754, symSize: 0x90 }
  - { offset: 0x2DBDD, size: 0x8, addend: 0x0, symName: __ZNSt4pairIKiSt8multisetIiSt4lessIiESaIiEEEC1IJRS0_EJEEESt21piecewise_construct_tSt5tupleIJDpT_EESA_IJDpT0_EE, symObjAddr: 0xBE04, symBinAddr: 0x10000F718, symSize: 0x3C }
  - { offset: 0x2DC7A, size: 0x8, addend: 0x0, symName: __ZNSt4pairIKiSt3mapIiSt8multisetIiSt4lessIiESaIiEES4_SaIS_IS0_S6_EEEEC1IJRS0_EJEEESt21piecewise_construct_tSt5tupleIJDpT_EESE_IJDpT0_EE, symObjAddr: 0xBDC8, symBinAddr: 0x10000F6DC, symSize: 0x3C }
  - { offset: 0x2DCF4, size: 0x8, addend: 0x0, symName: __ZNSt11_Tuple_implILm0EJRKiEEC2EOS2_, symObjAddr: 0xBDA0, symBinAddr: 0x10000F6B4, symSize: 0x28 }
  - { offset: 0x2DD1F, size: 0x8, addend: 0x0, symName: __ZSt22__copy_move_backward_aILb0EPPSt4pairIP8TreeNodeS0_IiiEES6_ET1_T0_S8_S7_, symObjAddr: 0xBD40, symBinAddr: 0x10000F654, symSize: 0x60 }
  - { offset: 0x2DD87, size: 0x8, addend: 0x0, symName: __ZSt13__copy_move_aILb0EPPSt4pairIP8TreeNodeS0_IiiEES6_ET1_T0_S8_S7_, symObjAddr: 0xBCE0, symBinAddr: 0x10000F5F4, symSize: 0x60 }
  - { offset: 0x2DDEF, size: 0x8, addend: 0x0, symName: __ZSt12__miter_baseIPPSt4pairIP8TreeNodeS0_IiiEEET_S7_, symObjAddr: 0xBCCC, symBinAddr: 0x10000F5E0, symSize: 0x14 }
  - { offset: 0x2DE38, size: 0x8, addend: 0x0, symName: __ZSt23__copy_move_backward_a1ILb0EPPiS1_ET1_T0_S3_S2_, symObjAddr: 0xBCA0, symBinAddr: 0x10000F5B4, symSize: 0x2C }
  - { offset: 0x2DEA0, size: 0x8, addend: 0x0, symName: __ZSt12__niter_wrapIPPiET_RKS2_S2_, symObjAddr: 0xBC88, symBinAddr: 0x10000F59C, symSize: 0x18 }
  - { offset: 0x2DEDC, size: 0x8, addend: 0x0, symName: __ZSt14__copy_move_a1ILb0EPPiS1_ET1_T0_S3_S2_, symObjAddr: 0xBC5C, symBinAddr: 0x10000F570, symSize: 0x2C }
  - { offset: 0x2DF44, size: 0x8, addend: 0x0, symName: __ZSt12__niter_baseIPPiET_S2_, symObjAddr: 0xBC48, symBinAddr: 0x10000F55C, symSize: 0x14 }
  - { offset: 0x2DF77, size: 0x8, addend: 0x0, symName: __ZSt8__fill_aIPiiEvT_S1_RKT0_, symObjAddr: 0xBC18, symBinAddr: 0x10000F52C, symSize: 0x30 }
  - { offset: 0x2E04A, size: 0x8, addend: 0x0, symName: __ZSt7forwardISt6vectorIiSaIiEEEOT_RNSt16remove_referenceIS3_E4typeE, symObjAddr: 0xBC04, symBinAddr: 0x10000F518, symSize: 0x14 }
  - { offset: 0x2E07C, size: 0x8, addend: 0x0, symName: __ZSt4copyIN9__gnu_cxx17__normal_iteratorIPKiSt6vectorIiSaIiEEEEPiET0_T_SA_S9_, symObjAddr: 0xBBBC, symBinAddr: 0x10000F4D0, symSize: 0x48 }
  - { offset: 0x2E0DA, size: 0x8, addend: 0x0, symName: __ZSt23__copy_move_backward_a2ILb0EPPP8TreeNodeS3_ET1_T0_S5_S4_, symObjAddr: 0xBB90, symBinAddr: 0x10000F4A4, symSize: 0x2C }
  - { offset: 0x2E142, size: 0x8, addend: 0x0, symName: __ZSt14__copy_move_a2ILb0EPPP8TreeNodeS3_ET1_T0_S5_S4_, symObjAddr: 0xBB64, symBinAddr: 0x10000F478, symSize: 0x2C }
  - { offset: 0x2E1AA, size: 0x8, addend: 0x0, symName: __ZSt13__copy_move_aILb0ESt23_Rb_tree_const_iteratorIiEPiET1_T0_S4_S3_, symObjAddr: 0xBB04, symBinAddr: 0x10000F418, symSize: 0x60 }
  - { offset: 0x2E212, size: 0x8, addend: 0x0, symName: __ZNSt11__copy_moveILb0ELb0ESt26bidirectional_iterator_tagE8__copy_mISt23_Rb_tree_const_iteratorIiEPiEET0_T_S7_S6_, symObjAddr: 0xBAA0, symBinAddr: 0x10000F3B4, symSize: 0x64 }
  - { offset: 0x2E270, size: 0x8, addend: 0x0, symName: __ZNSt20__copy_move_backwardILb1ELb1ESt26random_access_iterator_tagE13__copy_move_bIiiEEPT0_PT_S6_S4_, symObjAddr: 0xB9F4, symBinAddr: 0x10000F308, symSize: 0xAC }
  - { offset: 0x2E2DF, size: 0x8, addend: 0x0, symName: __ZSt4copyISt13move_iteratorIPiES1_ET0_T_S4_S3_, symObjAddr: 0xB9AC, symBinAddr: 0x10000F2C0, symSize: 0x48 }
  - { offset: 0x2E345, size: 0x8, addend: 0x0, symName: __ZN9__gnu_cxx16__aligned_membufIiE7_M_addrEv, symObjAddr: 0xB998, symBinAddr: 0x10000F2AC, symSize: 0x14 }
  - { offset: 0x2E36F, size: 0x8, addend: 0x0, symName: __ZNSt8_Rb_treeIiSt4pairIKiSt8multisetIiSt4lessIiESaIiEEESt10_Select1stIS7_ES4_SaIS7_EE14_M_create_nodeIJRKS7_EEEPSt13_Rb_tree_nodeIS7_EDpOT_, symObjAddr: 0xB958, symBinAddr: 0x10000F26C, symSize: 0x40 }
  - { offset: 0x2E431, size: 0x8, addend: 0x0, symName: __ZNK9__gnu_cxx16__aligned_membufIiE7_M_addrEv, symObjAddr: 0xB944, symBinAddr: 0x10000F258, symSize: 0x14 }
  - { offset: 0x2E45F, size: 0x8, addend: 0x0, symName: __ZNK9__gnu_cxx16__aligned_membufISt4pairIKiSt8multisetIiSt4lessIiESaIiEEEE7_M_addrEv, symObjAddr: 0xB930, symBinAddr: 0x10000F244, symSize: 0x14 }
  - { offset: 0x2E4ED, size: 0x8, addend: 0x0, symName: __ZNSt15__new_allocatorISt13_Rb_tree_nodeISt4pairIKiSt8multisetIiSt4lessIiESaIiEEEEE8allocateEmPKv, symObjAddr: 0xB88C, symBinAddr: 0x10000F1A0, symSize: 0xA4 }
  - { offset: 0x2E57D, size: 0x8, addend: 0x0, symName: __ZNK9__gnu_cxx16__aligned_membufISt4pairIKiSt3mapIiSt8multisetIiSt4lessIiESaIiEES6_SaIS1_IS2_S8_EEEEE7_M_addrEv, symObjAddr: 0xB878, symBinAddr: 0x10000F18C, symSize: 0x14 }
  - { offset: 0x2E61C, size: 0x8, addend: 0x0, symName: __ZNSt5tupleIJRKiEEC1EOS2_, symObjAddr: 0xB850, symBinAddr: 0x10000F164, symSize: 0x28 }
  - { offset: 0x2E64B, size: 0x8, addend: 0x0, symName: __ZNSt15__new_allocatorISt13_Rb_tree_nodeISt4pairIKiSt3mapIiSt8multisetIiSt4lessIiESaIiEES6_SaIS1_IS2_S8_EEEEEE8allocateEmPKv, symObjAddr: 0xB7AC, symBinAddr: 0x10000F0C0, symSize: 0xA4 }
  - { offset: 0x2E6D3, size: 0x8, addend: 0x0, symName: __ZSt13copy_backwardIPPSt4pairIP8TreeNodeS0_IiiEES6_ET0_T_S8_S7_, symObjAddr: 0xB764, symBinAddr: 0x10000F078, symSize: 0x48 }
  - { offset: 0x2E731, size: 0x8, addend: 0x0, symName: __ZSt4copyIPPSt4pairIP8TreeNodeS0_IiiEES6_ET0_T_S8_S7_, symObjAddr: 0xB71C, symBinAddr: 0x10000F030, symSize: 0x48 }
  - { offset: 0x2E7A9, size: 0x8, addend: 0x0, symName: __ZNSt15__new_allocatorISt4pairIP8TreeNodeS0_IiiEEE8allocateEmPKv, symObjAddr: 0xB6A0, symBinAddr: 0x10000EFB4, symSize: 0x7C }
  - { offset: 0x2E831, size: 0x8, addend: 0x0, symName: __ZSt22__copy_move_backward_aILb0EPPiS1_ET1_T0_S3_S2_, symObjAddr: 0xB640, symBinAddr: 0x10000EF54, symSize: 0x60 }
  - { offset: 0x2E899, size: 0x8, addend: 0x0, symName: __ZSt13__copy_move_aILb0EPPiS1_ET1_T0_S3_S2_, symObjAddr: 0xB5E0, symBinAddr: 0x10000EEF4, symSize: 0x60 }
  - { offset: 0x2E901, size: 0x8, addend: 0x0, symName: __ZSt12__miter_baseIPPiET_S2_, symObjAddr: 0xB5CC, symBinAddr: 0x10000EEE0, symSize: 0x14 }
  - { offset: 0x2E934, size: 0x8, addend: 0x0, symName: __ZSt10__fill_n_aIPimiET_S1_T0_RKT1_St26random_access_iterator_tag, symObjAddr: 0xB568, symBinAddr: 0x10000EE7C, symSize: 0x64 }
  - { offset: 0x2EA32, size: 0x8, addend: 0x0, symName: __ZSt4moveIRSt6vectorIiSaIiEEEONSt16remove_referenceIT_E4typeEOS5_, symObjAddr: 0xB554, symBinAddr: 0x10000EE68, symSize: 0x14 }
  - { offset: 0x2EA7A, size: 0x8, addend: 0x0, symName: __ZNSt20__uninitialized_copyILb1EE13__uninit_copyIN9__gnu_cxx17__normal_iteratorIPKiSt6vectorIiSaIiEEEEPiEET0_T_SC_SB_, symObjAddr: 0xB528, symBinAddr: 0x10000EE3C, symSize: 0x2C }
  - { offset: 0x2EAD5, size: 0x8, addend: 0x0, symName: __ZSt23__copy_move_backward_a1ILb0EPPP8TreeNodeS3_ET1_T0_S5_S4_, symObjAddr: 0xB4FC, symBinAddr: 0x10000EE10, symSize: 0x2C }
  - { offset: 0x2EB3D, size: 0x8, addend: 0x0, symName: __ZSt12__niter_wrapIPPP8TreeNodeET_RKS4_S4_, symObjAddr: 0xB4E4, symBinAddr: 0x10000EDF8, symSize: 0x18 }
  - { offset: 0x2EB79, size: 0x8, addend: 0x0, symName: __ZSt14__copy_move_a1ILb0EPPP8TreeNodeS3_ET1_T0_S5_S4_, symObjAddr: 0xB4B8, symBinAddr: 0x10000EDCC, symSize: 0x2C }
  - { offset: 0x2EBE1, size: 0x8, addend: 0x0, symName: __ZSt12__niter_baseIPPP8TreeNodeET_S4_, symObjAddr: 0xB4A4, symBinAddr: 0x10000EDB8, symSize: 0x14 }
  - { offset: 0x2EC14, size: 0x8, addend: 0x0, symName: __ZSt4copyISt23_Rb_tree_const_iteratorIiEPiET0_T_S4_S3_, symObjAddr: 0xB45C, symBinAddr: 0x10000ED70, symSize: 0x48 }
  - { offset: 0x2EC72, size: 0x8, addend: 0x0, symName: __ZSt14__copy_move_a2ILb0ESt23_Rb_tree_const_iteratorIiEPiET1_T0_S4_S3_, symObjAddr: 0xB430, symBinAddr: 0x10000ED44, symSize: 0x2C }
  - { offset: 0x2ECDA, size: 0x8, addend: 0x0, symName: __ZSt23__copy_move_backward_a2ILb1EPiS0_ET1_T0_S2_S1_, symObjAddr: 0xB404, symBinAddr: 0x10000ED18, symSize: 0x2C }
  - { offset: 0x2ED42, size: 0x8, addend: 0x0, symName: __ZNSt20__uninitialized_copyILb1EE13__uninit_copyISt13move_iteratorIPiES3_EET0_T_S6_S5_, symObjAddr: 0xB3D8, symBinAddr: 0x10000ECEC, symSize: 0x2C }
  - { offset: 0x2EDA1, size: 0x8, addend: 0x0, symName: __ZNSt15__new_allocatorISt13_Rb_tree_nodeIiEE10deallocateEPS1_m, symObjAddr: 0xB39C, symBinAddr: 0x10000ECB0, symSize: 0x3C }
  - { offset: 0x2EE17, size: 0x8, addend: 0x0, symName: __ZN9__gnu_cxx16__aligned_membufIiE6_M_ptrEv, symObjAddr: 0xB380, symBinAddr: 0x10000EC94, symSize: 0x1C }
  - { offset: 0x2EE41, size: 0x8, addend: 0x0, symName: __ZNSt15__new_allocatorISt13_Rb_tree_nodeISt4pairIKiSt8multisetIiSt4lessIiESaIiEEEEE10deallocateEPS9_m, symObjAddr: 0xB33C, symBinAddr: 0x10000EC50, symSize: 0x44 }
  - { offset: 0x2EEC2, size: 0x8, addend: 0x0, symName: __ZNKSt8_Rb_treeIiSt4pairIKiSt8multisetIiSt4lessIiESaIiEEESt10_Select1stIS7_ES4_SaIS7_EE11_Alloc_nodeclIRKS7_EEPSt13_Rb_tree_nodeIS7_EOT_, symObjAddr: 0xB300, symBinAddr: 0x10000EC14, symSize: 0x3C }
  - { offset: 0x2EF09, size: 0x8, addend: 0x0, symName: __ZSt7forwardIRKSt4pairIKiSt8multisetIiSt4lessIiESaIiEEEEOT_RNSt16remove_referenceISA_E4typeE, symObjAddr: 0xB2EC, symBinAddr: 0x10000EC00, symSize: 0x14 }
  - { offset: 0x2EF3F, size: 0x8, addend: 0x0, symName: __ZNSt8_Rb_treeIiiSt9_IdentityIiESt4lessIiESaIiEE17_M_construct_nodeIJRKiEEEvPSt13_Rb_tree_nodeIiEDpOT_, symObjAddr: 0xB23C, symBinAddr: 0x10000EB50, symSize: 0xB0 }
  - { offset: 0x2F002, size: 0x8, addend: 0x0, symName: __ZNSt8_Rb_treeIiiSt9_IdentityIiESt4lessIiESaIiEE11_M_get_nodeEv, symObjAddr: 0xB200, symBinAddr: 0x10000EB14, symSize: 0x3C }
  - { offset: 0x2F059, size: 0x8, addend: 0x0, symName: __ZNK9__gnu_cxx16__aligned_membufIiE6_M_ptrEv, symObjAddr: 0xB1E4, symBinAddr: 0x10000EAF8, symSize: 0x1C }
  - { offset: 0x2F083, size: 0x8, addend: 0x0, symName: __ZNK9__gnu_cxx16__aligned_membufISt4pairIKiSt8multisetIiSt4lessIiESaIiEEEE6_M_ptrEv, symObjAddr: 0xB1C8, symBinAddr: 0x10000EADC, symSize: 0x1C }
  - { offset: 0x2F0B7, size: 0x8, addend: 0x0, symName: __ZSt7forwardIRPSt13_Rb_tree_nodeISt4pairIKiSt8multisetIiSt4lessIiESaIiEEEEEOT_RNSt16remove_referenceISC_E4typeE, symObjAddr: 0xB1B4, symBinAddr: 0x10000EAC8, symSize: 0x14 }
  - { offset: 0x2F169, size: 0x8, addend: 0x0, symName: __ZNK9__gnu_cxx16__aligned_membufISt4pairIKiSt3mapIiSt8multisetIiSt4lessIiESaIiEES6_SaIS1_IS2_S8_EEEEE6_M_ptrEv, symObjAddr: 0xB198, symBinAddr: 0x10000EAAC, symSize: 0x1C }
  - { offset: 0x2F19D, size: 0x8, addend: 0x0, symName: __ZSt7forwardIRPSt13_Rb_tree_nodeISt4pairIKiSt3mapIiSt8multisetIiSt4lessIiESaIiEES6_SaIS1_IS2_S8_EEEEEEOT_RNSt16remove_referenceISG_E4typeE, symObjAddr: 0xB184, symBinAddr: 0x10000EA98, symSize: 0x14 }
  - { offset: 0x2F24F, size: 0x8, addend: 0x0, symName: __ZNSt5dequeISt4pairIP8TreeNodeS0_IiiEESaIS4_EE17_M_reallocate_mapEmb, symObjAddr: 0xAF40, symBinAddr: 0x10000E854, symSize: 0x244 }
  - { offset: 0x2F300, size: 0x8, addend: 0x0, symName: __ZNSt5dequeISt4pairIP8TreeNodeS0_IiiEESaIS4_EE11_S_max_sizeERKS5_, symObjAddr: 0xAEEC, symBinAddr: 0x10000E800, symSize: 0x54 }
  - { offset: 0x2F3BE, size: 0x8, addend: 0x0, symName: __ZStmiRKSt15_Deque_iteratorISt4pairIP8TreeNodeS0_IiiEERS4_PS4_ES9_, symObjAddr: 0xAE58, symBinAddr: 0x10000E76C, symSize: 0x94 }
  - { offset: 0x2F413, size: 0x8, addend: 0x0, symName: __ZNSt15__new_allocatorISt4pairIP8TreeNodeS0_IiiEEE10deallocateEPS4_m, symObjAddr: 0xAE28, symBinAddr: 0x10000E73C, symSize: 0x30 }
  - { offset: 0x2F481, size: 0x8, addend: 0x0, symName: __ZNSt15__new_allocatorIPSt4pairIP8TreeNodeS0_IiiEEE8allocateEmPKv, symObjAddr: 0xADAC, symBinAddr: 0x10000E6C0, symSize: 0x7C }
  - { offset: 0x2F50D, size: 0x8, addend: 0x0, symName: __ZNSt15__new_allocatorISt13_Rb_tree_nodeISt4pairIKiSt3mapIiSt8multisetIiSt4lessIiESaIiEES6_SaIS1_IS2_S8_EEEEEE10deallocateEPSD_m, symObjAddr: 0xAD68, symBinAddr: 0x10000E67C, symSize: 0x44 }
  - { offset: 0x2F599, size: 0x8, addend: 0x0, symName: __ZNSt15__new_allocatorIPiE8allocateEmPKv, symObjAddr: 0xACEC, symBinAddr: 0x10000E600, symSize: 0x7C }
  - { offset: 0x2F621, size: 0x8, addend: 0x0, symName: __ZSt13copy_backwardIPPiS1_ET0_T_S3_S2_, symObjAddr: 0xACA4, symBinAddr: 0x10000E5B8, symSize: 0x48 }
  - { offset: 0x2F67F, size: 0x8, addend: 0x0, symName: __ZSt4copyIPPiS1_ET0_T_S3_S2_, symObjAddr: 0xAC5C, symBinAddr: 0x10000E570, symSize: 0x48 }
  - { offset: 0x2F6DD, size: 0x8, addend: 0x0, symName: __ZSt6fill_nIPimiET_S1_T0_RKT1_, symObjAddr: 0xAC14, symBinAddr: 0x10000E528, symSize: 0x48 }
  - { offset: 0x2F765, size: 0x8, addend: 0x0, symName: __ZSt10_ConstructIiJEEvPT_DpOT0_, symObjAddr: 0xABE8, symBinAddr: 0x10000E4FC, symSize: 0x2C }
  - { offset: 0x2F7A1, size: 0x8, addend: 0x0, symName: __ZSt11__addressofIiEPT_RS0_, symObjAddr: 0xABD4, symBinAddr: 0x10000E4E8, symSize: 0x14 }
  - { offset: 0x2F7D3, size: 0x8, addend: 0x0, symName: __ZSt19__relocate_object_aISt6vectorIiSaIiEES2_SaIS2_EEvPT_PT0_RT1_, symObjAddr: 0xAB04, symBinAddr: 0x10000E418, symSize: 0xD0 }
  - { offset: 0x2F91B, size: 0x8, addend: 0x0, symName: __ZSt18uninitialized_copyIN9__gnu_cxx17__normal_iteratorIPKiSt6vectorIiSaIiEEEEPiET0_T_SA_S9_, symObjAddr: 0xAAC8, symBinAddr: 0x10000E3DC, symSize: 0x3C }
  - { offset: 0x2F9AC, size: 0x8, addend: 0x0, symName: __ZSt22__copy_move_backward_aILb0EPPP8TreeNodeS3_ET1_T0_S5_S4_, symObjAddr: 0xAA68, symBinAddr: 0x10000E37C, symSize: 0x60 }
  - { offset: 0x2FA14, size: 0x8, addend: 0x0, symName: __ZSt13__copy_move_aILb0EPPP8TreeNodeS3_ET1_T0_S5_S4_, symObjAddr: 0xAA08, symBinAddr: 0x10000E31C, symSize: 0x60 }
  - { offset: 0x2FA7C, size: 0x8, addend: 0x0, symName: __ZSt12__miter_baseIPPP8TreeNodeET_S4_, symObjAddr: 0xA9F4, symBinAddr: 0x10000E308, symSize: 0x14 }
  - { offset: 0x2FAC5, size: 0x8, addend: 0x0, symName: __ZNSt20__uninitialized_copyILb1EE13__uninit_copyISt23_Rb_tree_const_iteratorIiEPiEET0_T_S6_S5_, symObjAddr: 0xA9C8, symBinAddr: 0x10000E2DC, symSize: 0x2C }
  - { offset: 0x2FB24, size: 0x8, addend: 0x0, symName: __ZNSt23_Rb_tree_const_iteratorIiEmmEv, symObjAddr: 0xA998, symBinAddr: 0x10000E2AC, symSize: 0x30 }
  - { offset: 0x2FB4A, size: 0x8, addend: 0x0, symName: __ZSt12__niter_wrapIN9__gnu_cxx17__normal_iteratorIPiSt6vectorIiSaIiEEEES2_ET_S7_T0_, symObjAddr: 0xA950, symBinAddr: 0x10000E264, symSize: 0x48 }
  - { offset: 0x2FB97, size: 0x8, addend: 0x0, symName: __ZSt14__copy_move_a1ILb0ESt23_Rb_tree_const_iteratorIiEPiET1_T0_S4_S3_, symObjAddr: 0xA924, symBinAddr: 0x10000E238, symSize: 0x2C }
  - { offset: 0x2FBFF, size: 0x8, addend: 0x0, symName: __ZSt12__niter_baseIPiSt6vectorIiSaIiEEET_N9__gnu_cxx17__normal_iteratorIS4_T0_EE, symObjAddr: 0xA904, symBinAddr: 0x10000E218, symSize: 0x20 }
  - { offset: 0x2FC3B, size: 0x8, addend: 0x0, symName: __ZSt12__niter_baseISt23_Rb_tree_const_iteratorIiEET_S2_, symObjAddr: 0xA8F0, symBinAddr: 0x10000E204, symSize: 0x14 }
  - { offset: 0x2FC6E, size: 0x8, addend: 0x0, symName: __ZSt12__niter_wrapIPiET_RKS1_S1_, symObjAddr: 0xA8D8, symBinAddr: 0x10000E1EC, symSize: 0x18 }
  - { offset: 0x2FCAA, size: 0x8, addend: 0x0, symName: __ZSt23__copy_move_backward_a1ILb1EPiS0_ET1_T0_S2_S1_, symObjAddr: 0xA8AC, symBinAddr: 0x10000E1C0, symSize: 0x2C }
  - { offset: 0x2FD12, size: 0x8, addend: 0x0, symName: __ZSt18uninitialized_copyISt13move_iteratorIPiES1_ET0_T_S4_S3_, symObjAddr: 0xA870, symBinAddr: 0x10000E184, symSize: 0x3C }
  - { offset: 0x2FDB9, size: 0x8, addend: 0x0, symName: __ZNSt13move_iteratorIPiEC1ES0_, symObjAddr: 0xA840, symBinAddr: 0x10000E154, symSize: 0x30 }
  - { offset: 0x2FDEB, size: 0x8, addend: 0x0, symName: __ZSt4moveIRPiEONSt16remove_referenceIT_E4typeEOS3_, symObjAddr: 0xA82C, symBinAddr: 0x10000E140, symSize: 0x14 }
  - { offset: 0x2FE21, size: 0x8, addend: 0x0, symName: __ZNSt23_Rb_tree_const_iteratorIiEppEv, symObjAddr: 0xA7FC, symBinAddr: 0x10000E110, symSize: 0x30 }
  - { offset: 0x2FEAA, size: 0x8, addend: 0x0, symName: __ZNSt13_Rb_tree_nodeIiE9_M_valptrEv, symObjAddr: 0xA7DC, symBinAddr: 0x10000E0F0, symSize: 0x20 }
  - { offset: 0x2FED4, size: 0x8, addend: 0x0, symName: __ZNSt8_Rb_treeIiiSt9_IdentityIiESt4lessIiESaIiEE21_M_get_Node_allocatorEv, symObjAddr: 0xA7C8, symBinAddr: 0x10000E0DC, symSize: 0x14 }
  - { offset: 0x2FF05, size: 0x8, addend: 0x0, symName: __ZNSt8_Rb_treeIiiSt9_IdentityIiESt4lessIiESaIiEE13_M_clone_nodeILb0ENS5_11_Alloc_nodeEEEPSt13_Rb_tree_nodeIiESA_RT0_, symObjAddr: 0xA76C, symBinAddr: 0x10000E080, symSize: 0x5C }
  - { offset: 0x2FFD4, size: 0x8, addend: 0x0, symName: __ZNSt8_Rb_treeIiSt4pairIKiSt8multisetIiSt4lessIiESaIiEEESt10_Select1stIS7_ES4_SaIS7_EE21_M_get_Node_allocatorEv, symObjAddr: 0xA758, symBinAddr: 0x10000E06C, symSize: 0x14 }
  - { offset: 0x30005, size: 0x8, addend: 0x0, symName: __ZNSt8_Rb_treeIiSt4pairIKiSt8multisetIiSt4lessIiESaIiEEESt10_Select1stIS7_ES4_SaIS7_EE13_M_clone_nodeILb0ENSB_11_Alloc_nodeEEEPSt13_Rb_tree_nodeIS7_ESG_RT0_, symObjAddr: 0xA6FC, symBinAddr: 0x10000E010, symSize: 0x5C }
  - { offset: 0x30075, size: 0x8, addend: 0x0, symName: __ZNSt8_Rb_treeIiiSt9_IdentityIiESt4lessIiESaIiEE14_M_create_nodeIJRKiEEEPSt13_Rb_tree_nodeIiEDpOT_, symObjAddr: 0xA6BC, symBinAddr: 0x10000DFD0, symSize: 0x40 }
  - { offset: 0x300D5, size: 0x8, addend: 0x0, symName: __ZSt7forwardIRPSt13_Rb_tree_nodeIiEEOT_RNSt16remove_referenceIS4_E4typeE, symObjAddr: 0xA6A8, symBinAddr: 0x10000DFBC, symSize: 0x14 }
  - { offset: 0x3010B, size: 0x8, addend: 0x0, symName: __ZNKSt13_Rb_tree_nodeIiE9_M_valptrEv, symObjAddr: 0xA688, symBinAddr: 0x10000DF9C, symSize: 0x20 }
  - { offset: 0x30135, size: 0x8, addend: 0x0, symName: __ZNKSt10_Select1stISt4pairIKiSt8multisetIiSt4lessIiESaIiEEEEclERKS7_, symObjAddr: 0xA670, symBinAddr: 0x10000DF84, symSize: 0x18 }
  - { offset: 0x30170, size: 0x8, addend: 0x0, symName: __ZNKSt13_Rb_tree_nodeISt4pairIKiSt8multisetIiSt4lessIiESaIiEEEE9_M_valptrEv, symObjAddr: 0xA650, symBinAddr: 0x10000DF64, symSize: 0x20 }
  - { offset: 0x301E2, size: 0x8, addend: 0x0, symName: __ZNSt4pairIPSt18_Rb_tree_node_baseS1_EC1IRPSt13_Rb_tree_nodeIS_IKiSt8multisetIiSt4lessIiESaIiEEEERS1_Lb1EEEOT_OT0_, symObjAddr: 0xA608, symBinAddr: 0x10000DF1C, symSize: 0x48 }
  - { offset: 0x3022C, size: 0x8, addend: 0x0, symName: __ZNSt8_Rb_treeIiSt4pairIKiSt8multisetIiSt4lessIiESaIiEEESt10_Select1stIS7_ES4_SaIS7_EE17_M_construct_nodeIJRKSt21piecewise_construct_tSt5tupleIJRS1_EESG_IJEEEEEvPSt13_Rb_tree_nodeIS7_EDpOT_, symObjAddr: 0xA48C, symBinAddr: 0x10000DDA0, symSize: 0x17C }
  - { offset: 0x3032D, size: 0x8, addend: 0x0, symName: __ZNSt8_Rb_treeIiSt4pairIKiSt8multisetIiSt4lessIiESaIiEEESt10_Select1stIS7_ES4_SaIS7_EE11_M_get_nodeEv, symObjAddr: 0xA450, symBinAddr: 0x10000DD64, symSize: 0x3C }
  - { offset: 0x30384, size: 0x8, addend: 0x0, symName: __ZNKSt10_Select1stISt4pairIKiSt3mapIiSt8multisetIiSt4lessIiESaIiEES5_SaIS0_IS1_S7_EEEEEclERKSB_, symObjAddr: 0xA438, symBinAddr: 0x10000DD4C, symSize: 0x18 }
  - { offset: 0x303BF, size: 0x8, addend: 0x0, symName: __ZNKSt13_Rb_tree_nodeISt4pairIKiSt3mapIiSt8multisetIiSt4lessIiESaIiEES5_SaIS0_IS1_S7_EEEEE9_M_valptrEv, symObjAddr: 0xA418, symBinAddr: 0x10000DD2C, symSize: 0x20 }
  - { offset: 0x303EC, size: 0x8, addend: 0x0, symName: __ZSt7forwardIRPSt18_Rb_tree_node_baseEOT_RNSt16remove_referenceIS3_E4typeE, symObjAddr: 0xA404, symBinAddr: 0x10000DD18, symSize: 0x14 }
  - { offset: 0x3046A, size: 0x8, addend: 0x0, symName: __ZNSt4pairIPSt18_Rb_tree_node_baseS1_EC1IRPSt13_Rb_tree_nodeIS_IKiSt3mapIiSt8multisetIiSt4lessIiESaIiEES9_SaIS_IS5_SB_EEEEERS1_Lb1EEEOT_OT0_, symObjAddr: 0xA3BC, symBinAddr: 0x10000DCD0, symSize: 0x48 }
  - { offset: 0x304B4, size: 0x8, addend: 0x0, symName: __ZNSt8_Rb_treeIiSt4pairIKiSt3mapIiSt8multisetIiSt4lessIiESaIiEES5_SaIS0_IS1_S7_EEEESt10_Select1stISB_ES5_SaISB_EE17_M_construct_nodeIJRKSt21piecewise_construct_tSt5tupleIJRS1_EESK_IJEEEEEvPSt13_Rb_tree_nodeISB_EDpOT_, symObjAddr: 0xA240, symBinAddr: 0x10000DB54, symSize: 0x17C }
  - { offset: 0x305B5, size: 0x8, addend: 0x0, symName: __ZNSt8_Rb_treeIiSt4pairIKiSt3mapIiSt8multisetIiSt4lessIiESaIiEES5_SaIS0_IS1_S7_EEEESt10_Select1stISB_ES5_SaISB_EE11_M_get_nodeEv, symObjAddr: 0xA204, symBinAddr: 0x10000DB18, symSize: 0x3C }
  - { offset: 0x3060C, size: 0x8, addend: 0x0, symName: __ZNSt15_Deque_iteratorISt4pairIP8TreeNodeS0_IiiEERS4_PS4_EmmEv, symObjAddr: 0xA198, symBinAddr: 0x10000DAAC, symSize: 0x6C }
  - { offset: 0x30636, size: 0x8, addend: 0x0, symName: __ZNSt5dequeISt4pairIP8TreeNodeS0_IiiEESaIS4_EE22_M_reserve_map_at_backEm, symObjAddr: 0xA138, symBinAddr: 0x10000DA4C, symSize: 0x60 }
  - { offset: 0x30671, size: 0x8, addend: 0x0, symName: __ZNKSt5dequeISt4pairIP8TreeNodeS0_IiiEESaIS4_EE8max_sizeEv, symObjAddr: 0xA118, symBinAddr: 0x10000DA2C, symSize: 0x20 }
  - { offset: 0x3069B, size: 0x8, addend: 0x0, symName: __ZNKSt5dequeISt4pairIP8TreeNodeS0_IiiEESaIS4_EE4sizeEv, symObjAddr: 0xA0E8, symBinAddr: 0x10000D9FC, symSize: 0x30 }
  - { offset: 0x30707, size: 0x8, addend: 0x0, symName: __ZNSt15__new_allocatorIPSt4pairIP8TreeNodeS0_IiiEEE10deallocateEPS5_m, symObjAddr: 0xA0B8, symBinAddr: 0x10000D9CC, symSize: 0x30 }
  - { offset: 0x30775, size: 0x8, addend: 0x0, symName: __ZNSt15__new_allocatorIPSt4pairIP8TreeNodeS0_IiiEEED2Ev, symObjAddr: 0xA0A4, symBinAddr: 0x10000D9B8, symSize: 0x14 }
  - { offset: 0x307BF, size: 0x8, addend: 0x0, symName: __ZNKSt11_Deque_baseISt4pairIP8TreeNodeS0_IiiEESaIS4_EE19_M_get_Tp_allocatorEv, symObjAddr: 0xA090, symBinAddr: 0x10000D9A4, symSize: 0x14 }
  - { offset: 0x30817, size: 0x8, addend: 0x0, symName: __ZNSt15_Deque_iteratorISt4pairIP8TreeNodeS0_IiiEERS4_PS4_E14_S_buffer_sizeEv, symObjAddr: 0xA078, symBinAddr: 0x10000D98C, symSize: 0x18 }
  - { offset: 0x30833, size: 0x8, addend: 0x0, symName: __ZNSt11_Deque_baseISt4pairIP8TreeNodeS0_IiiEESaIS4_EE16_M_allocate_nodeEv, symObjAddr: 0xA034, symBinAddr: 0x10000D948, symSize: 0x44 }
  - { offset: 0x308C8, size: 0x8, addend: 0x0, symName: __ZNSt15_Deque_iteratorISt4pairIP8TreeNodeS0_IiiEERS4_PS4_EC1Ev, symObjAddr: 0xA000, symBinAddr: 0x10000D914, symSize: 0x34 }
  - { offset: 0x30963, size: 0x8, addend: 0x0, symName: __ZNSt8_Rb_treeIiSt4pairIKiSt3mapIiSt8multisetIiSt4lessIiESaIiEES5_SaIS0_IS1_S7_EEEESt10_Select1stISB_ES5_SaISB_EE21_M_get_Node_allocatorEv, symObjAddr: 0x9FEC, symBinAddr: 0x10000D900, symSize: 0x14 }
  - { offset: 0x3098D, size: 0x8, addend: 0x0, symName: __ZNSt15__new_allocatorIPiE10deallocateEPS0_m, symObjAddr: 0x9FBC, symBinAddr: 0x10000D8D0, symSize: 0x30 }
  - { offset: 0x309FB, size: 0x8, addend: 0x0, symName: __ZNSt15__new_allocatorIPiED2Ev, symObjAddr: 0x9FA8, symBinAddr: 0x10000D8BC, symSize: 0x14 }
  - { offset: 0x30A83, size: 0x8, addend: 0x0, symName: __ZNSt15_Deque_iteratorIiRiPiEC1Ev, symObjAddr: 0x9F74, symBinAddr: 0x10000D888, symSize: 0x34 }
  - { offset: 0x30AA5, size: 0x8, addend: 0x0, symName: __ZNSt15_Deque_iteratorIiRiPiE14_S_buffer_sizeEv, symObjAddr: 0x9F5C, symBinAddr: 0x10000D870, symSize: 0x18 }
  - { offset: 0x30AC1, size: 0x8, addend: 0x0, symName: __ZNSt5dequeIiSaIiEE17_M_reallocate_mapEmb, symObjAddr: 0x9D18, symBinAddr: 0x10000D62C, symSize: 0x244 }
  - { offset: 0x30B76, size: 0x8, addend: 0x0, symName: __ZNKSt11_Deque_baseIiSaIiEE19_M_get_Tp_allocatorEv, symObjAddr: 0x9D04, symBinAddr: 0x10000D618, symSize: 0x14 }
  - { offset: 0x30B9C, size: 0x8, addend: 0x0, symName: __ZNSt5dequeIiSaIiEE11_S_max_sizeERKS0_, symObjAddr: 0x9CB0, symBinAddr: 0x10000D5C4, symSize: 0x54 }
  - { offset: 0x30C5A, size: 0x8, addend: 0x0, symName: __ZStmiRKSt15_Deque_iteratorIiRiPiES4_, symObjAddr: 0x9C1C, symBinAddr: 0x10000D530, symSize: 0x94 }
  - { offset: 0x30C95, size: 0x8, addend: 0x0, symName: __ZNSt27__uninitialized_default_n_1ILb1EE18__uninit_default_nIPimEET_S3_T0_, symObjAddr: 0x9BB8, symBinAddr: 0x10000D4CC, symSize: 0x64 }
  - { offset: 0x30D22, size: 0x8, addend: 0x0, symName: __ZSt14__relocate_a_1IPSt6vectorIiSaIiEES3_SaIS2_EET0_T_S6_S5_RT1_, symObjAddr: 0x9B34, symBinAddr: 0x10000D448, symSize: 0x84 }
  - { offset: 0x30DAB, size: 0x8, addend: 0x0, symName: __ZSt12__niter_baseIPSt6vectorIiSaIiEEET_S4_, symObjAddr: 0x9B20, symBinAddr: 0x10000D434, symSize: 0x14 }
  - { offset: 0x30DE2, size: 0x8, addend: 0x0, symName: __ZNSt15__new_allocatorISt6vectorIiSaIiEEE8allocateEmPKv, symObjAddr: 0x9A90, symBinAddr: 0x10000D3A4, symSize: 0x90 }
  - { offset: 0x30E6E, size: 0x8, addend: 0x0, symName: __ZNKSt12_Vector_baseISt6vectorIiSaIiEESaIS2_EE19_M_get_Tp_allocatorEv, symObjAddr: 0x9A7C, symBinAddr: 0x10000D390, symSize: 0x14 }
  - { offset: 0x30E94, size: 0x8, addend: 0x0, symName: __ZNSt6vectorIS_IiSaIiEESaIS1_EE11_S_max_sizeERKS2_, symObjAddr: 0x9A20, symBinAddr: 0x10000D334, symSize: 0x5C }
  - { offset: 0x30F4B, size: 0x8, addend: 0x0, symName: __ZSt22__uninitialized_copy_aIN9__gnu_cxx17__normal_iteratorIPKiSt6vectorIiSaIiEEEEPiiET0_T_SA_S9_RSaIT1_E, symObjAddr: 0x99F0, symBinAddr: 0x10000D304, symSize: 0x30 }
  - { offset: 0x30FBF, size: 0x8, addend: 0x0, symName: __ZNKSt6vectorIiSaIiEE3endEv, symObjAddr: 0x99C8, symBinAddr: 0x10000D2DC, symSize: 0x28 }
  - { offset: 0x30FE9, size: 0x8, addend: 0x0, symName: __ZNKSt6vectorIiSaIiEE5beginEv, symObjAddr: 0x99A4, symBinAddr: 0x10000D2B8, symSize: 0x24 }
  - { offset: 0x31024, size: 0x8, addend: 0x0, symName: __ZSt14__relocate_a_1IiiENSt9enable_ifIXsrSt24__is_bitwise_relocatableIT_vE5valueEPS2_E4typeES4_S4_S4_RSaIT0_E, symObjAddr: 0x9940, symBinAddr: 0x10000D254, symSize: 0x64 }
  - { offset: 0x310A4, size: 0x8, addend: 0x0, symName: __ZSt12__niter_baseIPiET_S1_, symObjAddr: 0x992C, symBinAddr: 0x10000D240, symSize: 0x14 }
  - { offset: 0x310DB, size: 0x8, addend: 0x0, symName: __ZNSt15__new_allocatorIiE8allocateEmPKv, symObjAddr: 0x98B0, symBinAddr: 0x10000D1C4, symSize: 0x7C }
  - { offset: 0x31167, size: 0x8, addend: 0x0, symName: __ZNKSt12_Vector_baseIiSaIiEE19_M_get_Tp_allocatorEv, symObjAddr: 0x989C, symBinAddr: 0x10000D1B0, symSize: 0x14 }
  - { offset: 0x31191, size: 0x8, addend: 0x0, symName: __ZNSt15__new_allocatorIP8TreeNodeE8allocateEmPKv, symObjAddr: 0x9820, symBinAddr: 0x10000D134, symSize: 0x7C }
  - { offset: 0x31219, size: 0x8, addend: 0x0, symName: __ZSt13copy_backwardIPPP8TreeNodeS3_ET0_T_S5_S4_, symObjAddr: 0x97D8, symBinAddr: 0x10000D0EC, symSize: 0x48 }
  - { offset: 0x31277, size: 0x8, addend: 0x0, symName: __ZSt4copyIPPP8TreeNodeS3_ET0_T_S5_S4_, symObjAddr: 0x9790, symBinAddr: 0x10000D0A4, symSize: 0x48 }
  - { offset: 0x31305, size: 0x8, addend: 0x0, symName: __ZNSt15__new_allocatorIP8TreeNodeE10deallocateEPS1_m, symObjAddr: 0x9760, symBinAddr: 0x10000D074, symSize: 0x30 }
  - { offset: 0x3134F, size: 0x8, addend: 0x0, symName: __ZNSt15__new_allocatorIPP8TreeNodeE8allocateEmPKv, symObjAddr: 0x96E4, symBinAddr: 0x10000CFF8, symSize: 0x7C }
  - { offset: 0x313D7, size: 0x8, addend: 0x0, symName: __ZSt8_DestroyISt6vectorIiSaIiEEEvPT_, symObjAddr: 0x96C4, symBinAddr: 0x10000CFD8, symSize: 0x20 }
  - { offset: 0x31409, size: 0x8, addend: 0x0, symName: __ZSt11__addressofISt6vectorIiSaIiEEEPT_RS3_, symObjAddr: 0x96B0, symBinAddr: 0x10000CFC4, symSize: 0x14 }
  - { offset: 0x3143B, size: 0x8, addend: 0x0, symName: __ZSt32__make_move_if_noexcept_iteratorIiSt13move_iteratorIPiEET0_PT_, symObjAddr: 0x968C, symBinAddr: 0x10000CFA0, symSize: 0x24 }
  - { offset: 0x31477, size: 0x8, addend: 0x0, symName: __ZSt18uninitialized_copyISt23_Rb_tree_const_iteratorIiEPiET0_T_S4_S3_, symObjAddr: 0x9650, symBinAddr: 0x10000CF64, symSize: 0x3C }
  - { offset: 0x314F9, size: 0x8, addend: 0x0, symName: __ZSt9__advanceISt23_Rb_tree_const_iteratorIiElEvRT_T0_St26bidirectional_iterator_tag, symObjAddr: 0x95C4, symBinAddr: 0x10000CED8, symSize: 0x8C }
  - { offset: 0x3154D, size: 0x8, addend: 0x0, symName: __ZSt13__copy_move_aILb0ESt23_Rb_tree_const_iteratorIiEN9__gnu_cxx17__normal_iteratorIPiSt6vectorIiSaIiEEEEET1_T0_SA_S9_, symObjAddr: 0x9564, symBinAddr: 0x10000CE78, symSize: 0x60 }
  - { offset: 0x315B5, size: 0x8, addend: 0x0, symName: __ZSt12__miter_baseISt23_Rb_tree_const_iteratorIiEET_S2_, symObjAddr: 0x9550, symBinAddr: 0x10000CE64, symSize: 0x14 }
  - { offset: 0x315E8, size: 0x8, addend: 0x0, symName: __ZSt22__copy_move_backward_aILb1EPiS0_ET1_T0_S2_S1_, symObjAddr: 0x94F0, symBinAddr: 0x10000CE04, symSize: 0x60 }
  - { offset: 0x31650, size: 0x8, addend: 0x0, symName: __ZSt12__miter_baseIPiET_S1_, symObjAddr: 0x94DC, symBinAddr: 0x10000CDF0, symSize: 0x14 }
  - { offset: 0x31683, size: 0x8, addend: 0x0, symName: __ZSt22__uninitialized_copy_aISt13move_iteratorIPiES1_iET0_T_S4_S3_RSaIT1_E, symObjAddr: 0x94AC, symBinAddr: 0x10000CDC0, symSize: 0x30 }
  - { offset: 0x316F3, size: 0x8, addend: 0x0, symName: __ZSt18make_move_iteratorIPiESt13move_iteratorIT_ES2_, symObjAddr: 0x9480, symBinAddr: 0x10000CD94, symSize: 0x2C }
  - { offset: 0x31726, size: 0x8, addend: 0x0, symName: __ZSt10__distanceISt23_Rb_tree_const_iteratorIiEENSt15iterator_traitsIT_E15difference_typeES3_S3_St18input_iterator_tag, symObjAddr: 0x942C, symBinAddr: 0x10000CD40, symSize: 0x54 }
  - { offset: 0x31785, size: 0x8, addend: 0x0, symName: __ZNSt8_Rb_treeIiiSt9_IdentityIiESt4lessIiESaIiEE11_M_put_nodeEPSt13_Rb_tree_nodeIiE, symObjAddr: 0x93E0, symBinAddr: 0x10000CCF4, symSize: 0x4C }
  - { offset: 0x317F6, size: 0x8, addend: 0x0, symName: __ZNSt8_Rb_treeIiiSt9_IdentityIiESt4lessIiESaIiEE15_M_destroy_nodeEPSt13_Rb_tree_nodeIiE, symObjAddr: 0x9388, symBinAddr: 0x10000CC9C, symSize: 0x58 }
  - { offset: 0x31887, size: 0x8, addend: 0x0, symName: __ZNSt8_Rb_treeIiiSt9_IdentityIiESt4lessIiESaIiEE10_S_maximumEPSt18_Rb_tree_node_base, symObjAddr: 0x936C, symBinAddr: 0x10000CC80, symSize: 0x1C }
  - { offset: 0x318B5, size: 0x8, addend: 0x0, symName: __ZNSt8_Rb_treeIiiSt9_IdentityIiESt4lessIiESaIiEE12_M_rightmostEv, symObjAddr: 0x9354, symBinAddr: 0x10000CC68, symSize: 0x18 }
  - { offset: 0x318DB, size: 0x8, addend: 0x0, symName: __ZNSt8_Rb_treeIiiSt9_IdentityIiESt4lessIiESaIiEE10_S_minimumEPSt18_Rb_tree_node_base, symObjAddr: 0x9338, symBinAddr: 0x10000CC4C, symSize: 0x1C }
  - { offset: 0x31909, size: 0x8, addend: 0x0, symName: __ZNSt8_Rb_treeIiiSt9_IdentityIiESt4lessIiESaIiEE11_M_leftmostEv, symObjAddr: 0x9320, symBinAddr: 0x10000CC34, symSize: 0x18 }
  - { offset: 0x31933, size: 0x8, addend: 0x0, symName: __ZNSt8_Rb_treeIiiSt9_IdentityIiESt4lessIiESaIiEE7_M_copyILb0ENS5_11_Alloc_nodeEEEPSt13_Rb_tree_nodeIiESA_PSt18_Rb_tree_node_baseRT0_, symObjAddr: 0x91D8, symBinAddr: 0x10000CAEC, symSize: 0x148 }
  - { offset: 0x31A0D, size: 0x8, addend: 0x0, symName: __ZN9__gnu_cxx16__aligned_membufISt4pairIKiSt8multisetIiSt4lessIiESaIiEEEE7_M_addrEv, symObjAddr: 0x91C4, symBinAddr: 0x10000CAD8, symSize: 0x14 }
  - { offset: 0x31A37, size: 0x8, addend: 0x0, symName: __ZNSt8_Rb_treeIiSt4pairIKiSt8multisetIiSt4lessIiESaIiEEESt10_Select1stIS7_ES4_SaIS7_EE11_M_put_nodeEPSt13_Rb_tree_nodeIS7_E, symObjAddr: 0x9178, symBinAddr: 0x10000CA8C, symSize: 0x4C }
  - { offset: 0x31AA8, size: 0x8, addend: 0x0, symName: __ZNSt8_Rb_treeIiSt4pairIKiSt8multisetIiSt4lessIiESaIiEEESt10_Select1stIS7_ES4_SaIS7_EE15_M_destroy_nodeEPSt13_Rb_tree_nodeIS7_E, symObjAddr: 0x9118, symBinAddr: 0x10000CA2C, symSize: 0x60 }
  - { offset: 0x31B39, size: 0x8, addend: 0x0, symName: __ZNSt8_Rb_treeIiSt4pairIKiSt8multisetIiSt4lessIiESaIiEEESt10_Select1stIS7_ES4_SaIS7_EE10_S_maximumEPSt18_Rb_tree_node_base, symObjAddr: 0x90FC, symBinAddr: 0x10000CA10, symSize: 0x1C }
  - { offset: 0x31B63, size: 0x8, addend: 0x0, symName: __ZNSt8_Rb_treeIiSt4pairIKiSt8multisetIiSt4lessIiESaIiEEESt10_Select1stIS7_ES4_SaIS7_EE10_S_minimumEPSt18_Rb_tree_node_base, symObjAddr: 0x90E0, symBinAddr: 0x10000C9F4, symSize: 0x1C }
  - { offset: 0x31B91, size: 0x8, addend: 0x0, symName: __ZNSt8_Rb_treeIiSt4pairIKiSt8multisetIiSt4lessIiESaIiEEESt10_Select1stIS7_ES4_SaIS7_EE7_M_copyILb0ENSB_11_Alloc_nodeEEEPSt13_Rb_tree_nodeIS7_ESG_PSt18_Rb_tree_node_baseRT0_, symObjAddr: 0x8F98, symBinAddr: 0x10000C8AC, symSize: 0x148 }
  - { offset: 0x31C6B, size: 0x8, addend: 0x0, symName: __ZN9__gnu_cxx16__aligned_membufISt4pairIKiSt3mapIiSt8multisetIiSt4lessIiESaIiEES6_SaIS1_IS2_S8_EEEEE7_M_addrEv, symObjAddr: 0x8F84, symBinAddr: 0x10000C898, symSize: 0x14 }
  - { offset: 0x31CBD, size: 0x8, addend: 0x0, symName: __ZNSt17_Rb_tree_iteratorIiEC1EPSt18_Rb_tree_node_base, symObjAddr: 0x8F60, symBinAddr: 0x10000C874, symSize: 0x24 }
  - { offset: 0x31CF7, size: 0x8, addend: 0x0, symName: __ZNKSt8_Rb_treeIiiSt9_IdentityIiESt4lessIiESaIiEE11_Alloc_nodeclIRKiEEPSt13_Rb_tree_nodeIiEOT_, symObjAddr: 0x8F24, symBinAddr: 0x10000C838, symSize: 0x3C }
  - { offset: 0x31D37, size: 0x8, addend: 0x0, symName: __ZNSt8_Rb_treeIiiSt9_IdentityIiESt4lessIiESaIiEE6_S_keyEPKSt18_Rb_tree_node_base, symObjAddr: 0x8F08, symBinAddr: 0x10000C81C, symSize: 0x1C }
  - { offset: 0x31DAD, size: 0x8, addend: 0x0, symName: __ZNSt4pairIPSt18_Rb_tree_node_baseS1_EC1IRPSt13_Rb_tree_nodeIiERS1_Lb1EEEOT_OT0_, symObjAddr: 0x8EC0, symBinAddr: 0x10000C7D4, symSize: 0x48 }
  - { offset: 0x31DF3, size: 0x8, addend: 0x0, symName: __ZNSt8_Rb_treeIiiSt9_IdentityIiESt4lessIiESaIiEE6_S_keyEPKSt13_Rb_tree_nodeIiE, symObjAddr: 0x8E98, symBinAddr: 0x10000C7AC, symSize: 0x28 }
  - { offset: 0x31E21, size: 0x8, addend: 0x0, symName: __ZNSt8_Rb_treeIiiSt9_IdentityIiESt4lessIiESaIiEE6_M_endEv, symObjAddr: 0x8E80, symBinAddr: 0x10000C794, symSize: 0x18 }
  - { offset: 0x31E4B, size: 0x8, addend: 0x0, symName: __ZNSt8_Rb_treeIiSt4pairIKiSt8multisetIiSt4lessIiESaIiEEESt10_Select1stIS7_ES4_SaIS7_EE14_M_insert_nodeEPSt18_Rb_tree_node_baseSD_PSt13_Rb_tree_nodeIS7_E, symObjAddr: 0x8DB0, symBinAddr: 0x10000C6C4, symSize: 0xD0 }
  - { offset: 0x31EB5, size: 0x8, addend: 0x0, symName: __ZNSt8_Rb_treeIiSt4pairIKiSt8multisetIiSt4lessIiESaIiEEESt10_Select1stIS7_ES4_SaIS7_EE6_S_keyEPKSt13_Rb_tree_nodeIS7_E, symObjAddr: 0x8D88, symBinAddr: 0x10000C69C, symSize: 0x28 }
  - { offset: 0x31EE3, size: 0x8, addend: 0x0, symName: __ZNSt17_Rb_tree_iteratorISt4pairIKiSt8multisetIiSt4lessIiESaIiEEEEmmEv, symObjAddr: 0x8D58, symBinAddr: 0x10000C66C, symSize: 0x30 }
  - { offset: 0x31F0D, size: 0x8, addend: 0x0, symName: __ZNSt8_Rb_treeIiSt4pairIKiSt8multisetIiSt4lessIiESaIiEEESt10_Select1stIS7_ES4_SaIS7_EE11_M_leftmostEv, symObjAddr: 0x8D40, symBinAddr: 0x10000C654, symSize: 0x18 }
  - { offset: 0x31F37, size: 0x8, addend: 0x0, symName: __ZNSt8_Rb_treeIiSt4pairIKiSt8multisetIiSt4lessIiESaIiEEESt10_Select1stIS7_ES4_SaIS7_EE24_M_get_insert_unique_posERS1_, symObjAddr: 0x8BE8, symBinAddr: 0x10000C4FC, symSize: 0x158 }
  - { offset: 0x31FB7, size: 0x8, addend: 0x0, symName: __ZNSt8_Rb_treeIiSt4pairIKiSt8multisetIiSt4lessIiESaIiEEESt10_Select1stIS7_ES4_SaIS7_EE6_S_keyEPKSt18_Rb_tree_node_base, symObjAddr: 0x8BCC, symBinAddr: 0x10000C4E0, symSize: 0x1C }
  - { offset: 0x31FE5, size: 0x8, addend: 0x0, symName: __ZNSt8_Rb_treeIiSt4pairIKiSt8multisetIiSt4lessIiESaIiEEESt10_Select1stIS7_ES4_SaIS7_EE12_M_rightmostEv, symObjAddr: 0x8BB4, symBinAddr: 0x10000C4C8, symSize: 0x18 }
  - { offset: 0x3200F, size: 0x8, addend: 0x0, symName: __ZNKSt8_Rb_treeIiSt4pairIKiSt8multisetIiSt4lessIiESaIiEEESt10_Select1stIS7_ES4_SaIS7_EE4sizeEv, symObjAddr: 0x8B9C, symBinAddr: 0x10000C4B0, symSize: 0x18 }
  - { offset: 0x32039, size: 0x8, addend: 0x0, symName: __ZNKSt23_Rb_tree_const_iteratorISt4pairIKiSt8multisetIiSt4lessIiESaIiEEEE13_M_const_castEv, symObjAddr: 0x8B74, symBinAddr: 0x10000C488, symSize: 0x28 }
  - { offset: 0x32063, size: 0x8, addend: 0x0, symName: __ZNSt8_Rb_treeIiSt4pairIKiSt8multisetIiSt4lessIiESaIiEEESt10_Select1stIS7_ES4_SaIS7_EE14_M_create_nodeIJRKSt21piecewise_construct_tSt5tupleIJRS1_EESG_IJEEEEEPSt13_Rb_tree_nodeIS7_EDpOT_, symObjAddr: 0x8B04, symBinAddr: 0x10000C418, symSize: 0x70 }
  - { offset: 0x320D5, size: 0x8, addend: 0x0, symName: __ZNSt8_Rb_treeIiSt4pairIKiSt8multisetIiSt4lessIiESaIiEEESt10_Select1stIS7_ES4_SaIS7_EE14_M_lower_boundEPSt13_Rb_tree_nodeIS7_EPSt18_Rb_tree_node_baseRS1_, symObjAddr: 0x8A68, symBinAddr: 0x10000C37C, symSize: 0x9C }
  - { offset: 0x32132, size: 0x8, addend: 0x0, symName: __ZNSt8_Rb_treeIiSt4pairIKiSt8multisetIiSt4lessIiESaIiEEESt10_Select1stIS7_ES4_SaIS7_EE6_M_endEv, symObjAddr: 0x8A50, symBinAddr: 0x10000C364, symSize: 0x18 }
  - { offset: 0x3215C, size: 0x8, addend: 0x0, symName: __ZNSt8_Rb_treeIiSt4pairIKiSt3mapIiSt8multisetIiSt4lessIiESaIiEES5_SaIS0_IS1_S7_EEEESt10_Select1stISB_ES5_SaISB_EE14_M_insert_nodeEPSt18_Rb_tree_node_baseSH_PSt13_Rb_tree_nodeISB_E, symObjAddr: 0x8980, symBinAddr: 0x10000C294, symSize: 0xD0 }
  - { offset: 0x321C6, size: 0x8, addend: 0x0, symName: __ZNSt8_Rb_treeIiSt4pairIKiSt3mapIiSt8multisetIiSt4lessIiESaIiEES5_SaIS0_IS1_S7_EEEESt10_Select1stISB_ES5_SaISB_EE6_S_keyEPKSt13_Rb_tree_nodeISB_E, symObjAddr: 0x8958, symBinAddr: 0x10000C26C, symSize: 0x28 }
  - { offset: 0x321F4, size: 0x8, addend: 0x0, symName: __ZNSt17_Rb_tree_iteratorISt4pairIKiSt3mapIiSt8multisetIiSt4lessIiESaIiEES5_SaIS0_IS1_S7_EEEEEmmEv, symObjAddr: 0x8928, symBinAddr: 0x10000C23C, symSize: 0x30 }
  - { offset: 0x32266, size: 0x8, addend: 0x0, symName: __ZNSt4pairIPSt18_Rb_tree_node_baseS1_EC1IRS1_S4_Lb1EEEOT_OT0_, symObjAddr: 0x88E0, symBinAddr: 0x10000C1F4, symSize: 0x48 }
  - { offset: 0x322B0, size: 0x8, addend: 0x0, symName: __ZNSt8_Rb_treeIiSt4pairIKiSt3mapIiSt8multisetIiSt4lessIiESaIiEES5_SaIS0_IS1_S7_EEEESt10_Select1stISB_ES5_SaISB_EE11_M_leftmostEv, symObjAddr: 0x88C8, symBinAddr: 0x10000C1DC, symSize: 0x18 }
  - { offset: 0x322DA, size: 0x8, addend: 0x0, symName: __ZNSt8_Rb_treeIiSt4pairIKiSt3mapIiSt8multisetIiSt4lessIiESaIiEES5_SaIS0_IS1_S7_EEEESt10_Select1stISB_ES5_SaISB_EE24_M_get_insert_unique_posERS1_, symObjAddr: 0x8770, symBinAddr: 0x10000C084, symSize: 0x158 }
  - { offset: 0x323A6, size: 0x8, addend: 0x0, symName: __ZNSt4pairIPSt18_Rb_tree_node_baseS1_EC1IS1_S1_Lb1EEERKS1_S5_, symObjAddr: 0x8734, symBinAddr: 0x10000C048, symSize: 0x3C }
  - { offset: 0x323EC, size: 0x8, addend: 0x0, symName: __ZNSt8_Rb_treeIiSt4pairIKiSt3mapIiSt8multisetIiSt4lessIiESaIiEES5_SaIS0_IS1_S7_EEEESt10_Select1stISB_ES5_SaISB_EE6_S_keyEPKSt18_Rb_tree_node_base, symObjAddr: 0x8718, symBinAddr: 0x10000C02C, symSize: 0x1C }
  - { offset: 0x3241A, size: 0x8, addend: 0x0, symName: __ZNSt8_Rb_treeIiSt4pairIKiSt3mapIiSt8multisetIiSt4lessIiESaIiEES5_SaIS0_IS1_S7_EEEESt10_Select1stISB_ES5_SaISB_EE12_M_rightmostEv, symObjAddr: 0x8700, symBinAddr: 0x10000C014, symSize: 0x18 }
  - { offset: 0x32444, size: 0x8, addend: 0x0, symName: __ZNKSt8_Rb_treeIiSt4pairIKiSt3mapIiSt8multisetIiSt4lessIiESaIiEES5_SaIS0_IS1_S7_EEEESt10_Select1stISB_ES5_SaISB_EE4sizeEv, symObjAddr: 0x86E8, symBinAddr: 0x10000BFFC, symSize: 0x18 }
  - { offset: 0x3246E, size: 0x8, addend: 0x0, symName: __ZNKSt23_Rb_tree_const_iteratorISt4pairIKiSt3mapIiSt8multisetIiSt4lessIiESaIiEES5_SaIS0_IS1_S7_EEEEE13_M_const_castEv, symObjAddr: 0x86C0, symBinAddr: 0x10000BFD4, symSize: 0x28 }
  - { offset: 0x32498, size: 0x8, addend: 0x0, symName: __ZNSt8_Rb_treeIiSt4pairIKiSt3mapIiSt8multisetIiSt4lessIiESaIiEES5_SaIS0_IS1_S7_EEEESt10_Select1stISB_ES5_SaISB_EE14_M_create_nodeIJRKSt21piecewise_construct_tSt5tupleIJRS1_EESK_IJEEEEEPSt13_Rb_tree_nodeISB_EDpOT_, symObjAddr: 0x8650, symBinAddr: 0x10000BF64, symSize: 0x70 }
  - { offset: 0x32531, size: 0x8, addend: 0x0, symName: __ZNSt10_Head_baseILm0ERKiLb0EEC2ES1_, symObjAddr: 0x862C, symBinAddr: 0x10000BF40, symSize: 0x24 }
  - { offset: 0x32560, size: 0x8, addend: 0x0, symName: __ZNSt8_Rb_treeIiSt4pairIKiSt3mapIiSt8multisetIiSt4lessIiESaIiEES5_SaIS0_IS1_S7_EEEESt10_Select1stISB_ES5_SaISB_EE14_M_lower_boundEPSt13_Rb_tree_nodeISB_EPSt18_Rb_tree_node_baseRS1_, symObjAddr: 0x8590, symBinAddr: 0x10000BEA4, symSize: 0x9C }
  - { offset: 0x325BD, size: 0x8, addend: 0x0, symName: __ZNSt8_Rb_treeIiSt4pairIKiSt3mapIiSt8multisetIiSt4lessIiESaIiEES5_SaIS0_IS1_S7_EEEESt10_Select1stISB_ES5_SaISB_EE6_M_endEv, symObjAddr: 0x8578, symBinAddr: 0x10000BE8C, symSize: 0x18 }
  - { offset: 0x32613, size: 0x8, addend: 0x0, symName: __ZNSt5dequeISt4pairIP8TreeNodeS0_IiiEESaIS4_EE4backEv, symObjAddr: 0x8544, symBinAddr: 0x10000BE58, symSize: 0x34 }
  - { offset: 0x3264E, size: 0x8, addend: 0x0, symName: __ZNSt5dequeISt4pairIP8TreeNodeS0_IiiEESaIS4_EE16_M_push_back_auxIJS4_EEEvDpOT_, symObjAddr: 0x8424, symBinAddr: 0x10000BD38, symSize: 0x120 }
  - { offset: 0x32746, size: 0x8, addend: 0x0, symName: __ZSt7forwardISt4pairIP8TreeNodeS0_IiiEEEOT_RNSt16remove_referenceIS5_E4typeE, symObjAddr: 0x8410, symBinAddr: 0x10000BD24, symSize: 0x14 }
  - { offset: 0x327CE, size: 0x8, addend: 0x0, symName: __ZNKSt11_Deque_baseISt4pairIP8TreeNodeS0_IiiEESaIS4_EE20_M_get_map_allocatorEv, symObjAddr: 0x83C8, symBinAddr: 0x10000BCDC, symSize: 0x48 }
  - { offset: 0x32848, size: 0x8, addend: 0x0, symName: __ZNSt11_Deque_baseISt4pairIP8TreeNodeS0_IiiEESaIS4_EE18_M_deallocate_nodeEPS4_, symObjAddr: 0x8370, symBinAddr: 0x10000BC84, symSize: 0x58 }
  - { offset: 0x328B9, size: 0x8, addend: 0x0, symName: __ZNSt15_Deque_iteratorISt4pairIP8TreeNodeS0_IiiEERS4_PS4_E11_M_set_nodeEPS6_, symObjAddr: 0x8314, symBinAddr: 0x10000BC28, symSize: 0x5C }
  - { offset: 0x328F4, size: 0x8, addend: 0x0, symName: __ZNSt11_Deque_baseISt4pairIP8TreeNodeS0_IiiEESaIS4_EE15_M_create_nodesEPPS4_S8_, symObjAddr: 0x8288, symBinAddr: 0x10000BB9C, symSize: 0x8C }
  - { offset: 0x32951, size: 0x8, addend: 0x0, symName: __ZNSt11_Deque_baseISt4pairIP8TreeNodeS0_IiiEESaIS4_EE15_M_allocate_mapEm, symObjAddr: 0x8208, symBinAddr: 0x10000BB1C, symSize: 0x80 }
  - { offset: 0x32A2D, size: 0x8, addend: 0x0, symName: __ZNSt15__new_allocatorISt4pairIP8TreeNodeS0_IiiEEED2Ev, symObjAddr: 0x81F4, symBinAddr: 0x10000BB08, symSize: 0x14 }
  - { offset: 0x32A6D, size: 0x8, addend: 0x0, symName: __ZNSt11_Deque_baseISt4pairIP8TreeNodeS0_IiiEESaIS4_EE16_Deque_impl_dataC2Ev, symObjAddr: 0x81B4, symBinAddr: 0x10000BAC8, symSize: 0x40 }
  - { offset: 0x32AA9, size: 0x8, addend: 0x0, symName: __ZNSt8_Rb_treeIiSt4pairIKiSt3mapIiSt8multisetIiSt4lessIiESaIiEES5_SaIS0_IS1_S7_EEEESt10_Select1stISB_ES5_SaISB_EE11_M_put_nodeEPSt13_Rb_tree_nodeISB_E, symObjAddr: 0x8168, symBinAddr: 0x10000BA7C, symSize: 0x4C }
  - { offset: 0x32B1A, size: 0x8, addend: 0x0, symName: __ZNSt8_Rb_treeIiSt4pairIKiSt3mapIiSt8multisetIiSt4lessIiESaIiEES5_SaIS0_IS1_S7_EEEESt10_Select1stISB_ES5_SaISB_EE15_M_destroy_nodeEPSt13_Rb_tree_nodeISB_E, symObjAddr: 0x8108, symBinAddr: 0x10000BA1C, symSize: 0x60 }
  - { offset: 0x32C2D, size: 0x8, addend: 0x0, symName: __ZNKSt11_Deque_baseIiSaIiEE20_M_get_map_allocatorEv, symObjAddr: 0x80C0, symBinAddr: 0x10000B9D4, symSize: 0x48 }
  - { offset: 0x32CA7, size: 0x8, addend: 0x0, symName: __ZNSt11_Deque_baseIiSaIiEE15_M_create_nodesEPPiS3_, symObjAddr: 0x8034, symBinAddr: 0x10000B948, symSize: 0x8C }
  - { offset: 0x32D04, size: 0x8, addend: 0x0, symName: __ZNSt11_Deque_baseIiSaIiEE15_M_allocate_mapEm, symObjAddr: 0x7FB4, symBinAddr: 0x10000B8C8, symSize: 0x80 }
  - { offset: 0x32DD6, size: 0x8, addend: 0x0, symName: __ZNSt11_Deque_baseIiSaIiEE16_Deque_impl_dataC2Ev, symObjAddr: 0x7F74, symBinAddr: 0x10000B888, symSize: 0x40 }
  - { offset: 0x32DFC, size: 0x8, addend: 0x0, symName: __ZNSt11_Deque_baseIiSaIiEE18_M_deallocate_nodeEPi, symObjAddr: 0x7F1C, symBinAddr: 0x10000B830, symSize: 0x58 }
  - { offset: 0x32E6D, size: 0x8, addend: 0x0, symName: __ZNSt15_Deque_iteratorIiRiPiE11_M_set_nodeEPS1_, symObjAddr: 0x7EC0, symBinAddr: 0x10000B7D4, symSize: 0x5C }
  - { offset: 0x32EA8, size: 0x8, addend: 0x0, symName: __ZNSt11_Deque_baseIiSaIiEE16_M_allocate_nodeEv, symObjAddr: 0x7E7C, symBinAddr: 0x10000B790, symSize: 0x44 }
  - { offset: 0x32EFF, size: 0x8, addend: 0x0, symName: __ZNSt5dequeIiSaIiEE22_M_reserve_map_at_backEm, symObjAddr: 0x7E1C, symBinAddr: 0x10000B730, symSize: 0x60 }
  - { offset: 0x32F3A, size: 0x8, addend: 0x0, symName: __ZNKSt5dequeIiSaIiEE8max_sizeEv, symObjAddr: 0x7DFC, symBinAddr: 0x10000B710, symSize: 0x20 }
  - { offset: 0x32F64, size: 0x8, addend: 0x0, symName: __ZNKSt5dequeIiSaIiEE4sizeEv, symObjAddr: 0x7DCC, symBinAddr: 0x10000B6E0, symSize: 0x30 }
  - { offset: 0x32F8A, size: 0x8, addend: 0x0, symName: __ZSt25__uninitialized_default_nIPimET_S1_T0_, symObjAddr: 0x7DA0, symBinAddr: 0x10000B6B4, symSize: 0x2C }
  - { offset: 0x32FFE, size: 0x8, addend: 0x0, symName: __ZSt12__relocate_aIPSt6vectorIiSaIiEES3_SaIS2_EET0_T_S6_S5_RT1_, symObjAddr: 0x7D44, symBinAddr: 0x10000B658, symSize: 0x5C }
  - { offset: 0x3309E, size: 0x8, addend: 0x0, symName: __ZNK9__gnu_cxx17__normal_iteratorIPSt6vectorIiSaIiEES1_IS3_SaIS3_EEE4baseEv, symObjAddr: 0x7D30, symBinAddr: 0x10000B644, symSize: 0x14 }
  - { offset: 0x330F0, size: 0x8, addend: 0x0, symName: __ZN9__gnu_cxx17__normal_iteratorIPSt6vectorIiSaIiEES1_IS3_SaIS3_EEEC1ERKS4_, symObjAddr: 0x7D08, symBinAddr: 0x10000B61C, symSize: 0x28 }
  - { offset: 0x3311F, size: 0x8, addend: 0x0, symName: __ZNKSt6vectorIS_IiSaIiEESaIS1_EE8max_sizeEv, symObjAddr: 0x7CE8, symBinAddr: 0x10000B5FC, symSize: 0x20 }
  - { offset: 0x33171, size: 0x8, addend: 0x0, symName: __ZNSt6vectorIiSaIiEEC1ERKS1_, symObjAddr: 0x7BD4, symBinAddr: 0x10000B4E8, symSize: 0x114 }
  - { offset: 0x33280, size: 0x8, addend: 0x0, symName: __ZSt12__relocate_aIPiS0_SaIiEET0_T_S3_S2_RT1_, symObjAddr: 0x7B78, symBinAddr: 0x10000B48C, symSize: 0x5C }
  - { offset: 0x33320, size: 0x8, addend: 0x0, symName: __ZNKSt6vectorIiSaIiEE8max_sizeEv, symObjAddr: 0x7B58, symBinAddr: 0x10000B46C, symSize: 0x20 }
  - { offset: 0x33346, size: 0x8, addend: 0x0, symName: __ZNSt12_Destroy_auxILb1EE9__destroyIPiEEvT_S3_, symObjAddr: 0x7B40, symBinAddr: 0x10000B454, symSize: 0x18 }
  - { offset: 0x3337E, size: 0x8, addend: 0x0, symName: __ZNSt15__new_allocatorIiE10deallocateEPim, symObjAddr: 0x7B10, symBinAddr: 0x10000B424, symSize: 0x30 }
  - { offset: 0x333EC, size: 0x8, addend: 0x0, symName: __ZNSt5dequeIP8TreeNodeSaIS1_EE17_M_reallocate_mapEmb, symObjAddr: 0x78CC, symBinAddr: 0x10000B1E0, symSize: 0x244 }
  - { offset: 0x3349D, size: 0x8, addend: 0x0, symName: __ZNSt5dequeIP8TreeNodeSaIS1_EE11_S_max_sizeERKS2_, symObjAddr: 0x7878, symBinAddr: 0x10000B18C, symSize: 0x54 }
  - { offset: 0x33558, size: 0x8, addend: 0x0, symName: __ZNSt15__new_allocatorIPP8TreeNodeE10deallocateEPS2_m, symObjAddr: 0x7848, symBinAddr: 0x10000B15C, symSize: 0x30 }
  - { offset: 0x335C6, size: 0x8, addend: 0x0, symName: __ZNSt15__new_allocatorIPP8TreeNodeED2Ev, symObjAddr: 0x7834, symBinAddr: 0x10000B148, symSize: 0x14 }
  - { offset: 0x33610, size: 0x8, addend: 0x0, symName: __ZNKSt11_Deque_baseIP8TreeNodeSaIS1_EE19_M_get_Tp_allocatorEv, symObjAddr: 0x7820, symBinAddr: 0x10000B134, symSize: 0x14 }
  - { offset: 0x336AA, size: 0x8, addend: 0x0, symName: __ZNSt15_Deque_iteratorIP8TreeNodeRS1_PS1_EC1Ev, symObjAddr: 0x77EC, symBinAddr: 0x10000B100, symSize: 0x34 }
  - { offset: 0x336E2, size: 0x8, addend: 0x0, symName: __ZNSt12_Destroy_auxILb0EE9__destroyIPSt6vectorIiSaIiEEEEvT_S6_, symObjAddr: 0x77A0, symBinAddr: 0x10000B0B4, symSize: 0x4C }
  - { offset: 0x33728, size: 0x8, addend: 0x0, symName: __ZNSt15__new_allocatorISt6vectorIiSaIiEEE10deallocateEPS2_m, symObjAddr: 0x7764, symBinAddr: 0x10000B078, symSize: 0x3C }
  - { offset: 0x3376E, size: 0x8, addend: 0x0, symName: __ZSt34__uninitialized_move_if_noexcept_aIPiS0_SaIiEET0_T_S3_S2_RT1_, symObjAddr: 0x7714, symBinAddr: 0x10000B028, symSize: 0x50 }
  - { offset: 0x337E6, size: 0x8, addend: 0x0, symName: __ZSt22__uninitialized_copy_aISt23_Rb_tree_const_iteratorIiEPiiET0_T_S4_S3_RSaIT1_E, symObjAddr: 0x76E4, symBinAddr: 0x10000AFF8, symSize: 0x30 }
  - { offset: 0x33897, size: 0x8, addend: 0x0, symName: __ZSt4copyISt23_Rb_tree_const_iteratorIiEN9__gnu_cxx17__normal_iteratorIPiSt6vectorIiSaIiEEEEET0_T_SA_S9_, symObjAddr: 0x769C, symBinAddr: 0x10000AFB0, symSize: 0x48 }
  - { offset: 0x338F5, size: 0x8, addend: 0x0, symName: __ZSt13move_backwardIPiS0_ET0_T_S2_S1_, symObjAddr: 0x7654, symBinAddr: 0x10000AF68, symSize: 0x48 }
  - { offset: 0x33953, size: 0x8, addend: 0x0, symName: __ZSt22__uninitialized_move_aIPiS0_SaIiEET0_T_S3_S2_RT1_, symObjAddr: 0x7604, symBinAddr: 0x10000AF18, symSize: 0x50 }
  - { offset: 0x339FD, size: 0x8, addend: 0x0, symName: __ZStneRKSt23_Rb_tree_const_iteratorIiES2_, symObjAddr: 0x75D4, symBinAddr: 0x10000AEE8, symSize: 0x30 }
  - { offset: 0x33A3C, size: 0x8, addend: 0x0, symName: __ZNK9__gnu_cxx17__normal_iteratorIPKiSt6vectorIiSaIiEEE4baseEv, symObjAddr: 0x75C0, symBinAddr: 0x10000AED4, symSize: 0x14 }
  - { offset: 0x33A8E, size: 0x8, addend: 0x0, symName: __ZN9__gnu_cxx17__normal_iteratorIPKiSt6vectorIiSaIiEEEC1ERKS2_, symObjAddr: 0x7598, symBinAddr: 0x10000AEAC, symSize: 0x28 }
  - { offset: 0x33AE5, size: 0x8, addend: 0x0, symName: __ZNSt23_Rb_tree_const_iteratorIiEC1EPKSt18_Rb_tree_node_base, symObjAddr: 0x7574, symBinAddr: 0x10000AE88, symSize: 0x24 }
  - { offset: 0x33B14, size: 0x8, addend: 0x0, symName: __ZNKSt8_Rb_treeIiiSt9_IdentityIiESt4lessIiESaIiEE9_M_mbeginEv, symObjAddr: 0x755C, symBinAddr: 0x10000AE70, symSize: 0x18 }
  - { offset: 0x33B3E, size: 0x8, addend: 0x0, symName: __ZNSt8_Rb_treeIiiSt9_IdentityIiESt4lessIiESaIiEE12_M_drop_nodeEPSt13_Rb_tree_nodeIiE, symObjAddr: 0x7528, symBinAddr: 0x10000AE3C, symSize: 0x34 }
  - { offset: 0x33B75, size: 0x8, addend: 0x0, symName: __ZNSt8_Rb_treeIiiSt9_IdentityIiESt4lessIiESaIiEE7_S_leftEPSt18_Rb_tree_node_base, symObjAddr: 0x7510, symBinAddr: 0x10000AE24, symSize: 0x18 }
  - { offset: 0x33B9F, size: 0x8, addend: 0x0, symName: __ZNSt8_Rb_treeIiiSt9_IdentityIiESt4lessIiESaIiEE8_S_rightEPSt18_Rb_tree_node_base, symObjAddr: 0x74F8, symBinAddr: 0x10000AE0C, symSize: 0x18 }
  - { offset: 0x33BCD, size: 0x8, addend: 0x0, symName: __ZNSt8_Rb_treeIiiSt9_IdentityIiESt4lessIiESaIiEE7_M_copyILb0ENS5_11_Alloc_nodeEEEPSt13_Rb_tree_nodeIiERKS5_RT0_, symObjAddr: 0x7464, symBinAddr: 0x10000AD78, symSize: 0x94 }
  - { offset: 0x33C61, size: 0x8, addend: 0x0, symName: __ZNSt15__new_allocatorISt13_Rb_tree_nodeIiEED2Ev, symObjAddr: 0x7450, symBinAddr: 0x10000AD64, symSize: 0x14 }
  - { offset: 0x33CBF, size: 0x8, addend: 0x0, symName: __ZN9__gnu_cxx16__aligned_membufISt4pairIKiSt8multisetIiSt4lessIiESaIiEEEE6_M_ptrEv, symObjAddr: 0x7434, symBinAddr: 0x10000AD48, symSize: 0x1C }
  - { offset: 0x33CE9, size: 0x8, addend: 0x0, symName: __ZNKSt8_Rb_treeIiSt4pairIKiSt8multisetIiSt4lessIiESaIiEEESt10_Select1stIS7_ES4_SaIS7_EE9_M_mbeginEv, symObjAddr: 0x741C, symBinAddr: 0x10000AD30, symSize: 0x18 }
  - { offset: 0x33D13, size: 0x8, addend: 0x0, symName: __ZNSt8_Rb_treeIiSt4pairIKiSt8multisetIiSt4lessIiESaIiEEESt10_Select1stIS7_ES4_SaIS7_EE12_M_drop_nodeEPSt13_Rb_tree_nodeIS7_E, symObjAddr: 0x73E8, symBinAddr: 0x10000ACFC, symSize: 0x34 }
  - { offset: 0x33D4A, size: 0x8, addend: 0x0, symName: __ZNSt8_Rb_treeIiSt4pairIKiSt8multisetIiSt4lessIiESaIiEEESt10_Select1stIS7_ES4_SaIS7_EE7_S_leftEPSt18_Rb_tree_node_base, symObjAddr: 0x73D0, symBinAddr: 0x10000ACE4, symSize: 0x18 }
  - { offset: 0x33D74, size: 0x8, addend: 0x0, symName: __ZNSt8_Rb_treeIiSt4pairIKiSt8multisetIiSt4lessIiESaIiEEESt10_Select1stIS7_ES4_SaIS7_EE8_S_rightEPSt18_Rb_tree_node_base, symObjAddr: 0x73B8, symBinAddr: 0x10000ACCC, symSize: 0x18 }
  - { offset: 0x33DA2, size: 0x8, addend: 0x0, symName: __ZNSt8_Rb_treeIiSt4pairIKiSt8multisetIiSt4lessIiESaIiEEESt10_Select1stIS7_ES4_SaIS7_EE7_M_copyILb0ENSB_11_Alloc_nodeEEEPSt13_Rb_tree_nodeIS7_ERKSB_RT0_, symObjAddr: 0x7324, symBinAddr: 0x10000AC38, symSize: 0x94 }
  - { offset: 0x33E3A, size: 0x8, addend: 0x0, symName: __ZNSt8_Rb_treeIiSt4pairIKiSt8multisetIiSt4lessIiESaIiEEESt10_Select1stIS7_ES4_SaIS7_EE11_Alloc_nodeC1ERSB_, symObjAddr: 0x7300, symBinAddr: 0x10000AC14, symSize: 0x24 }
  - { offset: 0x33E8D, size: 0x8, addend: 0x0, symName: __ZNSt15__new_allocatorISt13_Rb_tree_nodeISt4pairIKiSt8multisetIiSt4lessIiESaIiEEEEED2Ev, symObjAddr: 0x72EC, symBinAddr: 0x10000AC00, symSize: 0x14 }
  - { offset: 0x33EDA, size: 0x8, addend: 0x0, symName: __ZNSt20_Rb_tree_key_compareISt4lessIiEEC2ERKS1_, symObjAddr: 0x72D4, symBinAddr: 0x10000ABE8, symSize: 0x18 }
  - { offset: 0x33F41, size: 0x8, addend: 0x0, symName: __ZN9__gnu_cxx16__aligned_membufISt4pairIKiSt3mapIiSt8multisetIiSt4lessIiESaIiEES6_SaIS1_IS2_S8_EEEEE6_M_ptrEv, symObjAddr: 0x72B8, symBinAddr: 0x10000ABCC, symSize: 0x1C }
  - { offset: 0x33F6B, size: 0x8, addend: 0x0, symName: __ZNSt8_Rb_treeIiiSt9_IdentityIiESt4lessIiESaIiEE10_M_insert_IRKiNS5_11_Alloc_nodeEEESt17_Rb_tree_iteratorIiEPSt18_Rb_tree_node_baseSD_OT_RT0_, symObjAddr: 0x71C8, symBinAddr: 0x10000AADC, symSize: 0xF0 }
  - { offset: 0x34036, size: 0x8, addend: 0x0, symName: __ZNSt8_Rb_treeIiiSt9_IdentityIiESt4lessIiESaIiEE11_Alloc_nodeC1ERS5_, symObjAddr: 0x71A4, symBinAddr: 0x10000AAB8, symSize: 0x24 }
  - { offset: 0x34065, size: 0x8, addend: 0x0, symName: __ZNKSt9_IdentityIiEclERKi, symObjAddr: 0x718C, symBinAddr: 0x10000AAA0, symSize: 0x18 }
  - { offset: 0x340A0, size: 0x8, addend: 0x0, symName: __ZNSt8_Rb_treeIiiSt9_IdentityIiESt4lessIiESaIiEE23_M_get_insert_equal_posERKi, symObjAddr: 0x70E8, symBinAddr: 0x10000A9FC, symSize: 0xA4 }
  - { offset: 0x34125, size: 0x8, addend: 0x0, symName: __ZNSt17_Rb_tree_iteratorISt4pairIKiSt8multisetIiSt4lessIiESaIiEEEEC1EPSt18_Rb_tree_node_base, symObjAddr: 0x70C4, symBinAddr: 0x10000A9D8, symSize: 0x24 }
  - { offset: 0x34154, size: 0x8, addend: 0x0, symName: __ZNSt8_Rb_treeIiSt4pairIKiSt8multisetIiSt4lessIiESaIiEEESt10_Select1stIS7_ES4_SaIS7_EE10_Auto_node9_M_insertES0_IPSt18_Rb_tree_node_baseSE_E, symObjAddr: 0x7078, symBinAddr: 0x10000A98C, symSize: 0x4C }
  - { offset: 0x341A0, size: 0x8, addend: 0x0, symName: __ZNKSt8_Rb_treeIiSt4pairIKiSt8multisetIiSt4lessIiESaIiEEESt10_Select1stIS7_ES4_SaIS7_EE10_Auto_node6_M_keyEv, symObjAddr: 0x7058, symBinAddr: 0x10000A96C, symSize: 0x20 }
  - { offset: 0x341CA, size: 0x8, addend: 0x0, symName: __ZNSt8_Rb_treeIiSt4pairIKiSt8multisetIiSt4lessIiESaIiEEESt10_Select1stIS7_ES4_SaIS7_EE29_M_get_insert_hint_unique_posESt23_Rb_tree_const_iteratorIS7_ERS1_, symObjAddr: 0x6D34, symBinAddr: 0x10000A648, symSize: 0x324 }
  - { offset: 0x34299, size: 0x8, addend: 0x0, symName: __ZNSt8_Rb_treeIiSt4pairIKiSt8multisetIiSt4lessIiESaIiEEESt10_Select1stIS7_ES4_SaIS7_EE10_Auto_nodeD1Ev, symObjAddr: 0x6CF0, symBinAddr: 0x10000A604, symSize: 0x44 }
  - { offset: 0x34312, size: 0x8, addend: 0x0, symName: __ZNSt8_Rb_treeIiSt4pairIKiSt8multisetIiSt4lessIiESaIiEEESt10_Select1stIS7_ES4_SaIS7_EE10_Auto_nodeC1IJRKSt21piecewise_construct_tSt5tupleIJRS1_EESH_IJEEEEERSB_DpOT_, symObjAddr: 0x6C74, symBinAddr: 0x10000A588, symSize: 0x7C }
  - { offset: 0x34378, size: 0x8, addend: 0x0, symName: __ZNKSt8_Rb_treeIiSt4pairIKiSt8multisetIiSt4lessIiESaIiEEESt10_Select1stIS7_ES4_SaIS7_EE8key_compEv, symObjAddr: 0x6C5C, symBinAddr: 0x10000A570, symSize: 0x18 }
  - { offset: 0x343A2, size: 0x8, addend: 0x0, symName: __ZNSt8_Rb_treeIiSt4pairIKiSt8multisetIiSt4lessIiESaIiEEESt10_Select1stIS7_ES4_SaIS7_EE11lower_boundERS1_, symObjAddr: 0x6C14, symBinAddr: 0x10000A528, symSize: 0x48 }
  - { offset: 0x34405, size: 0x8, addend: 0x0, symName: __ZNSt17_Rb_tree_iteratorISt4pairIKiSt3mapIiSt8multisetIiSt4lessIiESaIiEES5_SaIS0_IS1_S7_EEEEEC1EPSt18_Rb_tree_node_base, symObjAddr: 0x6BF0, symBinAddr: 0x10000A504, symSize: 0x24 }
  - { offset: 0x34434, size: 0x8, addend: 0x0, symName: __ZNSt8_Rb_treeIiSt4pairIKiSt3mapIiSt8multisetIiSt4lessIiESaIiEES5_SaIS0_IS1_S7_EEEESt10_Select1stISB_ES5_SaISB_EE10_Auto_node9_M_insertES0_IPSt18_Rb_tree_node_baseSI_E, symObjAddr: 0x6BA4, symBinAddr: 0x10000A4B8, symSize: 0x4C }
  - { offset: 0x34480, size: 0x8, addend: 0x0, symName: __ZNKSt8_Rb_treeIiSt4pairIKiSt3mapIiSt8multisetIiSt4lessIiESaIiEES5_SaIS0_IS1_S7_EEEESt10_Select1stISB_ES5_SaISB_EE10_Auto_node6_M_keyEv, symObjAddr: 0x6B84, symBinAddr: 0x10000A498, symSize: 0x20 }
  - { offset: 0x344AA, size: 0x8, addend: 0x0, symName: __ZNSt8_Rb_treeIiSt4pairIKiSt3mapIiSt8multisetIiSt4lessIiESaIiEES5_SaIS0_IS1_S7_EEEESt10_Select1stISB_ES5_SaISB_EE29_M_get_insert_hint_unique_posESt23_Rb_tree_const_iteratorISB_ERS1_, symObjAddr: 0x6860, symBinAddr: 0x10000A174, symSize: 0x324 }
  - { offset: 0x34579, size: 0x8, addend: 0x0, symName: __ZNSt8_Rb_treeIiSt4pairIKiSt3mapIiSt8multisetIiSt4lessIiESaIiEES5_SaIS0_IS1_S7_EEEESt10_Select1stISB_ES5_SaISB_EE10_Auto_nodeD1Ev, symObjAddr: 0x681C, symBinAddr: 0x10000A130, symSize: 0x44 }
  - { offset: 0x345F2, size: 0x8, addend: 0x0, symName: __ZNSt8_Rb_treeIiSt4pairIKiSt3mapIiSt8multisetIiSt4lessIiESaIiEES5_SaIS0_IS1_S7_EEEESt10_Select1stISB_ES5_SaISB_EE10_Auto_nodeC1IJRKSt21piecewise_construct_tSt5tupleIJRS1_EESL_IJEEEEERSF_DpOT_, symObjAddr: 0x67A0, symBinAddr: 0x10000A0B4, symSize: 0x7C }
  - { offset: 0x3465B, size: 0x8, addend: 0x0, symName: __ZSt7forwardISt5tupleIJEEEOT_RNSt16remove_referenceIS2_E4typeE, symObjAddr: 0x678C, symBinAddr: 0x10000A0A0, symSize: 0x14 }
  - { offset: 0x34694, size: 0x8, addend: 0x0, symName: __ZSt7forwardISt5tupleIJRKiEEEOT_RNSt16remove_referenceIS4_E4typeE, symObjAddr: 0x6778, symBinAddr: 0x10000A08C, symSize: 0x14 }
  - { offset: 0x346CD, size: 0x8, addend: 0x0, symName: __ZSt7forwardIRKSt21piecewise_construct_tEOT_RNSt16remove_referenceIS3_E4typeE, symObjAddr: 0x6764, symBinAddr: 0x10000A078, symSize: 0x14 }
  - { offset: 0x3472B, size: 0x8, addend: 0x0, symName: __ZNSt11_Tuple_implILm0EJRKiEEC2ES1_, symObjAddr: 0x673C, symBinAddr: 0x10000A050, symSize: 0x28 }
  - { offset: 0x3475A, size: 0x8, addend: 0x0, symName: __ZNKSt8_Rb_treeIiSt4pairIKiSt3mapIiSt8multisetIiSt4lessIiESaIiEES5_SaIS0_IS1_S7_EEEESt10_Select1stISB_ES5_SaISB_EE8key_compEv, symObjAddr: 0x6724, symBinAddr: 0x10000A038, symSize: 0x18 }
  - { offset: 0x34784, size: 0x8, addend: 0x0, symName: __ZNSt8_Rb_treeIiSt4pairIKiSt3mapIiSt8multisetIiSt4lessIiESaIiEES5_SaIS0_IS1_S7_EEEESt10_Select1stISB_ES5_SaISB_EE11lower_boundERS1_, symObjAddr: 0x66DC, symBinAddr: 0x100009FF0, symSize: 0x48 }
  - { offset: 0x347BF, size: 0x8, addend: 0x0, symName: __ZNSt5dequeISt4pairIP8TreeNodeS0_IiiEESaIS4_EE16_M_pop_front_auxEv, symObjAddr: 0x6648, symBinAddr: 0x100009F5C, symSize: 0x94 }
  - { offset: 0x34870, size: 0x8, addend: 0x0, symName: __ZNKSt15_Deque_iteratorISt4pairIP8TreeNodeS0_IiiEERS4_PS4_EdeEv, symObjAddr: 0x6630, symBinAddr: 0x100009F44, symSize: 0x18 }
  - { offset: 0x34896, size: 0x8, addend: 0x0, symName: __ZSteqRKSt15_Deque_iteratorISt4pairIP8TreeNodeS0_IiiEERS4_PS4_ES9_, symObjAddr: 0x6600, symBinAddr: 0x100009F14, symSize: 0x30 }
  - { offset: 0x348D5, size: 0x8, addend: 0x0, symName: __ZNSt5dequeISt4pairIP8TreeNodeS0_IiiEESaIS4_EE12emplace_backIJS4_EEERS4_DpOT_, symObjAddr: 0x6524, symBinAddr: 0x100009E38, symSize: 0xDC }
  - { offset: 0x349AB, size: 0x8, addend: 0x0, symName: __ZNSt15_Deque_iteratorISt4pairIP8TreeNodeS0_IiiEERS4_PS4_EC1ERKS7_, symObjAddr: 0x64CC, symBinAddr: 0x100009DE0, symSize: 0x58 }
  - { offset: 0x349DA, size: 0x8, addend: 0x0, symName: __ZNSt11_Deque_baseISt4pairIP8TreeNodeS0_IiiEESaIS4_EE17_M_deallocate_mapEPPS4_m, symObjAddr: 0x646C, symBinAddr: 0x100009D80, symSize: 0x60 }
  - { offset: 0x34A8B, size: 0x8, addend: 0x0, symName: __ZNSt11_Deque_baseISt4pairIP8TreeNodeS0_IiiEESaIS4_EE16_M_destroy_nodesEPPS4_S8_, symObjAddr: 0x640C, symBinAddr: 0x100009D20, symSize: 0x60 }
  - { offset: 0x34AFB, size: 0x8, addend: 0x0, symName: __ZNSt11_Deque_baseISt4pairIP8TreeNodeS0_IiiEESaIS4_EE17_M_initialize_mapEm, symObjAddr: 0x6280, symBinAddr: 0x100009B94, symSize: 0x18C }
  - { offset: 0x34BA3, size: 0x8, addend: 0x0, symName: __ZNSt11_Deque_baseISt4pairIP8TreeNodeS0_IiiEESaIS4_EE11_Deque_implC1Ev, symObjAddr: 0x6248, symBinAddr: 0x100009B5C, symSize: 0x38 }
  - { offset: 0x34C10, size: 0x8, addend: 0x0, symName: __ZNKSt8_Rb_treeIiSt4pairIKiSt3mapIiSt8multisetIiSt4lessIiESaIiEES5_SaIS0_IS1_S7_EEEESt10_Select1stISB_ES5_SaISB_EE9_M_mbeginEv, symObjAddr: 0x6230, symBinAddr: 0x100009B44, symSize: 0x18 }
  - { offset: 0x34C3A, size: 0x8, addend: 0x0, symName: __ZNSt8_Rb_treeIiSt4pairIKiSt3mapIiSt8multisetIiSt4lessIiESaIiEES5_SaIS0_IS1_S7_EEEESt10_Select1stISB_ES5_SaISB_EE12_M_drop_nodeEPSt13_Rb_tree_nodeISB_E, symObjAddr: 0x61FC, symBinAddr: 0x100009B10, symSize: 0x34 }
  - { offset: 0x34C71, size: 0x8, addend: 0x0, symName: __ZNSt8_Rb_treeIiSt4pairIKiSt3mapIiSt8multisetIiSt4lessIiESaIiEES5_SaIS0_IS1_S7_EEEESt10_Select1stISB_ES5_SaISB_EE7_S_leftEPSt18_Rb_tree_node_base, symObjAddr: 0x61E4, symBinAddr: 0x100009AF8, symSize: 0x18 }
  - { offset: 0x34C9B, size: 0x8, addend: 0x0, symName: __ZNSt8_Rb_treeIiSt4pairIKiSt3mapIiSt8multisetIiSt4lessIiESaIiEES5_SaIS0_IS1_S7_EEEESt10_Select1stISB_ES5_SaISB_EE8_S_rightEPSt18_Rb_tree_node_base, symObjAddr: 0x61CC, symBinAddr: 0x100009AE0, symSize: 0x18 }
  - { offset: 0x34CDF, size: 0x8, addend: 0x0, symName: __ZNSt5dequeIiSaIiEE15_M_pop_back_auxEv, symObjAddr: 0x6134, symBinAddr: 0x100009A48, symSize: 0x98 }
  - { offset: 0x34D90, size: 0x8, addend: 0x0, symName: __ZNKSt15_Deque_iteratorIiRiPiEdeEv, symObjAddr: 0x611C, symBinAddr: 0x100009A30, symSize: 0x18 }
  - { offset: 0x34DBA, size: 0x8, addend: 0x0, symName: __ZNSt15_Deque_iteratorIiRiPiEmmEv, symObjAddr: 0x60B0, symBinAddr: 0x1000099C4, symSize: 0x6C }
  - { offset: 0x34DE0, size: 0x8, addend: 0x0, symName: __ZSteqRKSt15_Deque_iteratorIiRiPiES4_, symObjAddr: 0x6080, symBinAddr: 0x100009994, symSize: 0x30 }
  - { offset: 0x34E46, size: 0x8, addend: 0x0, symName: __ZNSt15_Deque_iteratorIiRiPiEC1ERKS2_, symObjAddr: 0x6028, symBinAddr: 0x10000993C, symSize: 0x58 }
  - { offset: 0x34E75, size: 0x8, addend: 0x0, symName: __ZNSt11_Deque_baseIiSaIiEE17_M_deallocate_mapEPPim, symObjAddr: 0x5FC8, symBinAddr: 0x1000098DC, symSize: 0x60 }
  - { offset: 0x34F26, size: 0x8, addend: 0x0, symName: __ZNSt11_Deque_baseIiSaIiEE16_M_destroy_nodesEPPiS3_, symObjAddr: 0x5F68, symBinAddr: 0x10000987C, symSize: 0x60 }
  - { offset: 0x34F96, size: 0x8, addend: 0x0, symName: __ZNSt11_Deque_baseIiSaIiEE17_M_initialize_mapEm, symObjAddr: 0x5DDC, symBinAddr: 0x1000096F0, symSize: 0x18C }
  - { offset: 0x3501E, size: 0x8, addend: 0x0, symName: __ZNSt11_Deque_baseIiSaIiEE11_Deque_implC1Ev, symObjAddr: 0x5DA4, symBinAddr: 0x1000096B8, symSize: 0x38 }
  - { offset: 0x350A6, size: 0x8, addend: 0x0, symName: __ZNSt5dequeIiSaIiEE16_M_push_back_auxIJRKiEEEvDpOT_, symObjAddr: 0x5C84, symBinAddr: 0x100009598, symSize: 0x120 }
  - { offset: 0x35153, size: 0x8, addend: 0x0, symName: __ZSt27__uninitialized_default_n_aIPimiET_S1_T0_RSaIT1_E, symObjAddr: 0x5C5C, symBinAddr: 0x100009570, symSize: 0x28 }
  - { offset: 0x351B6, size: 0x8, addend: 0x0, symName: __ZNSt12_Vector_baseIiSaIiEE17_M_create_storageEm, symObjAddr: 0x5BFC, symBinAddr: 0x100009510, symSize: 0x60 }
  - { offset: 0x35218, size: 0x8, addend: 0x0, symName: __ZNSt12_Vector_baseIiSaIiEE12_Vector_implC1ERKS0_, symObjAddr: 0x5BB0, symBinAddr: 0x1000094C4, symSize: 0x4C }
  - { offset: 0x3529B, size: 0x8, addend: 0x0, symName: __ZNSt6vectorIiSaIiEE11_S_max_sizeERKS0_, symObjAddr: 0x5B5C, symBinAddr: 0x100009470, symSize: 0x54 }
  - { offset: 0x3536D, size: 0x8, addend: 0x0, symName: __ZNSt6vectorIS_IiSaIiEESaIS1_EE11_S_relocateEPS1_S4_S4_RS2_, symObjAddr: 0x5B28, symBinAddr: 0x10000943C, symSize: 0x34 }
  - { offset: 0x353CA, size: 0x8, addend: 0x0, symName: __ZSt12__to_addressISt6vectorIiSaIiEEEPT_S4_, symObjAddr: 0x5B14, symBinAddr: 0x100009428, symSize: 0x14 }
  - { offset: 0x35400, size: 0x8, addend: 0x0, symName: __ZNSt12_Vector_baseISt6vectorIiSaIiEESaIS2_EE11_M_allocateEm, symObjAddr: 0x5AC4, symBinAddr: 0x1000093D8, symSize: 0x50 }
  - { offset: 0x3546B, size: 0x8, addend: 0x0, symName: __ZN9__gnu_cxxmiIPSt6vectorIiSaIiEES1_IS3_SaIS3_EEEENS_17__normal_iteratorIT_T0_E15difference_typeERKSA_SD_, symObjAddr: 0x5A78, symBinAddr: 0x10000938C, symSize: 0x4C }
  - { offset: 0x354BC, size: 0x8, addend: 0x0, symName: __ZNSt6vectorIS_IiSaIiEESaIS1_EE5beginEv, symObjAddr: 0x5A54, symBinAddr: 0x100009368, symSize: 0x24 }
  - { offset: 0x354E6, size: 0x8, addend: 0x0, symName: __ZNSt6vectorIS_IiSaIiEESaIS1_EE3endEv, symObjAddr: 0x5A2C, symBinAddr: 0x100009340, symSize: 0x28 }
  - { offset: 0x35510, size: 0x8, addend: 0x0, symName: __ZNKSt6vectorIS_IiSaIiEESaIS1_EE12_M_check_lenEmPKc, symObjAddr: 0x595C, symBinAddr: 0x100009270, symSize: 0xD0 }
  - { offset: 0x355B2, size: 0x8, addend: 0x0, symName: __ZSt7forwardIRKSt6vectorIiSaIiEEEOT_RNSt16remove_referenceIS5_E4typeE, symObjAddr: 0x5948, symBinAddr: 0x10000925C, symSize: 0x14 }
  - { offset: 0x355E8, size: 0x8, addend: 0x0, symName: __ZNSt5dequeIP8TreeNodeSaIS1_EE23_M_reserve_map_at_frontEm, symObjAddr: 0x58F4, symBinAddr: 0x100009208, symSize: 0x54 }
  - { offset: 0x3561F, size: 0x8, addend: 0x0, symName: __ZNSt6vectorIiSaIiEE11_S_relocateEPiS2_S2_RS0_, symObjAddr: 0x58C0, symBinAddr: 0x1000091D4, symSize: 0x34 }
  - { offset: 0x3567C, size: 0x8, addend: 0x0, symName: __ZSt12__to_addressIiEPT_S1_, symObjAddr: 0x58AC, symBinAddr: 0x1000091C0, symSize: 0x14 }
  - { offset: 0x356B2, size: 0x8, addend: 0x0, symName: __ZNSt12_Vector_baseIiSaIiEE11_M_allocateEm, symObjAddr: 0x585C, symBinAddr: 0x100009170, symSize: 0x50 }
  - { offset: 0x3571D, size: 0x8, addend: 0x0, symName: __ZN9__gnu_cxxmiIPiSt6vectorIiSaIiEEEENS_17__normal_iteratorIT_T0_E15difference_typeERKS8_SB_, symObjAddr: 0x581C, symBinAddr: 0x100009130, symSize: 0x40 }
  - { offset: 0x3576E, size: 0x8, addend: 0x0, symName: __ZNKSt6vectorIiSaIiEE12_M_check_lenEmPKc, symObjAddr: 0x574C, symBinAddr: 0x100009060, symSize: 0xD0 }
  - { offset: 0x35810, size: 0x8, addend: 0x0, symName: __ZSt7forwardIRKiEOT_RNSt16remove_referenceIS2_E4typeE, symObjAddr: 0x5738, symBinAddr: 0x10000904C, symSize: 0x14 }
  - { offset: 0x3586E, size: 0x8, addend: 0x0, symName: __ZNSt15_Deque_iteratorIP8TreeNodeRS1_PS1_E14_S_buffer_sizeEv, symObjAddr: 0x5720, symBinAddr: 0x100009034, symSize: 0x18 }
  - { offset: 0x35886, size: 0x8, addend: 0x0, symName: __ZSt8_DestroyIPiEvT_S1_, symObjAddr: 0x56F8, symBinAddr: 0x10000900C, symSize: 0x28 }
  - { offset: 0x358FE, size: 0x8, addend: 0x0, symName: __ZNSt11_Deque_baseIP8TreeNodeSaIS1_EE16_M_allocate_nodeEv, symObjAddr: 0x56B4, symBinAddr: 0x100008FC8, symSize: 0x44 }
  - { offset: 0x35955, size: 0x8, addend: 0x0, symName: __ZNSt5dequeIP8TreeNodeSaIS1_EE22_M_reserve_map_at_backEm, symObjAddr: 0x5654, symBinAddr: 0x100008F68, symSize: 0x60 }
  - { offset: 0x35990, size: 0x8, addend: 0x0, symName: __ZNKSt5dequeIP8TreeNodeSaIS1_EE8max_sizeEv, symObjAddr: 0x5634, symBinAddr: 0x100008F48, symSize: 0x20 }
  - { offset: 0x359FF, size: 0x8, addend: 0x0, symName: __ZSt7forwardIRKP8TreeNodeEOT_RNSt16remove_referenceIS4_E4typeE, symObjAddr: 0x5620, symBinAddr: 0x100008F34, symSize: 0x14 }
  - { offset: 0x35A87, size: 0x8, addend: 0x0, symName: __ZNKSt11_Deque_baseIP8TreeNodeSaIS1_EE20_M_get_map_allocatorEv, symObjAddr: 0x55D8, symBinAddr: 0x100008EEC, symSize: 0x48 }
  - { offset: 0x35B01, size: 0x8, addend: 0x0, symName: __ZNSt11_Deque_baseIP8TreeNodeSaIS1_EE18_M_deallocate_nodeEPS1_, symObjAddr: 0x5580, symBinAddr: 0x100008E94, symSize: 0x58 }
  - { offset: 0x35B72, size: 0x8, addend: 0x0, symName: __ZNSt15_Deque_iteratorIP8TreeNodeRS1_PS1_E11_M_set_nodeEPS3_, symObjAddr: 0x5524, symBinAddr: 0x100008E38, symSize: 0x5C }
  - { offset: 0x35BAD, size: 0x8, addend: 0x0, symName: __ZNSt11_Deque_baseIP8TreeNodeSaIS1_EE15_M_create_nodesEPPS1_S5_, symObjAddr: 0x5498, symBinAddr: 0x100008DAC, symSize: 0x8C }
  - { offset: 0x35C0A, size: 0x8, addend: 0x0, symName: __ZNSt11_Deque_baseIP8TreeNodeSaIS1_EE15_M_allocate_mapEm, symObjAddr: 0x5418, symBinAddr: 0x100008D2C, symSize: 0x80 }
  - { offset: 0x35CE6, size: 0x8, addend: 0x0, symName: __ZNSt15__new_allocatorIP8TreeNodeED2Ev, symObjAddr: 0x5404, symBinAddr: 0x100008D18, symSize: 0x14 }
  - { offset: 0x35D26, size: 0x8, addend: 0x0, symName: __ZNSt11_Deque_baseIP8TreeNodeSaIS1_EE16_Deque_impl_dataC2Ev, symObjAddr: 0x53C4, symBinAddr: 0x100008CD8, symSize: 0x40 }
  - { offset: 0x35D5E, size: 0x8, addend: 0x0, symName: __ZSt8_DestroyIPSt6vectorIiSaIiEEEvT_S4_, symObjAddr: 0x539C, symBinAddr: 0x100008CB0, symSize: 0x28 }
  - { offset: 0x35E13, size: 0x8, addend: 0x0, symName: __ZNSt15_Deque_iteratorIP8TreeNodeRS1_PS1_EC1ERKS4_, symObjAddr: 0x5344, symBinAddr: 0x100008C58, symSize: 0x58 }
  - { offset: 0x35E42, size: 0x8, addend: 0x0, symName: __ZNSt6vectorIiSaIiEE15_M_range_insertISt23_Rb_tree_const_iteratorIiEEEvN9__gnu_cxx17__normal_iteratorIPiS1_EET_S9_St20forward_iterator_tag, symObjAddr: 0x4F40, symBinAddr: 0x100008854, symSize: 0x404 }
  - { offset: 0x360A8, size: 0x8, addend: 0x0, symName: __ZNK9__gnu_cxx17__normal_iteratorIPiSt6vectorIiSaIiEEEplEl, symObjAddr: 0x4F00, symBinAddr: 0x100008814, symSize: 0x40 }
  - { offset: 0x360E3, size: 0x8, addend: 0x0, symName: __ZNSt6vectorIiSaIiEE5beginEv, symObjAddr: 0x4EDC, symBinAddr: 0x1000087F0, symSize: 0x24 }
  - { offset: 0x36110, size: 0x8, addend: 0x0, symName: __ZN9__gnu_cxxmiIPKiSt6vectorIiSaIiEEEENS_17__normal_iteratorIT_T0_E15difference_typeERKS9_SC_, symObjAddr: 0x4E9C, symBinAddr: 0x1000087B0, symSize: 0x40 }
  - { offset: 0x36161, size: 0x8, addend: 0x0, symName: __ZNKSt6vectorIiSaIiEE6cbeginEv, symObjAddr: 0x4E78, symBinAddr: 0x10000878C, symSize: 0x24 }
  - { offset: 0x3618B, size: 0x8, addend: 0x0, symName: __ZNK9__gnu_cxx17__normal_iteratorIPiSt6vectorIiSaIiEEE4baseEv, symObjAddr: 0x4E64, symBinAddr: 0x100008778, symSize: 0x14 }
  - { offset: 0x361B5, size: 0x8, addend: 0x0, symName: __ZNKSt8_Rb_treeIiiSt9_IdentityIiESt4lessIiESaIiEE3endEv, symObjAddr: 0x4E3C, symBinAddr: 0x100008750, symSize: 0x28 }
  - { offset: 0x361DF, size: 0x8, addend: 0x0, symName: __ZNKSt8_Rb_treeIiiSt9_IdentityIiESt4lessIiESaIiEE5beginEv, symObjAddr: 0x4E14, symBinAddr: 0x100008728, symSize: 0x28 }
  - { offset: 0x36231, size: 0x8, addend: 0x0, symName: __ZN9__gnu_cxx17__normal_iteratorIPiSt6vectorIiSaIiEEEC1ERKS1_, symObjAddr: 0x4DEC, symBinAddr: 0x100008700, symSize: 0x28 }
  - { offset: 0x36260, size: 0x8, addend: 0x0, symName: __ZNSt8_Rb_treeIiiSt9_IdentityIiESt4lessIiESaIiEE8_M_beginEv, symObjAddr: 0x4DD0, symBinAddr: 0x1000086E4, symSize: 0x1C }
  - { offset: 0x3628A, size: 0x8, addend: 0x0, symName: __ZNSt8_Rb_treeIiiSt9_IdentityIiESt4lessIiESaIiEE8_M_eraseEPSt13_Rb_tree_nodeIiE, symObjAddr: 0x4D6C, symBinAddr: 0x100008680, symSize: 0x64 }
  - { offset: 0x362E9, size: 0x8, addend: 0x0, symName: __ZNSt8_Rb_treeIiiSt9_IdentityIiESt4lessIiESaIiEE7_M_copyERKS5_, symObjAddr: 0x4D34, symBinAddr: 0x100008648, symSize: 0x38 }
  - { offset: 0x36335, size: 0x8, addend: 0x0, symName: __ZNSt8_Rb_treeIiiSt9_IdentityIiESt4lessIiESaIiEE7_M_rootEv, symObjAddr: 0x4D1C, symBinAddr: 0x100008630, symSize: 0x18 }
  - { offset: 0x3635F, size: 0x8, addend: 0x0, symName: __ZNKSt8_Rb_treeIiiSt9_IdentityIiESt4lessIiESaIiEE7_M_rootEv, symObjAddr: 0x4D04, symBinAddr: 0x100008618, symSize: 0x18 }
  - { offset: 0x363D1, size: 0x8, addend: 0x0, symName: __ZNSt8_Rb_treeIiiSt9_IdentityIiESt4lessIiESaIiEE13_Rb_tree_implIS3_Lb1EEC1ERKS7_, symObjAddr: 0x4C64, symBinAddr: 0x100008578, symSize: 0xA0 }
  - { offset: 0x3651A, size: 0x8, addend: 0x0, symName: __ZNSt13_Rb_tree_nodeISt4pairIKiSt8multisetIiSt4lessIiESaIiEEEE9_M_valptrEv, symObjAddr: 0x4C44, symBinAddr: 0x100008558, symSize: 0x20 }
  - { offset: 0x36544, size: 0x8, addend: 0x0, symName: __ZNSt8_Rb_treeIiSt4pairIKiSt8multisetIiSt4lessIiESaIiEEESt10_Select1stIS7_ES4_SaIS7_EE3endEv, symObjAddr: 0x4C1C, symBinAddr: 0x100008530, symSize: 0x28 }
  - { offset: 0x3656E, size: 0x8, addend: 0x0, symName: __ZNSt8_Rb_treeIiSt4pairIKiSt8multisetIiSt4lessIiESaIiEEESt10_Select1stIS7_ES4_SaIS7_EE5beginEv, symObjAddr: 0x4BF4, symBinAddr: 0x100008508, symSize: 0x28 }
  - { offset: 0x36598, size: 0x8, addend: 0x0, symName: __ZNSt8_Rb_treeIiSt4pairIKiSt8multisetIiSt4lessIiESaIiEEESt10_Select1stIS7_ES4_SaIS7_EE8_M_beginEv, symObjAddr: 0x4BD8, symBinAddr: 0x1000084EC, symSize: 0x1C }
  - { offset: 0x365C2, size: 0x8, addend: 0x0, symName: __ZNSt8_Rb_treeIiSt4pairIKiSt8multisetIiSt4lessIiESaIiEEESt10_Select1stIS7_ES4_SaIS7_EE8_M_eraseEPSt13_Rb_tree_nodeIS7_E, symObjAddr: 0x4B74, symBinAddr: 0x100008488, symSize: 0x64 }
  - { offset: 0x36621, size: 0x8, addend: 0x0, symName: __ZNSt8_Rb_treeIiSt4pairIKiSt8multisetIiSt4lessIiESaIiEEESt10_Select1stIS7_ES4_SaIS7_EE7_M_copyERKSB_, symObjAddr: 0x4B3C, symBinAddr: 0x100008450, symSize: 0x38 }
  - { offset: 0x3666D, size: 0x8, addend: 0x0, symName: __ZNSt8_Rb_treeIiSt4pairIKiSt8multisetIiSt4lessIiESaIiEEESt10_Select1stIS7_ES4_SaIS7_EE7_M_rootEv, symObjAddr: 0x4B24, symBinAddr: 0x100008438, symSize: 0x18 }
  - { offset: 0x36697, size: 0x8, addend: 0x0, symName: __ZNKSt8_Rb_treeIiSt4pairIKiSt8multisetIiSt4lessIiESaIiEEESt10_Select1stIS7_ES4_SaIS7_EE7_M_rootEv, symObjAddr: 0x4B0C, symBinAddr: 0x100008420, symSize: 0x18 }
  - { offset: 0x36709, size: 0x8, addend: 0x0, symName: __ZNSt8_Rb_treeIiSt4pairIKiSt8multisetIiSt4lessIiESaIiEEESt10_Select1stIS7_ES4_SaIS7_EE13_Rb_tree_implIS4_Lb1EEC1ERKSD_, symObjAddr: 0x4A6C, symBinAddr: 0x100008380, symSize: 0xA0 }
  - { offset: 0x36852, size: 0x8, addend: 0x0, symName: __ZNSt13_Rb_tree_nodeISt4pairIKiSt3mapIiSt8multisetIiSt4lessIiESaIiEES5_SaIS0_IS1_S7_EEEEE9_M_valptrEv, symObjAddr: 0x4A4C, symBinAddr: 0x100008360, symSize: 0x20 }
  - { offset: 0x3687C, size: 0x8, addend: 0x0, symName: __ZNSt8_Rb_treeIiSt4pairIKiSt3mapIiSt8multisetIiSt4lessIiESaIiEES5_SaIS0_IS1_S7_EEEESt10_Select1stISB_ES5_SaISB_EE3endEv, symObjAddr: 0x4A24, symBinAddr: 0x100008338, symSize: 0x28 }
  - { offset: 0x368A6, size: 0x8, addend: 0x0, symName: __ZNSt8_Rb_treeIiSt4pairIKiSt3mapIiSt8multisetIiSt4lessIiESaIiEES5_SaIS0_IS1_S7_EEEESt10_Select1stISB_ES5_SaISB_EE5beginEv, symObjAddr: 0x49FC, symBinAddr: 0x100008310, symSize: 0x28 }
  - { offset: 0x368F8, size: 0x8, addend: 0x0, symName: __ZNSt23_Rb_tree_const_iteratorIiEC1ERKSt17_Rb_tree_iteratorIiE, symObjAddr: 0x49D4, symBinAddr: 0x1000082E8, symSize: 0x28 }
  - { offset: 0x36927, size: 0x8, addend: 0x0, symName: __ZNSt8_Rb_treeIiiSt9_IdentityIiESt4lessIiESaIiEE15_M_insert_equalIRKiEESt17_Rb_tree_iteratorIiEOT_, symObjAddr: 0x495C, symBinAddr: 0x100008270, symSize: 0x78 }
  - { offset: 0x3698D, size: 0x8, addend: 0x0, symName: __ZNSt8_Rb_treeIiSt4pairIKiSt8multisetIiSt4lessIiESaIiEEESt10_Select1stIS7_ES4_SaIS7_EE22_M_emplace_hint_uniqueIJRKSt21piecewise_construct_tSt5tupleIJRS1_EESG_IJEEEEESt17_Rb_tree_iteratorIS7_ESt23_Rb_tree_const_iteratorIS7_EDpOT_, symObjAddr: 0x4884, symBinAddr: 0x100008198, symSize: 0xD8 }
  - { offset: 0x36A4C, size: 0x8, addend: 0x0, symName: __ZNSt23_Rb_tree_const_iteratorISt4pairIKiSt8multisetIiSt4lessIiESaIiEEEEC1ERKSt17_Rb_tree_iteratorIS7_E, symObjAddr: 0x485C, symBinAddr: 0x100008170, symSize: 0x28 }
  - { offset: 0x36A7B, size: 0x8, addend: 0x0, symName: __ZNKSt3mapIiSt8multisetIiSt4lessIiESaIiEES2_SaISt4pairIKiS4_EEE8key_compEv, symObjAddr: 0x4830, symBinAddr: 0x100008144, symSize: 0x2C }
  - { offset: 0x36AA8, size: 0x8, addend: 0x0, symName: __ZSteqRKSt17_Rb_tree_iteratorISt4pairIKiSt8multisetIiSt4lessIiESaIiEEEESA_, symObjAddr: 0x4800, symBinAddr: 0x100008114, symSize: 0x30 }
  - { offset: 0x36AE7, size: 0x8, addend: 0x0, symName: __ZNSt3mapIiSt8multisetIiSt4lessIiESaIiEES2_SaISt4pairIKiS4_EEE11lower_boundERS6_, symObjAddr: 0x47DC, symBinAddr: 0x1000080F0, symSize: 0x24 }
  - { offset: 0x36B22, size: 0x8, addend: 0x0, symName: __ZNSt8_Rb_treeIiSt4pairIKiSt3mapIiSt8multisetIiSt4lessIiESaIiEES5_SaIS0_IS1_S7_EEEESt10_Select1stISB_ES5_SaISB_EE22_M_emplace_hint_uniqueIJRKSt21piecewise_construct_tSt5tupleIJRS1_EESK_IJEEEEESt17_Rb_tree_iteratorISB_ESt23_Rb_tree_const_iteratorISB_EDpOT_, symObjAddr: 0x4704, symBinAddr: 0x100008018, symSize: 0xD8 }
  - { offset: 0x36BE1, size: 0x8, addend: 0x0, symName: __ZNSt23_Rb_tree_const_iteratorISt4pairIKiSt3mapIiSt8multisetIiSt4lessIiESaIiEES5_SaIS0_IS1_S7_EEEEEC1ERKSt17_Rb_tree_iteratorISB_E, symObjAddr: 0x46DC, symBinAddr: 0x100007FF0, symSize: 0x28 }
  - { offset: 0x36C42, size: 0x8, addend: 0x0, symName: __ZNSt5tupleIJRKiEEC1ILb1ELb1EEES1_, symObjAddr: 0x46B4, symBinAddr: 0x100007FC8, symSize: 0x28 }
  - { offset: 0x36C7B, size: 0x8, addend: 0x0, symName: __ZNKSt4lessIiEclERKiS2_, symObjAddr: 0x4680, symBinAddr: 0x100007F94, symSize: 0x34 }
  - { offset: 0x36CC7, size: 0x8, addend: 0x0, symName: __ZNKSt3mapIiS_IiSt8multisetIiSt4lessIiESaIiEES2_SaISt4pairIKiS4_EEES2_SaIS5_IS6_S9_EEE8key_compEv, symObjAddr: 0x4654, symBinAddr: 0x100007F68, symSize: 0x2C }
  - { offset: 0x36CF4, size: 0x8, addend: 0x0, symName: __ZSteqRKSt17_Rb_tree_iteratorISt4pairIKiSt3mapIiSt8multisetIiSt4lessIiESaIiEES5_SaIS0_IS1_S7_EEEEESE_, symObjAddr: 0x4624, symBinAddr: 0x100007F38, symSize: 0x30 }
  - { offset: 0x36D33, size: 0x8, addend: 0x0, symName: __ZNSt3mapIiS_IiSt8multisetIiSt4lessIiESaIiEES2_SaISt4pairIKiS4_EEES2_SaIS5_IS6_S9_EEE11lower_boundERS6_, symObjAddr: 0x4600, symBinAddr: 0x100007F14, symSize: 0x24 }
  - { offset: 0x36D6E, size: 0x8, addend: 0x0, symName: __ZNSt5dequeISt4pairIP8TreeNodeS0_IiiEESaIS4_EE9pop_frontEv, symObjAddr: 0x4578, symBinAddr: 0x100007E8C, symSize: 0x88 }
  - { offset: 0x36DF2, size: 0x8, addend: 0x0, symName: __ZNSt5dequeISt4pairIP8TreeNodeS0_IiiEESaIS4_EE5frontEv, symObjAddr: 0x454C, symBinAddr: 0x100007E60, symSize: 0x2C }
  - { offset: 0x36E1C, size: 0x8, addend: 0x0, symName: __ZNKSt5dequeISt4pairIP8TreeNodeS0_IiiEESaIS4_EE5emptyEv, symObjAddr: 0x451C, symBinAddr: 0x100007E30, symSize: 0x30 }
  - { offset: 0x36E46, size: 0x8, addend: 0x0, symName: __ZNSt5dequeISt4pairIP8TreeNodeS0_IiiEESaIS4_EE9push_backEOS4_, symObjAddr: 0x44EC, symBinAddr: 0x100007E00, symSize: 0x30 }
  - { offset: 0x36E84, size: 0x8, addend: 0x0, symName: __ZSt4moveIRSt4pairIP8TreeNodeS0_IiiEEEONSt16remove_referenceIT_E4typeEOS7_, symObjAddr: 0x44D8, symBinAddr: 0x100007DEC, symSize: 0x14 }
  - { offset: 0x36EBA, size: 0x8, addend: 0x0, symName: __ZNSt5dequeISt4pairIP8TreeNodeS0_IiiEESaIS4_EE15_M_destroy_dataESt15_Deque_iteratorIS4_RS4_PS4_ESA_RKS5_, symObjAddr: 0x44B8, symBinAddr: 0x100007DCC, symSize: 0x20 }
  - { offset: 0x36F15, size: 0x8, addend: 0x0, symName: __ZNSt11_Deque_baseISt4pairIP8TreeNodeS0_IiiEESaIS4_EE19_M_get_Tp_allocatorEv, symObjAddr: 0x44A4, symBinAddr: 0x100007DB8, symSize: 0x14 }
  - { offset: 0x36F3F, size: 0x8, addend: 0x0, symName: __ZNSt5dequeISt4pairIP8TreeNodeS0_IiiEESaIS4_EE3endEv, symObjAddr: 0x446C, symBinAddr: 0x100007D80, symSize: 0x38 }
  - { offset: 0x36F69, size: 0x8, addend: 0x0, symName: __ZNSt5dequeISt4pairIP8TreeNodeS0_IiiEESaIS4_EE5beginEv, symObjAddr: 0x4434, symBinAddr: 0x100007D48, symSize: 0x38 }
  - { offset: 0x36FB7, size: 0x8, addend: 0x0, symName: __ZNSt11_Deque_baseISt4pairIP8TreeNodeS0_IiiEESaIS4_EED2Ev, symObjAddr: 0x43C8, symBinAddr: 0x100007CDC, symSize: 0x6C }
  - { offset: 0x36FF7, size: 0x8, addend: 0x0, symName: __ZNSt11_Deque_baseISt4pairIP8TreeNodeS0_IiiEESaIS4_EEC2Ev, symObjAddr: 0x4380, symBinAddr: 0x100007C94, symSize: 0x48 }
  - { offset: 0x37045, size: 0x8, addend: 0x0, symName: __ZNSt11_Deque_baseISt4pairIP8TreeNodeS0_IiiEESaIS4_EE11_Deque_implD1Ev, symObjAddr: 0x4354, symBinAddr: 0x100007C68, symSize: 0x2C }
  - { offset: 0x3708F, size: 0x8, addend: 0x0, symName: __ZNSt8_Rb_treeIiSt4pairIKiSt3mapIiSt8multisetIiSt4lessIiESaIiEES5_SaIS0_IS1_S7_EEEESt10_Select1stISB_ES5_SaISB_EE8_M_beginEv, symObjAddr: 0x4338, symBinAddr: 0x100007C4C, symSize: 0x1C }
  - { offset: 0x370B9, size: 0x8, addend: 0x0, symName: __ZNSt8_Rb_treeIiSt4pairIKiSt3mapIiSt8multisetIiSt4lessIiESaIiEES5_SaIS0_IS1_S7_EEEESt10_Select1stISB_ES5_SaISB_EE8_M_eraseEPSt13_Rb_tree_nodeISB_E, symObjAddr: 0x42D4, symBinAddr: 0x100007BE8, symSize: 0x64 }
  - { offset: 0x3713C, size: 0x8, addend: 0x0, symName: __ZNSt15__new_allocatorISt13_Rb_tree_nodeISt4pairIKiSt3mapIiSt8multisetIiSt4lessIiESaIiEES6_SaIS1_IS2_S8_EEEEEED2Ev, symObjAddr: 0x42C0, symBinAddr: 0x100007BD4, symSize: 0x14 }
  - { offset: 0x3717C, size: 0x8, addend: 0x0, symName: __ZNSt20_Rb_tree_key_compareISt4lessIiEEC2Ev, symObjAddr: 0x42AC, symBinAddr: 0x100007BC0, symSize: 0x14 }
  - { offset: 0x371B8, size: 0x8, addend: 0x0, symName: __ZNSt5dequeIiSaIiEE8pop_backEv, symObjAddr: 0x4228, symBinAddr: 0x100007B3C, symSize: 0x84 }
  - { offset: 0x3723C, size: 0x8, addend: 0x0, symName: __ZNSt5dequeIiSaIiEE4backEv, symObjAddr: 0x41F4, symBinAddr: 0x100007B08, symSize: 0x34 }
  - { offset: 0x37277, size: 0x8, addend: 0x0, symName: __ZNKSt5dequeIiSaIiEE5emptyEv, symObjAddr: 0x41C4, symBinAddr: 0x100007AD8, symSize: 0x30 }
  - { offset: 0x372A1, size: 0x8, addend: 0x0, symName: __ZNSt5dequeIiSaIiEE15_M_destroy_dataESt15_Deque_iteratorIiRiPiES5_RKS0_, symObjAddr: 0x41A4, symBinAddr: 0x100007AB8, symSize: 0x20 }
  - { offset: 0x372FC, size: 0x8, addend: 0x0, symName: __ZNSt11_Deque_baseIiSaIiEE19_M_get_Tp_allocatorEv, symObjAddr: 0x4190, symBinAddr: 0x100007AA4, symSize: 0x14 }
  - { offset: 0x37326, size: 0x8, addend: 0x0, symName: __ZNSt5dequeIiSaIiEE3endEv, symObjAddr: 0x4158, symBinAddr: 0x100007A6C, symSize: 0x38 }
  - { offset: 0x37350, size: 0x8, addend: 0x0, symName: __ZNSt5dequeIiSaIiEE5beginEv, symObjAddr: 0x4120, symBinAddr: 0x100007A34, symSize: 0x38 }
  - { offset: 0x3739E, size: 0x8, addend: 0x0, symName: __ZNSt11_Deque_baseIiSaIiEED2Ev, symObjAddr: 0x40B4, symBinAddr: 0x1000079C8, symSize: 0x6C }
  - { offset: 0x373DE, size: 0x8, addend: 0x0, symName: __ZNSt11_Deque_baseIiSaIiEEC2Ev, symObjAddr: 0x406C, symBinAddr: 0x100007980, symSize: 0x48 }
  - { offset: 0x3742C, size: 0x8, addend: 0x0, symName: __ZNSt11_Deque_baseIiSaIiEE11_Deque_implD1Ev, symObjAddr: 0x4040, symBinAddr: 0x100007954, symSize: 0x2C }
  - { offset: 0x3749D, size: 0x8, addend: 0x0, symName: __ZNSt12_Vector_baseIiSaIiEE17_Vector_impl_dataC2EOS2_, symObjAddr: 0x3FD0, symBinAddr: 0x1000078E4, symSize: 0x70 }
  - { offset: 0x374F9, size: 0x8, addend: 0x0, symName: __ZSt4moveIRNSt12_Vector_baseIiSaIiEE12_Vector_implEEONSt16remove_referenceIT_E4typeEOS6_, symObjAddr: 0x3FBC, symBinAddr: 0x1000078D0, symSize: 0x14 }
  - { offset: 0x3752F, size: 0x8, addend: 0x0, symName: __ZNSt5dequeIiSaIiEE9push_backERKi, symObjAddr: 0x3EF0, symBinAddr: 0x100007804, symSize: 0xCC }
  - { offset: 0x375D6, size: 0x8, addend: 0x0, symName: __ZNSt6vectorIiSaIiEE21_M_default_initializeEm, symObjAddr: 0x3EA0, symBinAddr: 0x1000077B4, symSize: 0x50 }
  - { offset: 0x37647, size: 0x8, addend: 0x0, symName: __ZNSt12_Vector_baseIiSaIiEEC2EmRKS0_, symObjAddr: 0x3E4C, symBinAddr: 0x100007760, symSize: 0x54 }
  - { offset: 0x3767B, size: 0x8, addend: 0x0, symName: __ZNSt6vectorIiSaIiEE17_S_check_init_lenEmRKS0_, symObjAddr: 0x3DC8, symBinAddr: 0x1000076DC, symSize: 0x84 }
  - { offset: 0x3776E, size: 0x8, addend: 0x0, symName: __ZNSt12_Vector_baseISt6vectorIiSaIiEESaIS2_EE17_Vector_impl_dataC2EOS5_, symObjAddr: 0x3D58, symBinAddr: 0x10000766C, symSize: 0x70 }
  - { offset: 0x377CA, size: 0x8, addend: 0x0, symName: __ZSt4moveIRNSt12_Vector_baseISt6vectorIiSaIiEESaIS3_EE12_Vector_implEEONSt16remove_referenceIT_E4typeEOS9_, symObjAddr: 0x3D44, symBinAddr: 0x100007658, symSize: 0x14 }
  - { offset: 0x37800, size: 0x8, addend: 0x0, symName: __ZNSt6vectorIS_IiSaIiEESaIS1_EE17_M_realloc_appendIJRKS1_EEEvDpOT_, symObjAddr: 0x3B1C, symBinAddr: 0x100007430, symSize: 0x228 }
  - { offset: 0x37985, size: 0x8, addend: 0x0, symName: __ZZNSt6vectorIS_IiSaIiEESaIS1_EE17_M_realloc_appendIJRKS1_EEEvDpOT_EN6_GuardC1EPS1_mRS2_, symObjAddr: 0x3A78, symBinAddr: 0x10000738C, symSize: 0x44 }
  - { offset: 0x379CA, size: 0x8, addend: 0x0, symName: __ZZNSt6vectorIS_IiSaIiEESaIS1_EE17_M_realloc_appendIJRKS1_EEEvDpOT_EN6_GuardD1Ev, symObjAddr: 0x3ABC, symBinAddr: 0x1000073D0, symSize: 0x60 }
  - { offset: 0x37AFD, size: 0x8, addend: 0x0, symName: __ZNSt5dequeIP8TreeNodeSaIS1_EE17_M_push_front_auxIJRKS1_EEEvDpOT_, symObjAddr: 0x3954, symBinAddr: 0x100007268, symSize: 0x124 }
  - { offset: 0x37BAE, size: 0x8, addend: 0x0, symName: __ZNSt5dequeIP8TreeNodeSaIS1_EE15_M_pop_back_auxEv, symObjAddr: 0x38BC, symBinAddr: 0x1000071D0, symSize: 0x98 }
  - { offset: 0x37C32, size: 0x8, addend: 0x0, symName: __ZNSt15_Deque_iteratorIP8TreeNodeRS1_PS1_EmmEv, symObjAddr: 0x3850, symBinAddr: 0x100007164, symSize: 0x6C }
  - { offset: 0x37C5C, size: 0x8, addend: 0x0, symName: __ZNSt6vectorIiSaIiEE17_M_realloc_appendIJRKiEEEvDpOT_, symObjAddr: 0x3694, symBinAddr: 0x100006FA8, symSize: 0x1BC }
  - { offset: 0x37DE1, size: 0x8, addend: 0x0, symName: __ZZNSt6vectorIiSaIiEE17_M_realloc_appendIJRKiEEEvDpOT_EN6_GuardC1EPimRS0_, symObjAddr: 0x35F0, symBinAddr: 0x100006F04, symSize: 0x44 }
  - { offset: 0x37E26, size: 0x8, addend: 0x0, symName: __ZZNSt6vectorIiSaIiEE17_M_realloc_appendIJRKiEEEvDpOT_EN6_GuardD1Ev, symObjAddr: 0x3634, symBinAddr: 0x100006F48, symSize: 0x60 }
  - { offset: 0x37F5D, size: 0x8, addend: 0x0, symName: __ZNSt5dequeIP8TreeNodeSaIS1_EE16_M_pop_front_auxEv, symObjAddr: 0x355C, symBinAddr: 0x100006E70, symSize: 0x94 }
  - { offset: 0x3800E, size: 0x8, addend: 0x0, symName: __ZNKSt15_Deque_iteratorIP8TreeNodeRS1_PS1_EdeEv, symObjAddr: 0x3544, symBinAddr: 0x100006E58, symSize: 0x18 }
  - { offset: 0x3803B, size: 0x8, addend: 0x0, symName: __ZStmiRKSt15_Deque_iteratorIP8TreeNodeRS1_PS1_ES6_, symObjAddr: 0x34B0, symBinAddr: 0x100006DC4, symSize: 0x94 }
  - { offset: 0x380B5, size: 0x8, addend: 0x0, symName: __ZNSt12_Vector_baseIiSaIiEE19_M_get_Tp_allocatorEv, symObjAddr: 0x349C, symBinAddr: 0x100006DB0, symSize: 0x14 }
  - { offset: 0x380DF, size: 0x8, addend: 0x0, symName: __ZNSt12_Vector_baseIiSaIiEE13_M_deallocateEPim, symObjAddr: 0x3444, symBinAddr: 0x100006D58, symSize: 0x58 }
  - { offset: 0x38185, size: 0x8, addend: 0x0, symName: __ZNSt15__new_allocatorIiED2Ev, symObjAddr: 0x3430, symBinAddr: 0x100006D44, symSize: 0x14 }
  - { offset: 0x381C5, size: 0x8, addend: 0x0, symName: __ZNSt12_Vector_baseIiSaIiEE17_Vector_impl_dataC2Ev, symObjAddr: 0x3404, symBinAddr: 0x100006D18, symSize: 0x2C }
  - { offset: 0x381E7, size: 0x8, addend: 0x0, symName: __ZSteqRKSt15_Deque_iteratorIP8TreeNodeRS1_PS1_ES6_, symObjAddr: 0x33D4, symBinAddr: 0x100006CE8, symSize: 0x30 }
  - { offset: 0x38226, size: 0x8, addend: 0x0, symName: __ZNSt5dequeIP8TreeNodeSaIS1_EE16_M_push_back_auxIJRKS1_EEEvDpOT_, symObjAddr: 0x32B4, symBinAddr: 0x100006BC8, symSize: 0x120 }
  - { offset: 0x3831B, size: 0x8, addend: 0x0, symName: __ZNSt11_Deque_baseIP8TreeNodeSaIS1_EE17_M_deallocate_mapEPPS1_m, symObjAddr: 0x3254, symBinAddr: 0x100006B68, symSize: 0x60 }
  - { offset: 0x383CC, size: 0x8, addend: 0x0, symName: __ZNSt11_Deque_baseIP8TreeNodeSaIS1_EE16_M_destroy_nodesEPPS1_S5_, symObjAddr: 0x31F4, symBinAddr: 0x100006B08, symSize: 0x60 }
  - { offset: 0x3843C, size: 0x8, addend: 0x0, symName: __ZNSt11_Deque_baseIP8TreeNodeSaIS1_EE17_M_initialize_mapEm, symObjAddr: 0x3068, symBinAddr: 0x10000697C, symSize: 0x18C }
  - { offset: 0x384E4, size: 0x8, addend: 0x0, symName: __ZNSt11_Deque_baseIP8TreeNodeSaIS1_EE11_Deque_implC1Ev, symObjAddr: 0x3030, symBinAddr: 0x100006944, symSize: 0x38 }
  - { offset: 0x3858C, size: 0x8, addend: 0x0, symName: __ZNSt12_Vector_baseISt6vectorIiSaIiEESaIS2_EE19_M_get_Tp_allocatorEv, symObjAddr: 0x301C, symBinAddr: 0x100006930, symSize: 0x14 }
  - { offset: 0x385B6, size: 0x8, addend: 0x0, symName: __ZNSt12_Vector_baseISt6vectorIiSaIiEESaIS2_EE13_M_deallocateEPS2_m, symObjAddr: 0x2FC4, symBinAddr: 0x1000068D8, symSize: 0x58 }
  - { offset: 0x3865C, size: 0x8, addend: 0x0, symName: __ZNSt15__new_allocatorISt6vectorIiSaIiEEED2Ev, symObjAddr: 0x2FB0, symBinAddr: 0x1000068C4, symSize: 0x14 }
  - { offset: 0x3869C, size: 0x8, addend: 0x0, symName: __ZNSt12_Vector_baseISt6vectorIiSaIiEESaIS2_EE17_Vector_impl_dataC2Ev, symObjAddr: 0x2F84, symBinAddr: 0x100006898, symSize: 0x2C }
  - { offset: 0x386D8, size: 0x8, addend: 0x0, symName: __ZNSt5dequeIP8TreeNodeSaIS1_EE15_M_destroy_dataESt15_Deque_iteratorIS1_RS1_PS1_ES7_RKS2_, symObjAddr: 0x2F64, symBinAddr: 0x100006878, symSize: 0x20 }
  - { offset: 0x38733, size: 0x8, addend: 0x0, symName: __ZNSt11_Deque_baseIP8TreeNodeSaIS1_EE19_M_get_Tp_allocatorEv, symObjAddr: 0x2F50, symBinAddr: 0x100006864, symSize: 0x14 }
  - { offset: 0x3875D, size: 0x8, addend: 0x0, symName: __ZNSt5dequeIP8TreeNodeSaIS1_EE3endEv, symObjAddr: 0x2F18, symBinAddr: 0x10000682C, symSize: 0x38 }
  - { offset: 0x38787, size: 0x8, addend: 0x0, symName: __ZNSt5dequeIP8TreeNodeSaIS1_EE5beginEv, symObjAddr: 0x2EE0, symBinAddr: 0x1000067F4, symSize: 0x38 }
  - { offset: 0x387D5, size: 0x8, addend: 0x0, symName: __ZNSt15__new_allocatorIcED2Ev, symObjAddr: 0x2ECC, symBinAddr: 0x1000067E0, symSize: 0x14 }
  - { offset: 0x38811, size: 0x8, addend: 0x0, symName: __ZNKSt6vectorIiSaIiEE4sizeEv, symObjAddr: 0x2EA4, symBinAddr: 0x1000067B8, symSize: 0x28 }
  - { offset: 0x3883B, size: 0x8, addend: 0x0, symName: __ZNSt6vectorIS_IiSaIiEESaIS1_EEixEm, symObjAddr: 0x2E70, symBinAddr: 0x100006784, symSize: 0x34 }
  - { offset: 0x38876, size: 0x8, addend: 0x0, symName: __ZNKSt6vectorIS_IiSaIiEESaIS1_EE4sizeEv, symObjAddr: 0x2E3C, symBinAddr: 0x100006750, symSize: 0x34 }
  - { offset: 0x388E4, size: 0x8, addend: 0x0, symName: __ZNSt7__cxx1112basic_stringIcSt11char_traitsIcESaIcEEC1IS3_EEmcRKS3_, symObjAddr: 0x2DC8, symBinAddr: 0x1000066DC, symSize: 0x74 }
  - { offset: 0x38925, size: 0x8, addend: 0x0, symName: __ZNSt6vectorIiSaIiEE6insertISt23_Rb_tree_const_iteratorIiEvEEN9__gnu_cxx17__normal_iteratorIPiS1_EENS6_IPKiS1_EET_SC_, symObjAddr: 0x2D38, symBinAddr: 0x10000664C, symSize: 0x90 }
  - { offset: 0x389F0, size: 0x8, addend: 0x0, symName: __ZN9__gnu_cxx17__normal_iteratorIPKiSt6vectorIiSaIiEEEC1IPivEERKNS0_IT_S5_EE, symObjAddr: 0x2D08, symBinAddr: 0x10000661C, symSize: 0x30 }
  - { offset: 0x38A28, size: 0x8, addend: 0x0, symName: __ZNKSt8multisetIiSt4lessIiESaIiEE3endEv, symObjAddr: 0x2CEC, symBinAddr: 0x100006600, symSize: 0x1C }
  - { offset: 0x38A52, size: 0x8, addend: 0x0, symName: __ZNKSt8multisetIiSt4lessIiESaIiEE5beginEv, symObjAddr: 0x2CD0, symBinAddr: 0x1000065E4, symSize: 0x1C }
  - { offset: 0x38A7C, size: 0x8, addend: 0x0, symName: __ZNSt6vectorIiSaIiEE3endEv, symObjAddr: 0x2CA8, symBinAddr: 0x1000065BC, symSize: 0x28 }
  - { offset: 0x38ACA, size: 0x8, addend: 0x0, symName: __ZNSt8_Rb_treeIiiSt9_IdentityIiESt4lessIiESaIiEED1Ev, symObjAddr: 0x2C74, symBinAddr: 0x100006588, symSize: 0x34 }
  - { offset: 0x38B18, size: 0x8, addend: 0x0, symName: __ZNSt8_Rb_treeIiiSt9_IdentityIiESt4lessIiESaIiEEC1ERKS5_, symObjAddr: 0x2BF0, symBinAddr: 0x100006504, symSize: 0x84 }
  - { offset: 0x38B6F, size: 0x8, addend: 0x0, symName: __ZNSt8_Rb_treeIiiSt9_IdentityIiESt4lessIiESaIiEE13_Rb_tree_implIS3_Lb1EED1Ev, symObjAddr: 0x2BC4, symBinAddr: 0x1000064D8, symSize: 0x2C }
  - { offset: 0x38BB9, size: 0x8, addend: 0x0, symName: __ZNKSt17_Rb_tree_iteratorISt4pairIKiSt8multisetIiSt4lessIiESaIiEEEEdeEv, symObjAddr: 0x2BA4, symBinAddr: 0x1000064B8, symSize: 0x20 }
  - { offset: 0x38BE3, size: 0x8, addend: 0x0, symName: __ZNSt17_Rb_tree_iteratorISt4pairIKiSt8multisetIiSt4lessIiESaIiEEEEppEv, symObjAddr: 0x2B74, symBinAddr: 0x100006488, symSize: 0x30 }
  - { offset: 0x38C09, size: 0x8, addend: 0x0, symName: __ZStneRKSt17_Rb_tree_iteratorISt4pairIKiSt8multisetIiSt4lessIiESaIiEEEESA_, symObjAddr: 0x2B44, symBinAddr: 0x100006458, symSize: 0x30 }
  - { offset: 0x38C48, size: 0x8, addend: 0x0, symName: __ZNSt3mapIiSt8multisetIiSt4lessIiESaIiEES2_SaISt4pairIKiS4_EEE3endEv, symObjAddr: 0x2B28, symBinAddr: 0x10000643C, symSize: 0x1C }
  - { offset: 0x38C72, size: 0x8, addend: 0x0, symName: __ZNSt3mapIiSt8multisetIiSt4lessIiESaIiEES2_SaISt4pairIKiS4_EEE5beginEv, symObjAddr: 0x2B0C, symBinAddr: 0x100006420, symSize: 0x1C }
  - { offset: 0x38CC0, size: 0x8, addend: 0x0, symName: __ZNSt8_Rb_treeIiSt4pairIKiSt8multisetIiSt4lessIiESaIiEEESt10_Select1stIS7_ES4_SaIS7_EED1Ev, symObjAddr: 0x2AD8, symBinAddr: 0x1000063EC, symSize: 0x34 }
  - { offset: 0x38D0E, size: 0x8, addend: 0x0, symName: __ZNSt8_Rb_treeIiSt4pairIKiSt8multisetIiSt4lessIiESaIiEEESt10_Select1stIS7_ES4_SaIS7_EEC1ERKSB_, symObjAddr: 0x2A54, symBinAddr: 0x100006368, symSize: 0x84 }
  - { offset: 0x38D65, size: 0x8, addend: 0x0, symName: __ZNSt8_Rb_treeIiSt4pairIKiSt8multisetIiSt4lessIiESaIiEEESt10_Select1stIS7_ES4_SaIS7_EE13_Rb_tree_implIS4_Lb1EED1Ev, symObjAddr: 0x2A28, symBinAddr: 0x10000633C, symSize: 0x2C }
  - { offset: 0x38DAF, size: 0x8, addend: 0x0, symName: __ZNKSt17_Rb_tree_iteratorISt4pairIKiSt3mapIiSt8multisetIiSt4lessIiESaIiEES5_SaIS0_IS1_S7_EEEEEdeEv, symObjAddr: 0x2A08, symBinAddr: 0x10000631C, symSize: 0x20 }
  - { offset: 0x38DD9, size: 0x8, addend: 0x0, symName: __ZNSt17_Rb_tree_iteratorISt4pairIKiSt3mapIiSt8multisetIiSt4lessIiESaIiEES5_SaIS0_IS1_S7_EEEEEppEv, symObjAddr: 0x29D8, symBinAddr: 0x1000062EC, symSize: 0x30 }
  - { offset: 0x38DFF, size: 0x8, addend: 0x0, symName: __ZStneRKSt17_Rb_tree_iteratorISt4pairIKiSt3mapIiSt8multisetIiSt4lessIiESaIiEES5_SaIS0_IS1_S7_EEEEESE_, symObjAddr: 0x29A8, symBinAddr: 0x1000062BC, symSize: 0x30 }
  - { offset: 0x38E3E, size: 0x8, addend: 0x0, symName: __ZNSt3mapIiS_IiSt8multisetIiSt4lessIiESaIiEES2_SaISt4pairIKiS4_EEES2_SaIS5_IS6_S9_EEE3endEv, symObjAddr: 0x298C, symBinAddr: 0x1000062A0, symSize: 0x1C }
  - { offset: 0x38E68, size: 0x8, addend: 0x0, symName: __ZNSt3mapIiS_IiSt8multisetIiSt4lessIiESaIiEES2_SaISt4pairIKiS4_EEES2_SaIS5_IS6_S9_EEE5beginEv, symObjAddr: 0x2970, symBinAddr: 0x100006284, symSize: 0x1C }
  - { offset: 0x38E92, size: 0x8, addend: 0x0, symName: __ZNSt8multisetIiSt4lessIiESaIiEE6insertERKi, symObjAddr: 0x2938, symBinAddr: 0x10000624C, symSize: 0x38 }
  - { offset: 0x38ECD, size: 0x8, addend: 0x0, symName: __ZNSt3mapIiSt8multisetIiSt4lessIiESaIiEES2_SaISt4pairIKiS4_EEEixERS6_, symObjAddr: 0x284C, symBinAddr: 0x100006160, symSize: 0xEC }
  - { offset: 0x38F19, size: 0x8, addend: 0x0, symName: __ZNSt3mapIiS_IiSt8multisetIiSt4lessIiESaIiEES2_SaISt4pairIKiS4_EEES2_SaIS5_IS6_S9_EEEixERS6_, symObjAddr: 0x2760, symBinAddr: 0x100006074, symSize: 0xEC }
  - { offset: 0x38F65, size: 0x8, addend: 0x0, symName: __ZNSt5queueISt4pairIP8TreeNodeS0_IiiEESt5dequeIS4_SaIS4_EEE3popEv, symObjAddr: 0x2740, symBinAddr: 0x100006054, symSize: 0x20 }
  - { offset: 0x38F8F, size: 0x8, addend: 0x0, symName: __ZNSt5queueISt4pairIP8TreeNodeS0_IiiEESt5dequeIS4_SaIS4_EEE5frontEv, symObjAddr: 0x2724, symBinAddr: 0x100006038, symSize: 0x1C }
  - { offset: 0x38FB9, size: 0x8, addend: 0x0, symName: __ZNKSt5queueISt4pairIP8TreeNodeS0_IiiEESt5dequeIS4_SaIS4_EEE5emptyEv, symObjAddr: 0x2708, symBinAddr: 0x10000601C, symSize: 0x1C }
  - { offset: 0x38FE3, size: 0x8, addend: 0x0, symName: __ZNSt5queueISt4pairIP8TreeNodeS0_IiiEESt5dequeIS4_SaIS4_EEE4pushEOS4_, symObjAddr: 0x26CC, symBinAddr: 0x100005FE0, symSize: 0x3C }
  - { offset: 0x39066, size: 0x8, addend: 0x0, symName: __ZNSt4pairIP8TreeNodeS_IiiEEC1IS1_S2_Lb1EEERKS1_RKS2_, symObjAddr: 0x2690, symBinAddr: 0x100005FA4, symSize: 0x3C }
  - { offset: 0x390F8, size: 0x8, addend: 0x0, symName: __ZNSt4pairIiiEC1IiiLb1EEEOT_OT0_, symObjAddr: 0x2648, symBinAddr: 0x100005F5C, symSize: 0x48 }
  - { offset: 0x39166, size: 0x8, addend: 0x0, symName: __ZNSt5dequeISt4pairIP8TreeNodeS0_IiiEESaIS4_EED1Ev, symObjAddr: 0x25E0, symBinAddr: 0x100005EF4, symSize: 0x68 }
  - { offset: 0x391B5, size: 0x8, addend: 0x0, symName: __ZNSt5queueISt4pairIP8TreeNodeS0_IiiEESt5dequeIS4_SaIS4_EEEC1IS7_vEEv, symObjAddr: 0x25A4, symBinAddr: 0x100005EB8, symSize: 0x3C }
  - { offset: 0x39203, size: 0x8, addend: 0x0, symName: __ZNSt5dequeISt4pairIP8TreeNodeS0_IiiEESaIS4_EEC1Ev, symObjAddr: 0x2584, symBinAddr: 0x100005E98, symSize: 0x20 }
  - { offset: 0x3924D, size: 0x8, addend: 0x0, symName: __ZNSt8_Rb_treeIiSt4pairIKiSt3mapIiSt8multisetIiSt4lessIiESaIiEES5_SaIS0_IS1_S7_EEEESt10_Select1stISB_ES5_SaISB_EED1Ev, symObjAddr: 0x2550, symBinAddr: 0x100005E64, symSize: 0x34 }
  - { offset: 0x392AD, size: 0x8, addend: 0x0, symName: __ZNSt8_Rb_treeIiSt4pairIKiSt3mapIiSt8multisetIiSt4lessIiESaIiEES5_SaIS0_IS1_S7_EEEESt10_Select1stISB_ES5_SaISB_EE13_Rb_tree_implIS5_Lb1EEC1Ev, symObjAddr: 0x250C, symBinAddr: 0x100005E20, symSize: 0x44 }
  - { offset: 0x3931A, size: 0x8, addend: 0x0, symName: __ZNSt5stackIiSt5dequeIiSaIiEEE3popEv, symObjAddr: 0x24EC, symBinAddr: 0x100005E00, symSize: 0x20 }
  - { offset: 0x39344, size: 0x8, addend: 0x0, symName: __ZNSt5stackIiSt5dequeIiSaIiEEE3topEv, symObjAddr: 0x24D0, symBinAddr: 0x100005DE4, symSize: 0x1C }
  - { offset: 0x3936E, size: 0x8, addend: 0x0, symName: __ZNKSt5stackIiSt5dequeIiSaIiEEE5emptyEv, symObjAddr: 0x24B4, symBinAddr: 0x100005DC8, symSize: 0x1C }
  - { offset: 0x393BC, size: 0x8, addend: 0x0, symName: __ZNSt5dequeIiSaIiEED1Ev, symObjAddr: 0x244C, symBinAddr: 0x100005D60, symSize: 0x68 }
  - { offset: 0x3940B, size: 0x8, addend: 0x0, symName: __ZNSt5stackIiSt5dequeIiSaIiEEEC1IS2_vEEv, symObjAddr: 0x2410, symBinAddr: 0x100005D24, symSize: 0x3C }
  - { offset: 0x39459, size: 0x8, addend: 0x0, symName: __ZNSt5dequeIiSaIiEEC1Ev, symObjAddr: 0x23F0, symBinAddr: 0x100005D04, symSize: 0x20 }
  - { offset: 0x394A6, size: 0x8, addend: 0x0, symName: __ZNSt12_Vector_baseIiSaIiEE12_Vector_implC1EOS2_, symObjAddr: 0x2384, symBinAddr: 0x100005C98, symSize: 0x6C }
  - { offset: 0x3952D, size: 0x8, addend: 0x0, symName: __ZNSt5stackIiSt5dequeIiSaIiEEE4pushERKi, symObjAddr: 0x235C, symBinAddr: 0x100005C70, symSize: 0x28 }
  - { offset: 0x39568, size: 0x8, addend: 0x0, symName: __ZNSt6vectorIiSaIiEEixEm, symObjAddr: 0x2334, symBinAddr: 0x100005C48, symSize: 0x28 }
  - { offset: 0x395D9, size: 0x8, addend: 0x0, symName: __ZNSt6vectorIiSaIiEEC1EmRKS0_, symObjAddr: 0x22CC, symBinAddr: 0x100005BE0, symSize: 0x68 }
  - { offset: 0x3964E, size: 0x8, addend: 0x0, symName: __ZNSt12_Vector_baseISt6vectorIiSaIiEESaIS2_EE12_Vector_implC1EOS5_, symObjAddr: 0x2260, symBinAddr: 0x100005B74, symSize: 0x6C }
  - { offset: 0x396D5, size: 0x8, addend: 0x0, symName: __ZNSt6vectorIS_IiSaIiEESaIS1_EE9push_backERKS1_, symObjAddr: 0x2164, symBinAddr: 0x100005A78, symSize: 0xFC }
  - { offset: 0x39774, size: 0x8, addend: 0x0, symName: __ZNSt5dequeIP8TreeNodeSaIS1_EE10push_frontERKS1_, symObjAddr: 0x2098, symBinAddr: 0x1000059AC, symSize: 0xCC }
  - { offset: 0x3981B, size: 0x8, addend: 0x0, symName: __ZNSt5dequeIP8TreeNodeSaIS1_EE8pop_backEv, symObjAddr: 0x2014, symBinAddr: 0x100005928, symSize: 0x84 }
  - { offset: 0x3989F, size: 0x8, addend: 0x0, symName: __ZNSt5dequeIP8TreeNodeSaIS1_EE4backEv, symObjAddr: 0x1FE0, symBinAddr: 0x1000058F4, symSize: 0x34 }
  - { offset: 0x398DA, size: 0x8, addend: 0x0, symName: __ZNSt6vectorIiSaIiEE9push_backERKi, symObjAddr: 0x1F18, symBinAddr: 0x10000582C, symSize: 0xC8 }
  - { offset: 0x39981, size: 0x8, addend: 0x0, symName: __ZNSt5dequeIP8TreeNodeSaIS1_EE9pop_frontEv, symObjAddr: 0x1E90, symBinAddr: 0x1000057A4, symSize: 0x88 }
  - { offset: 0x39A05, size: 0x8, addend: 0x0, symName: __ZNSt5dequeIP8TreeNodeSaIS1_EE5frontEv, symObjAddr: 0x1E64, symBinAddr: 0x100005778, symSize: 0x2C }
  - { offset: 0x39A2F, size: 0x8, addend: 0x0, symName: __ZNKSt5dequeIP8TreeNodeSaIS1_EE4sizeEv, symObjAddr: 0x1E34, symBinAddr: 0x100005748, symSize: 0x30 }
  - { offset: 0x39A7D, size: 0x8, addend: 0x0, symName: __ZNSt6vectorIiSaIiEED1Ev, symObjAddr: 0x1DD8, symBinAddr: 0x1000056EC, symSize: 0x5C }
  - { offset: 0x39AFD, size: 0x8, addend: 0x0, symName: __ZNSt12_Vector_baseIiSaIiEED2Ev, symObjAddr: 0x1D88, symBinAddr: 0x10000569C, symSize: 0x50 }
  - { offset: 0x39B5D, size: 0x8, addend: 0x0, symName: __ZNSt12_Vector_baseIiSaIiEE12_Vector_implC1Ev, symObjAddr: 0x1D50, symBinAddr: 0x100005664, symSize: 0x38 }
  - { offset: 0x39BC9, size: 0x8, addend: 0x0, symName: __ZNKSt5dequeIP8TreeNodeSaIS1_EE5emptyEv, symObjAddr: 0x1D20, symBinAddr: 0x100005634, symSize: 0x30 }
  - { offset: 0x39BF3, size: 0x8, addend: 0x0, symName: __ZNSt5dequeIP8TreeNodeSaIS1_EE9push_backERKS1_, symObjAddr: 0x1C54, symBinAddr: 0x100005568, symSize: 0xCC }
  - { offset: 0x39CBE, size: 0x8, addend: 0x0, symName: __ZNSt11_Deque_baseIP8TreeNodeSaIS1_EED2Ev, symObjAddr: 0x1BE8, symBinAddr: 0x1000054FC, symSize: 0x6C }
  - { offset: 0x39CFE, size: 0x8, addend: 0x0, symName: __ZNSt11_Deque_baseIP8TreeNodeSaIS1_EEC2Ev, symObjAddr: 0x1BA0, symBinAddr: 0x1000054B4, symSize: 0x48 }
  - { offset: 0x39D4C, size: 0x8, addend: 0x0, symName: __ZNSt11_Deque_baseIP8TreeNodeSaIS1_EE11_Deque_implD1Ev, symObjAddr: 0x1B74, symBinAddr: 0x100005488, symSize: 0x2C }
  - { offset: 0x39DBA, size: 0x8, addend: 0x0, symName: __ZNSt6vectorIS_IiSaIiEESaIS1_EED1Ev, symObjAddr: 0x1B18, symBinAddr: 0x10000542C, symSize: 0x5C }
  - { offset: 0x39E3A, size: 0x8, addend: 0x0, symName: __ZNSt12_Vector_baseISt6vectorIiSaIiEESaIS2_EED2Ev, symObjAddr: 0x1ABC, symBinAddr: 0x1000053D0, symSize: 0x5C }
  - { offset: 0x39E9A, size: 0x8, addend: 0x0, symName: __ZNSt12_Vector_baseISt6vectorIiSaIiEESaIS2_EE12_Vector_implC1Ev, symObjAddr: 0x1A84, symBinAddr: 0x100005398, symSize: 0x38 }
  - { offset: 0x39F06, size: 0x8, addend: 0x0, symName: __ZNSt5queueIP8TreeNodeSt5dequeIS1_SaIS1_EEE3popEv, symObjAddr: 0x1A64, symBinAddr: 0x100005378, symSize: 0x20 }
  - { offset: 0x39F30, size: 0x8, addend: 0x0, symName: __ZNSt5queueIP8TreeNodeSt5dequeIS1_SaIS1_EEE5frontEv, symObjAddr: 0x1A48, symBinAddr: 0x10000535C, symSize: 0x1C }
  - { offset: 0x39F5A, size: 0x8, addend: 0x0, symName: __ZNKSt5queueIP8TreeNodeSt5dequeIS1_SaIS1_EEE4sizeEv, symObjAddr: 0x1A2C, symBinAddr: 0x100005340, symSize: 0x1C }
  - { offset: 0x39F84, size: 0x8, addend: 0x0, symName: __ZNKSt5queueIP8TreeNodeSt5dequeIS1_SaIS1_EEE5emptyEv, symObjAddr: 0x1A10, symBinAddr: 0x100005324, symSize: 0x1C }
  - { offset: 0x39FAE, size: 0x8, addend: 0x0, symName: __ZNSt5queueIP8TreeNodeSt5dequeIS1_SaIS1_EEE4pushERKS1_, symObjAddr: 0x19E8, symBinAddr: 0x1000052FC, symSize: 0x28 }
  - { offset: 0x3A00D, size: 0x8, addend: 0x0, symName: __ZNSt5dequeIP8TreeNodeSaIS1_EED1Ev, symObjAddr: 0x1980, symBinAddr: 0x100005294, symSize: 0x68 }
  - { offset: 0x3A05C, size: 0x8, addend: 0x0, symName: __ZNSt5queueIP8TreeNodeSt5dequeIS1_SaIS1_EEEC1IS4_vEEv, symObjAddr: 0x1944, symBinAddr: 0x100005258, symSize: 0x3C }
  - { offset: 0x3A093, size: 0x8, addend: 0x0, symName: __ZSt7forwardIiEOT_RNSt16remove_referenceIS0_E4typeE, symObjAddr: 0x1930, symBinAddr: 0x100005244, symSize: 0x14 }
  - { offset: 0x3A0C5, size: 0x8, addend: 0x0, symName: __ZSt3maxImERKT_S2_S2_, symObjAddr: 0x18F8, symBinAddr: 0x10000520C, symSize: 0x38 }
  - { offset: 0x3A16A, size: 0x8, addend: 0x0, symName: __ZNSt7__cxx1112basic_stringIcSt11char_traitsIcESaIcEE12_Alloc_hiderD1Ev, symObjAddr: 0x18CC, symBinAddr: 0x1000051E0, symSize: 0x2C }
  - { offset: 0x3A1B7, size: 0x8, addend: 0x0, symName: _main, symObjAddr: 0x15F8, symBinAddr: 0x100004F0C, symSize: 0x2D4 }
  - { offset: 0x3A353, size: 0x8, addend: 0x0, symName: __Z17verticalTraversalP8TreeNode, symObjAddr: 0x1298, symBinAddr: 0x100004BAC, symSize: 0x360 }
  - { offset: 0x3A4D6, size: 0x8, addend: 0x0, symName: __ZNSt4pairIKiSt8multisetIiSt4lessIiESaIiEEED1Ev, symObjAddr: 0x1274, symBinAddr: 0x100004B88, symSize: 0x24 }
  - { offset: 0x3A51B, size: 0x8, addend: 0x0, symName: __ZNSt4pairIKiSt8multisetIiSt4lessIiESaIiEEEC1ERKS6_, symObjAddr: 0x122C, symBinAddr: 0x100004B40, symSize: 0x48 }
  - { offset: 0x3A56E, size: 0x8, addend: 0x0, symName: __ZNSt8multisetIiSt4lessIiESaIiEED1Ev, symObjAddr: 0x120C, symBinAddr: 0x100004B20, symSize: 0x20 }
  - { offset: 0x3A5B3, size: 0x8, addend: 0x0, symName: __ZNSt8multisetIiSt4lessIiESaIiEEC1ERKS3_, symObjAddr: 0x11E4, symBinAddr: 0x100004AF8, symSize: 0x28 }
  - { offset: 0x3A60A, size: 0x8, addend: 0x0, symName: __ZNSt4pairIKiSt3mapIiSt8multisetIiSt4lessIiESaIiEES4_SaIS_IS0_S6_EEEED1Ev, symObjAddr: 0x11C0, symBinAddr: 0x100004AD4, symSize: 0x24 }
  - { offset: 0x3A64F, size: 0x8, addend: 0x0, symName: __ZNSt4pairIKiSt3mapIiSt8multisetIiSt4lessIiESaIiEES4_SaIS_IS0_S6_EEEEC1ERKSA_, symObjAddr: 0x1178, symBinAddr: 0x100004A8C, symSize: 0x48 }
  - { offset: 0x3A6A2, size: 0x8, addend: 0x0, symName: __ZNSt3mapIiSt8multisetIiSt4lessIiESaIiEES2_SaISt4pairIKiS4_EEED1Ev, symObjAddr: 0x1158, symBinAddr: 0x100004A6C, symSize: 0x20 }
  - { offset: 0x3A6E7, size: 0x8, addend: 0x0, symName: __ZNSt3mapIiSt8multisetIiSt4lessIiESaIiEES2_SaISt4pairIKiS4_EEEC1ERKS9_, symObjAddr: 0x1130, symBinAddr: 0x100004A44, symSize: 0x28 }
  - { offset: 0x3A73D, size: 0x8, addend: 0x0, symName: __ZNSt5queueISt4pairIP8TreeNodeS0_IiiEESt5dequeIS4_SaIS4_EEED1Ev, symObjAddr: 0x1110, symBinAddr: 0x100004A24, symSize: 0x20 }
  - { offset: 0x3A787, size: 0x8, addend: 0x0, symName: __ZNSt3mapIiS_IiSt8multisetIiSt4lessIiESaIiEES2_SaISt4pairIKiS4_EEES2_SaIS5_IS6_S9_EEED1Ev, symObjAddr: 0x10F0, symBinAddr: 0x100004A04, symSize: 0x20 }
  - { offset: 0x3A7C7, size: 0x8, addend: 0x0, symName: __ZNSt3mapIiS_IiSt8multisetIiSt4lessIiESaIiEES2_SaISt4pairIKiS4_EEES2_SaIS5_IS6_S9_EEEC1Ev, symObjAddr: 0x10D0, symBinAddr: 0x1000049E4, symSize: 0x20 }
  - { offset: 0x3A807, size: 0x8, addend: 0x0, symName: __ZNSt8_Rb_treeIiSt4pairIKiSt3mapIiSt8multisetIiSt4lessIiESaIiEES5_SaIS0_IS1_S7_EEEESt10_Select1stISB_ES5_SaISB_EEC1Ev, symObjAddr: 0x10B0, symBinAddr: 0x1000049C4, symSize: 0x20 }
  - { offset: 0x3A855, size: 0x8, addend: 0x0, symName: __ZNSt8_Rb_treeIiSt4pairIKiSt3mapIiSt8multisetIiSt4lessIiESaIiEES5_SaIS0_IS1_S7_EEEESt10_Select1stISB_ES5_SaISB_EE13_Rb_tree_implIS5_Lb1EED1Ev, symObjAddr: 0x1084, symBinAddr: 0x100004998, symSize: 0x2C }
  - { offset: 0x3A8A7, size: 0x8, addend: 0x0, symName: __Z17boundaryTraversalP8TreeNode, symObjAddr: 0xF78, symBinAddr: 0x10000488C, symSize: 0x10C }
  - { offset: 0x3A920, size: 0x8, addend: 0x0, symName: __ZNSt5stackIiSt5dequeIiSaIiEEED1Ev, symObjAddr: 0xF58, symBinAddr: 0x10000486C, symSize: 0x20 }
  - { offset: 0x3A965, size: 0x8, addend: 0x0, symName: __ZNSt6vectorIiSaIiEEC1EOS1_, symObjAddr: 0xF30, symBinAddr: 0x100004844, symSize: 0x28 }
  - { offset: 0x3A9B3, size: 0x8, addend: 0x0, symName: __ZNSt12_Vector_baseIiSaIiEEC2EOS1_, symObjAddr: 0xF08, symBinAddr: 0x10000481C, symSize: 0x28 }
  - { offset: 0x3A9E6, size: 0x8, addend: 0x0, symName: __Z13rightBoundaryP8TreeNodeRSt5stackIiSt5dequeIiSaIiEEE, symObjAddr: 0xE60, symBinAddr: 0x100004774, symSize: 0xA8 }
  - { offset: 0x3AA29, size: 0x8, addend: 0x0, symName: __Z16leafNodesInOrderP8TreeNodeRSt6vectorIiSaIiEE, symObjAddr: 0xDE0, symBinAddr: 0x1000046F4, symSize: 0x80 }
  - { offset: 0x3AA6C, size: 0x8, addend: 0x0, symName: __Z12leftBoundaryP8TreeNodeRSt6vectorIiSaIiEE, symObjAddr: 0xD38, symBinAddr: 0x10000464C, symSize: 0xA8 }
  - { offset: 0x3AAB2, size: 0x8, addend: 0x0, symName: __Z19zigzagLevelOrderTUFP8TreeNode, symObjAddr: 0xB2C, symBinAddr: 0x100004440, symSize: 0x20C }
  - { offset: 0x3AC1B, size: 0x8, addend: 0x0, symName: __Z16zigzagLevelOrderP8TreeNode, symObjAddr: 0x914, symBinAddr: 0x100004228, symSize: 0x218 }
  - { offset: 0x3AD2A, size: 0x8, addend: 0x0, symName: __ZNSt6vectorIS_IiSaIiEESaIS1_EEC1EOS3_, symObjAddr: 0x8EC, symBinAddr: 0x100004200, symSize: 0x28 }
  - { offset: 0x3AD78, size: 0x8, addend: 0x0, symName: __ZNSt12_Vector_baseISt6vectorIiSaIiEESaIS2_EEC2EOS4_, symObjAddr: 0x8C4, symBinAddr: 0x1000041D8, symSize: 0x28 }
  - { offset: 0x3ADC1, size: 0x8, addend: 0x0, symName: __ZNSt6vectorIiSaIiEEC1Ev, symObjAddr: 0x8A4, symBinAddr: 0x1000041B8, symSize: 0x20 }
  - { offset: 0x3AE01, size: 0x8, addend: 0x0, symName: __ZNSt12_Vector_baseIiSaIiEEC2Ev, symObjAddr: 0x884, symBinAddr: 0x100004198, symSize: 0x20 }
  - { offset: 0x3AE4E, size: 0x8, addend: 0x0, symName: __ZNSt12_Vector_baseIiSaIiEE12_Vector_implD1Ev, symObjAddr: 0x858, symBinAddr: 0x10000416C, symSize: 0x2C }
  - { offset: 0x3AEB1, size: 0x8, addend: 0x0, symName: __ZNSt5dequeIP8TreeNodeSaIS1_EEC1Ev, symObjAddr: 0x838, symBinAddr: 0x10000414C, symSize: 0x20 }
  - { offset: 0x3AEF1, size: 0x8, addend: 0x0, symName: __ZNSt6vectorIS_IiSaIiEESaIS1_EEC1Ev, symObjAddr: 0x818, symBinAddr: 0x10000412C, symSize: 0x20 }
  - { offset: 0x3AF31, size: 0x8, addend: 0x0, symName: __ZNSt12_Vector_baseISt6vectorIiSaIiEESaIS2_EEC2Ev, symObjAddr: 0x7F8, symBinAddr: 0x10000410C, symSize: 0x20 }
  - { offset: 0x3AF7E, size: 0x8, addend: 0x0, symName: __ZNSt12_Vector_baseISt6vectorIiSaIiEESaIS2_EE12_Vector_implD1Ev, symObjAddr: 0x7CC, symBinAddr: 0x1000040E0, symSize: 0x2C }
  - { offset: 0x3AFCE, size: 0x8, addend: 0x0, symName: __Z10maxPathSumP8TreeNode, symObjAddr: 0x788, symBinAddr: 0x10000409C, symSize: 0x44 }
  - { offset: 0x3B012, size: 0x8, addend: 0x0, symName: __Z10maxPathSumP8TreeNodeRi, symObjAddr: 0x650, symBinAddr: 0x100003F64, symSize: 0x138 }
  - { offset: 0x3B076, size: 0x8, addend: 0x0, symName: __Z20diameterOfBinaryTreeP8TreeNode, symObjAddr: 0x610, symBinAddr: 0x100003F24, symSize: 0x40 }
  - { offset: 0x3B0BA, size: 0x8, addend: 0x0, symName: __Z20diameterOfBinaryTreeP8TreeNodeRi, symObjAddr: 0x550, symBinAddr: 0x100003E64, symSize: 0xC0 }
  - { offset: 0x3B12E, size: 0x8, addend: 0x0, symName: __Z10isBalancedP8TreeNode, symObjAddr: 0x50C, symBinAddr: 0x100003E20, symSize: 0x44 }
  - { offset: 0x3B172, size: 0x8, addend: 0x0, symName: __Z22isBalancedHeightHelperP8TreeNode, symObjAddr: 0x45C, symBinAddr: 0x100003D70, symSize: 0xB0 }
  - { offset: 0x3B1D6, size: 0x8, addend: 0x0, symName: __Z16maxDepthOtherWayP8TreeNode, symObjAddr: 0x400, symBinAddr: 0x100003D14, symSize: 0x5C }
  - { offset: 0x3B21F, size: 0x8, addend: 0x0, symName: __ZSt3maxIiERKT_S2_S2_, symObjAddr: 0x3C8, symBinAddr: 0x100003CDC, symSize: 0x38 }
  - { offset: 0x3B26E, size: 0x8, addend: 0x0, symName: __Z17maxDepthRecursionP8TreeNode, symObjAddr: 0x384, symBinAddr: 0x100003C98, symSize: 0x44 }
  - { offset: 0x3B2AE, size: 0x8, addend: 0x0, symName: __Z8maxDepthP8TreeNodeiRi, symObjAddr: 0x2F4, symBinAddr: 0x100003C08, symSize: 0x90 }
  - { offset: 0x3B302, size: 0x8, addend: 0x0, symName: __Z8maxDepthP8TreeNode, symObjAddr: 0x1CC, symBinAddr: 0x100003AE0, symSize: 0x128 }
  - { offset: 0x3B3E1, size: 0x8, addend: 0x0, symName: __ZNSt5queueIP8TreeNodeSt5dequeIS1_SaIS1_EEED1Ev, symObjAddr: 0x1AC, symBinAddr: 0x100003AC0, symSize: 0x20 }
  - { offset: 0x3B42E, size: 0x8, addend: 0x0, symName: __ZN8TreeNodeC1Ei, symObjAddr: 0x178, symBinAddr: 0x100003A8C, symSize: 0x34 }
  - { offset: 0x3B45D, size: 0x8, addend: 0x0, symName: __ZNSt15_Rb_tree_header8_M_resetEv, symObjAddr: 0x13C, symBinAddr: 0x100003A50, symSize: 0x3C }
  - { offset: 0x3B4A1, size: 0x8, addend: 0x0, symName: __ZNSt15_Rb_tree_headerC2Ev, symObjAddr: 0x114, symBinAddr: 0x100003A28, symSize: 0x28 }
  - { offset: 0x3B4C3, size: 0x8, addend: 0x0, symName: __ZNSt18_Rb_tree_node_base10_S_maximumEPS_, symObjAddr: 0xE0, symBinAddr: 0x1000039F4, symSize: 0x34 }
  - { offset: 0x3B4EC, size: 0x8, addend: 0x0, symName: __ZNSt18_Rb_tree_node_base10_S_minimumEPS_, symObjAddr: 0xAC, symBinAddr: 0x1000039C0, symSize: 0x34 }
  - { offset: 0x3B515, size: 0x8, addend: 0x0, symName: __ZSt16__deque_buf_sizem, symObjAddr: 0x7C, symBinAddr: 0x100003990, symSize: 0x30 }
  - { offset: 0x3B53E, size: 0x8, addend: 0x0, symName: __ZSt3minImERKT_S2_S2_, symObjAddr: 0x44, symBinAddr: 0x100003958, symSize: 0x38 }
  - { offset: 0x3B587, size: 0x8, addend: 0x0, symName: __ZdlPvS_, symObjAddr: 0x2C, symBinAddr: 0x100003940, symSize: 0x18 }
  - { offset: 0x3B5BD, size: 0x8, addend: 0x0, symName: __ZnwmPv, symObjAddr: 0x14, symBinAddr: 0x100003928, symSize: 0x18 }
  - { offset: 0x3B5EF, size: 0x8, addend: 0x0, symName: __ZSt17__size_to_integerm, symObjAddr: 0x0, symBinAddr: 0x100003914, symSize: 0x14 }
...
